ARM GAS  C:\Users\g\AppData\Local\Temp\ccQQqWns.s 			page 1


   1              		.cpu cortex-m0
   2              		.fpu softvfp
   3              		.eabi_attribute 20, 1
   4              		.eabi_attribute 21, 1
   5              		.eabi_attribute 23, 3
   6              		.eabi_attribute 24, 1
   7              		.eabi_attribute 25, 1
   8              		.eabi_attribute 26, 1
   9              		.eabi_attribute 30, 2
  10              		.eabi_attribute 34, 0
  11              		.eabi_attribute 18, 4
  12              		.code	16
  13              		.file	"cyfitter_cfg.c"
  14              		.text
  15              	.Ltext0:
  16              		.cfi_sections	.debug_frame
  17              		.section	.text.SetAnalogRoutingPumps,"ax",%progbits
  18              		.align	2
  19              		.global	SetAnalogRoutingPumps
  20              		.code	16
  21              		.thumb_func
  22              		.type	SetAnalogRoutingPumps, %function
  23              	SetAnalogRoutingPumps:
  24              	.LFB6:
  25              		.file 1 "Generated_Source\\PSoC4\\cyfitter_cfg.c"
   1:Generated_Source\PSoC4/cyfitter_cfg.c **** /*******************************************************************************
   2:Generated_Source\PSoC4/cyfitter_cfg.c **** * File Name: cyfitter_cfg.c
   3:Generated_Source\PSoC4/cyfitter_cfg.c **** * 
   4:Generated_Source\PSoC4/cyfitter_cfg.c **** * PSoC Creator  4.0 Update 1
   5:Generated_Source\PSoC4/cyfitter_cfg.c **** *
   6:Generated_Source\PSoC4/cyfitter_cfg.c **** * Description:
   7:Generated_Source\PSoC4/cyfitter_cfg.c **** * This file contains device initialization code.
   8:Generated_Source\PSoC4/cyfitter_cfg.c **** * Except for the user defined sections in CyClockStartupError(), this file should not be modified.
   9:Generated_Source\PSoC4/cyfitter_cfg.c **** * This file is automatically generated by PSoC Creator.
  10:Generated_Source\PSoC4/cyfitter_cfg.c **** *
  11:Generated_Source\PSoC4/cyfitter_cfg.c **** ********************************************************************************
  12:Generated_Source\PSoC4/cyfitter_cfg.c **** * Copyright (c) 2007-2016 Cypress Semiconductor.  All rights reserved.
  13:Generated_Source\PSoC4/cyfitter_cfg.c **** * You may use this file only in accordance with the license, terms, conditions, 
  14:Generated_Source\PSoC4/cyfitter_cfg.c **** * disclaimers, and limitations in the end user license agreement accompanying 
  15:Generated_Source\PSoC4/cyfitter_cfg.c **** * the software package with which this file was provided.
  16:Generated_Source\PSoC4/cyfitter_cfg.c **** ********************************************************************************/
  17:Generated_Source\PSoC4/cyfitter_cfg.c **** 
  18:Generated_Source\PSoC4/cyfitter_cfg.c **** #include <string.h>
  19:Generated_Source\PSoC4/cyfitter_cfg.c **** #include "cytypes.h"
  20:Generated_Source\PSoC4/cyfitter_cfg.c **** #include "cydevice_trm.h"
  21:Generated_Source\PSoC4/cyfitter_cfg.c **** #include "cyfitter.h"
  22:Generated_Source\PSoC4/cyfitter_cfg.c **** #include "CyLib.h"
  23:Generated_Source\PSoC4/cyfitter_cfg.c **** #include "CyLFClk.h"
  24:Generated_Source\PSoC4/cyfitter_cfg.c **** #include "cyfitter_cfg.h"
  25:Generated_Source\PSoC4/cyfitter_cfg.c **** #include "cyapicallbacks.h"
  26:Generated_Source\PSoC4/cyfitter_cfg.c **** 
  27:Generated_Source\PSoC4/cyfitter_cfg.c **** 
  28:Generated_Source\PSoC4/cyfitter_cfg.c **** #if defined(__GNUC__) || defined(__ARMCC_VERSION)
  29:Generated_Source\PSoC4/cyfitter_cfg.c ****     #define CYPACKED 
  30:Generated_Source\PSoC4/cyfitter_cfg.c ****     #define CYPACKED_ATTR __attribute__ ((packed))
  31:Generated_Source\PSoC4/cyfitter_cfg.c ****     #define CYALIGNED __attribute__ ((aligned))
  32:Generated_Source\PSoC4/cyfitter_cfg.c ****     #define CY_CFG_UNUSED __attribute__ ((unused))
ARM GAS  C:\Users\g\AppData\Local\Temp\ccQQqWns.s 			page 2


  33:Generated_Source\PSoC4/cyfitter_cfg.c ****     #ifndef CY_CFG_SECTION
  34:Generated_Source\PSoC4/cyfitter_cfg.c ****         #define CY_CFG_SECTION __attribute__ ((section(".psocinit")))
  35:Generated_Source\PSoC4/cyfitter_cfg.c ****     #endif
  36:Generated_Source\PSoC4/cyfitter_cfg.c ****     
  37:Generated_Source\PSoC4/cyfitter_cfg.c ****     #if defined(__ARMCC_VERSION)
  38:Generated_Source\PSoC4/cyfitter_cfg.c ****         #define CY_CFG_MEMORY_BARRIER() __memory_changed()
  39:Generated_Source\PSoC4/cyfitter_cfg.c ****     #else
  40:Generated_Source\PSoC4/cyfitter_cfg.c ****         #define CY_CFG_MEMORY_BARRIER() __sync_synchronize()
  41:Generated_Source\PSoC4/cyfitter_cfg.c ****     #endif
  42:Generated_Source\PSoC4/cyfitter_cfg.c ****     
  43:Generated_Source\PSoC4/cyfitter_cfg.c **** #elif defined(__ICCARM__)
  44:Generated_Source\PSoC4/cyfitter_cfg.c ****     #include <intrinsics.h>
  45:Generated_Source\PSoC4/cyfitter_cfg.c **** 
  46:Generated_Source\PSoC4/cyfitter_cfg.c ****     #define CYPACKED __packed
  47:Generated_Source\PSoC4/cyfitter_cfg.c ****     #define CYPACKED_ATTR 
  48:Generated_Source\PSoC4/cyfitter_cfg.c ****     #define CYALIGNED _Pragma("data_alignment=4")
  49:Generated_Source\PSoC4/cyfitter_cfg.c ****     #define CY_CFG_UNUSED _Pragma("diag_suppress=Pe177")
  50:Generated_Source\PSoC4/cyfitter_cfg.c ****     #define CY_CFG_SECTION _Pragma("location=\".psocinit\"")
  51:Generated_Source\PSoC4/cyfitter_cfg.c ****     
  52:Generated_Source\PSoC4/cyfitter_cfg.c ****     #define CY_CFG_MEMORY_BARRIER() __DMB()
  53:Generated_Source\PSoC4/cyfitter_cfg.c ****     
  54:Generated_Source\PSoC4/cyfitter_cfg.c **** #else
  55:Generated_Source\PSoC4/cyfitter_cfg.c ****     #error Unsupported toolchain
  56:Generated_Source\PSoC4/cyfitter_cfg.c **** #endif
  57:Generated_Source\PSoC4/cyfitter_cfg.c **** 
  58:Generated_Source\PSoC4/cyfitter_cfg.c **** 
  59:Generated_Source\PSoC4/cyfitter_cfg.c **** CY_CFG_UNUSED
  60:Generated_Source\PSoC4/cyfitter_cfg.c **** static void CYMEMZERO(void *s, size_t n);
  61:Generated_Source\PSoC4/cyfitter_cfg.c **** CY_CFG_UNUSED
  62:Generated_Source\PSoC4/cyfitter_cfg.c **** static void CYMEMZERO(void *s, size_t n)
  63:Generated_Source\PSoC4/cyfitter_cfg.c **** {
  64:Generated_Source\PSoC4/cyfitter_cfg.c **** 	(void)memset(s, 0, n);
  65:Generated_Source\PSoC4/cyfitter_cfg.c **** }
  66:Generated_Source\PSoC4/cyfitter_cfg.c **** CY_CFG_UNUSED
  67:Generated_Source\PSoC4/cyfitter_cfg.c **** static void CYCONFIGCPY(void *dest, const void *src, size_t n);
  68:Generated_Source\PSoC4/cyfitter_cfg.c **** CY_CFG_UNUSED
  69:Generated_Source\PSoC4/cyfitter_cfg.c **** static void CYCONFIGCPY(void *dest, const void *src, size_t n)
  70:Generated_Source\PSoC4/cyfitter_cfg.c **** {
  71:Generated_Source\PSoC4/cyfitter_cfg.c **** 	(void)memcpy(dest, src, n);
  72:Generated_Source\PSoC4/cyfitter_cfg.c **** }
  73:Generated_Source\PSoC4/cyfitter_cfg.c **** CY_CFG_UNUSED
  74:Generated_Source\PSoC4/cyfitter_cfg.c **** static void CYCONFIGCPYCODE(void *dest, const void *src, size_t n);
  75:Generated_Source\PSoC4/cyfitter_cfg.c **** CY_CFG_UNUSED
  76:Generated_Source\PSoC4/cyfitter_cfg.c **** static void CYCONFIGCPYCODE(void *dest, const void *src, size_t n)
  77:Generated_Source\PSoC4/cyfitter_cfg.c **** {
  78:Generated_Source\PSoC4/cyfitter_cfg.c **** 	(void)memcpy(dest, src, n);
  79:Generated_Source\PSoC4/cyfitter_cfg.c **** }
  80:Generated_Source\PSoC4/cyfitter_cfg.c **** 
  81:Generated_Source\PSoC4/cyfitter_cfg.c **** 
  82:Generated_Source\PSoC4/cyfitter_cfg.c **** 
  83:Generated_Source\PSoC4/cyfitter_cfg.c **** 
  84:Generated_Source\PSoC4/cyfitter_cfg.c **** /* Clock startup error codes                                                   */
  85:Generated_Source\PSoC4/cyfitter_cfg.c **** #define CYCLOCKSTART_NO_ERROR    0u
  86:Generated_Source\PSoC4/cyfitter_cfg.c **** #define CYCLOCKSTART_XTAL_ERROR  1u
  87:Generated_Source\PSoC4/cyfitter_cfg.c **** #define CYCLOCKSTART_32KHZ_ERROR 2u
  88:Generated_Source\PSoC4/cyfitter_cfg.c **** #define CYCLOCKSTART_PLL_ERROR   3u
  89:Generated_Source\PSoC4/cyfitter_cfg.c **** 
ARM GAS  C:\Users\g\AppData\Local\Temp\ccQQqWns.s 			page 3


  90:Generated_Source\PSoC4/cyfitter_cfg.c **** 
  91:Generated_Source\PSoC4/cyfitter_cfg.c **** #ifdef CY_NEED_CYCLOCKSTARTUPERROR
  92:Generated_Source\PSoC4/cyfitter_cfg.c **** /*******************************************************************************
  93:Generated_Source\PSoC4/cyfitter_cfg.c **** * Function Name: CyClockStartupError
  94:Generated_Source\PSoC4/cyfitter_cfg.c **** ********************************************************************************
  95:Generated_Source\PSoC4/cyfitter_cfg.c **** * Summary:
  96:Generated_Source\PSoC4/cyfitter_cfg.c **** *  If an error is encountered during clock configuration (crystal startup error,
  97:Generated_Source\PSoC4/cyfitter_cfg.c **** *  PLL lock error, etc.), the system will end up here.  Unless reimplemented by
  98:Generated_Source\PSoC4/cyfitter_cfg.c **** *  the customer, this function will stop in an infinite loop.
  99:Generated_Source\PSoC4/cyfitter_cfg.c **** *
 100:Generated_Source\PSoC4/cyfitter_cfg.c **** * Parameters:
 101:Generated_Source\PSoC4/cyfitter_cfg.c **** *   void
 102:Generated_Source\PSoC4/cyfitter_cfg.c **** *
 103:Generated_Source\PSoC4/cyfitter_cfg.c **** * Return:
 104:Generated_Source\PSoC4/cyfitter_cfg.c **** *   void
 105:Generated_Source\PSoC4/cyfitter_cfg.c **** *
 106:Generated_Source\PSoC4/cyfitter_cfg.c **** *******************************************************************************/
 107:Generated_Source\PSoC4/cyfitter_cfg.c **** CY_CFG_UNUSED
 108:Generated_Source\PSoC4/cyfitter_cfg.c **** static void CyClockStartupError(uint8 errorCode);
 109:Generated_Source\PSoC4/cyfitter_cfg.c **** CY_CFG_UNUSED
 110:Generated_Source\PSoC4/cyfitter_cfg.c **** static void CyClockStartupError(uint8 errorCode)
 111:Generated_Source\PSoC4/cyfitter_cfg.c **** {
 112:Generated_Source\PSoC4/cyfitter_cfg.c ****     /* To remove the compiler warning if errorCode not used.                */
 113:Generated_Source\PSoC4/cyfitter_cfg.c ****     errorCode = errorCode;
 114:Generated_Source\PSoC4/cyfitter_cfg.c **** 
 115:Generated_Source\PSoC4/cyfitter_cfg.c ****     /* If we have a clock startup error (bad MHz crystal, PLL lock, etc.),  */
 116:Generated_Source\PSoC4/cyfitter_cfg.c ****     /* we will end up here to allow the customer to implement something to  */
 117:Generated_Source\PSoC4/cyfitter_cfg.c ****     /* deal with the clock condition.                                       */
 118:Generated_Source\PSoC4/cyfitter_cfg.c **** 
 119:Generated_Source\PSoC4/cyfitter_cfg.c **** #ifdef CY_CFG_CLOCK_STARTUP_ERROR_CALLBACK
 120:Generated_Source\PSoC4/cyfitter_cfg.c **** 	CY_CFG_Clock_Startup_ErrorCallback();
 121:Generated_Source\PSoC4/cyfitter_cfg.c **** #else
 122:Generated_Source\PSoC4/cyfitter_cfg.c **** 	/*  If not using CY_CFG_CLOCK_STARTUP_ERROR_CALLBACK, place your clock startup code here. */
 123:Generated_Source\PSoC4/cyfitter_cfg.c ****     /* `#START CyClockStartupError` */
 124:Generated_Source\PSoC4/cyfitter_cfg.c **** 
 125:Generated_Source\PSoC4/cyfitter_cfg.c **** 
 126:Generated_Source\PSoC4/cyfitter_cfg.c **** 
 127:Generated_Source\PSoC4/cyfitter_cfg.c ****     /* `#END` */
 128:Generated_Source\PSoC4/cyfitter_cfg.c **** 
 129:Generated_Source\PSoC4/cyfitter_cfg.c ****     /* If nothing else, stop here since the clocks have not started         */
 130:Generated_Source\PSoC4/cyfitter_cfg.c ****     /* correctly.                                                           */
 131:Generated_Source\PSoC4/cyfitter_cfg.c ****     while(1) {}
 132:Generated_Source\PSoC4/cyfitter_cfg.c **** #endif /* CY_CFG_CLOCK_STARTUP_ERROR_CALLBACK */ 
 133:Generated_Source\PSoC4/cyfitter_cfg.c **** }
 134:Generated_Source\PSoC4/cyfitter_cfg.c **** #endif
 135:Generated_Source\PSoC4/cyfitter_cfg.c **** 
 136:Generated_Source\PSoC4/cyfitter_cfg.c **** #define CY_CFG_BASE_ADDR_COUNT 10u
 137:Generated_Source\PSoC4/cyfitter_cfg.c **** CYPACKED typedef struct
 138:Generated_Source\PSoC4/cyfitter_cfg.c **** {
 139:Generated_Source\PSoC4/cyfitter_cfg.c **** 	uint8 offset;
 140:Generated_Source\PSoC4/cyfitter_cfg.c **** 	uint8 value;
 141:Generated_Source\PSoC4/cyfitter_cfg.c **** } CYPACKED_ATTR cy_cfg_addrvalue_t;
 142:Generated_Source\PSoC4/cyfitter_cfg.c **** 
 143:Generated_Source\PSoC4/cyfitter_cfg.c **** 
 144:Generated_Source\PSoC4/cyfitter_cfg.c **** 
 145:Generated_Source\PSoC4/cyfitter_cfg.c **** /*******************************************************************************
 146:Generated_Source\PSoC4/cyfitter_cfg.c **** * Function Name: cfg_write_bytes32
ARM GAS  C:\Users\g\AppData\Local\Temp\ccQQqWns.s 			page 4


 147:Generated_Source\PSoC4/cyfitter_cfg.c **** ********************************************************************************
 148:Generated_Source\PSoC4/cyfitter_cfg.c **** * Summary:
 149:Generated_Source\PSoC4/cyfitter_cfg.c **** *  This function is used for setting up the chip configuration areas that
 150:Generated_Source\PSoC4/cyfitter_cfg.c **** *  contain relatively sparse data.
 151:Generated_Source\PSoC4/cyfitter_cfg.c **** *
 152:Generated_Source\PSoC4/cyfitter_cfg.c **** * Parameters:
 153:Generated_Source\PSoC4/cyfitter_cfg.c **** *   void
 154:Generated_Source\PSoC4/cyfitter_cfg.c **** *
 155:Generated_Source\PSoC4/cyfitter_cfg.c **** * Return:
 156:Generated_Source\PSoC4/cyfitter_cfg.c **** *   void
 157:Generated_Source\PSoC4/cyfitter_cfg.c **** *
 158:Generated_Source\PSoC4/cyfitter_cfg.c **** *******************************************************************************/
 159:Generated_Source\PSoC4/cyfitter_cfg.c **** static void cfg_write_bytes32(const uint32 addr_table[], const cy_cfg_addrvalue_t data_table[]);
 160:Generated_Source\PSoC4/cyfitter_cfg.c **** static void cfg_write_bytes32(const uint32 addr_table[], const cy_cfg_addrvalue_t data_table[])
 161:Generated_Source\PSoC4/cyfitter_cfg.c **** {
 162:Generated_Source\PSoC4/cyfitter_cfg.c **** 	/* For 32-bit little-endian architectures */
 163:Generated_Source\PSoC4/cyfitter_cfg.c **** 	uint32 i, j = 0u;
 164:Generated_Source\PSoC4/cyfitter_cfg.c **** 	for (i = 0u; i < CY_CFG_BASE_ADDR_COUNT; i++)
 165:Generated_Source\PSoC4/cyfitter_cfg.c **** 	{
 166:Generated_Source\PSoC4/cyfitter_cfg.c **** 		uint32 baseAddr = addr_table[i];
 167:Generated_Source\PSoC4/cyfitter_cfg.c **** 		uint8 count = (uint8)baseAddr;
 168:Generated_Source\PSoC4/cyfitter_cfg.c **** 		baseAddr &= 0xFFFFFF00u;
 169:Generated_Source\PSoC4/cyfitter_cfg.c **** 		while (count != 0u)
 170:Generated_Source\PSoC4/cyfitter_cfg.c **** 		{
 171:Generated_Source\PSoC4/cyfitter_cfg.c **** 			CY_SET_XTND_REG8((void CYFAR *)(baseAddr + data_table[j].offset), data_table[j].value);
 172:Generated_Source\PSoC4/cyfitter_cfg.c **** 			j++;
 173:Generated_Source\PSoC4/cyfitter_cfg.c **** 			count--;
 174:Generated_Source\PSoC4/cyfitter_cfg.c **** 		}
 175:Generated_Source\PSoC4/cyfitter_cfg.c **** 	}
 176:Generated_Source\PSoC4/cyfitter_cfg.c **** }
 177:Generated_Source\PSoC4/cyfitter_cfg.c **** 
 178:Generated_Source\PSoC4/cyfitter_cfg.c **** 
 179:Generated_Source\PSoC4/cyfitter_cfg.c **** /*******************************************************************************
 180:Generated_Source\PSoC4/cyfitter_cfg.c **** * Function Name: ClockSetup
 181:Generated_Source\PSoC4/cyfitter_cfg.c **** ********************************************************************************
 182:Generated_Source\PSoC4/cyfitter_cfg.c **** *
 183:Generated_Source\PSoC4/cyfitter_cfg.c **** * Summary:
 184:Generated_Source\PSoC4/cyfitter_cfg.c **** *   Performs the initialization of all of the clocks in the device based on the
 185:Generated_Source\PSoC4/cyfitter_cfg.c **** *   settings in the Clock tab of the DWR.  This includes enabling the requested
 186:Generated_Source\PSoC4/cyfitter_cfg.c **** *   clocks and setting the necessary dividers to produce the desired frequency. 
 187:Generated_Source\PSoC4/cyfitter_cfg.c **** *
 188:Generated_Source\PSoC4/cyfitter_cfg.c **** * Parameters:
 189:Generated_Source\PSoC4/cyfitter_cfg.c **** *   void
 190:Generated_Source\PSoC4/cyfitter_cfg.c **** *
 191:Generated_Source\PSoC4/cyfitter_cfg.c **** * Return:
 192:Generated_Source\PSoC4/cyfitter_cfg.c **** *   void
 193:Generated_Source\PSoC4/cyfitter_cfg.c **** *
 194:Generated_Source\PSoC4/cyfitter_cfg.c **** *******************************************************************************/
 195:Generated_Source\PSoC4/cyfitter_cfg.c **** static void ClockSetup(void);
 196:Generated_Source\PSoC4/cyfitter_cfg.c **** CY_CFG_SECTION
 197:Generated_Source\PSoC4/cyfitter_cfg.c **** static void ClockSetup(void)
 198:Generated_Source\PSoC4/cyfitter_cfg.c **** {
 199:Generated_Source\PSoC4/cyfitter_cfg.c **** 	/* Enable HALF_EN before trimming for the flash accelerator. */
 200:Generated_Source\PSoC4/cyfitter_cfg.c **** 	CY_SET_REG32((void CYXDATA *)(CYREG_CLK_SELECT), (CY_GET_REG32((void *)CYREG_CLK_SELECT) | 0x00040
 201:Generated_Source\PSoC4/cyfitter_cfg.c **** 
 202:Generated_Source\PSoC4/cyfitter_cfg.c **** 	/* Setup and trim IMO based on desired frequency. */
 203:Generated_Source\PSoC4/cyfitter_cfg.c **** 	CySysClkWriteImoFreq(48u);
ARM GAS  C:\Users\g\AppData\Local\Temp\ccQQqWns.s 			page 5


 204:Generated_Source\PSoC4/cyfitter_cfg.c **** 	/* CYDEV_CLK_ILO_CONFIG Starting address: CYDEV_CLK_ILO_CONFIG */
 205:Generated_Source\PSoC4/cyfitter_cfg.c **** 	CY_SET_XTND_REG32((void CYFAR *)(CYREG_CLK_ILO_CONFIG), 0x80000006u);
 206:Generated_Source\PSoC4/cyfitter_cfg.c **** 
 207:Generated_Source\PSoC4/cyfitter_cfg.c **** 
 208:Generated_Source\PSoC4/cyfitter_cfg.c **** 	/* CYDEV_CLK_SELECT00 Starting address: CYDEV_CLK_SELECT00 */
 209:Generated_Source\PSoC4/cyfitter_cfg.c **** 	CY_SET_XTND_REG32((void CYFAR *)(CYREG_CLK_SELECT03), 0x00000021u);
 210:Generated_Source\PSoC4/cyfitter_cfg.c **** 	CY_SET_XTND_REG32((void CYFAR *)(CYREG_CLK_SELECT07), 0x00000011u);
 211:Generated_Source\PSoC4/cyfitter_cfg.c **** 	CY_SET_XTND_REG32((void CYFAR *)(CYREG_CLK_SELECT08), 0x00000030u);
 212:Generated_Source\PSoC4/cyfitter_cfg.c **** 	CY_SET_XTND_REG32((void CYFAR *)(CYREG_CLK_SELECT09), 0x00000010u);
 213:Generated_Source\PSoC4/cyfitter_cfg.c **** 	CY_SET_XTND_REG32((void CYFAR *)(CYREG_CLK_SELECT13), 0x00000010u);
 214:Generated_Source\PSoC4/cyfitter_cfg.c **** 	CY_SET_XTND_REG32((void CYFAR *)(CYREG_CLK_SELECT15), 0x00000020u);
 215:Generated_Source\PSoC4/cyfitter_cfg.c **** 
 216:Generated_Source\PSoC4/cyfitter_cfg.c **** 	/* CYDEV_CLK_IMO_CONFIG Starting address: CYDEV_CLK_IMO_CONFIG */
 217:Generated_Source\PSoC4/cyfitter_cfg.c **** 	CY_SET_XTND_REG32((void CYFAR *)(CYREG_CLK_IMO_CONFIG), 0x82000000u);
 218:Generated_Source\PSoC4/cyfitter_cfg.c **** 
 219:Generated_Source\PSoC4/cyfitter_cfg.c **** 	/* CYDEV_CLK_SELECT Starting address: CYDEV_CLK_SELECT */
 220:Generated_Source\PSoC4/cyfitter_cfg.c **** 	CY_SET_XTND_REG32((void CYFAR *)(CYREG_CLK_SELECT), 0x00040000u);
 221:Generated_Source\PSoC4/cyfitter_cfg.c **** 
 222:Generated_Source\PSoC4/cyfitter_cfg.c **** 	/* CYDEV_CLK_DIVIDER_A00 Starting address: CYDEV_CLK_DIVIDER_A00 */
 223:Generated_Source\PSoC4/cyfitter_cfg.c **** 	CY_SET_XTND_REG32((void CYFAR *)(CYREG_CLK_DIVIDER_A00), 0x80000003u);
 224:Generated_Source\PSoC4/cyfitter_cfg.c **** 
 225:Generated_Source\PSoC4/cyfitter_cfg.c **** 	/* CYDEV_CLK_DIVIDER_B00 Starting address: CYDEV_CLK_DIVIDER_B00 */
 226:Generated_Source\PSoC4/cyfitter_cfg.c **** 	CY_SET_XTND_REG32((void CYFAR *)(CYREG_CLK_DIVIDER_B00), 0xC0000003u);
 227:Generated_Source\PSoC4/cyfitter_cfg.c **** 
 228:Generated_Source\PSoC4/cyfitter_cfg.c **** 	/* CYDEV_CLK_DIVIDER_C00 Starting address: CYDEV_CLK_DIVIDER_C00 */
 229:Generated_Source\PSoC4/cyfitter_cfg.c **** 	CY_SET_XTND_REG32((void CYFAR *)(CYREG_CLK_DIVIDER_C00), 0x80000000u);
 230:Generated_Source\PSoC4/cyfitter_cfg.c **** 
 231:Generated_Source\PSoC4/cyfitter_cfg.c **** 	/* CYDEV_CLK_DIVIDER_A01 Starting address: CYDEV_CLK_DIVIDER_A01 */
 232:Generated_Source\PSoC4/cyfitter_cfg.c **** 	CY_SET_XTND_REG32((void CYFAR *)(CYREG_CLK_DIVIDER_A01), 0x80000003u);
 233:Generated_Source\PSoC4/cyfitter_cfg.c **** 
 234:Generated_Source\PSoC4/cyfitter_cfg.c **** 	/* CYDEV_CLK_DIVIDER_B01 Starting address: CYDEV_CLK_DIVIDER_B01 */
 235:Generated_Source\PSoC4/cyfitter_cfg.c **** 	CY_SET_XTND_REG32((void CYFAR *)(CYREG_CLK_DIVIDER_B01), 0x800000F9u);
 236:Generated_Source\PSoC4/cyfitter_cfg.c **** 
 237:Generated_Source\PSoC4/cyfitter_cfg.c **** 	(void)CyIntSetVector(9u, &CySysWdtIsr);
 238:Generated_Source\PSoC4/cyfitter_cfg.c **** 	CyIntEnable(9u);
 239:Generated_Source\PSoC4/cyfitter_cfg.c **** 	CY_SET_XTND_REG32((void CYFAR *)(CYREG_WDT_CONFIG), 0x00000000u);
 240:Generated_Source\PSoC4/cyfitter_cfg.c **** }
 241:Generated_Source\PSoC4/cyfitter_cfg.c **** 
 242:Generated_Source\PSoC4/cyfitter_cfg.c **** 
 243:Generated_Source\PSoC4/cyfitter_cfg.c **** /* Analog API Functions */
 244:Generated_Source\PSoC4/cyfitter_cfg.c **** 
 245:Generated_Source\PSoC4/cyfitter_cfg.c **** 
 246:Generated_Source\PSoC4/cyfitter_cfg.c **** /*******************************************************************************
 247:Generated_Source\PSoC4/cyfitter_cfg.c **** * Function Name: AnalogSetDefault
 248:Generated_Source\PSoC4/cyfitter_cfg.c **** ********************************************************************************
 249:Generated_Source\PSoC4/cyfitter_cfg.c **** *
 250:Generated_Source\PSoC4/cyfitter_cfg.c **** * Summary:
 251:Generated_Source\PSoC4/cyfitter_cfg.c **** *  Sets up the analog portions of the chip to default values based on chip
 252:Generated_Source\PSoC4/cyfitter_cfg.c **** *  configuration options from the project.
 253:Generated_Source\PSoC4/cyfitter_cfg.c **** *
 254:Generated_Source\PSoC4/cyfitter_cfg.c **** * Parameters:
 255:Generated_Source\PSoC4/cyfitter_cfg.c **** *  void
 256:Generated_Source\PSoC4/cyfitter_cfg.c **** *
 257:Generated_Source\PSoC4/cyfitter_cfg.c **** * Return:
 258:Generated_Source\PSoC4/cyfitter_cfg.c **** *  void
 259:Generated_Source\PSoC4/cyfitter_cfg.c **** *
 260:Generated_Source\PSoC4/cyfitter_cfg.c **** *******************************************************************************/
ARM GAS  C:\Users\g\AppData\Local\Temp\ccQQqWns.s 			page 6


 261:Generated_Source\PSoC4/cyfitter_cfg.c **** static void AnalogSetDefault(void);
 262:Generated_Source\PSoC4/cyfitter_cfg.c **** static void AnalogSetDefault(void)
 263:Generated_Source\PSoC4/cyfitter_cfg.c **** {
 264:Generated_Source\PSoC4/cyfitter_cfg.c **** 	CY_SET_XTND_REG32((void CYFAR *)CYREG_SAR_MUX_SWITCH0, 0x00000004u);
 265:Generated_Source\PSoC4/cyfitter_cfg.c **** 	/* Variable VDDA is selected; no pumps are enabled by default */
 266:Generated_Source\PSoC4/cyfitter_cfg.c **** }
 267:Generated_Source\PSoC4/cyfitter_cfg.c **** 
 268:Generated_Source\PSoC4/cyfitter_cfg.c **** 
 269:Generated_Source\PSoC4/cyfitter_cfg.c **** /*******************************************************************************
 270:Generated_Source\PSoC4/cyfitter_cfg.c **** * Function Name: SetAnalogRoutingPumps
 271:Generated_Source\PSoC4/cyfitter_cfg.c **** ********************************************************************************
 272:Generated_Source\PSoC4/cyfitter_cfg.c **** *
 273:Generated_Source\PSoC4/cyfitter_cfg.c **** * Summary:
 274:Generated_Source\PSoC4/cyfitter_cfg.c **** * Enables or disables the analog pumps feeding analog routing switches.
 275:Generated_Source\PSoC4/cyfitter_cfg.c **** * Intended to be called at startup, based on the Vdda system configuration;
 276:Generated_Source\PSoC4/cyfitter_cfg.c **** * may be called during operation when the user informs us that the Vdda voltage crossed the pump th
 277:Generated_Source\PSoC4/cyfitter_cfg.c **** *
 278:Generated_Source\PSoC4/cyfitter_cfg.c **** * Parameters:
 279:Generated_Source\PSoC4/cyfitter_cfg.c **** *  enabled - 1 to enable the pumps, 0 to disable the pumps
 280:Generated_Source\PSoC4/cyfitter_cfg.c **** *
 281:Generated_Source\PSoC4/cyfitter_cfg.c **** * Return:
 282:Generated_Source\PSoC4/cyfitter_cfg.c **** *  void
 283:Generated_Source\PSoC4/cyfitter_cfg.c **** *
 284:Generated_Source\PSoC4/cyfitter_cfg.c **** *******************************************************************************/
 285:Generated_Source\PSoC4/cyfitter_cfg.c **** void SetAnalogRoutingPumps(uint8 enabled)
 286:Generated_Source\PSoC4/cyfitter_cfg.c **** {
  26              		.loc 1 286 0
  27              		.cfi_startproc
  28              	.LVL0:
 287:Generated_Source\PSoC4/cyfitter_cfg.c **** 	uint32 regValue = CY_GET_XTND_REG32((void *)(CYREG_SAR_PUMP_CTRL));
  29              		.loc 1 287 0
  30 0000 064B     		ldr	r3, .L6
  31 0002 1B68     		ldr	r3, [r3]
  32              	.LVL1:
 288:Generated_Source\PSoC4/cyfitter_cfg.c **** 	if (enabled != 0u)
  33              		.loc 1 288 0
  34 0004 0028     		cmp	r0, #0
  35 0006 04D1     		bne	.L5
 289:Generated_Source\PSoC4/cyfitter_cfg.c **** 	{
 290:Generated_Source\PSoC4/cyfitter_cfg.c **** 		regValue |= 0x80000000u;
 291:Generated_Source\PSoC4/cyfitter_cfg.c **** 	}
 292:Generated_Source\PSoC4/cyfitter_cfg.c **** 	else
 293:Generated_Source\PSoC4/cyfitter_cfg.c **** 	{
 294:Generated_Source\PSoC4/cyfitter_cfg.c **** 		regValue &= ~0x80000000u;
  36              		.loc 1 294 0
  37 0008 5B00     		lsl	r3, r3, #1
  38              	.LVL2:
  39 000a 5B08     		lsr	r3, r3, #1
  40              	.LVL3:
  41              	.L3:
 295:Generated_Source\PSoC4/cyfitter_cfg.c **** 	}
 296:Generated_Source\PSoC4/cyfitter_cfg.c **** 	CY_SET_XTND_REG32((void *)(CYREG_SAR_PUMP_CTRL), regValue);
  42              		.loc 1 296 0
  43 000c 034A     		ldr	r2, .L6
 297:Generated_Source\PSoC4/cyfitter_cfg.c **** }
  44              		.loc 1 297 0
  45              		@ sp needed
ARM GAS  C:\Users\g\AppData\Local\Temp\ccQQqWns.s 			page 7


 296:Generated_Source\PSoC4/cyfitter_cfg.c **** }
  46              		.loc 1 296 0
  47 000e 1360     		str	r3, [r2]
  48              		.loc 1 297 0
  49 0010 7047     		bx	lr
  50              	.L5:
 290:Generated_Source\PSoC4/cyfitter_cfg.c **** 	}
  51              		.loc 1 290 0
  52 0012 8022     		mov	r2, #128
  53 0014 1206     		lsl	r2, r2, #24
  54 0016 1343     		orr	r3, r2
  55              	.LVL4:
  56 0018 F8E7     		b	.L3
  57              	.L7:
  58 001a C046     		.align	2
  59              	.L6:
  60 001c 80031A40 		.word	1075446656
  61              		.cfi_endproc
  62              	.LFE6:
  63              		.size	SetAnalogRoutingPumps, .-SetAnalogRoutingPumps
  64              		.section	.psocinit,"ax",%progbits
  65              		.align	2
  66              		.global	cyfitter_cfg
  67              		.code	16
  68              		.thumb_func
  69              		.type	cyfitter_cfg, %function
  70              	cyfitter_cfg:
  71              	.LFB7:
 298:Generated_Source\PSoC4/cyfitter_cfg.c **** 
 299:Generated_Source\PSoC4/cyfitter_cfg.c **** #define CY_AMUX_UNUSED CYREG_CM0_ROM_DWT
 300:Generated_Source\PSoC4/cyfitter_cfg.c **** 
 301:Generated_Source\PSoC4/cyfitter_cfg.c **** 
 302:Generated_Source\PSoC4/cyfitter_cfg.c **** /*******************************************************************************
 303:Generated_Source\PSoC4/cyfitter_cfg.c **** * Function Name: cyfitter_cfg
 304:Generated_Source\PSoC4/cyfitter_cfg.c **** ********************************************************************************
 305:Generated_Source\PSoC4/cyfitter_cfg.c **** * Summary:
 306:Generated_Source\PSoC4/cyfitter_cfg.c **** *  This function is called by the start-up code for the selected device. It
 307:Generated_Source\PSoC4/cyfitter_cfg.c **** *  performs all of the necessary device configuration based on the design
 308:Generated_Source\PSoC4/cyfitter_cfg.c **** *  settings.  This includes settings from the Design Wide Resources (DWR) such
 309:Generated_Source\PSoC4/cyfitter_cfg.c **** *  as Clocks and Pins as well as any component configuration that is necessary.
 310:Generated_Source\PSoC4/cyfitter_cfg.c **** *
 311:Generated_Source\PSoC4/cyfitter_cfg.c **** * Parameters:  
 312:Generated_Source\PSoC4/cyfitter_cfg.c **** *   void
 313:Generated_Source\PSoC4/cyfitter_cfg.c **** *
 314:Generated_Source\PSoC4/cyfitter_cfg.c **** * Return:
 315:Generated_Source\PSoC4/cyfitter_cfg.c **** *   void
 316:Generated_Source\PSoC4/cyfitter_cfg.c **** *
 317:Generated_Source\PSoC4/cyfitter_cfg.c **** *******************************************************************************/
 318:Generated_Source\PSoC4/cyfitter_cfg.c **** CY_CFG_SECTION
 319:Generated_Source\PSoC4/cyfitter_cfg.c **** void cyfitter_cfg(void)
 320:Generated_Source\PSoC4/cyfitter_cfg.c **** {
  72              		.loc 1 320 0
  73              		.cfi_startproc
  74 0000 F0B5     		push	{r4, r5, r6, r7, lr}
  75              		.cfi_def_cfa_offset 20
  76              		.cfi_offset 4, -20
  77              		.cfi_offset 5, -16
ARM GAS  C:\Users\g\AppData\Local\Temp\ccQQqWns.s 			page 8


  78              		.cfi_offset 6, -12
  79              		.cfi_offset 7, -8
  80              		.cfi_offset 14, -4
  81 0002 4746     		mov	r7, r8
  82 0004 80B4     		push	{r7}
  83              		.cfi_def_cfa_offset 24
  84              		.cfi_offset 8, -24
 321:Generated_Source\PSoC4/cyfitter_cfg.c **** 	/* Disable interrupts by default. Let user enable if/when they want. */
 322:Generated_Source\PSoC4/cyfitter_cfg.c **** 	CyGlobalIntDisable;
  85              		.loc 1 322 0
  86              	@ 322 "Generated_Source\PSoC4\cyfitter_cfg.c" 1
  87 0006 72B6     		CPSID   i
  88              	@ 0 "" 2
  89              		.code	16
  90 0008 624D     		ldr	r5, .L19
 323:Generated_Source\PSoC4/cyfitter_cfg.c **** 
 324:Generated_Source\PSoC4/cyfitter_cfg.c **** 	/* Enable the clock in the interrupt controller for the routed interrupts */
 325:Generated_Source\PSoC4/cyfitter_cfg.c **** 	CY_SET_REG8((void *)CYREG_UDB_UDBIF_INT_CLK_CTL, 0x01u);
  91              		.loc 1 325 0
  92 000a 0122     		mov	r2, #1
  93 000c 2E1C     		mov	r6, r5
  94 000e 0024     		mov	r4, #0
  95 0010 614B     		ldr	r3, .L19+4
  96 0012 1A70     		strb	r2, [r3]
  97              	.LVL5:
  98              	.L9:
  99              	.LBB26:
 100              	.LBB27:
 326:Generated_Source\PSoC4/cyfitter_cfg.c **** 	{
 327:Generated_Source\PSoC4/cyfitter_cfg.c **** 		static const uint32 CYCODE cy_cfg_addr_table[] = {
 328:Generated_Source\PSoC4/cyfitter_cfg.c **** 			0x400F0001u, /* Base address: 0x400F0000 Count: 1 */
 329:Generated_Source\PSoC4/cyfitter_cfg.c **** 			0x400F3035u, /* Base address: 0x400F3000 Count: 53 */
 330:Generated_Source\PSoC4/cyfitter_cfg.c **** 			0x400F312Cu, /* Base address: 0x400F3100 Count: 44 */
 331:Generated_Source\PSoC4/cyfitter_cfg.c **** 			0x400F3223u, /* Base address: 0x400F3200 Count: 35 */
 332:Generated_Source\PSoC4/cyfitter_cfg.c **** 			0x400F333Cu, /* Base address: 0x400F3300 Count: 60 */
 333:Generated_Source\PSoC4/cyfitter_cfg.c **** 			0x400F400Au, /* Base address: 0x400F4000 Count: 10 */
 334:Generated_Source\PSoC4/cyfitter_cfg.c **** 			0x400F410Eu, /* Base address: 0x400F4100 Count: 14 */
 335:Generated_Source\PSoC4/cyfitter_cfg.c **** 			0x400F4202u, /* Base address: 0x400F4200 Count: 2 */
 336:Generated_Source\PSoC4/cyfitter_cfg.c **** 			0x400F4306u, /* Base address: 0x400F4300 Count: 6 */
 337:Generated_Source\PSoC4/cyfitter_cfg.c **** 			0x400F6002u, /* Base address: 0x400F6000 Count: 2 */
 338:Generated_Source\PSoC4/cyfitter_cfg.c **** 		};
 339:Generated_Source\PSoC4/cyfitter_cfg.c **** 
 340:Generated_Source\PSoC4/cyfitter_cfg.c **** 		static const cy_cfg_addrvalue_t CYCODE cy_cfg_data_table[] = {
 341:Generated_Source\PSoC4/cyfitter_cfg.c **** 			{0x83u, 0x6Fu},
 342:Generated_Source\PSoC4/cyfitter_cfg.c **** 			{0x07u, 0x02u},
 343:Generated_Source\PSoC4/cyfitter_cfg.c **** 			{0x0Eu, 0x02u},
 344:Generated_Source\PSoC4/cyfitter_cfg.c **** 			{0x12u, 0x01u},
 345:Generated_Source\PSoC4/cyfitter_cfg.c **** 			{0x13u, 0x08u},
 346:Generated_Source\PSoC4/cyfitter_cfg.c **** 			{0x19u, 0x04u},
 347:Generated_Source\PSoC4/cyfitter_cfg.c **** 			{0x23u, 0x05u},
 348:Generated_Source\PSoC4/cyfitter_cfg.c **** 			{0x29u, 0x08u},
 349:Generated_Source\PSoC4/cyfitter_cfg.c **** 			{0x2Fu, 0x08u},
 350:Generated_Source\PSoC4/cyfitter_cfg.c **** 			{0x31u, 0x04u},
 351:Generated_Source\PSoC4/cyfitter_cfg.c **** 			{0x32u, 0x01u},
 352:Generated_Source\PSoC4/cyfitter_cfg.c **** 			{0x33u, 0x02u},
 353:Generated_Source\PSoC4/cyfitter_cfg.c **** 			{0x34u, 0x02u},
 354:Generated_Source\PSoC4/cyfitter_cfg.c **** 			{0x35u, 0x01u},
ARM GAS  C:\Users\g\AppData\Local\Temp\ccQQqWns.s 			page 9


 355:Generated_Source\PSoC4/cyfitter_cfg.c **** 			{0x37u, 0x08u},
 356:Generated_Source\PSoC4/cyfitter_cfg.c **** 			{0x3Au, 0x0Bu},
 357:Generated_Source\PSoC4/cyfitter_cfg.c **** 			{0x3Fu, 0x41u},
 358:Generated_Source\PSoC4/cyfitter_cfg.c **** 			{0x52u, 0x87u},
 359:Generated_Source\PSoC4/cyfitter_cfg.c **** 			{0x58u, 0x04u},
 360:Generated_Source\PSoC4/cyfitter_cfg.c **** 			{0x59u, 0x04u},
 361:Generated_Source\PSoC4/cyfitter_cfg.c **** 			{0x5Bu, 0x04u},
 362:Generated_Source\PSoC4/cyfitter_cfg.c **** 			{0x5Cu, 0x31u},
 363:Generated_Source\PSoC4/cyfitter_cfg.c **** 			{0x5Du, 0x10u},
 364:Generated_Source\PSoC4/cyfitter_cfg.c **** 			{0x5Fu, 0x01u},
 365:Generated_Source\PSoC4/cyfitter_cfg.c **** 			{0x82u, 0x01u},
 366:Generated_Source\PSoC4/cyfitter_cfg.c **** 			{0x83u, 0xFFu},
 367:Generated_Source\PSoC4/cyfitter_cfg.c **** 			{0x85u, 0x19u},
 368:Generated_Source\PSoC4/cyfitter_cfg.c **** 			{0x87u, 0x66u},
 369:Generated_Source\PSoC4/cyfitter_cfg.c **** 			{0x8Du, 0x4Bu},
 370:Generated_Source\PSoC4/cyfitter_cfg.c **** 			{0x8Fu, 0x34u},
 371:Generated_Source\PSoC4/cyfitter_cfg.c **** 			{0x92u, 0x01u},
 372:Generated_Source\PSoC4/cyfitter_cfg.c **** 			{0x93u, 0x80u},
 373:Generated_Source\PSoC4/cyfitter_cfg.c **** 			{0x94u, 0x01u},
 374:Generated_Source\PSoC4/cyfitter_cfg.c **** 			{0x95u, 0x07u},
 375:Generated_Source\PSoC4/cyfitter_cfg.c **** 			{0x97u, 0x78u},
 376:Generated_Source\PSoC4/cyfitter_cfg.c **** 			{0x98u, 0x01u},
 377:Generated_Source\PSoC4/cyfitter_cfg.c **** 			{0x99u, 0x80u},
 378:Generated_Source\PSoC4/cyfitter_cfg.c **** 			{0xA0u, 0x01u},
 379:Generated_Source\PSoC4/cyfitter_cfg.c **** 			{0xA1u, 0x2Au},
 380:Generated_Source\PSoC4/cyfitter_cfg.c **** 			{0xA3u, 0x55u},
 381:Generated_Source\PSoC4/cyfitter_cfg.c **** 			{0xA8u, 0x01u},
 382:Generated_Source\PSoC4/cyfitter_cfg.c **** 			{0xA9u, 0x7Fu},
 383:Generated_Source\PSoC4/cyfitter_cfg.c **** 			{0xABu, 0x80u},
 384:Generated_Source\PSoC4/cyfitter_cfg.c **** 			{0xAEu, 0x02u},
 385:Generated_Source\PSoC4/cyfitter_cfg.c **** 			{0xB0u, 0x03u},
 386:Generated_Source\PSoC4/cyfitter_cfg.c **** 			{0xB1u, 0xFFu},
 387:Generated_Source\PSoC4/cyfitter_cfg.c **** 			{0xBFu, 0x01u},
 388:Generated_Source\PSoC4/cyfitter_cfg.c **** 			{0xD6u, 0x08u},
 389:Generated_Source\PSoC4/cyfitter_cfg.c **** 			{0xD8u, 0x04u},
 390:Generated_Source\PSoC4/cyfitter_cfg.c **** 			{0xD9u, 0x04u},
 391:Generated_Source\PSoC4/cyfitter_cfg.c **** 			{0xDBu, 0x04u},
 392:Generated_Source\PSoC4/cyfitter_cfg.c **** 			{0xDCu, 0x01u},
 393:Generated_Source\PSoC4/cyfitter_cfg.c **** 			{0xDDu, 0x30u},
 394:Generated_Source\PSoC4/cyfitter_cfg.c **** 			{0xDFu, 0x01u},
 395:Generated_Source\PSoC4/cyfitter_cfg.c **** 			{0x03u, 0x02u},
 396:Generated_Source\PSoC4/cyfitter_cfg.c **** 			{0x06u, 0x80u},
 397:Generated_Source\PSoC4/cyfitter_cfg.c **** 			{0x0Au, 0x40u},
 398:Generated_Source\PSoC4/cyfitter_cfg.c **** 			{0x0Eu, 0x40u},
 399:Generated_Source\PSoC4/cyfitter_cfg.c **** 			{0x0Fu, 0x18u},
 400:Generated_Source\PSoC4/cyfitter_cfg.c **** 			{0x15u, 0x01u},
 401:Generated_Source\PSoC4/cyfitter_cfg.c **** 			{0x16u, 0x08u},
 402:Generated_Source\PSoC4/cyfitter_cfg.c **** 			{0x17u, 0x80u},
 403:Generated_Source\PSoC4/cyfitter_cfg.c **** 			{0x19u, 0x10u},
 404:Generated_Source\PSoC4/cyfitter_cfg.c **** 			{0x1Au, 0x40u},
 405:Generated_Source\PSoC4/cyfitter_cfg.c **** 			{0x1Bu, 0x0Du},
 406:Generated_Source\PSoC4/cyfitter_cfg.c **** 			{0x1Fu, 0x02u},
 407:Generated_Source\PSoC4/cyfitter_cfg.c **** 			{0x20u, 0x42u},
 408:Generated_Source\PSoC4/cyfitter_cfg.c **** 			{0x22u, 0x28u},
 409:Generated_Source\PSoC4/cyfitter_cfg.c **** 			{0x23u, 0x12u},
 410:Generated_Source\PSoC4/cyfitter_cfg.c **** 			{0x27u, 0x80u},
 411:Generated_Source\PSoC4/cyfitter_cfg.c **** 			{0x29u, 0x12u},
ARM GAS  C:\Users\g\AppData\Local\Temp\ccQQqWns.s 			page 10


 412:Generated_Source\PSoC4/cyfitter_cfg.c **** 			{0x2Bu, 0x02u},
 413:Generated_Source\PSoC4/cyfitter_cfg.c **** 			{0x2Du, 0x01u},
 414:Generated_Source\PSoC4/cyfitter_cfg.c **** 			{0x2Fu, 0x88u},
 415:Generated_Source\PSoC4/cyfitter_cfg.c **** 			{0x31u, 0x01u},
 416:Generated_Source\PSoC4/cyfitter_cfg.c **** 			{0x32u, 0x20u},
 417:Generated_Source\PSoC4/cyfitter_cfg.c **** 			{0x35u, 0x02u},
 418:Generated_Source\PSoC4/cyfitter_cfg.c **** 			{0x36u, 0x28u},
 419:Generated_Source\PSoC4/cyfitter_cfg.c **** 			{0x3Au, 0x04u},
 420:Generated_Source\PSoC4/cyfitter_cfg.c **** 			{0x3Eu, 0x88u},
 421:Generated_Source\PSoC4/cyfitter_cfg.c **** 			{0x3Fu, 0x02u},
 422:Generated_Source\PSoC4/cyfitter_cfg.c **** 			{0x5Cu, 0x09u},
 423:Generated_Source\PSoC4/cyfitter_cfg.c **** 			{0x5Fu, 0x60u},
 424:Generated_Source\PSoC4/cyfitter_cfg.c **** 			{0x65u, 0x02u},
 425:Generated_Source\PSoC4/cyfitter_cfg.c **** 			{0x66u, 0x8Cu},
 426:Generated_Source\PSoC4/cyfitter_cfg.c **** 			{0x67u, 0x04u},
 427:Generated_Source\PSoC4/cyfitter_cfg.c **** 			{0x68u, 0x28u},
 428:Generated_Source\PSoC4/cyfitter_cfg.c **** 			{0x69u, 0x54u},
 429:Generated_Source\PSoC4/cyfitter_cfg.c **** 			{0x71u, 0x01u},
 430:Generated_Source\PSoC4/cyfitter_cfg.c **** 			{0x87u, 0x40u},
 431:Generated_Source\PSoC4/cyfitter_cfg.c **** 			{0xC0u, 0x11u},
 432:Generated_Source\PSoC4/cyfitter_cfg.c **** 			{0xC2u, 0x78u},
 433:Generated_Source\PSoC4/cyfitter_cfg.c **** 			{0xC4u, 0xD0u},
 434:Generated_Source\PSoC4/cyfitter_cfg.c **** 			{0xCAu, 0xADu},
 435:Generated_Source\PSoC4/cyfitter_cfg.c **** 			{0xCCu, 0xE5u},
 436:Generated_Source\PSoC4/cyfitter_cfg.c **** 			{0xCEu, 0xD2u},
 437:Generated_Source\PSoC4/cyfitter_cfg.c **** 			{0xD6u, 0xF0u},
 438:Generated_Source\PSoC4/cyfitter_cfg.c **** 			{0xD8u, 0xF0u},
 439:Generated_Source\PSoC4/cyfitter_cfg.c **** 			{0x07u, 0x04u},
 440:Generated_Source\PSoC4/cyfitter_cfg.c **** 			{0x15u, 0x01u},
 441:Generated_Source\PSoC4/cyfitter_cfg.c **** 			{0x17u, 0x02u},
 442:Generated_Source\PSoC4/cyfitter_cfg.c **** 			{0x22u, 0x01u},
 443:Generated_Source\PSoC4/cyfitter_cfg.c **** 			{0x29u, 0x03u},
 444:Generated_Source\PSoC4/cyfitter_cfg.c **** 			{0x2Bu, 0x04u},
 445:Generated_Source\PSoC4/cyfitter_cfg.c **** 			{0x2Du, 0x02u},
 446:Generated_Source\PSoC4/cyfitter_cfg.c **** 			{0x2Fu, 0x01u},
 447:Generated_Source\PSoC4/cyfitter_cfg.c **** 			{0x31u, 0x07u},
 448:Generated_Source\PSoC4/cyfitter_cfg.c **** 			{0x36u, 0x01u},
 449:Generated_Source\PSoC4/cyfitter_cfg.c **** 			{0x40u, 0x40u},
 450:Generated_Source\PSoC4/cyfitter_cfg.c **** 			{0x41u, 0x01u},
 451:Generated_Source\PSoC4/cyfitter_cfg.c **** 			{0x49u, 0xFFu},
 452:Generated_Source\PSoC4/cyfitter_cfg.c **** 			{0x4Au, 0xFFu},
 453:Generated_Source\PSoC4/cyfitter_cfg.c **** 			{0x4Bu, 0xFFu},
 454:Generated_Source\PSoC4/cyfitter_cfg.c **** 			{0x4Du, 0xA0u},
 455:Generated_Source\PSoC4/cyfitter_cfg.c **** 			{0x4Fu, 0x01u},
 456:Generated_Source\PSoC4/cyfitter_cfg.c **** 			{0x50u, 0x18u},
 457:Generated_Source\PSoC4/cyfitter_cfg.c **** 			{0x58u, 0x04u},
 458:Generated_Source\PSoC4/cyfitter_cfg.c **** 			{0x59u, 0x04u},
 459:Generated_Source\PSoC4/cyfitter_cfg.c **** 			{0x5Au, 0x04u},
 460:Generated_Source\PSoC4/cyfitter_cfg.c **** 			{0x5Bu, 0x04u},
 461:Generated_Source\PSoC4/cyfitter_cfg.c **** 			{0x5Cu, 0x13u},
 462:Generated_Source\PSoC4/cyfitter_cfg.c **** 			{0x5Du, 0x01u},
 463:Generated_Source\PSoC4/cyfitter_cfg.c **** 			{0x5Fu, 0x01u},
 464:Generated_Source\PSoC4/cyfitter_cfg.c **** 			{0x60u, 0x40u},
 465:Generated_Source\PSoC4/cyfitter_cfg.c **** 			{0x62u, 0x80u},
 466:Generated_Source\PSoC4/cyfitter_cfg.c **** 			{0x64u, 0x40u},
 467:Generated_Source\PSoC4/cyfitter_cfg.c **** 			{0x65u, 0x40u},
 468:Generated_Source\PSoC4/cyfitter_cfg.c **** 			{0x66u, 0x80u},
ARM GAS  C:\Users\g\AppData\Local\Temp\ccQQqWns.s 			page 11


 469:Generated_Source\PSoC4/cyfitter_cfg.c **** 			{0x68u, 0x40u},
 470:Generated_Source\PSoC4/cyfitter_cfg.c **** 			{0x6Au, 0x80u},
 471:Generated_Source\PSoC4/cyfitter_cfg.c **** 			{0x6Cu, 0x40u},
 472:Generated_Source\PSoC4/cyfitter_cfg.c **** 			{0x6Du, 0x20u},
 473:Generated_Source\PSoC4/cyfitter_cfg.c **** 			{0x6Eu, 0x80u},
 474:Generated_Source\PSoC4/cyfitter_cfg.c **** 			{0x00u, 0x29u},
 475:Generated_Source\PSoC4/cyfitter_cfg.c **** 			{0x01u, 0x40u},
 476:Generated_Source\PSoC4/cyfitter_cfg.c **** 			{0x02u, 0x02u},
 477:Generated_Source\PSoC4/cyfitter_cfg.c **** 			{0x09u, 0x82u},
 478:Generated_Source\PSoC4/cyfitter_cfg.c **** 			{0x0Bu, 0x10u},
 479:Generated_Source\PSoC4/cyfitter_cfg.c **** 			{0x10u, 0xA8u},
 480:Generated_Source\PSoC4/cyfitter_cfg.c **** 			{0x16u, 0x80u},
 481:Generated_Source\PSoC4/cyfitter_cfg.c **** 			{0x19u, 0x85u},
 482:Generated_Source\PSoC4/cyfitter_cfg.c **** 			{0x1Fu, 0x80u},
 483:Generated_Source\PSoC4/cyfitter_cfg.c **** 			{0x20u, 0x09u},
 484:Generated_Source\PSoC4/cyfitter_cfg.c **** 			{0x23u, 0x10u},
 485:Generated_Source\PSoC4/cyfitter_cfg.c **** 			{0x27u, 0x40u},
 486:Generated_Source\PSoC4/cyfitter_cfg.c **** 			{0x2Au, 0x01u},
 487:Generated_Source\PSoC4/cyfitter_cfg.c **** 			{0x2Eu, 0x80u},
 488:Generated_Source\PSoC4/cyfitter_cfg.c **** 			{0x2Fu, 0x08u},
 489:Generated_Source\PSoC4/cyfitter_cfg.c **** 			{0x30u, 0x80u},
 490:Generated_Source\PSoC4/cyfitter_cfg.c **** 			{0x32u, 0x22u},
 491:Generated_Source\PSoC4/cyfitter_cfg.c **** 			{0x36u, 0x08u},
 492:Generated_Source\PSoC4/cyfitter_cfg.c **** 			{0x38u, 0x80u},
 493:Generated_Source\PSoC4/cyfitter_cfg.c **** 			{0x39u, 0x14u},
 494:Generated_Source\PSoC4/cyfitter_cfg.c **** 			{0x3Fu, 0x04u},
 495:Generated_Source\PSoC4/cyfitter_cfg.c **** 			{0x43u, 0x40u},
 496:Generated_Source\PSoC4/cyfitter_cfg.c **** 			{0x47u, 0x42u},
 497:Generated_Source\PSoC4/cyfitter_cfg.c **** 			{0x48u, 0x91u},
 498:Generated_Source\PSoC4/cyfitter_cfg.c **** 			{0x4Au, 0x20u},
 499:Generated_Source\PSoC4/cyfitter_cfg.c **** 			{0x50u, 0x40u},
 500:Generated_Source\PSoC4/cyfitter_cfg.c **** 			{0x51u, 0x8Au},
 501:Generated_Source\PSoC4/cyfitter_cfg.c **** 			{0x52u, 0x11u},
 502:Generated_Source\PSoC4/cyfitter_cfg.c **** 			{0x59u, 0x85u},
 503:Generated_Source\PSoC4/cyfitter_cfg.c **** 			{0x5Bu, 0x20u},
 504:Generated_Source\PSoC4/cyfitter_cfg.c **** 			{0x5Cu, 0x40u},
 505:Generated_Source\PSoC4/cyfitter_cfg.c **** 			{0x61u, 0x08u},
 506:Generated_Source\PSoC4/cyfitter_cfg.c **** 			{0x62u, 0x10u},
 507:Generated_Source\PSoC4/cyfitter_cfg.c **** 			{0x81u, 0x02u},
 508:Generated_Source\PSoC4/cyfitter_cfg.c **** 			{0x83u, 0x20u},
 509:Generated_Source\PSoC4/cyfitter_cfg.c **** 			{0x90u, 0x40u},
 510:Generated_Source\PSoC4/cyfitter_cfg.c **** 			{0x91u, 0x54u},
 511:Generated_Source\PSoC4/cyfitter_cfg.c **** 			{0x93u, 0x04u},
 512:Generated_Source\PSoC4/cyfitter_cfg.c **** 			{0x9Au, 0x80u},
 513:Generated_Source\PSoC4/cyfitter_cfg.c **** 			{0x9Bu, 0x02u},
 514:Generated_Source\PSoC4/cyfitter_cfg.c **** 			{0xA0u, 0x29u},
 515:Generated_Source\PSoC4/cyfitter_cfg.c **** 			{0xA2u, 0x08u},
 516:Generated_Source\PSoC4/cyfitter_cfg.c **** 			{0xA3u, 0x08u},
 517:Generated_Source\PSoC4/cyfitter_cfg.c **** 			{0xA7u, 0x80u},
 518:Generated_Source\PSoC4/cyfitter_cfg.c **** 			{0xAFu, 0x20u},
 519:Generated_Source\PSoC4/cyfitter_cfg.c **** 			{0xB4u, 0x09u},
 520:Generated_Source\PSoC4/cyfitter_cfg.c **** 			{0xC0u, 0x0Fu},
 521:Generated_Source\PSoC4/cyfitter_cfg.c **** 			{0xC2u, 0x0Du},
 522:Generated_Source\PSoC4/cyfitter_cfg.c **** 			{0xC4u, 0x1Eu},
 523:Generated_Source\PSoC4/cyfitter_cfg.c **** 			{0xCAu, 0x31u},
 524:Generated_Source\PSoC4/cyfitter_cfg.c **** 			{0xCCu, 0x4Du},
 525:Generated_Source\PSoC4/cyfitter_cfg.c **** 			{0xCEu, 0x4Eu},
ARM GAS  C:\Users\g\AppData\Local\Temp\ccQQqWns.s 			page 12


 526:Generated_Source\PSoC4/cyfitter_cfg.c **** 			{0xD0u, 0x98u},
 527:Generated_Source\PSoC4/cyfitter_cfg.c **** 			{0xD2u, 0x08u},
 528:Generated_Source\PSoC4/cyfitter_cfg.c **** 			{0xD6u, 0x1Fu},
 529:Generated_Source\PSoC4/cyfitter_cfg.c **** 			{0xD8u, 0x06u},
 530:Generated_Source\PSoC4/cyfitter_cfg.c **** 			{0xE0u, 0x04u},
 531:Generated_Source\PSoC4/cyfitter_cfg.c **** 			{0xE2u, 0x80u},
 532:Generated_Source\PSoC4/cyfitter_cfg.c **** 			{0xE8u, 0x40u},
 533:Generated_Source\PSoC4/cyfitter_cfg.c **** 			{0xECu, 0x10u},
 534:Generated_Source\PSoC4/cyfitter_cfg.c **** 			{0x00u, 0x08u},
 535:Generated_Source\PSoC4/cyfitter_cfg.c **** 			{0x04u, 0x02u},
 536:Generated_Source\PSoC4/cyfitter_cfg.c **** 			{0x0Bu, 0x01u},
 537:Generated_Source\PSoC4/cyfitter_cfg.c **** 			{0x0Fu, 0x04u},
 538:Generated_Source\PSoC4/cyfitter_cfg.c **** 			{0x6Fu, 0x04u},
 539:Generated_Source\PSoC4/cyfitter_cfg.c **** 			{0x84u, 0x04u},
 540:Generated_Source\PSoC4/cyfitter_cfg.c **** 			{0xC0u, 0x30u},
 541:Generated_Source\PSoC4/cyfitter_cfg.c **** 			{0xC2u, 0xC0u},
 542:Generated_Source\PSoC4/cyfitter_cfg.c **** 			{0xDAu, 0x80u},
 543:Generated_Source\PSoC4/cyfitter_cfg.c **** 			{0xE4u, 0x40u},
 544:Generated_Source\PSoC4/cyfitter_cfg.c **** 			{0x1Bu, 0x02u},
 545:Generated_Source\PSoC4/cyfitter_cfg.c **** 			{0x27u, 0x04u},
 546:Generated_Source\PSoC4/cyfitter_cfg.c **** 			{0x5Eu, 0x20u},
 547:Generated_Source\PSoC4/cyfitter_cfg.c **** 			{0x83u, 0x02u},
 548:Generated_Source\PSoC4/cyfitter_cfg.c **** 			{0x8Au, 0x10u},
 549:Generated_Source\PSoC4/cyfitter_cfg.c **** 			{0x9Fu, 0x04u},
 550:Generated_Source\PSoC4/cyfitter_cfg.c **** 			{0xAFu, 0x04u},
 551:Generated_Source\PSoC4/cyfitter_cfg.c **** 			{0xB4u, 0x01u},
 552:Generated_Source\PSoC4/cyfitter_cfg.c **** 			{0xB7u, 0x01u},
 553:Generated_Source\PSoC4/cyfitter_cfg.c **** 			{0xC6u, 0x10u},
 554:Generated_Source\PSoC4/cyfitter_cfg.c **** 			{0xC8u, 0x20u},
 555:Generated_Source\PSoC4/cyfitter_cfg.c **** 			{0xD6u, 0x20u},
 556:Generated_Source\PSoC4/cyfitter_cfg.c **** 			{0xE0u, 0x20u},
 557:Generated_Source\PSoC4/cyfitter_cfg.c **** 			{0xE8u, 0x40u},
 558:Generated_Source\PSoC4/cyfitter_cfg.c **** 			{0x6Au, 0x40u},
 559:Generated_Source\PSoC4/cyfitter_cfg.c **** 			{0xDAu, 0x02u},
 560:Generated_Source\PSoC4/cyfitter_cfg.c **** 			{0x20u, 0x02u},
 561:Generated_Source\PSoC4/cyfitter_cfg.c **** 			{0x82u, 0x40u},
 562:Generated_Source\PSoC4/cyfitter_cfg.c **** 			{0x88u, 0x01u},
 563:Generated_Source\PSoC4/cyfitter_cfg.c **** 			{0x96u, 0x40u},
 564:Generated_Source\PSoC4/cyfitter_cfg.c **** 			{0xC8u, 0x08u},
 565:Generated_Source\PSoC4/cyfitter_cfg.c **** 			{0xE2u, 0x01u},
 566:Generated_Source\PSoC4/cyfitter_cfg.c **** 			{0x01u, 0x0Au},
 567:Generated_Source\PSoC4/cyfitter_cfg.c **** 			{0x10u, 0x0Au},
 568:Generated_Source\PSoC4/cyfitter_cfg.c **** 		};
 569:Generated_Source\PSoC4/cyfitter_cfg.c **** 
 570:Generated_Source\PSoC4/cyfitter_cfg.c **** 
 571:Generated_Source\PSoC4/cyfitter_cfg.c **** 
 572:Generated_Source\PSoC4/cyfitter_cfg.c **** 		CYPACKED typedef struct {
 573:Generated_Source\PSoC4/cyfitter_cfg.c **** 			void CYFAR *address;
 574:Generated_Source\PSoC4/cyfitter_cfg.c **** 			uint16 size;
 575:Generated_Source\PSoC4/cyfitter_cfg.c **** 		} CYPACKED_ATTR cfg_memset_t;
 576:Generated_Source\PSoC4/cyfitter_cfg.c **** 
 577:Generated_Source\PSoC4/cyfitter_cfg.c **** 
 578:Generated_Source\PSoC4/cyfitter_cfg.c **** 		CYPACKED typedef struct {
 579:Generated_Source\PSoC4/cyfitter_cfg.c **** 			void CYFAR *dest;
 580:Generated_Source\PSoC4/cyfitter_cfg.c **** 			const void CYCODE *src;
 581:Generated_Source\PSoC4/cyfitter_cfg.c **** 			uint16 size;
 582:Generated_Source\PSoC4/cyfitter_cfg.c **** 		} CYPACKED_ATTR cfg_memcpy_t;
ARM GAS  C:\Users\g\AppData\Local\Temp\ccQQqWns.s 			page 13


 583:Generated_Source\PSoC4/cyfitter_cfg.c **** 
 584:Generated_Source\PSoC4/cyfitter_cfg.c **** 		static const cfg_memset_t CYCODE cfg_memset_list [] = {
 585:Generated_Source\PSoC4/cyfitter_cfg.c **** 			/* address, size */
 586:Generated_Source\PSoC4/cyfitter_cfg.c **** 			{(void CYFAR *)(CYDEV_UDB_P0_U0_BASE), 640u},
 587:Generated_Source\PSoC4/cyfitter_cfg.c **** 			{(void CYFAR *)(CYDEV_UDB_P1_ROUTE_BASE), 256u},
 588:Generated_Source\PSoC4/cyfitter_cfg.c **** 			{(void CYFAR *)(CYDEV_UDB_DSI0_BASE), 1024u},
 589:Generated_Source\PSoC4/cyfitter_cfg.c **** 		};
 590:Generated_Source\PSoC4/cyfitter_cfg.c **** 
 591:Generated_Source\PSoC4/cyfitter_cfg.c **** 		/* UDB_0_0_0_CONFIG Address: CYDEV_UDB_P1_U1_BASE Size (bytes): 128 */
 592:Generated_Source\PSoC4/cyfitter_cfg.c **** 		static const uint8 CYCODE BS_UDB_0_0_0_CONFIG_VAL[] = {
 593:Generated_Source\PSoC4/cyfitter_cfg.c **** 			0x1Fu, 0x00u, 0x00u, 0x00u, 0x40u, 0x07u, 0x00u, 0x08u, 0x18u, 0x01u, 0x03u, 0x12u, 0x06u, 0x00u
 594:Generated_Source\PSoC4/cyfitter_cfg.c **** 			0x00u, 0x06u, 0x40u, 0x11u, 0x20u, 0x00u, 0x00u, 0x00u, 0x00u, 0x18u, 0x00u, 0x03u, 0x00u, 0x10u
 595:Generated_Source\PSoC4/cyfitter_cfg.c **** 			0x10u, 0x00u, 0x04u, 0x40u, 0x07u, 0x00u, 0x08u, 0x00u, 0x01u, 0x00u, 0x12u, 0x00u, 0x00u, 0x00u
 596:Generated_Source\PSoC4/cyfitter_cfg.c **** 			0x40u, 0x00u, 0x20u, 0x20u, 0x00u, 0x40u, 0x1Fu, 0x1Fu, 0x00u, 0x00u, 0x00u, 0x00u, 0x00u, 0x00u
 597:Generated_Source\PSoC4/cyfitter_cfg.c **** 			0x50u, 0x01u, 0x00u, 0x00u, 0x00u, 0x45u, 0xC3u, 0x2Eu, 0x3Fu, 0xFFu, 0xFFu, 0xFFu, 0x00u, 0xAFu
 598:Generated_Source\PSoC4/cyfitter_cfg.c **** 			0x18u, 0x00u, 0x00u, 0x00u, 0x0Fu, 0x00u, 0x00u, 0x00u, 0x04u, 0x04u, 0x04u, 0x04u, 0x10u, 0x11u
 599:Generated_Source\PSoC4/cyfitter_cfg.c **** 			0x40u, 0x00u, 0x80u, 0x00u, 0x40u, 0x40u, 0x80u, 0x00u, 0x40u, 0x00u, 0x80u, 0x00u, 0x40u, 0x20u
 600:Generated_Source\PSoC4/cyfitter_cfg.c **** 			0x00u, 0x00u, 0x00u, 0x00u, 0x00u, 0x00u, 0x00u, 0x00u, 0x00u, 0x00u, 0x00u, 0x00u, 0x00u, 0x00u
 601:Generated_Source\PSoC4/cyfitter_cfg.c **** 
 602:Generated_Source\PSoC4/cyfitter_cfg.c **** 		static const cfg_memcpy_t CYCODE cfg_memcpy_list [] = {
 603:Generated_Source\PSoC4/cyfitter_cfg.c **** 			/* dest, src, size */
 604:Generated_Source\PSoC4/cyfitter_cfg.c **** 			{(void CYFAR *)(CYDEV_UDB_P1_U1_BASE), BS_UDB_0_0_0_CONFIG_VAL, 128u},
 605:Generated_Source\PSoC4/cyfitter_cfg.c **** 		};
 606:Generated_Source\PSoC4/cyfitter_cfg.c **** 
 607:Generated_Source\PSoC4/cyfitter_cfg.c **** 		uint8 CYDATA i;
 608:Generated_Source\PSoC4/cyfitter_cfg.c **** 
 609:Generated_Source\PSoC4/cyfitter_cfg.c **** 		/* Zero out critical memory blocks before beginning configuration */
 610:Generated_Source\PSoC4/cyfitter_cfg.c **** 		for (i = 0u; i < (sizeof(cfg_memset_list)/sizeof(cfg_memset_list[0])); i++)
 611:Generated_Source\PSoC4/cyfitter_cfg.c **** 		{
 612:Generated_Source\PSoC4/cyfitter_cfg.c **** 			const cfg_memset_t CYCODE * CYDATA ms = &cfg_memset_list[i];
 613:Generated_Source\PSoC4/cyfitter_cfg.c **** 			CYMEMZERO(ms->address, (size_t)(uint32)(ms->size));
 101              		.loc 1 613 0 discriminator 3
 102 0014 6300     		lsl	r3, r4, #1
 103 0016 1B19     		add	r3, r3, r4
 104 0018 5B00     		lsl	r3, r3, #1
 105 001a E95A     		ldrh	r1, [r5, r3]
 106 001c EB18     		add	r3, r5, r3
 107 001e 5888     		ldrh	r0, [r3, #2]
 108 0020 B288     		ldrh	r2, [r6, #4]
 109              	.LVL6:
 110 0022 0004     		lsl	r0, r0, #16
 111 0024 0843     		orr	r0, r1
 112 0026 0134     		add	r4, r4, #1
 113              	.LVL7:
 114              	.LBB28:
 115              	.LBB29:
  64:Generated_Source\PSoC4/cyfitter_cfg.c **** }
 116              		.loc 1 64 0 discriminator 3
 117 0028 0021     		mov	r1, #0
 118 002a FFF7FEFF 		bl	memset
 119              	.LVL8:
 120 002e 0636     		add	r6, r6, #6
 121              	.LBE29:
 122              	.LBE28:
 123              	.LBE27:
 610:Generated_Source\PSoC4/cyfitter_cfg.c **** 		{
 124              		.loc 1 610 0 discriminator 3
ARM GAS  C:\Users\g\AppData\Local\Temp\ccQQqWns.s 			page 14


 125 0030 032C     		cmp	r4, #3
 126 0032 EFD1     		bne	.L9
 127              	.LVL9:
 128              	.LBB30:
 129              	.LBB31:
 130              	.LBB32:
  78:Generated_Source\PSoC4/cyfitter_cfg.c **** }
 131              		.loc 1 78 0 discriminator 3
 132 0034 291C     		mov	r1, r5
 133 0036 5948     		ldr	r0, .L19+8
 134 0038 1431     		add	r1, r1, #20
 135 003a 8022     		mov	r2, #128
 136 003c FFF7FEFF 		bl	memcpy
 137              	.LVL10:
 138 0040 3C23     		mov	r3, #60
 139 0042 9846     		mov	r8, r3
 140 0044 564F     		ldr	r7, .L19+12
 141              	.LBE32:
 142              	.LBE31:
 143              	.LBE30:
 144              	.LBB35:
 145              	.LBB36:
 146              	.LBB37:
 168:Generated_Source\PSoC4/cyfitter_cfg.c **** 		while (count != 0u)
 147              		.loc 1 168 0 discriminator 3
 148 0046 C333     		add	r3, r3, #195
 149 0048 3D1C     		mov	r5, r7
 150 004a B844     		add	r8, r8, r7
 151 004c 9C46     		mov	ip, r3
 152              	.LBE37:
 153              	.LBE36:
 154              	.LBE35:
 155              	.LBB40:
 156              	.LBB34:
 157              	.LBB33:
  78:Generated_Source\PSoC4/cyfitter_cfg.c **** }
 158              		.loc 1 78 0 discriminator 3
 159 004e 0027     		mov	r7, #0
 160 0050 4646     		mov	r6, r8
 161 0052 1435     		add	r5, r5, #20
 162              	.LVL11:
 163              	.L12:
 164              	.LBE33:
 165              	.LBE34:
 166              	.LBE40:
 167              	.LBB41:
 168              	.LBB39:
 169              	.LBB38:
 168:Generated_Source\PSoC4/cyfitter_cfg.c **** 		while (count != 0u)
 170              		.loc 1 168 0
 171 0054 6346     		mov	r3, ip
 172 0056 2868     		ldr	r0, [r5]
 167:Generated_Source\PSoC4/cyfitter_cfg.c **** 		baseAddr &= 0xFFFFFF00u;
 173              		.loc 1 167 0
 174 0058 2A78     		ldrb	r2, [r5]
 175              	.LVL12:
 168:Generated_Source\PSoC4/cyfitter_cfg.c **** 		while (count != 0u)
ARM GAS  C:\Users\g\AppData\Local\Temp\ccQQqWns.s 			page 15


 176              		.loc 1 168 0
 177 005a 9843     		bic	r0, r3
 178              	.LVL13:
 169:Generated_Source\PSoC4/cyfitter_cfg.c **** 		{
 179              		.loc 1 169 0
 180 005c 002A     		cmp	r2, #0
 181 005e 0ED0     		beq	.L10
 182 0060 511E     		sub	r1, r2, #1
 183 0062 7C1C     		add	r4, r7, #1
 184 0064 CAB2     		uxtb	r2, r1
 185              	.LVL14:
 186 0066 7B00     		lsl	r3, r7, #1
 187 0068 A718     		add	r7, r4, r2
 188              	.LVL15:
 189 006a 7C00     		lsl	r4, r7, #1
 190              	.LVL16:
 191 006c F318     		add	r3, r6, r3
 192 006e 3419     		add	r4, r6, r4
 193              	.LVL17:
 194              	.L11:
 171:Generated_Source\PSoC4/cyfitter_cfg.c **** 			j++;
 195              		.loc 1 171 0
 196 0070 1A78     		ldrb	r2, [r3]
 197 0072 5978     		ldrb	r1, [r3, #1]
 198 0074 1218     		add	r2, r2, r0
 199 0076 0233     		add	r3, r3, #2
 200 0078 1170     		strb	r1, [r2]
 169:Generated_Source\PSoC4/cyfitter_cfg.c **** 		{
 201              		.loc 1 169 0
 202 007a A342     		cmp	r3, r4
 203 007c F8D1     		bne	.L11
 204              	.L10:
 205              	.LVL18:
 206 007e 0435     		add	r5, r5, #4
 207              	.LBE38:
 164:Generated_Source\PSoC4/cyfitter_cfg.c **** 	{
 208              		.loc 1 164 0
 209 0080 4545     		cmp	r5, r8
 210 0082 E7D1     		bne	.L12
 211              	.LBE39:
 212              	.LBE41:
 614:Generated_Source\PSoC4/cyfitter_cfg.c **** 		}
 615:Generated_Source\PSoC4/cyfitter_cfg.c **** 
 616:Generated_Source\PSoC4/cyfitter_cfg.c **** 		/* Copy device configuration data into registers */
 617:Generated_Source\PSoC4/cyfitter_cfg.c **** 		for (i = 0u; i < (sizeof(cfg_memcpy_list)/sizeof(cfg_memcpy_list[0])); i++)
 618:Generated_Source\PSoC4/cyfitter_cfg.c **** 		{
 619:Generated_Source\PSoC4/cyfitter_cfg.c **** 			const cfg_memcpy_t CYCODE * CYDATA mc = &cfg_memcpy_list[i];
 620:Generated_Source\PSoC4/cyfitter_cfg.c **** 			void * CYDATA destPtr = mc->dest;
 621:Generated_Source\PSoC4/cyfitter_cfg.c **** 			const void CYCODE * CYDATA srcPtr = mc->src;
 622:Generated_Source\PSoC4/cyfitter_cfg.c **** 			uint16 CYDATA numBytes = mc->size;
 623:Generated_Source\PSoC4/cyfitter_cfg.c **** 			CYCONFIGCPYCODE(destPtr, srcPtr, numBytes);
 624:Generated_Source\PSoC4/cyfitter_cfg.c **** 		}
 625:Generated_Source\PSoC4/cyfitter_cfg.c **** 
 626:Generated_Source\PSoC4/cyfitter_cfg.c **** 		cfg_write_bytes32(cy_cfg_addr_table, cy_cfg_data_table);
 627:Generated_Source\PSoC4/cyfitter_cfg.c **** 
 628:Generated_Source\PSoC4/cyfitter_cfg.c **** 		/* HSIOM Starting address: CYDEV_HSIOM_BASE */
 629:Generated_Source\PSoC4/cyfitter_cfg.c **** 		CY_SET_XTND_REG32((void CYFAR *)(CYREG_HSIOM_PORT_SEL1), 0x00000030u);
ARM GAS  C:\Users\g\AppData\Local\Temp\ccQQqWns.s 			page 16


 213              		.loc 1 629 0
 214 0084 3025     		mov	r5, #48
 630:Generated_Source\PSoC4/cyfitter_cfg.c **** 		CY_SET_XTND_REG32((void CYFAR *)(CYREG_HSIOM_PORT_SEL3), 0x00000099u);
 215              		.loc 1 630 0
 216 0086 9922     		mov	r2, #153
 629:Generated_Source\PSoC4/cyfitter_cfg.c **** 		CY_SET_XTND_REG32((void CYFAR *)(CYREG_HSIOM_PORT_SEL3), 0x00000099u);
 217              		.loc 1 629 0
 218 0088 464B     		ldr	r3, .L19+16
 631:Generated_Source\PSoC4/cyfitter_cfg.c **** 
 632:Generated_Source\PSoC4/cyfitter_cfg.c **** 		/* UDB_PA_0 Starting address: CYDEV_UDB_PA0_BASE */
 633:Generated_Source\PSoC4/cyfitter_cfg.c **** 		CY_SET_XTND_REG32((void CYFAR *)(CYDEV_UDB_PA0_BASE), 0x00990000u);
 634:Generated_Source\PSoC4/cyfitter_cfg.c **** 
 635:Generated_Source\PSoC4/cyfitter_cfg.c **** 		/* UDB_PA_1 Starting address: CYDEV_UDB_PA1_BASE */
 636:Generated_Source\PSoC4/cyfitter_cfg.c **** 		CY_SET_XTND_REG32((void CYFAR *)(CYDEV_UDB_PA1_BASE), 0x00990000u);
 637:Generated_Source\PSoC4/cyfitter_cfg.c **** 		CY_SET_XTND_REG32((void CYFAR *)(CYREG_UDB_PA1_CFG8), 0x000C0000u);
 219              		.loc 1 637 0
 220 008a C021     		mov	r1, #192
 629:Generated_Source\PSoC4/cyfitter_cfg.c **** 		CY_SET_XTND_REG32((void CYFAR *)(CYREG_HSIOM_PORT_SEL3), 0x00000099u);
 221              		.loc 1 629 0
 222 008c 1D60     		str	r5, [r3]
 630:Generated_Source\PSoC4/cyfitter_cfg.c **** 
 223              		.loc 1 630 0
 224 008e 464B     		ldr	r3, .L19+20
 225              		.loc 1 637 0
 226 0090 0903     		lsl	r1, r1, #12
 630:Generated_Source\PSoC4/cyfitter_cfg.c **** 
 227              		.loc 1 630 0
 228 0092 1A60     		str	r2, [r3]
 633:Generated_Source\PSoC4/cyfitter_cfg.c **** 
 229              		.loc 1 633 0
 230 0094 9923     		mov	r3, #153
 231 0096 454A     		ldr	r2, .L19+24
 232 0098 1B04     		lsl	r3, r3, #16
 233 009a 1360     		str	r3, [r2]
 636:Generated_Source\PSoC4/cyfitter_cfg.c **** 		CY_SET_XTND_REG32((void CYFAR *)(CYREG_UDB_PA1_CFG8), 0x000C0000u);
 234              		.loc 1 636 0
 235 009c 444A     		ldr	r2, .L19+28
 638:Generated_Source\PSoC4/cyfitter_cfg.c **** 
 639:Generated_Source\PSoC4/cyfitter_cfg.c **** 		/* UDB_PA_2 Starting address: CYDEV_UDB_PA2_BASE */
 640:Generated_Source\PSoC4/cyfitter_cfg.c **** 		CY_SET_XTND_REG32((void CYFAR *)(CYDEV_UDB_PA2_BASE), 0x00990000u);
 641:Generated_Source\PSoC4/cyfitter_cfg.c **** 
 642:Generated_Source\PSoC4/cyfitter_cfg.c **** 		/* UDB_PA_3 Starting address: CYDEV_UDB_PA3_BASE */
 643:Generated_Source\PSoC4/cyfitter_cfg.c **** 		CY_SET_XTND_REG32((void CYFAR *)(CYDEV_UDB_PA3_BASE), 0x00990000u);
 644:Generated_Source\PSoC4/cyfitter_cfg.c **** 
 645:Generated_Source\PSoC4/cyfitter_cfg.c **** 		/* INT_SELECT Starting address: CYDEV_CPUSS_INTR_SELECT */
 646:Generated_Source\PSoC4/cyfitter_cfg.c **** 		CY_SET_XTND_REG32((void CYFAR *)(CYREG_CPUSS_INTR_SELECT), 0x00000001u);
 647:Generated_Source\PSoC4/cyfitter_cfg.c **** 
 648:Generated_Source\PSoC4/cyfitter_cfg.c **** 		/* Enable digital routing */
 649:Generated_Source\PSoC4/cyfitter_cfg.c **** 		CY_SET_XTND_REG8((void *)CYREG_UDB_UDBIF_BANK_CTL, CY_GET_XTND_REG8((void *)CYREG_UDB_UDBIF_BANK_
 650:Generated_Source\PSoC4/cyfitter_cfg.c **** 
 651:Generated_Source\PSoC4/cyfitter_cfg.c **** 		/* Enable UDB array */
 652:Generated_Source\PSoC4/cyfitter_cfg.c **** 		CY_SET_XTND_REG8((void *)CYREG_UDB_UDBIF_WAIT_CFG, (uint8)((CY_GET_XTND_REG8((void *)CYREG_UDB_UD
 236              		.loc 1 652 0
 237 009e 454C     		ldr	r4, .L19+32
 636:Generated_Source\PSoC4/cyfitter_cfg.c **** 		CY_SET_XTND_REG32((void CYFAR *)(CYREG_UDB_PA1_CFG8), 0x000C0000u);
 238              		.loc 1 636 0
 239 00a0 1360     		str	r3, [r2]
ARM GAS  C:\Users\g\AppData\Local\Temp\ccQQqWns.s 			page 17


 637:Generated_Source\PSoC4/cyfitter_cfg.c **** 
 240              		.loc 1 637 0
 241 00a2 454A     		ldr	r2, .L19+36
 242              	.LBE26:
 653:Generated_Source\PSoC4/cyfitter_cfg.c **** 		CY_SET_XTND_REG8((void *)CYREG_UDB_UDBIF_BANK_CTL, (uint8)(CY_GET_XTND_REG8((void *)CYREG_UDB_UDB
 654:Generated_Source\PSoC4/cyfitter_cfg.c **** 	}
 655:Generated_Source\PSoC4/cyfitter_cfg.c **** 
 656:Generated_Source\PSoC4/cyfitter_cfg.c **** 	/* Perform second pass device configuration. These items must be configured in specific order afte
 657:Generated_Source\PSoC4/cyfitter_cfg.c **** 	/* IOPINS0_0 Starting address: CYDEV_PRT0_BASE */
 658:Generated_Source\PSoC4/cyfitter_cfg.c **** 	CY_SET_XTND_REG32((void CYFAR *)(CYDEV_PRT0_BASE), 0x000000CBu);
 659:Generated_Source\PSoC4/cyfitter_cfg.c **** 	CY_SET_XTND_REG32((void CYFAR *)(CYREG_PRT0_PC), 0x00480512u);
 660:Generated_Source\PSoC4/cyfitter_cfg.c **** 
 661:Generated_Source\PSoC4/cyfitter_cfg.c **** 	/* IOPINS0_1 Starting address: CYDEV_PRT1_BASE */
 662:Generated_Source\PSoC4/cyfitter_cfg.c **** 	CY_SET_XTND_REG32((void CYFAR *)(CYDEV_PRT1_BASE), 0x00000002u);
 663:Generated_Source\PSoC4/cyfitter_cfg.c **** 	CY_SET_XTND_REG32((void CYFAR *)(CYREG_PRT1_PC), 0x000001B6u);
 664:Generated_Source\PSoC4/cyfitter_cfg.c **** 	CY_SET_XTND_REG32((void CYFAR *)(CYREG_PRT1_PC2), 0x00000080u);
 665:Generated_Source\PSoC4/cyfitter_cfg.c **** 
 666:Generated_Source\PSoC4/cyfitter_cfg.c **** 	/* IOPINS0_2 Starting address: CYDEV_PRT2_BASE */
 667:Generated_Source\PSoC4/cyfitter_cfg.c **** 	CY_SET_XTND_REG32((void CYFAR *)(CYDEV_PRT2_BASE), 0x0000001Cu);
 668:Generated_Source\PSoC4/cyfitter_cfg.c **** 	CY_SET_XTND_REG32((void CYFAR *)(CYREG_PRT2_PC), 0x00002400u);
 669:Generated_Source\PSoC4/cyfitter_cfg.c **** 	CY_SET_XTND_REG32((void CYFAR *)(CYREG_PRT2_PC2), 0x00000004u);
 243              		.loc 1 669 0
 244 00a4 0426     		mov	r6, #4
 245              	.LBB42:
 637:Generated_Source\PSoC4/cyfitter_cfg.c **** 
 246              		.loc 1 637 0
 247 00a6 1160     		str	r1, [r2]
 640:Generated_Source\PSoC4/cyfitter_cfg.c **** 
 248              		.loc 1 640 0
 249 00a8 444A     		ldr	r2, .L19+40
 649:Generated_Source\PSoC4/cyfitter_cfg.c **** 
 250              		.loc 1 649 0
 251 00aa 0221     		mov	r1, #2
 640:Generated_Source\PSoC4/cyfitter_cfg.c **** 
 252              		.loc 1 640 0
 253 00ac 1360     		str	r3, [r2]
 643:Generated_Source\PSoC4/cyfitter_cfg.c **** 
 254              		.loc 1 643 0
 255 00ae 444A     		ldr	r2, .L19+44
 256              	.LBE42:
 257              	.LBB43:
 258              	.LBB44:
 200:Generated_Source\PSoC4/cyfitter_cfg.c **** 
 259              		.loc 1 200 0
 260 00b0 8027     		mov	r7, #128
 261              	.LVL19:
 262              	.LBE44:
 263              	.LBE43:
 264              	.LBB49:
 643:Generated_Source\PSoC4/cyfitter_cfg.c **** 
 265              		.loc 1 643 0
 266 00b2 1360     		str	r3, [r2]
 646:Generated_Source\PSoC4/cyfitter_cfg.c **** 
 267              		.loc 1 646 0
 268 00b4 0122     		mov	r2, #1
 269 00b6 434B     		ldr	r3, .L19+48
 270              	.LBE49:
ARM GAS  C:\Users\g\AppData\Local\Temp\ccQQqWns.s 			page 18


 271              	.LBB50:
 272              	.LBB45:
 200:Generated_Source\PSoC4/cyfitter_cfg.c **** 
 273              		.loc 1 200 0
 274 00b8 FF02     		lsl	r7, r7, #11
 275              	.LBE45:
 276              	.LBE50:
 277              	.LBB51:
 646:Generated_Source\PSoC4/cyfitter_cfg.c **** 
 278              		.loc 1 646 0
 279 00ba 1A60     		str	r2, [r3]
 649:Generated_Source\PSoC4/cyfitter_cfg.c **** 
 280              		.loc 1 649 0
 281 00bc 424B     		ldr	r3, .L19+52
 282 00be 0132     		add	r2, r2, #1
 283 00c0 1878     		ldrb	r0, [r3]
 284              	.LVL20:
 285              	.LBE51:
 670:Generated_Source\PSoC4/cyfitter_cfg.c **** 
 671:Generated_Source\PSoC4/cyfitter_cfg.c **** 	/* IOPINS0_3 Starting address: CYDEV_PRT3_BASE */
 672:Generated_Source\PSoC4/cyfitter_cfg.c **** 	CY_SET_XTND_REG32((void CYFAR *)(CYDEV_PRT3_BASE), 0x00000002u);
 673:Generated_Source\PSoC4/cyfitter_cfg.c **** 	CY_SET_XTND_REG32((void CYFAR *)(CYREG_PRT3_PC), 0x00000DB1u);
 674:Generated_Source\PSoC4/cyfitter_cfg.c **** 	CY_SET_XTND_REG32((void CYFAR *)(CYREG_PRT3_PC2), 0x00000002u);
 675:Generated_Source\PSoC4/cyfitter_cfg.c **** 
 676:Generated_Source\PSoC4/cyfitter_cfg.c **** 
 677:Generated_Source\PSoC4/cyfitter_cfg.c **** 	/* Setup clocks based on selections from Clock DWR */
 678:Generated_Source\PSoC4/cyfitter_cfg.c **** 	ClockSetup();
 679:Generated_Source\PSoC4/cyfitter_cfg.c **** 
 680:Generated_Source\PSoC4/cyfitter_cfg.c **** 	/* Perform basic analog initialization to defaults */
 681:Generated_Source\PSoC4/cyfitter_cfg.c **** 	AnalogSetDefault();
 682:Generated_Source\PSoC4/cyfitter_cfg.c **** 
 683:Generated_Source\PSoC4/cyfitter_cfg.c **** }
 286              		.loc 1 683 0
 287              		@ sp needed
 288              	.LBB52:
 649:Generated_Source\PSoC4/cyfitter_cfg.c **** 
 289              		.loc 1 649 0
 290 00c2 0143     		orr	r1, r0
 652:Generated_Source\PSoC4/cyfitter_cfg.c **** 		CY_SET_XTND_REG8((void *)CYREG_UDB_UDBIF_BANK_CTL, (uint8)(CY_GET_XTND_REG8((void *)CYREG_UDB_UDB
 291              		.loc 1 652 0
 292 00c4 3C20     		mov	r0, #60
 649:Generated_Source\PSoC4/cyfitter_cfg.c **** 
 293              		.loc 1 649 0
 294 00c6 1970     		strb	r1, [r3]
 652:Generated_Source\PSoC4/cyfitter_cfg.c **** 		CY_SET_XTND_REG8((void *)CYREG_UDB_UDBIF_BANK_CTL, (uint8)(CY_GET_XTND_REG8((void *)CYREG_UDB_UDB
 295              		.loc 1 652 0
 296 00c8 2178     		ldrb	r1, [r4]
 297 00ca 8143     		bic	r1, r0
 298 00cc 2838     		sub	r0, r0, #40
 299 00ce 0143     		orr	r1, r0
 300 00d0 2170     		strb	r1, [r4]
 653:Generated_Source\PSoC4/cyfitter_cfg.c **** 	}
 301              		.loc 1 653 0
 302 00d2 1621     		mov	r1, #22
 303 00d4 1878     		ldrb	r0, [r3]
 304              	.LBE52:
 305              	.LBB53:
ARM GAS  C:\Users\g\AppData\Local\Temp\ccQQqWns.s 			page 19


 306              	.LBB46:
 200:Generated_Source\PSoC4/cyfitter_cfg.c **** 
 307              		.loc 1 200 0
 308 00d6 3D4C     		ldr	r4, .L19+56
 309              	.LBE46:
 310              	.LBE53:
 311              	.LBB54:
 653:Generated_Source\PSoC4/cyfitter_cfg.c **** 	}
 312              		.loc 1 653 0
 313 00d8 0143     		orr	r1, r0
 314 00da 1970     		strb	r1, [r3]
 315              	.LBE54:
 658:Generated_Source\PSoC4/cyfitter_cfg.c **** 	CY_SET_XTND_REG32((void CYFAR *)(CYREG_PRT0_PC), 0x00480512u);
 316              		.loc 1 658 0
 317 00dc CB21     		mov	r1, #203
 318 00de 3C4B     		ldr	r3, .L19+60
 319              	.LBB55:
 320              	.LBB47:
 203:Generated_Source\PSoC4/cyfitter_cfg.c **** 	/* CYDEV_CLK_ILO_CONFIG Starting address: CYDEV_CLK_ILO_CONFIG */
 321              		.loc 1 203 0
 322 00e0 3020     		mov	r0, #48
 323              	.LBE47:
 324              	.LBE55:
 658:Generated_Source\PSoC4/cyfitter_cfg.c **** 	CY_SET_XTND_REG32((void CYFAR *)(CYREG_PRT0_PC), 0x00480512u);
 325              		.loc 1 658 0
 326 00e2 1960     		str	r1, [r3]
 659:Generated_Source\PSoC4/cyfitter_cfg.c **** 
 327              		.loc 1 659 0
 328 00e4 3B49     		ldr	r1, .L19+64
 329 00e6 3C4B     		ldr	r3, .L19+68
 330 00e8 1960     		str	r1, [r3]
 663:Generated_Source\PSoC4/cyfitter_cfg.c **** 	CY_SET_XTND_REG32((void CYFAR *)(CYREG_PRT1_PC2), 0x00000080u);
 331              		.loc 1 663 0
 332 00ea DB21     		mov	r1, #219
 662:Generated_Source\PSoC4/cyfitter_cfg.c **** 	CY_SET_XTND_REG32((void CYFAR *)(CYREG_PRT1_PC), 0x000001B6u);
 333              		.loc 1 662 0
 334 00ec 3B4B     		ldr	r3, .L19+72
 663:Generated_Source\PSoC4/cyfitter_cfg.c **** 	CY_SET_XTND_REG32((void CYFAR *)(CYREG_PRT1_PC2), 0x00000080u);
 335              		.loc 1 663 0
 336 00ee 4900     		lsl	r1, r1, #1
 662:Generated_Source\PSoC4/cyfitter_cfg.c **** 	CY_SET_XTND_REG32((void CYFAR *)(CYREG_PRT1_PC), 0x000001B6u);
 337              		.loc 1 662 0
 338 00f0 1A60     		str	r2, [r3]
 663:Generated_Source\PSoC4/cyfitter_cfg.c **** 	CY_SET_XTND_REG32((void CYFAR *)(CYREG_PRT1_PC2), 0x00000080u);
 339              		.loc 1 663 0
 340 00f2 3B4B     		ldr	r3, .L19+76
 341 00f4 1960     		str	r1, [r3]
 664:Generated_Source\PSoC4/cyfitter_cfg.c **** 
 342              		.loc 1 664 0
 343 00f6 3B4B     		ldr	r3, .L19+80
 344 00f8 3739     		sub	r1, r1, #55
 345 00fa FF39     		sub	r1, r1, #255
 346 00fc 1960     		str	r1, [r3]
 667:Generated_Source\PSoC4/cyfitter_cfg.c **** 	CY_SET_XTND_REG32((void CYFAR *)(CYREG_PRT2_PC), 0x00002400u);
 347              		.loc 1 667 0
 348 00fe 3A4B     		ldr	r3, .L19+84
 349 0100 6439     		sub	r1, r1, #100
ARM GAS  C:\Users\g\AppData\Local\Temp\ccQQqWns.s 			page 20


 350 0102 1960     		str	r1, [r3]
 668:Generated_Source\PSoC4/cyfitter_cfg.c **** 	CY_SET_XTND_REG32((void CYFAR *)(CYREG_PRT2_PC2), 0x00000004u);
 351              		.loc 1 668 0
 352 0104 9021     		mov	r1, #144
 353 0106 394B     		ldr	r3, .L19+88
 354 0108 8901     		lsl	r1, r1, #6
 355 010a 1960     		str	r1, [r3]
 669:Generated_Source\PSoC4/cyfitter_cfg.c **** 
 356              		.loc 1 669 0
 357 010c 384B     		ldr	r3, .L19+92
 673:Generated_Source\PSoC4/cyfitter_cfg.c **** 	CY_SET_XTND_REG32((void CYFAR *)(CYREG_PRT3_PC2), 0x00000002u);
 358              		.loc 1 673 0
 359 010e 3949     		ldr	r1, .L19+96
 669:Generated_Source\PSoC4/cyfitter_cfg.c **** 
 360              		.loc 1 669 0
 361 0110 1E60     		str	r6, [r3]
 672:Generated_Source\PSoC4/cyfitter_cfg.c **** 	CY_SET_XTND_REG32((void CYFAR *)(CYREG_PRT3_PC), 0x00000DB1u);
 362              		.loc 1 672 0
 363 0112 394B     		ldr	r3, .L19+100
 364 0114 1A60     		str	r2, [r3]
 673:Generated_Source\PSoC4/cyfitter_cfg.c **** 	CY_SET_XTND_REG32((void CYFAR *)(CYREG_PRT3_PC2), 0x00000002u);
 365              		.loc 1 673 0
 366 0116 394B     		ldr	r3, .L19+104
 367 0118 1960     		str	r1, [r3]
 674:Generated_Source\PSoC4/cyfitter_cfg.c **** 
 368              		.loc 1 674 0
 369 011a 394B     		ldr	r3, .L19+108
 370 011c 1A60     		str	r2, [r3]
 371              	.LBB56:
 372              	.LBB48:
 200:Generated_Source\PSoC4/cyfitter_cfg.c **** 
 373              		.loc 1 200 0
 374 011e 2368     		ldr	r3, [r4]
 375 0120 3B43     		orr	r3, r7
 376 0122 2360     		str	r3, [r4]
 203:Generated_Source\PSoC4/cyfitter_cfg.c **** 	/* CYDEV_CLK_ILO_CONFIG Starting address: CYDEV_CLK_ILO_CONFIG */
 377              		.loc 1 203 0
 378 0124 FFF7FEFF 		bl	CySysClkWriteImoFreq
 379              	.LVL21:
 205:Generated_Source\PSoC4/cyfitter_cfg.c **** 
 380              		.loc 1 205 0
 381 0128 364A     		ldr	r2, .L19+112
 382 012a 374B     		ldr	r3, .L19+116
 226:Generated_Source\PSoC4/cyfitter_cfg.c **** 
 383              		.loc 1 226 0
 384 012c 3749     		ldr	r1, .L19+120
 205:Generated_Source\PSoC4/cyfitter_cfg.c **** 
 385              		.loc 1 205 0
 386 012e 1A60     		str	r2, [r3]
 209:Generated_Source\PSoC4/cyfitter_cfg.c **** 	CY_SET_XTND_REG32((void CYFAR *)(CYREG_CLK_SELECT07), 0x00000011u);
 387              		.loc 1 209 0
 388 0130 2122     		mov	r2, #33
 389 0132 374B     		ldr	r3, .L19+124
 237:Generated_Source\PSoC4/cyfitter_cfg.c **** 	CyIntEnable(9u);
 390              		.loc 1 237 0
 391 0134 0920     		mov	r0, #9
 209:Generated_Source\PSoC4/cyfitter_cfg.c **** 	CY_SET_XTND_REG32((void CYFAR *)(CYREG_CLK_SELECT07), 0x00000011u);
ARM GAS  C:\Users\g\AppData\Local\Temp\ccQQqWns.s 			page 21


 392              		.loc 1 209 0
 393 0136 1A60     		str	r2, [r3]
 210:Generated_Source\PSoC4/cyfitter_cfg.c **** 	CY_SET_XTND_REG32((void CYFAR *)(CYREG_CLK_SELECT08), 0x00000030u);
 394              		.loc 1 210 0
 395 0138 364B     		ldr	r3, .L19+128
 396 013a 103A     		sub	r2, r2, #16
 397 013c 1A60     		str	r2, [r3]
 211:Generated_Source\PSoC4/cyfitter_cfg.c **** 	CY_SET_XTND_REG32((void CYFAR *)(CYREG_CLK_SELECT09), 0x00000010u);
 398              		.loc 1 211 0
 399 013e 364B     		ldr	r3, .L19+132
 212:Generated_Source\PSoC4/cyfitter_cfg.c **** 	CY_SET_XTND_REG32((void CYFAR *)(CYREG_CLK_SELECT13), 0x00000010u);
 400              		.loc 1 212 0
 401 0140 364A     		ldr	r2, .L19+136
 211:Generated_Source\PSoC4/cyfitter_cfg.c **** 	CY_SET_XTND_REG32((void CYFAR *)(CYREG_CLK_SELECT09), 0x00000010u);
 402              		.loc 1 211 0
 403 0142 1D60     		str	r5, [r3]
 212:Generated_Source\PSoC4/cyfitter_cfg.c **** 	CY_SET_XTND_REG32((void CYFAR *)(CYREG_CLK_SELECT13), 0x00000010u);
 404              		.loc 1 212 0
 405 0144 1023     		mov	r3, #16
 406 0146 1360     		str	r3, [r2]
 213:Generated_Source\PSoC4/cyfitter_cfg.c **** 	CY_SET_XTND_REG32((void CYFAR *)(CYREG_CLK_SELECT15), 0x00000020u);
 407              		.loc 1 213 0
 408 0148 354A     		ldr	r2, .L19+140
 409 014a 1360     		str	r3, [r2]
 214:Generated_Source\PSoC4/cyfitter_cfg.c **** 
 410              		.loc 1 214 0
 411 014c 2022     		mov	r2, #32
 412 014e 354B     		ldr	r3, .L19+144
 413 0150 1A60     		str	r2, [r3]
 217:Generated_Source\PSoC4/cyfitter_cfg.c **** 
 414              		.loc 1 217 0
 415 0152 8222     		mov	r2, #130
 416 0154 344B     		ldr	r3, .L19+148
 417 0156 1206     		lsl	r2, r2, #24
 418 0158 1A60     		str	r2, [r3]
 223:Generated_Source\PSoC4/cyfitter_cfg.c **** 
 419              		.loc 1 223 0
 420 015a 344B     		ldr	r3, .L19+152
 421 015c 344A     		ldr	r2, .L19+156
 220:Generated_Source\PSoC4/cyfitter_cfg.c **** 
 422              		.loc 1 220 0
 423 015e 2760     		str	r7, [r4]
 223:Generated_Source\PSoC4/cyfitter_cfg.c **** 
 424              		.loc 1 223 0
 425 0160 1360     		str	r3, [r2]
 226:Generated_Source\PSoC4/cyfitter_cfg.c **** 
 426              		.loc 1 226 0
 427 0162 344A     		ldr	r2, .L19+160
 428 0164 1160     		str	r1, [r2]
 229:Generated_Source\PSoC4/cyfitter_cfg.c **** 
 429              		.loc 1 229 0
 430 0166 8021     		mov	r1, #128
 431 0168 334A     		ldr	r2, .L19+164
 432 016a 0906     		lsl	r1, r1, #24
 433 016c 1160     		str	r1, [r2]
 232:Generated_Source\PSoC4/cyfitter_cfg.c **** 
 434              		.loc 1 232 0
ARM GAS  C:\Users\g\AppData\Local\Temp\ccQQqWns.s 			page 22


 435 016e 334A     		ldr	r2, .L19+168
 237:Generated_Source\PSoC4/cyfitter_cfg.c **** 	CyIntEnable(9u);
 436              		.loc 1 237 0
 437 0170 3349     		ldr	r1, .L19+172
 232:Generated_Source\PSoC4/cyfitter_cfg.c **** 
 438              		.loc 1 232 0
 439 0172 1360     		str	r3, [r2]
 235:Generated_Source\PSoC4/cyfitter_cfg.c **** 
 440              		.loc 1 235 0
 441 0174 334A     		ldr	r2, .L19+176
 442 0176 344B     		ldr	r3, .L19+180
 443 0178 1A60     		str	r2, [r3]
 237:Generated_Source\PSoC4/cyfitter_cfg.c **** 	CyIntEnable(9u);
 444              		.loc 1 237 0
 445 017a FFF7FEFF 		bl	CyIntSetVector
 446              	.LVL22:
 238:Generated_Source\PSoC4/cyfitter_cfg.c **** 	CY_SET_XTND_REG32((void CYFAR *)(CYREG_WDT_CONFIG), 0x00000000u);
 447              		.loc 1 238 0
 448 017e 0920     		mov	r0, #9
 449 0180 FFF7FEFF 		bl	CyIntEnable
 450              	.LVL23:
 239:Generated_Source\PSoC4/cyfitter_cfg.c **** }
 451              		.loc 1 239 0
 452 0184 0022     		mov	r2, #0
 453 0186 314B     		ldr	r3, .L19+184
 454 0188 1A60     		str	r2, [r3]
 455              	.LBE48:
 456              	.LBE56:
 457              	.LBB57:
 458              	.LBB58:
 264:Generated_Source\PSoC4/cyfitter_cfg.c **** 	/* Variable VDDA is selected; no pumps are enabled by default */
 459              		.loc 1 264 0
 460 018a 314B     		ldr	r3, .L19+188
 461 018c 1E60     		str	r6, [r3]
 462              	.LBE58:
 463              	.LBE57:
 464              		.loc 1 683 0
 465 018e 04BC     		pop	{r2}
 466 0190 9046     		mov	r8, r2
 467 0192 F0BD     		pop	{r4, r5, r6, r7, pc}
 468              	.L20:
 469              		.align	2
 470              	.L19:
 471 0194 00000000 		.word	.LANCHOR0
 472 0198 1C700F40 		.word	1074753564
 473 019c 80320F40 		.word	1074737792
 474 01a0 80000000 		.word	.LANCHOR1
 475 01a4 04000140 		.word	1073807364
 476 01a8 0C000140 		.word	1073807372
 477 01ac 00500F40 		.word	1074745344
 478 01b0 10500F40 		.word	1074745360
 479 01b4 01700F40 		.word	1074753537
 480 01b8 18500F40 		.word	1074745368
 481 01bc 20500F40 		.word	1074745376
 482 01c0 30500F40 		.word	1074745392
 483 01c4 20000040 		.word	1073741856
 484 01c8 00700F40 		.word	1074753536
ARM GAS  C:\Users\g\AppData\Local\Temp\ccQQqWns.s 			page 23


 485 01cc 00010B40 		.word	1074462976
 486 01d0 00000440 		.word	1074003968
 487 01d4 12054800 		.word	4719890
 488 01d8 08000440 		.word	1074003976
 489 01dc 00010440 		.word	1074004224
 490 01e0 08010440 		.word	1074004232
 491 01e4 18010440 		.word	1074004248
 492 01e8 00020440 		.word	1074004480
 493 01ec 08020440 		.word	1074004488
 494 01f0 18020440 		.word	1074004504
 495 01f4 B10D0000 		.word	3505
 496 01f8 00030440 		.word	1074004736
 497 01fc 08030440 		.word	1074004744
 498 0200 18030440 		.word	1074004760
 499 0204 06000080 		.word	-2147483642
 500 0208 04010B40 		.word	1074462980
 501 020c 030000C0 		.word	-1073741821
 502 0210 0C020240 		.word	1073873420
 503 0214 1C020240 		.word	1073873436
 504 0218 20020240 		.word	1073873440
 505 021c 24020240 		.word	1073873444
 506 0220 34020240 		.word	1073873460
 507 0224 3C020240 		.word	1073873468
 508 0228 08010B40 		.word	1074462984
 509 022c 03000080 		.word	-2147483645
 510 0230 00000240 		.word	1073872896
 511 0234 40000240 		.word	1073872960
 512 0238 80000240 		.word	1073873024
 513 023c 04000240 		.word	1073872900
 514 0240 00000000 		.word	CySysWdtIsr
 515 0244 F9000080 		.word	-2147483399
 516 0248 44000240 		.word	1073872964
 517 024c 0C020B40 		.word	1074463244
 518 0250 00031A40 		.word	1075446528
 519              		.cfi_endproc
 520              	.LFE7:
 521              		.size	cyfitter_cfg, .-cyfitter_cfg
 522              		.section	.rodata
 523              		.align	2
 524              		.set	.LANCHOR0,. + 0
 525              		.set	.LANCHOR1,. + 128
 526              		.type	cfg_memset_list.4757, %object
 527              		.size	cfg_memset_list.4757, 18
 528              	cfg_memset_list.4757:
 529 0000 00300F40 		.word	1074737152
 530 0004 8002     		.short	640
 531 0006 00330F40 		.4byte	1074737920
 532 000a 0001     		.short	256
 533 000c 00400F40 		.word	1074741248
 534 0010 0004     		.short	1024
 535 0012 0000     		.space	2
 536              		.type	BS_UDB_0_0_0_CONFIG_VAL.4758, %object
 537              		.size	BS_UDB_0_0_0_CONFIG_VAL.4758, 128
 538              	BS_UDB_0_0_0_CONFIG_VAL.4758:
 539 0014 1F       		.byte	31
 540 0015 00       		.byte	0
 541 0016 00       		.byte	0
ARM GAS  C:\Users\g\AppData\Local\Temp\ccQQqWns.s 			page 24


 542 0017 00       		.byte	0
 543 0018 40       		.byte	64
 544 0019 07       		.byte	7
 545 001a 00       		.byte	0
 546 001b 08       		.byte	8
 547 001c 18       		.byte	24
 548 001d 01       		.byte	1
 549 001e 03       		.byte	3
 550 001f 12       		.byte	18
 551 0020 06       		.byte	6
 552 0021 00       		.byte	0
 553 0022 11       		.byte	17
 554 0023 20       		.byte	32
 555 0024 00       		.byte	0
 556 0025 06       		.byte	6
 557 0026 40       		.byte	64
 558 0027 11       		.byte	17
 559 0028 20       		.byte	32
 560 0029 00       		.byte	0
 561 002a 00       		.byte	0
 562 002b 00       		.byte	0
 563 002c 00       		.byte	0
 564 002d 18       		.byte	24
 565 002e 00       		.byte	0
 566 002f 03       		.byte	3
 567 0030 00       		.byte	0
 568 0031 10       		.byte	16
 569 0032 20       		.byte	32
 570 0033 04       		.byte	4
 571 0034 10       		.byte	16
 572 0035 00       		.byte	0
 573 0036 04       		.byte	4
 574 0037 40       		.byte	64
 575 0038 07       		.byte	7
 576 0039 00       		.byte	0
 577 003a 08       		.byte	8
 578 003b 00       		.byte	0
 579 003c 01       		.byte	1
 580 003d 00       		.byte	0
 581 003e 12       		.byte	18
 582 003f 00       		.byte	0
 583 0040 00       		.byte	0
 584 0041 00       		.byte	0
 585 0042 00       		.byte	0
 586 0043 00       		.byte	0
 587 0044 40       		.byte	64
 588 0045 00       		.byte	0
 589 0046 20       		.byte	32
 590 0047 20       		.byte	32
 591 0048 00       		.byte	0
 592 0049 40       		.byte	64
 593 004a 1F       		.byte	31
 594 004b 1F       		.byte	31
 595 004c 00       		.byte	0
 596 004d 00       		.byte	0
 597 004e 00       		.byte	0
 598 004f 00       		.byte	0
ARM GAS  C:\Users\g\AppData\Local\Temp\ccQQqWns.s 			page 25


 599 0050 00       		.byte	0
 600 0051 00       		.byte	0
 601 0052 45       		.byte	69
 602 0053 00       		.byte	0
 603 0054 50       		.byte	80
 604 0055 01       		.byte	1
 605 0056 00       		.byte	0
 606 0057 00       		.byte	0
 607 0058 00       		.byte	0
 608 0059 45       		.byte	69
 609 005a C3       		.byte	-61
 610 005b 2E       		.byte	46
 611 005c 3F       		.byte	63
 612 005d FF       		.byte	-1
 613 005e FF       		.byte	-1
 614 005f FF       		.byte	-1
 615 0060 00       		.byte	0
 616 0061 AF       		.byte	-81
 617 0062 07       		.byte	7
 618 0063 01       		.byte	1
 619 0064 18       		.byte	24
 620 0065 00       		.byte	0
 621 0066 00       		.byte	0
 622 0067 00       		.byte	0
 623 0068 0F       		.byte	15
 624 0069 00       		.byte	0
 625 006a 00       		.byte	0
 626 006b 00       		.byte	0
 627 006c 04       		.byte	4
 628 006d 04       		.byte	4
 629 006e 04       		.byte	4
 630 006f 04       		.byte	4
 631 0070 10       		.byte	16
 632 0071 11       		.byte	17
 633 0072 00       		.byte	0
 634 0073 01       		.byte	1
 635 0074 40       		.byte	64
 636 0075 00       		.byte	0
 637 0076 80       		.byte	-128
 638 0077 00       		.byte	0
 639 0078 40       		.byte	64
 640 0079 40       		.byte	64
 641 007a 80       		.byte	-128
 642 007b 00       		.byte	0
 643 007c 40       		.byte	64
 644 007d 00       		.byte	0
 645 007e 80       		.byte	-128
 646 007f 00       		.byte	0
 647 0080 40       		.byte	64
 648 0081 20       		.byte	32
 649 0082 80       		.byte	-128
 650 0083 00       		.byte	0
 651 0084 00       		.byte	0
 652 0085 00       		.byte	0
 653 0086 00       		.byte	0
 654 0087 00       		.byte	0
 655 0088 00       		.byte	0
ARM GAS  C:\Users\g\AppData\Local\Temp\ccQQqWns.s 			page 26


 656 0089 00       		.byte	0
 657 008a 00       		.byte	0
 658 008b 00       		.byte	0
 659 008c 00       		.byte	0
 660 008d 00       		.byte	0
 661 008e 00       		.byte	0
 662 008f 00       		.byte	0
 663 0090 00       		.byte	0
 664 0091 00       		.byte	0
 665 0092 00       		.byte	0
 666 0093 00       		.byte	0
 667              		.type	cy_cfg_addr_table.4746, %object
 668              		.size	cy_cfg_addr_table.4746, 40
 669              	cy_cfg_addr_table.4746:
 670 0094 01000F40 		.word	1074724865
 671 0098 35300F40 		.word	1074737205
 672 009c 2C310F40 		.word	1074737452
 673 00a0 23320F40 		.word	1074737699
 674 00a4 3C330F40 		.word	1074737980
 675 00a8 0A400F40 		.word	1074741258
 676 00ac 0E410F40 		.word	1074741518
 677 00b0 02420F40 		.word	1074741762
 678 00b4 06430F40 		.word	1074742022
 679 00b8 02600F40 		.word	1074749442
 680              		.type	cy_cfg_data_table.4747, %object
 681              		.size	cy_cfg_data_table.4747, 454
 682              	cy_cfg_data_table.4747:
 683 00bc 83       		.byte	-125
 684 00bd 6F       		.byte	111
 685 00be 07       		.byte	7
 686 00bf 02       		.byte	2
 687 00c0 0E       		.byte	14
 688 00c1 02       		.byte	2
 689 00c2 12       		.byte	18
 690 00c3 01       		.byte	1
 691 00c4 13       		.byte	19
 692 00c5 08       		.byte	8
 693 00c6 19       		.byte	25
 694 00c7 04       		.byte	4
 695 00c8 23       		.byte	35
 696 00c9 05       		.byte	5
 697 00ca 29       		.byte	41
 698 00cb 08       		.byte	8
 699 00cc 2F       		.byte	47
 700 00cd 08       		.byte	8
 701 00ce 31       		.byte	49
 702 00cf 04       		.byte	4
 703 00d0 32       		.byte	50
 704 00d1 01       		.byte	1
 705 00d2 33       		.byte	51
 706 00d3 02       		.byte	2
 707 00d4 34       		.byte	52
 708 00d5 02       		.byte	2
 709 00d6 35       		.byte	53
 710 00d7 01       		.byte	1
 711 00d8 37       		.byte	55
 712 00d9 08       		.byte	8
ARM GAS  C:\Users\g\AppData\Local\Temp\ccQQqWns.s 			page 27


 713 00da 3A       		.byte	58
 714 00db 0B       		.byte	11
 715 00dc 3F       		.byte	63
 716 00dd 41       		.byte	65
 717 00de 52       		.byte	82
 718 00df 87       		.byte	-121
 719 00e0 58       		.byte	88
 720 00e1 04       		.byte	4
 721 00e2 59       		.byte	89
 722 00e3 04       		.byte	4
 723 00e4 5B       		.byte	91
 724 00e5 04       		.byte	4
 725 00e6 5C       		.byte	92
 726 00e7 31       		.byte	49
 727 00e8 5D       		.byte	93
 728 00e9 10       		.byte	16
 729 00ea 5F       		.byte	95
 730 00eb 01       		.byte	1
 731 00ec 82       		.byte	-126
 732 00ed 01       		.byte	1
 733 00ee 83       		.byte	-125
 734 00ef FF       		.byte	-1
 735 00f0 85       		.byte	-123
 736 00f1 19       		.byte	25
 737 00f2 87       		.byte	-121
 738 00f3 66       		.byte	102
 739 00f4 8D       		.byte	-115
 740 00f5 4B       		.byte	75
 741 00f6 8F       		.byte	-113
 742 00f7 34       		.byte	52
 743 00f8 92       		.byte	-110
 744 00f9 01       		.byte	1
 745 00fa 93       		.byte	-109
 746 00fb 80       		.byte	-128
 747 00fc 94       		.byte	-108
 748 00fd 01       		.byte	1
 749 00fe 95       		.byte	-107
 750 00ff 07       		.byte	7
 751 0100 97       		.byte	-105
 752 0101 78       		.byte	120
 753 0102 98       		.byte	-104
 754 0103 01       		.byte	1
 755 0104 99       		.byte	-103
 756 0105 80       		.byte	-128
 757 0106 A0       		.byte	-96
 758 0107 01       		.byte	1
 759 0108 A1       		.byte	-95
 760 0109 2A       		.byte	42
 761 010a A3       		.byte	-93
 762 010b 55       		.byte	85
 763 010c A8       		.byte	-88
 764 010d 01       		.byte	1
 765 010e A9       		.byte	-87
 766 010f 7F       		.byte	127
 767 0110 AB       		.byte	-85
 768 0111 80       		.byte	-128
 769 0112 AE       		.byte	-82
ARM GAS  C:\Users\g\AppData\Local\Temp\ccQQqWns.s 			page 28


 770 0113 02       		.byte	2
 771 0114 B0       		.byte	-80
 772 0115 03       		.byte	3
 773 0116 B1       		.byte	-79
 774 0117 FF       		.byte	-1
 775 0118 BF       		.byte	-65
 776 0119 01       		.byte	1
 777 011a D6       		.byte	-42
 778 011b 08       		.byte	8
 779 011c D8       		.byte	-40
 780 011d 04       		.byte	4
 781 011e D9       		.byte	-39
 782 011f 04       		.byte	4
 783 0120 DB       		.byte	-37
 784 0121 04       		.byte	4
 785 0122 DC       		.byte	-36
 786 0123 01       		.byte	1
 787 0124 DD       		.byte	-35
 788 0125 30       		.byte	48
 789 0126 DF       		.byte	-33
 790 0127 01       		.byte	1
 791 0128 03       		.byte	3
 792 0129 02       		.byte	2
 793 012a 06       		.byte	6
 794 012b 80       		.byte	-128
 795 012c 0A       		.byte	10
 796 012d 40       		.byte	64
 797 012e 0E       		.byte	14
 798 012f 40       		.byte	64
 799 0130 0F       		.byte	15
 800 0131 18       		.byte	24
 801 0132 15       		.byte	21
 802 0133 01       		.byte	1
 803 0134 16       		.byte	22
 804 0135 08       		.byte	8
 805 0136 17       		.byte	23
 806 0137 80       		.byte	-128
 807 0138 19       		.byte	25
 808 0139 10       		.byte	16
 809 013a 1A       		.byte	26
 810 013b 40       		.byte	64
 811 013c 1B       		.byte	27
 812 013d 0D       		.byte	13
 813 013e 1F       		.byte	31
 814 013f 02       		.byte	2
 815 0140 20       		.byte	32
 816 0141 42       		.byte	66
 817 0142 22       		.byte	34
 818 0143 28       		.byte	40
 819 0144 23       		.byte	35
 820 0145 12       		.byte	18
 821 0146 27       		.byte	39
 822 0147 80       		.byte	-128
 823 0148 29       		.byte	41
 824 0149 12       		.byte	18
 825 014a 2B       		.byte	43
 826 014b 02       		.byte	2
ARM GAS  C:\Users\g\AppData\Local\Temp\ccQQqWns.s 			page 29


 827 014c 2D       		.byte	45
 828 014d 01       		.byte	1
 829 014e 2F       		.byte	47
 830 014f 88       		.byte	-120
 831 0150 31       		.byte	49
 832 0151 01       		.byte	1
 833 0152 32       		.byte	50
 834 0153 20       		.byte	32
 835 0154 35       		.byte	53
 836 0155 02       		.byte	2
 837 0156 36       		.byte	54
 838 0157 28       		.byte	40
 839 0158 3A       		.byte	58
 840 0159 04       		.byte	4
 841 015a 3E       		.byte	62
 842 015b 88       		.byte	-120
 843 015c 3F       		.byte	63
 844 015d 02       		.byte	2
 845 015e 5C       		.byte	92
 846 015f 09       		.byte	9
 847 0160 5F       		.byte	95
 848 0161 60       		.byte	96
 849 0162 65       		.byte	101
 850 0163 02       		.byte	2
 851 0164 66       		.byte	102
 852 0165 8C       		.byte	-116
 853 0166 67       		.byte	103
 854 0167 04       		.byte	4
 855 0168 68       		.byte	104
 856 0169 28       		.byte	40
 857 016a 69       		.byte	105
 858 016b 54       		.byte	84
 859 016c 71       		.byte	113
 860 016d 01       		.byte	1
 861 016e 87       		.byte	-121
 862 016f 40       		.byte	64
 863 0170 C0       		.byte	-64
 864 0171 11       		.byte	17
 865 0172 C2       		.byte	-62
 866 0173 78       		.byte	120
 867 0174 C4       		.byte	-60
 868 0175 D0       		.byte	-48
 869 0176 CA       		.byte	-54
 870 0177 AD       		.byte	-83
 871 0178 CC       		.byte	-52
 872 0179 E5       		.byte	-27
 873 017a CE       		.byte	-50
 874 017b D2       		.byte	-46
 875 017c D6       		.byte	-42
 876 017d F0       		.byte	-16
 877 017e D8       		.byte	-40
 878 017f F0       		.byte	-16
 879 0180 07       		.byte	7
 880 0181 04       		.byte	4
 881 0182 15       		.byte	21
 882 0183 01       		.byte	1
 883 0184 17       		.byte	23
ARM GAS  C:\Users\g\AppData\Local\Temp\ccQQqWns.s 			page 30


 884 0185 02       		.byte	2
 885 0186 22       		.byte	34
 886 0187 01       		.byte	1
 887 0188 29       		.byte	41
 888 0189 03       		.byte	3
 889 018a 2B       		.byte	43
 890 018b 04       		.byte	4
 891 018c 2D       		.byte	45
 892 018d 02       		.byte	2
 893 018e 2F       		.byte	47
 894 018f 01       		.byte	1
 895 0190 31       		.byte	49
 896 0191 07       		.byte	7
 897 0192 36       		.byte	54
 898 0193 01       		.byte	1
 899 0194 40       		.byte	64
 900 0195 40       		.byte	64
 901 0196 41       		.byte	65
 902 0197 01       		.byte	1
 903 0198 49       		.byte	73
 904 0199 FF       		.byte	-1
 905 019a 4A       		.byte	74
 906 019b FF       		.byte	-1
 907 019c 4B       		.byte	75
 908 019d FF       		.byte	-1
 909 019e 4D       		.byte	77
 910 019f A0       		.byte	-96
 911 01a0 4F       		.byte	79
 912 01a1 01       		.byte	1
 913 01a2 50       		.byte	80
 914 01a3 18       		.byte	24
 915 01a4 58       		.byte	88
 916 01a5 04       		.byte	4
 917 01a6 59       		.byte	89
 918 01a7 04       		.byte	4
 919 01a8 5A       		.byte	90
 920 01a9 04       		.byte	4
 921 01aa 5B       		.byte	91
 922 01ab 04       		.byte	4
 923 01ac 5C       		.byte	92
 924 01ad 13       		.byte	19
 925 01ae 5D       		.byte	93
 926 01af 01       		.byte	1
 927 01b0 5F       		.byte	95
 928 01b1 01       		.byte	1
 929 01b2 60       		.byte	96
 930 01b3 40       		.byte	64
 931 01b4 62       		.byte	98
 932 01b5 80       		.byte	-128
 933 01b6 64       		.byte	100
 934 01b7 40       		.byte	64
 935 01b8 65       		.byte	101
 936 01b9 40       		.byte	64
 937 01ba 66       		.byte	102
 938 01bb 80       		.byte	-128
 939 01bc 68       		.byte	104
 940 01bd 40       		.byte	64
ARM GAS  C:\Users\g\AppData\Local\Temp\ccQQqWns.s 			page 31


 941 01be 6A       		.byte	106
 942 01bf 80       		.byte	-128
 943 01c0 6C       		.byte	108
 944 01c1 40       		.byte	64
 945 01c2 6D       		.byte	109
 946 01c3 20       		.byte	32
 947 01c4 6E       		.byte	110
 948 01c5 80       		.byte	-128
 949 01c6 00       		.byte	0
 950 01c7 29       		.byte	41
 951 01c8 01       		.byte	1
 952 01c9 40       		.byte	64
 953 01ca 02       		.byte	2
 954 01cb 02       		.byte	2
 955 01cc 09       		.byte	9
 956 01cd 82       		.byte	-126
 957 01ce 0B       		.byte	11
 958 01cf 10       		.byte	16
 959 01d0 10       		.byte	16
 960 01d1 A8       		.byte	-88
 961 01d2 16       		.byte	22
 962 01d3 80       		.byte	-128
 963 01d4 19       		.byte	25
 964 01d5 85       		.byte	-123
 965 01d6 1F       		.byte	31
 966 01d7 80       		.byte	-128
 967 01d8 20       		.byte	32
 968 01d9 09       		.byte	9
 969 01da 23       		.byte	35
 970 01db 10       		.byte	16
 971 01dc 27       		.byte	39
 972 01dd 40       		.byte	64
 973 01de 2A       		.byte	42
 974 01df 01       		.byte	1
 975 01e0 2E       		.byte	46
 976 01e1 80       		.byte	-128
 977 01e2 2F       		.byte	47
 978 01e3 08       		.byte	8
 979 01e4 30       		.byte	48
 980 01e5 80       		.byte	-128
 981 01e6 32       		.byte	50
 982 01e7 22       		.byte	34
 983 01e8 36       		.byte	54
 984 01e9 08       		.byte	8
 985 01ea 38       		.byte	56
 986 01eb 80       		.byte	-128
 987 01ec 39       		.byte	57
 988 01ed 14       		.byte	20
 989 01ee 3F       		.byte	63
 990 01ef 04       		.byte	4
 991 01f0 43       		.byte	67
 992 01f1 40       		.byte	64
 993 01f2 47       		.byte	71
 994 01f3 42       		.byte	66
 995 01f4 48       		.byte	72
 996 01f5 91       		.byte	-111
 997 01f6 4A       		.byte	74
ARM GAS  C:\Users\g\AppData\Local\Temp\ccQQqWns.s 			page 32


 998 01f7 20       		.byte	32
 999 01f8 50       		.byte	80
 1000 01f9 40       		.byte	64
 1001 01fa 51       		.byte	81
 1002 01fb 8A       		.byte	-118
 1003 01fc 52       		.byte	82
 1004 01fd 11       		.byte	17
 1005 01fe 59       		.byte	89
 1006 01ff 85       		.byte	-123
 1007 0200 5B       		.byte	91
 1008 0201 20       		.byte	32
 1009 0202 5C       		.byte	92
 1010 0203 40       		.byte	64
 1011 0204 61       		.byte	97
 1012 0205 08       		.byte	8
 1013 0206 62       		.byte	98
 1014 0207 10       		.byte	16
 1015 0208 81       		.byte	-127
 1016 0209 02       		.byte	2
 1017 020a 83       		.byte	-125
 1018 020b 20       		.byte	32
 1019 020c 90       		.byte	-112
 1020 020d 40       		.byte	64
 1021 020e 91       		.byte	-111
 1022 020f 54       		.byte	84
 1023 0210 93       		.byte	-109
 1024 0211 04       		.byte	4
 1025 0212 9A       		.byte	-102
 1026 0213 80       		.byte	-128
 1027 0214 9B       		.byte	-101
 1028 0215 02       		.byte	2
 1029 0216 A0       		.byte	-96
 1030 0217 29       		.byte	41
 1031 0218 A2       		.byte	-94
 1032 0219 08       		.byte	8
 1033 021a A3       		.byte	-93
 1034 021b 08       		.byte	8
 1035 021c A7       		.byte	-89
 1036 021d 80       		.byte	-128
 1037 021e AF       		.byte	-81
 1038 021f 20       		.byte	32
 1039 0220 B4       		.byte	-76
 1040 0221 09       		.byte	9
 1041 0222 C0       		.byte	-64
 1042 0223 0F       		.byte	15
 1043 0224 C2       		.byte	-62
 1044 0225 0D       		.byte	13
 1045 0226 C4       		.byte	-60
 1046 0227 1E       		.byte	30
 1047 0228 CA       		.byte	-54
 1048 0229 31       		.byte	49
 1049 022a CC       		.byte	-52
 1050 022b 4D       		.byte	77
 1051 022c CE       		.byte	-50
 1052 022d 4E       		.byte	78
 1053 022e D0       		.byte	-48
 1054 022f 98       		.byte	-104
ARM GAS  C:\Users\g\AppData\Local\Temp\ccQQqWns.s 			page 33


 1055 0230 D2       		.byte	-46
 1056 0231 08       		.byte	8
 1057 0232 D6       		.byte	-42
 1058 0233 1F       		.byte	31
 1059 0234 D8       		.byte	-40
 1060 0235 06       		.byte	6
 1061 0236 E0       		.byte	-32
 1062 0237 04       		.byte	4
 1063 0238 E2       		.byte	-30
 1064 0239 80       		.byte	-128
 1065 023a E8       		.byte	-24
 1066 023b 40       		.byte	64
 1067 023c EC       		.byte	-20
 1068 023d 10       		.byte	16
 1069 023e 00       		.byte	0
 1070 023f 08       		.byte	8
 1071 0240 04       		.byte	4
 1072 0241 02       		.byte	2
 1073 0242 0B       		.byte	11
 1074 0243 01       		.byte	1
 1075 0244 0F       		.byte	15
 1076 0245 04       		.byte	4
 1077 0246 6F       		.byte	111
 1078 0247 04       		.byte	4
 1079 0248 84       		.byte	-124
 1080 0249 04       		.byte	4
 1081 024a C0       		.byte	-64
 1082 024b 30       		.byte	48
 1083 024c C2       		.byte	-62
 1084 024d C0       		.byte	-64
 1085 024e DA       		.byte	-38
 1086 024f 80       		.byte	-128
 1087 0250 E4       		.byte	-28
 1088 0251 40       		.byte	64
 1089 0252 1B       		.byte	27
 1090 0253 02       		.byte	2
 1091 0254 27       		.byte	39
 1092 0255 04       		.byte	4
 1093 0256 5E       		.byte	94
 1094 0257 20       		.byte	32
 1095 0258 83       		.byte	-125
 1096 0259 02       		.byte	2
 1097 025a 8A       		.byte	-118
 1098 025b 10       		.byte	16
 1099 025c 9F       		.byte	-97
 1100 025d 04       		.byte	4
 1101 025e AF       		.byte	-81
 1102 025f 04       		.byte	4
 1103 0260 B4       		.byte	-76
 1104 0261 01       		.byte	1
 1105 0262 B7       		.byte	-73
 1106 0263 01       		.byte	1
 1107 0264 C6       		.byte	-58
 1108 0265 10       		.byte	16
 1109 0266 C8       		.byte	-56
 1110 0267 20       		.byte	32
 1111 0268 D6       		.byte	-42
ARM GAS  C:\Users\g\AppData\Local\Temp\ccQQqWns.s 			page 34


 1112 0269 20       		.byte	32
 1113 026a E0       		.byte	-32
 1114 026b 20       		.byte	32
 1115 026c E8       		.byte	-24
 1116 026d 40       		.byte	64
 1117 026e 6A       		.byte	106
 1118 026f 40       		.byte	64
 1119 0270 DA       		.byte	-38
 1120 0271 02       		.byte	2
 1121 0272 20       		.byte	32
 1122 0273 02       		.byte	2
 1123 0274 82       		.byte	-126
 1124 0275 40       		.byte	64
 1125 0276 88       		.byte	-120
 1126 0277 01       		.byte	1
 1127 0278 96       		.byte	-106
 1128 0279 40       		.byte	64
 1129 027a C8       		.byte	-56
 1130 027b 08       		.byte	8
 1131 027c E2       		.byte	-30
 1132 027d 01       		.byte	1
 1133 027e 01       		.byte	1
 1134 027f 0A       		.byte	10
 1135 0280 10       		.byte	16
 1136 0281 0A       		.byte	10
 1137 0282 0000     		.text
 1138              	.Letext0:
 1139              		.file 2 "c:\\program files (x86)\\cypress\\psoc creator\\4.0\\psoc creator\\import\\gnu\\arm\\4.9.
 1140              		.file 3 "Generated_Source\\PSoC4\\cytypes.h"
 1141              		.file 4 "Generated_Source\\PSoC4\\CyLib.h"