ARM GAS  C:\Users\g\AppData\Local\Temp\cciWnrh1.s 			page 1


   1              		.cpu cortex-m0
   2              		.fpu softvfp
   3              		.eabi_attribute 20, 1
   4              		.eabi_attribute 21, 1
   5              		.eabi_attribute 23, 3
   6              		.eabi_attribute 24, 1
   7              		.eabi_attribute 25, 1
   8              		.eabi_attribute 26, 1
   9              		.eabi_attribute 30, 2
  10              		.eabi_attribute 34, 0
  11              		.eabi_attribute 18, 4
  12              		.code	16
  13              		.file	"pwmISR.c"
  14              		.text
  15              	.Ltext0:
  16              		.cfi_sections	.debug_frame
  17              		.section	.text.pwmISR_Interrupt,"ax",%progbits
  18              		.align	2
  19              		.global	pwmISR_Interrupt
  20              		.code	16
  21              		.thumb_func
  22              		.type	pwmISR_Interrupt, %function
  23              	pwmISR_Interrupt:
  24              	.LFB3:
  25              		.file 1 "Generated_Source\\PSoC4\\pwmISR.c"
   1:Generated_Source\PSoC4/pwmISR.c **** /*******************************************************************************
   2:Generated_Source\PSoC4/pwmISR.c **** * File Name: pwmISR.c  
   3:Generated_Source\PSoC4/pwmISR.c **** * Version 1.70
   4:Generated_Source\PSoC4/pwmISR.c **** *
   5:Generated_Source\PSoC4/pwmISR.c **** *  Description:
   6:Generated_Source\PSoC4/pwmISR.c **** *   API for controlling the state of an interrupt.
   7:Generated_Source\PSoC4/pwmISR.c **** *
   8:Generated_Source\PSoC4/pwmISR.c **** *
   9:Generated_Source\PSoC4/pwmISR.c **** *  Note:
  10:Generated_Source\PSoC4/pwmISR.c **** *
  11:Generated_Source\PSoC4/pwmISR.c **** ********************************************************************************
  12:Generated_Source\PSoC4/pwmISR.c **** * Copyright 2008-2015, Cypress Semiconductor Corporation.  All rights reserved.
  13:Generated_Source\PSoC4/pwmISR.c **** * You may use this file only in accordance with the license, terms, conditions, 
  14:Generated_Source\PSoC4/pwmISR.c **** * disclaimers, and limitations in the end user license agreement accompanying 
  15:Generated_Source\PSoC4/pwmISR.c **** * the software package with which this file was provided.
  16:Generated_Source\PSoC4/pwmISR.c **** *******************************************************************************/
  17:Generated_Source\PSoC4/pwmISR.c **** 
  18:Generated_Source\PSoC4/pwmISR.c **** 
  19:Generated_Source\PSoC4/pwmISR.c **** #include <cydevice_trm.h>
  20:Generated_Source\PSoC4/pwmISR.c **** #include <CyLib.h>
  21:Generated_Source\PSoC4/pwmISR.c **** #include <pwmISR.h>
  22:Generated_Source\PSoC4/pwmISR.c **** #include "cyapicallbacks.h"
  23:Generated_Source\PSoC4/pwmISR.c **** 
  24:Generated_Source\PSoC4/pwmISR.c **** #if !defined(pwmISR__REMOVED) /* Check for removal by optimization */
  25:Generated_Source\PSoC4/pwmISR.c **** 
  26:Generated_Source\PSoC4/pwmISR.c **** /*******************************************************************************
  27:Generated_Source\PSoC4/pwmISR.c **** *  Place your includes, defines and code here 
  28:Generated_Source\PSoC4/pwmISR.c **** ********************************************************************************/
  29:Generated_Source\PSoC4/pwmISR.c **** /* `#START pwmISR_intc` */
  30:Generated_Source\PSoC4/pwmISR.c **** 
  31:Generated_Source\PSoC4/pwmISR.c **** /* `#END` */
  32:Generated_Source\PSoC4/pwmISR.c **** 
ARM GAS  C:\Users\g\AppData\Local\Temp\cciWnrh1.s 			page 2


  33:Generated_Source\PSoC4/pwmISR.c **** extern cyisraddress CyRamVectors[CYINT_IRQ_BASE + CY_NUM_INTERRUPTS];
  34:Generated_Source\PSoC4/pwmISR.c **** 
  35:Generated_Source\PSoC4/pwmISR.c **** /* Declared in startup, used to set unused interrupts to. */
  36:Generated_Source\PSoC4/pwmISR.c **** CY_ISR_PROTO(IntDefaultHandler);
  37:Generated_Source\PSoC4/pwmISR.c **** 
  38:Generated_Source\PSoC4/pwmISR.c **** 
  39:Generated_Source\PSoC4/pwmISR.c **** /*******************************************************************************
  40:Generated_Source\PSoC4/pwmISR.c **** * Function Name: pwmISR_Start
  41:Generated_Source\PSoC4/pwmISR.c **** ********************************************************************************
  42:Generated_Source\PSoC4/pwmISR.c **** *
  43:Generated_Source\PSoC4/pwmISR.c **** * Summary:
  44:Generated_Source\PSoC4/pwmISR.c **** *  Set up the interrupt and enable it. This function disables the interrupt, 
  45:Generated_Source\PSoC4/pwmISR.c **** *  sets the default interrupt vector, sets the priority from the value in the
  46:Generated_Source\PSoC4/pwmISR.c **** *  Design Wide Resources Interrupt Editor, then enables the interrupt to the 
  47:Generated_Source\PSoC4/pwmISR.c **** *  interrupt controller.
  48:Generated_Source\PSoC4/pwmISR.c **** *
  49:Generated_Source\PSoC4/pwmISR.c **** * Parameters:  
  50:Generated_Source\PSoC4/pwmISR.c **** *   None
  51:Generated_Source\PSoC4/pwmISR.c **** *
  52:Generated_Source\PSoC4/pwmISR.c **** * Return:
  53:Generated_Source\PSoC4/pwmISR.c **** *   None
  54:Generated_Source\PSoC4/pwmISR.c **** *
  55:Generated_Source\PSoC4/pwmISR.c **** *******************************************************************************/
  56:Generated_Source\PSoC4/pwmISR.c **** void pwmISR_Start(void)
  57:Generated_Source\PSoC4/pwmISR.c **** {
  58:Generated_Source\PSoC4/pwmISR.c ****     /* For all we know the interrupt is active. */
  59:Generated_Source\PSoC4/pwmISR.c ****     pwmISR_Disable();
  60:Generated_Source\PSoC4/pwmISR.c **** 
  61:Generated_Source\PSoC4/pwmISR.c ****     /* Set the ISR to point to the pwmISR Interrupt. */
  62:Generated_Source\PSoC4/pwmISR.c ****     pwmISR_SetVector(&pwmISR_Interrupt);
  63:Generated_Source\PSoC4/pwmISR.c **** 
  64:Generated_Source\PSoC4/pwmISR.c ****     /* Set the priority. */
  65:Generated_Source\PSoC4/pwmISR.c ****     pwmISR_SetPriority((uint8)pwmISR_INTC_PRIOR_NUMBER);
  66:Generated_Source\PSoC4/pwmISR.c **** 
  67:Generated_Source\PSoC4/pwmISR.c ****     /* Enable it. */
  68:Generated_Source\PSoC4/pwmISR.c ****     pwmISR_Enable();
  69:Generated_Source\PSoC4/pwmISR.c **** }
  70:Generated_Source\PSoC4/pwmISR.c **** 
  71:Generated_Source\PSoC4/pwmISR.c **** 
  72:Generated_Source\PSoC4/pwmISR.c **** /*******************************************************************************
  73:Generated_Source\PSoC4/pwmISR.c **** * Function Name: pwmISR_StartEx
  74:Generated_Source\PSoC4/pwmISR.c **** ********************************************************************************
  75:Generated_Source\PSoC4/pwmISR.c **** *
  76:Generated_Source\PSoC4/pwmISR.c **** * Summary:
  77:Generated_Source\PSoC4/pwmISR.c **** *  Sets up the interrupt and enables it. This function disables the interrupt,
  78:Generated_Source\PSoC4/pwmISR.c **** *  sets the interrupt vector based on the address passed in, sets the priority 
  79:Generated_Source\PSoC4/pwmISR.c **** *  from the value in the Design Wide Resources Interrupt Editor, then enables 
  80:Generated_Source\PSoC4/pwmISR.c **** *  the interrupt to the interrupt controller.
  81:Generated_Source\PSoC4/pwmISR.c **** *  
  82:Generated_Source\PSoC4/pwmISR.c **** *  When defining ISR functions, the CY_ISR and CY_ISR_PROTO macros should be 
  83:Generated_Source\PSoC4/pwmISR.c **** *  used to provide consistent definition across compilers:
  84:Generated_Source\PSoC4/pwmISR.c **** *  
  85:Generated_Source\PSoC4/pwmISR.c **** *  Function definition example:
  86:Generated_Source\PSoC4/pwmISR.c **** *   CY_ISR(MyISR)
  87:Generated_Source\PSoC4/pwmISR.c **** *   {
  88:Generated_Source\PSoC4/pwmISR.c **** *   }
  89:Generated_Source\PSoC4/pwmISR.c **** *   Function prototype example:
ARM GAS  C:\Users\g\AppData\Local\Temp\cciWnrh1.s 			page 3


  90:Generated_Source\PSoC4/pwmISR.c **** *   CY_ISR_PROTO(MyISR);
  91:Generated_Source\PSoC4/pwmISR.c **** *
  92:Generated_Source\PSoC4/pwmISR.c **** * Parameters:  
  93:Generated_Source\PSoC4/pwmISR.c **** *   address: Address of the ISR to set in the interrupt vector table.
  94:Generated_Source\PSoC4/pwmISR.c **** *
  95:Generated_Source\PSoC4/pwmISR.c **** * Return:
  96:Generated_Source\PSoC4/pwmISR.c **** *   None
  97:Generated_Source\PSoC4/pwmISR.c **** *
  98:Generated_Source\PSoC4/pwmISR.c **** *******************************************************************************/
  99:Generated_Source\PSoC4/pwmISR.c **** void pwmISR_StartEx(cyisraddress address)
 100:Generated_Source\PSoC4/pwmISR.c **** {
 101:Generated_Source\PSoC4/pwmISR.c ****     /* For all we know the interrupt is active. */
 102:Generated_Source\PSoC4/pwmISR.c ****     pwmISR_Disable();
 103:Generated_Source\PSoC4/pwmISR.c **** 
 104:Generated_Source\PSoC4/pwmISR.c ****     /* Set the ISR to point to the pwmISR Interrupt. */
 105:Generated_Source\PSoC4/pwmISR.c ****     pwmISR_SetVector(address);
 106:Generated_Source\PSoC4/pwmISR.c **** 
 107:Generated_Source\PSoC4/pwmISR.c ****     /* Set the priority. */
 108:Generated_Source\PSoC4/pwmISR.c ****     pwmISR_SetPriority((uint8)pwmISR_INTC_PRIOR_NUMBER);
 109:Generated_Source\PSoC4/pwmISR.c **** 
 110:Generated_Source\PSoC4/pwmISR.c ****     /* Enable it. */
 111:Generated_Source\PSoC4/pwmISR.c ****     pwmISR_Enable();
 112:Generated_Source\PSoC4/pwmISR.c **** }
 113:Generated_Source\PSoC4/pwmISR.c **** 
 114:Generated_Source\PSoC4/pwmISR.c **** 
 115:Generated_Source\PSoC4/pwmISR.c **** /*******************************************************************************
 116:Generated_Source\PSoC4/pwmISR.c **** * Function Name: pwmISR_Stop
 117:Generated_Source\PSoC4/pwmISR.c **** ********************************************************************************
 118:Generated_Source\PSoC4/pwmISR.c **** *
 119:Generated_Source\PSoC4/pwmISR.c **** * Summary:
 120:Generated_Source\PSoC4/pwmISR.c **** *   Disables and removes the interrupt.
 121:Generated_Source\PSoC4/pwmISR.c **** *
 122:Generated_Source\PSoC4/pwmISR.c **** * Parameters:  
 123:Generated_Source\PSoC4/pwmISR.c **** *   None
 124:Generated_Source\PSoC4/pwmISR.c **** *
 125:Generated_Source\PSoC4/pwmISR.c **** * Return:
 126:Generated_Source\PSoC4/pwmISR.c **** *   None
 127:Generated_Source\PSoC4/pwmISR.c **** *
 128:Generated_Source\PSoC4/pwmISR.c **** *******************************************************************************/
 129:Generated_Source\PSoC4/pwmISR.c **** void pwmISR_Stop(void)
 130:Generated_Source\PSoC4/pwmISR.c **** {
 131:Generated_Source\PSoC4/pwmISR.c ****     /* Disable this interrupt. */
 132:Generated_Source\PSoC4/pwmISR.c ****     pwmISR_Disable();
 133:Generated_Source\PSoC4/pwmISR.c **** 
 134:Generated_Source\PSoC4/pwmISR.c ****     /* Set the ISR to point to the passive one. */
 135:Generated_Source\PSoC4/pwmISR.c ****     pwmISR_SetVector(&IntDefaultHandler);
 136:Generated_Source\PSoC4/pwmISR.c **** }
 137:Generated_Source\PSoC4/pwmISR.c **** 
 138:Generated_Source\PSoC4/pwmISR.c **** 
 139:Generated_Source\PSoC4/pwmISR.c **** /*******************************************************************************
 140:Generated_Source\PSoC4/pwmISR.c **** * Function Name: pwmISR_Interrupt
 141:Generated_Source\PSoC4/pwmISR.c **** ********************************************************************************
 142:Generated_Source\PSoC4/pwmISR.c **** *
 143:Generated_Source\PSoC4/pwmISR.c **** * Summary:
 144:Generated_Source\PSoC4/pwmISR.c **** *   The default Interrupt Service Routine for pwmISR.
 145:Generated_Source\PSoC4/pwmISR.c **** *
 146:Generated_Source\PSoC4/pwmISR.c **** *   Add custom code between the START and END comments to keep the next version
ARM GAS  C:\Users\g\AppData\Local\Temp\cciWnrh1.s 			page 4


 147:Generated_Source\PSoC4/pwmISR.c **** *   of this file from over-writing your code.
 148:Generated_Source\PSoC4/pwmISR.c **** *
 149:Generated_Source\PSoC4/pwmISR.c **** *   Note You may use either the default ISR by using this API, or you may define
 150:Generated_Source\PSoC4/pwmISR.c **** *   your own separate ISR through ISR_StartEx().
 151:Generated_Source\PSoC4/pwmISR.c **** *
 152:Generated_Source\PSoC4/pwmISR.c **** * Parameters:  
 153:Generated_Source\PSoC4/pwmISR.c **** *   None
 154:Generated_Source\PSoC4/pwmISR.c **** *
 155:Generated_Source\PSoC4/pwmISR.c **** * Return:
 156:Generated_Source\PSoC4/pwmISR.c **** *   None
 157:Generated_Source\PSoC4/pwmISR.c **** *
 158:Generated_Source\PSoC4/pwmISR.c **** *******************************************************************************/
 159:Generated_Source\PSoC4/pwmISR.c **** CY_ISR(pwmISR_Interrupt)
 160:Generated_Source\PSoC4/pwmISR.c **** {
  26              		.loc 1 160 0
  27              		.cfi_startproc
 161:Generated_Source\PSoC4/pwmISR.c ****     #ifdef pwmISR_INTERRUPT_INTERRUPT_CALLBACK
 162:Generated_Source\PSoC4/pwmISR.c ****         pwmISR_Interrupt_InterruptCallback();
 163:Generated_Source\PSoC4/pwmISR.c ****     #endif /* pwmISR_INTERRUPT_INTERRUPT_CALLBACK */ 
 164:Generated_Source\PSoC4/pwmISR.c **** 
 165:Generated_Source\PSoC4/pwmISR.c ****     /*  Place your Interrupt code here. */
 166:Generated_Source\PSoC4/pwmISR.c ****     /* `#START pwmISR_Interrupt` */
 167:Generated_Source\PSoC4/pwmISR.c **** 
 168:Generated_Source\PSoC4/pwmISR.c ****     /* `#END` */
 169:Generated_Source\PSoC4/pwmISR.c **** }
  28              		.loc 1 169 0
  29              		@ sp needed
  30 0000 7047     		bx	lr
  31              		.cfi_endproc
  32              	.LFE3:
  33              		.size	pwmISR_Interrupt, .-pwmISR_Interrupt
  34 0002 C046     		.section	.text.pwmISR_Stop,"ax",%progbits
  35              		.align	2
  36              		.global	pwmISR_Stop
  37              		.code	16
  38              		.thumb_func
  39              		.type	pwmISR_Stop, %function
  40              	pwmISR_Stop:
  41              	.LFB2:
 130:Generated_Source\PSoC4/pwmISR.c ****     /* Disable this interrupt. */
  42              		.loc 1 130 0
  43              		.cfi_startproc
  44              	.LBB18:
  45              	.LBB19:
 170:Generated_Source\PSoC4/pwmISR.c **** 
 171:Generated_Source\PSoC4/pwmISR.c **** 
 172:Generated_Source\PSoC4/pwmISR.c **** /*******************************************************************************
 173:Generated_Source\PSoC4/pwmISR.c **** * Function Name: pwmISR_SetVector
 174:Generated_Source\PSoC4/pwmISR.c **** ********************************************************************************
 175:Generated_Source\PSoC4/pwmISR.c **** *
 176:Generated_Source\PSoC4/pwmISR.c **** * Summary:
 177:Generated_Source\PSoC4/pwmISR.c **** *   Change the ISR vector for the Interrupt. Note calling pwmISR_Start
 178:Generated_Source\PSoC4/pwmISR.c **** *   will override any effect this method would have had. To set the vector 
 179:Generated_Source\PSoC4/pwmISR.c **** *   before the component has been started use pwmISR_StartEx instead.
 180:Generated_Source\PSoC4/pwmISR.c **** * 
 181:Generated_Source\PSoC4/pwmISR.c **** *   When defining ISR functions, the CY_ISR and CY_ISR_PROTO macros should be 
 182:Generated_Source\PSoC4/pwmISR.c **** *   used to provide consistent definition across compilers:
ARM GAS  C:\Users\g\AppData\Local\Temp\cciWnrh1.s 			page 5


 183:Generated_Source\PSoC4/pwmISR.c **** *
 184:Generated_Source\PSoC4/pwmISR.c **** *   Function definition example:
 185:Generated_Source\PSoC4/pwmISR.c **** *   CY_ISR(MyISR)
 186:Generated_Source\PSoC4/pwmISR.c **** *   {
 187:Generated_Source\PSoC4/pwmISR.c **** *   }
 188:Generated_Source\PSoC4/pwmISR.c **** *
 189:Generated_Source\PSoC4/pwmISR.c **** *   Function prototype example:
 190:Generated_Source\PSoC4/pwmISR.c **** *     CY_ISR_PROTO(MyISR);
 191:Generated_Source\PSoC4/pwmISR.c **** *
 192:Generated_Source\PSoC4/pwmISR.c **** * Parameters:
 193:Generated_Source\PSoC4/pwmISR.c **** *   address: Address of the ISR to set in the interrupt vector table.
 194:Generated_Source\PSoC4/pwmISR.c **** *
 195:Generated_Source\PSoC4/pwmISR.c **** * Return:
 196:Generated_Source\PSoC4/pwmISR.c **** *   None
 197:Generated_Source\PSoC4/pwmISR.c **** *
 198:Generated_Source\PSoC4/pwmISR.c **** *******************************************************************************/
 199:Generated_Source\PSoC4/pwmISR.c **** void pwmISR_SetVector(cyisraddress address)
 200:Generated_Source\PSoC4/pwmISR.c **** {
 201:Generated_Source\PSoC4/pwmISR.c ****     CyRamVectors[CYINT_IRQ_BASE + pwmISR__INTC_NUMBER] = address;
 202:Generated_Source\PSoC4/pwmISR.c **** }
 203:Generated_Source\PSoC4/pwmISR.c **** 
 204:Generated_Source\PSoC4/pwmISR.c **** 
 205:Generated_Source\PSoC4/pwmISR.c **** /*******************************************************************************
 206:Generated_Source\PSoC4/pwmISR.c **** * Function Name: pwmISR_GetVector
 207:Generated_Source\PSoC4/pwmISR.c **** ********************************************************************************
 208:Generated_Source\PSoC4/pwmISR.c **** *
 209:Generated_Source\PSoC4/pwmISR.c **** * Summary:
 210:Generated_Source\PSoC4/pwmISR.c **** *   Gets the "address" of the current ISR vector for the Interrupt.
 211:Generated_Source\PSoC4/pwmISR.c **** *
 212:Generated_Source\PSoC4/pwmISR.c **** * Parameters:
 213:Generated_Source\PSoC4/pwmISR.c **** *   None
 214:Generated_Source\PSoC4/pwmISR.c **** *
 215:Generated_Source\PSoC4/pwmISR.c **** * Return:
 216:Generated_Source\PSoC4/pwmISR.c **** *   Address of the ISR in the interrupt vector table.
 217:Generated_Source\PSoC4/pwmISR.c **** *
 218:Generated_Source\PSoC4/pwmISR.c **** *******************************************************************************/
 219:Generated_Source\PSoC4/pwmISR.c **** cyisraddress pwmISR_GetVector(void)
 220:Generated_Source\PSoC4/pwmISR.c **** {
 221:Generated_Source\PSoC4/pwmISR.c ****     return CyRamVectors[CYINT_IRQ_BASE + pwmISR__INTC_NUMBER];
 222:Generated_Source\PSoC4/pwmISR.c **** }
 223:Generated_Source\PSoC4/pwmISR.c **** 
 224:Generated_Source\PSoC4/pwmISR.c **** 
 225:Generated_Source\PSoC4/pwmISR.c **** /*******************************************************************************
 226:Generated_Source\PSoC4/pwmISR.c **** * Function Name: pwmISR_SetPriority
 227:Generated_Source\PSoC4/pwmISR.c **** ********************************************************************************
 228:Generated_Source\PSoC4/pwmISR.c **** *
 229:Generated_Source\PSoC4/pwmISR.c **** * Summary:
 230:Generated_Source\PSoC4/pwmISR.c **** *   Sets the Priority of the Interrupt. 
 231:Generated_Source\PSoC4/pwmISR.c **** *
 232:Generated_Source\PSoC4/pwmISR.c **** *   Note calling pwmISR_Start or pwmISR_StartEx will 
 233:Generated_Source\PSoC4/pwmISR.c **** *   override any effect this API would have had. This API should only be called
 234:Generated_Source\PSoC4/pwmISR.c **** *   after pwmISR_Start or pwmISR_StartEx has been called. 
 235:Generated_Source\PSoC4/pwmISR.c **** *   To set the initial priority for the component, use the Design-Wide Resources
 236:Generated_Source\PSoC4/pwmISR.c **** *   Interrupt Editor.
 237:Generated_Source\PSoC4/pwmISR.c **** *
 238:Generated_Source\PSoC4/pwmISR.c **** *   Note This API has no effect on Non-maskable interrupt NMI).
 239:Generated_Source\PSoC4/pwmISR.c **** *
ARM GAS  C:\Users\g\AppData\Local\Temp\cciWnrh1.s 			page 6


 240:Generated_Source\PSoC4/pwmISR.c **** * Parameters:
 241:Generated_Source\PSoC4/pwmISR.c **** *   priority: Priority of the interrupt, 0 being the highest priority
 242:Generated_Source\PSoC4/pwmISR.c **** *             PSoC 3 and PSoC 5LP: Priority is from 0 to 7.
 243:Generated_Source\PSoC4/pwmISR.c **** *             PSoC 4: Priority is from 0 to 3.
 244:Generated_Source\PSoC4/pwmISR.c **** *
 245:Generated_Source\PSoC4/pwmISR.c **** * Return:
 246:Generated_Source\PSoC4/pwmISR.c **** *   None
 247:Generated_Source\PSoC4/pwmISR.c **** *
 248:Generated_Source\PSoC4/pwmISR.c **** *******************************************************************************/
 249:Generated_Source\PSoC4/pwmISR.c **** void pwmISR_SetPriority(uint8 priority)
 250:Generated_Source\PSoC4/pwmISR.c **** {
 251:Generated_Source\PSoC4/pwmISR.c **** 	uint8 interruptState;
 252:Generated_Source\PSoC4/pwmISR.c ****     uint32 priorityOffset = ((pwmISR__INTC_NUMBER % 4u) * 8u) + 6u;
 253:Generated_Source\PSoC4/pwmISR.c ****     
 254:Generated_Source\PSoC4/pwmISR.c **** 	interruptState = CyEnterCriticalSection();
 255:Generated_Source\PSoC4/pwmISR.c ****     *pwmISR_INTC_PRIOR = (*pwmISR_INTC_PRIOR & (uint32)(~pwmISR__INTC_PRIOR_MASK)) |
 256:Generated_Source\PSoC4/pwmISR.c ****                                     ((uint32)priority << priorityOffset);
 257:Generated_Source\PSoC4/pwmISR.c **** 	CyExitCriticalSection(interruptState);
 258:Generated_Source\PSoC4/pwmISR.c **** }
 259:Generated_Source\PSoC4/pwmISR.c **** 
 260:Generated_Source\PSoC4/pwmISR.c **** 
 261:Generated_Source\PSoC4/pwmISR.c **** /*******************************************************************************
 262:Generated_Source\PSoC4/pwmISR.c **** * Function Name: pwmISR_GetPriority
 263:Generated_Source\PSoC4/pwmISR.c **** ********************************************************************************
 264:Generated_Source\PSoC4/pwmISR.c **** *
 265:Generated_Source\PSoC4/pwmISR.c **** * Summary:
 266:Generated_Source\PSoC4/pwmISR.c **** *   Gets the Priority of the Interrupt.
 267:Generated_Source\PSoC4/pwmISR.c **** *
 268:Generated_Source\PSoC4/pwmISR.c **** * Parameters:
 269:Generated_Source\PSoC4/pwmISR.c **** *   None
 270:Generated_Source\PSoC4/pwmISR.c **** *
 271:Generated_Source\PSoC4/pwmISR.c **** * Return:
 272:Generated_Source\PSoC4/pwmISR.c **** *   Priority of the interrupt, 0 being the highest priority
 273:Generated_Source\PSoC4/pwmISR.c **** *    PSoC 3 and PSoC 5LP: Priority is from 0 to 7.
 274:Generated_Source\PSoC4/pwmISR.c **** *    PSoC 4: Priority is from 0 to 3.
 275:Generated_Source\PSoC4/pwmISR.c **** *
 276:Generated_Source\PSoC4/pwmISR.c **** *******************************************************************************/
 277:Generated_Source\PSoC4/pwmISR.c **** uint8 pwmISR_GetPriority(void)
 278:Generated_Source\PSoC4/pwmISR.c **** {
 279:Generated_Source\PSoC4/pwmISR.c ****     uint32 priority;
 280:Generated_Source\PSoC4/pwmISR.c **** 	uint32 priorityOffset = ((pwmISR__INTC_NUMBER % 4u) * 8u) + 6u;
 281:Generated_Source\PSoC4/pwmISR.c **** 
 282:Generated_Source\PSoC4/pwmISR.c ****     priority = (*pwmISR_INTC_PRIOR & pwmISR__INTC_PRIOR_MASK) >> priorityOffset;
 283:Generated_Source\PSoC4/pwmISR.c **** 
 284:Generated_Source\PSoC4/pwmISR.c ****     return (uint8)priority;
 285:Generated_Source\PSoC4/pwmISR.c **** }
 286:Generated_Source\PSoC4/pwmISR.c **** 
 287:Generated_Source\PSoC4/pwmISR.c **** 
 288:Generated_Source\PSoC4/pwmISR.c **** /*******************************************************************************
 289:Generated_Source\PSoC4/pwmISR.c **** * Function Name: pwmISR_Enable
 290:Generated_Source\PSoC4/pwmISR.c **** ********************************************************************************
 291:Generated_Source\PSoC4/pwmISR.c **** *
 292:Generated_Source\PSoC4/pwmISR.c **** * Summary:
 293:Generated_Source\PSoC4/pwmISR.c **** *   Enables the interrupt to the interrupt controller. Do not call this function
 294:Generated_Source\PSoC4/pwmISR.c **** *   unless ISR_Start() has been called or the functionality of the ISR_Start() 
 295:Generated_Source\PSoC4/pwmISR.c **** *   function, which sets the vector and the priority, has been called.
 296:Generated_Source\PSoC4/pwmISR.c **** *
ARM GAS  C:\Users\g\AppData\Local\Temp\cciWnrh1.s 			page 7


 297:Generated_Source\PSoC4/pwmISR.c **** * Parameters:
 298:Generated_Source\PSoC4/pwmISR.c **** *   None
 299:Generated_Source\PSoC4/pwmISR.c **** *
 300:Generated_Source\PSoC4/pwmISR.c **** * Return:
 301:Generated_Source\PSoC4/pwmISR.c **** *   None
 302:Generated_Source\PSoC4/pwmISR.c **** *
 303:Generated_Source\PSoC4/pwmISR.c **** *******************************************************************************/
 304:Generated_Source\PSoC4/pwmISR.c **** void pwmISR_Enable(void)
 305:Generated_Source\PSoC4/pwmISR.c **** {
 306:Generated_Source\PSoC4/pwmISR.c ****     /* Enable the general interrupt. */
 307:Generated_Source\PSoC4/pwmISR.c ****     *pwmISR_INTC_SET_EN = pwmISR__INTC_MASK;
 308:Generated_Source\PSoC4/pwmISR.c **** }
 309:Generated_Source\PSoC4/pwmISR.c **** 
 310:Generated_Source\PSoC4/pwmISR.c **** 
 311:Generated_Source\PSoC4/pwmISR.c **** /*******************************************************************************
 312:Generated_Source\PSoC4/pwmISR.c **** * Function Name: pwmISR_GetState
 313:Generated_Source\PSoC4/pwmISR.c **** ********************************************************************************
 314:Generated_Source\PSoC4/pwmISR.c **** *
 315:Generated_Source\PSoC4/pwmISR.c **** * Summary:
 316:Generated_Source\PSoC4/pwmISR.c **** *   Gets the state (enabled, disabled) of the Interrupt.
 317:Generated_Source\PSoC4/pwmISR.c **** *
 318:Generated_Source\PSoC4/pwmISR.c **** * Parameters:
 319:Generated_Source\PSoC4/pwmISR.c **** *   None
 320:Generated_Source\PSoC4/pwmISR.c **** *
 321:Generated_Source\PSoC4/pwmISR.c **** * Return:
 322:Generated_Source\PSoC4/pwmISR.c **** *   1 if enabled, 0 if disabled.
 323:Generated_Source\PSoC4/pwmISR.c **** *
 324:Generated_Source\PSoC4/pwmISR.c **** *******************************************************************************/
 325:Generated_Source\PSoC4/pwmISR.c **** uint8 pwmISR_GetState(void)
 326:Generated_Source\PSoC4/pwmISR.c **** {
 327:Generated_Source\PSoC4/pwmISR.c ****     /* Get the state of the general interrupt. */
 328:Generated_Source\PSoC4/pwmISR.c ****     return ((*pwmISR_INTC_SET_EN & (uint32)pwmISR__INTC_MASK) != 0u) ? 1u:0u;
 329:Generated_Source\PSoC4/pwmISR.c **** }
 330:Generated_Source\PSoC4/pwmISR.c **** 
 331:Generated_Source\PSoC4/pwmISR.c **** 
 332:Generated_Source\PSoC4/pwmISR.c **** /*******************************************************************************
 333:Generated_Source\PSoC4/pwmISR.c **** * Function Name: pwmISR_Disable
 334:Generated_Source\PSoC4/pwmISR.c **** ********************************************************************************
 335:Generated_Source\PSoC4/pwmISR.c **** *
 336:Generated_Source\PSoC4/pwmISR.c **** * Summary:
 337:Generated_Source\PSoC4/pwmISR.c **** *   Disables the Interrupt in the interrupt controller.
 338:Generated_Source\PSoC4/pwmISR.c **** *
 339:Generated_Source\PSoC4/pwmISR.c **** * Parameters:
 340:Generated_Source\PSoC4/pwmISR.c **** *   None
 341:Generated_Source\PSoC4/pwmISR.c **** *
 342:Generated_Source\PSoC4/pwmISR.c **** * Return:
 343:Generated_Source\PSoC4/pwmISR.c **** *   None
 344:Generated_Source\PSoC4/pwmISR.c **** *
 345:Generated_Source\PSoC4/pwmISR.c **** *******************************************************************************/
 346:Generated_Source\PSoC4/pwmISR.c **** void pwmISR_Disable(void)
 347:Generated_Source\PSoC4/pwmISR.c **** {
 348:Generated_Source\PSoC4/pwmISR.c ****     /* Disable the general interrupt. */
 349:Generated_Source\PSoC4/pwmISR.c ****     *pwmISR_INTC_CLR_EN = pwmISR__INTC_MASK;
  46              		.loc 1 349 0
  47 0000 8022     		mov	r2, #128
  48 0002 044B     		ldr	r3, .L3
  49 0004 5202     		lsl	r2, r2, #9
ARM GAS  C:\Users\g\AppData\Local\Temp\cciWnrh1.s 			page 8


  50 0006 1A60     		str	r2, [r3]
  51              	.LVL0:
  52              	.LBE19:
  53              	.LBE18:
  54              	.LBB20:
  55              	.LBB21:
 201:Generated_Source\PSoC4/pwmISR.c **** }
  56              		.loc 1 201 0
  57 0008 8023     		mov	r3, #128
  58 000a 0349     		ldr	r1, .L3+4
  59 000c 034A     		ldr	r2, .L3+8
  60              	.LBE21:
  61              	.LBE20:
 136:Generated_Source\PSoC4/pwmISR.c **** 
  62              		.loc 1 136 0
  63              		@ sp needed
  64              	.LBB23:
  65              	.LBB22:
 201:Generated_Source\PSoC4/pwmISR.c **** }
  66              		.loc 1 201 0
  67 000e D150     		str	r1, [r2, r3]
  68              	.LBE22:
  69              	.LBE23:
 136:Generated_Source\PSoC4/pwmISR.c **** 
  70              		.loc 1 136 0
  71 0010 7047     		bx	lr
  72              	.L4:
  73 0012 C046     		.align	2
  74              	.L3:
  75 0014 80E100E0 		.word	-536813184
  76 0018 00000000 		.word	IntDefaultHandler
  77 001c 00000000 		.word	CyRamVectors
  78              		.cfi_endproc
  79              	.LFE2:
  80              		.size	pwmISR_Stop, .-pwmISR_Stop
  81              		.section	.text.pwmISR_SetVector,"ax",%progbits
  82              		.align	2
  83              		.global	pwmISR_SetVector
  84              		.code	16
  85              		.thumb_func
  86              		.type	pwmISR_SetVector, %function
  87              	pwmISR_SetVector:
  88              	.LFB4:
 200:Generated_Source\PSoC4/pwmISR.c ****     CyRamVectors[CYINT_IRQ_BASE + pwmISR__INTC_NUMBER] = address;
  89              		.loc 1 200 0
  90              		.cfi_startproc
  91              	.LVL1:
 201:Generated_Source\PSoC4/pwmISR.c **** }
  92              		.loc 1 201 0
  93 0000 8023     		mov	r3, #128
  94 0002 014A     		ldr	r2, .L6
 202:Generated_Source\PSoC4/pwmISR.c **** 
  95              		.loc 1 202 0
  96              		@ sp needed
 201:Generated_Source\PSoC4/pwmISR.c **** }
  97              		.loc 1 201 0
  98 0004 D050     		str	r0, [r2, r3]
ARM GAS  C:\Users\g\AppData\Local\Temp\cciWnrh1.s 			page 9


 202:Generated_Source\PSoC4/pwmISR.c **** 
  99              		.loc 1 202 0
 100 0006 7047     		bx	lr
 101              	.L7:
 102              		.align	2
 103              	.L6:
 104 0008 00000000 		.word	CyRamVectors
 105              		.cfi_endproc
 106              	.LFE4:
 107              		.size	pwmISR_SetVector, .-pwmISR_SetVector
 108              		.section	.text.pwmISR_GetVector,"ax",%progbits
 109              		.align	2
 110              		.global	pwmISR_GetVector
 111              		.code	16
 112              		.thumb_func
 113              		.type	pwmISR_GetVector, %function
 114              	pwmISR_GetVector:
 115              	.LFB5:
 220:Generated_Source\PSoC4/pwmISR.c ****     return CyRamVectors[CYINT_IRQ_BASE + pwmISR__INTC_NUMBER];
 116              		.loc 1 220 0
 117              		.cfi_startproc
 221:Generated_Source\PSoC4/pwmISR.c **** }
 118              		.loc 1 221 0
 119 0000 8023     		mov	r3, #128
 120 0002 014A     		ldr	r2, .L9
 222:Generated_Source\PSoC4/pwmISR.c **** 
 121              		.loc 1 222 0
 122              		@ sp needed
 221:Generated_Source\PSoC4/pwmISR.c **** }
 123              		.loc 1 221 0
 124 0004 D058     		ldr	r0, [r2, r3]
 222:Generated_Source\PSoC4/pwmISR.c **** 
 125              		.loc 1 222 0
 126 0006 7047     		bx	lr
 127              	.L10:
 128              		.align	2
 129              	.L9:
 130 0008 00000000 		.word	CyRamVectors
 131              		.cfi_endproc
 132              	.LFE5:
 133              		.size	pwmISR_GetVector, .-pwmISR_GetVector
 134              		.section	.text.pwmISR_SetPriority,"ax",%progbits
 135              		.align	2
 136              		.global	pwmISR_SetPriority
 137              		.code	16
 138              		.thumb_func
 139              		.type	pwmISR_SetPriority, %function
 140              	pwmISR_SetPriority:
 141              	.LFB6:
 250:Generated_Source\PSoC4/pwmISR.c **** 	uint8 interruptState;
 142              		.loc 1 250 0
 143              		.cfi_startproc
 144              	.LVL2:
 145 0000 10B5     		push	{r4, lr}
 146              		.cfi_def_cfa_offset 8
 147              		.cfi_offset 4, -8
 148              		.cfi_offset 14, -4
ARM GAS  C:\Users\g\AppData\Local\Temp\cciWnrh1.s 			page 10


 250:Generated_Source\PSoC4/pwmISR.c **** 	uint8 interruptState;
 149              		.loc 1 250 0
 150 0002 041C     		mov	r4, r0
 254:Generated_Source\PSoC4/pwmISR.c ****     *pwmISR_INTC_PRIOR = (*pwmISR_INTC_PRIOR & (uint32)(~pwmISR__INTC_PRIOR_MASK)) |
 151              		.loc 1 254 0
 152 0004 FFF7FEFF 		bl	CyEnterCriticalSection
 153              	.LVL3:
 255:Generated_Source\PSoC4/pwmISR.c ****                                     ((uint32)priority << priorityOffset);
 154              		.loc 1 255 0
 155 0008 C021     		mov	r1, #192
 156 000a 044A     		ldr	r2, .L12
 256:Generated_Source\PSoC4/pwmISR.c **** 	CyExitCriticalSection(interruptState);
 157              		.loc 1 256 0
 158 000c A401     		lsl	r4, r4, #6
 255:Generated_Source\PSoC4/pwmISR.c ****                                     ((uint32)priority << priorityOffset);
 159              		.loc 1 255 0
 160 000e 1368     		ldr	r3, [r2]
 258:Generated_Source\PSoC4/pwmISR.c **** 
 161              		.loc 1 258 0
 162              		@ sp needed
 255:Generated_Source\PSoC4/pwmISR.c ****                                     ((uint32)priority << priorityOffset);
 163              		.loc 1 255 0
 164 0010 8B43     		bic	r3, r1
 165 0012 2343     		orr	r3, r4
 166 0014 1360     		str	r3, [r2]
 257:Generated_Source\PSoC4/pwmISR.c **** }
 167              		.loc 1 257 0
 168 0016 FFF7FEFF 		bl	CyExitCriticalSection
 169              	.LVL4:
 258:Generated_Source\PSoC4/pwmISR.c **** 
 170              		.loc 1 258 0
 171 001a 10BD     		pop	{r4, pc}
 172              	.L13:
 173              		.align	2
 174              	.L12:
 175 001c 10E400E0 		.word	-536812528
 176              		.cfi_endproc
 177              	.LFE6:
 178              		.size	pwmISR_SetPriority, .-pwmISR_SetPriority
 179              		.section	.text.pwmISR_Start,"ax",%progbits
 180              		.align	2
 181              		.global	pwmISR_Start
 182              		.code	16
 183              		.thumb_func
 184              		.type	pwmISR_Start, %function
 185              	pwmISR_Start:
 186              	.LFB0:
  57:Generated_Source\PSoC4/pwmISR.c ****     /* For all we know the interrupt is active. */
 187              		.loc 1 57 0
 188              		.cfi_startproc
 189 0000 10B5     		push	{r4, lr}
 190              		.cfi_def_cfa_offset 8
 191              		.cfi_offset 4, -8
 192              		.cfi_offset 14, -4
 193              	.LBB24:
 194              	.LBB25:
 195              		.loc 1 349 0
ARM GAS  C:\Users\g\AppData\Local\Temp\cciWnrh1.s 			page 11


 196 0002 8024     		mov	r4, #128
 197 0004 064B     		ldr	r3, .L15
 198 0006 6402     		lsl	r4, r4, #9
 199 0008 1C60     		str	r4, [r3]
 200              	.LVL5:
 201              	.LBE25:
 202              	.LBE24:
 203              	.LBB26:
 204              	.LBB27:
 201:Generated_Source\PSoC4/pwmISR.c **** }
 205              		.loc 1 201 0
 206 000a 8023     		mov	r3, #128
 207 000c 0549     		ldr	r1, .L15+4
 208 000e 064A     		ldr	r2, .L15+8
 209              	.LBE27:
 210              	.LBE26:
  65:Generated_Source\PSoC4/pwmISR.c **** 
 211              		.loc 1 65 0
 212 0010 0320     		mov	r0, #3
 213              	.LBB29:
 214              	.LBB28:
 201:Generated_Source\PSoC4/pwmISR.c **** }
 215              		.loc 1 201 0
 216 0012 D150     		str	r1, [r2, r3]
 217              	.LBE28:
 218              	.LBE29:
  65:Generated_Source\PSoC4/pwmISR.c **** 
 219              		.loc 1 65 0
 220 0014 FFF7FEFF 		bl	pwmISR_SetPriority
 221              	.LVL6:
 222              	.LBB30:
 223              	.LBB31:
 307:Generated_Source\PSoC4/pwmISR.c **** }
 224              		.loc 1 307 0
 225 0018 044B     		ldr	r3, .L15+12
 226              	.LBE31:
 227              	.LBE30:
  69:Generated_Source\PSoC4/pwmISR.c **** 
 228              		.loc 1 69 0
 229              		@ sp needed
 230              	.LBB33:
 231              	.LBB32:
 307:Generated_Source\PSoC4/pwmISR.c **** }
 232              		.loc 1 307 0
 233 001a 1C60     		str	r4, [r3]
 234              	.LBE32:
 235              	.LBE33:
  69:Generated_Source\PSoC4/pwmISR.c **** 
 236              		.loc 1 69 0
 237 001c 10BD     		pop	{r4, pc}
 238              	.L16:
 239 001e C046     		.align	2
 240              	.L15:
 241 0020 80E100E0 		.word	-536813184
 242 0024 00000000 		.word	pwmISR_Interrupt
 243 0028 00000000 		.word	CyRamVectors
 244 002c 00E100E0 		.word	-536813312
ARM GAS  C:\Users\g\AppData\Local\Temp\cciWnrh1.s 			page 12


 245              		.cfi_endproc
 246              	.LFE0:
 247              		.size	pwmISR_Start, .-pwmISR_Start
 248              		.section	.text.pwmISR_StartEx,"ax",%progbits
 249              		.align	2
 250              		.global	pwmISR_StartEx
 251              		.code	16
 252              		.thumb_func
 253              		.type	pwmISR_StartEx, %function
 254              	pwmISR_StartEx:
 255              	.LFB1:
 100:Generated_Source\PSoC4/pwmISR.c ****     /* For all we know the interrupt is active. */
 256              		.loc 1 100 0
 257              		.cfi_startproc
 258              	.LVL7:
 259 0000 10B5     		push	{r4, lr}
 260              		.cfi_def_cfa_offset 8
 261              		.cfi_offset 4, -8
 262              		.cfi_offset 14, -4
 263              	.LBB34:
 264              	.LBB35:
 265              		.loc 1 349 0
 266 0002 8024     		mov	r4, #128
 267 0004 054B     		ldr	r3, .L18
 268 0006 6402     		lsl	r4, r4, #9
 269 0008 1C60     		str	r4, [r3]
 270              	.LVL8:
 271              	.LBE35:
 272              	.LBE34:
 273              	.LBB36:
 274              	.LBB37:
 201:Generated_Source\PSoC4/pwmISR.c **** }
 275              		.loc 1 201 0
 276 000a 8023     		mov	r3, #128
 277 000c 044A     		ldr	r2, .L18+4
 278              	.LBE37:
 279              	.LBE36:
 112:Generated_Source\PSoC4/pwmISR.c **** 
 280              		.loc 1 112 0
 281              		@ sp needed
 282              	.LBB39:
 283              	.LBB38:
 201:Generated_Source\PSoC4/pwmISR.c **** }
 284              		.loc 1 201 0
 285 000e D050     		str	r0, [r2, r3]
 286              	.LBE38:
 287              	.LBE39:
 108:Generated_Source\PSoC4/pwmISR.c **** 
 288              		.loc 1 108 0
 289 0010 0320     		mov	r0, #3
 290              	.LVL9:
 291 0012 FFF7FEFF 		bl	pwmISR_SetPriority
 292              	.LVL10:
 293              	.LBB40:
 294              	.LBB41:
 307:Generated_Source\PSoC4/pwmISR.c **** }
 295              		.loc 1 307 0
ARM GAS  C:\Users\g\AppData\Local\Temp\cciWnrh1.s 			page 13


 296 0016 034B     		ldr	r3, .L18+8
 297 0018 1C60     		str	r4, [r3]
 298              	.LBE41:
 299              	.LBE40:
 112:Generated_Source\PSoC4/pwmISR.c **** 
 300              		.loc 1 112 0
 301 001a 10BD     		pop	{r4, pc}
 302              	.L19:
 303              		.align	2
 304              	.L18:
 305 001c 80E100E0 		.word	-536813184
 306 0020 00000000 		.word	CyRamVectors
 307 0024 00E100E0 		.word	-536813312
 308              		.cfi_endproc
 309              	.LFE1:
 310              		.size	pwmISR_StartEx, .-pwmISR_StartEx
 311              		.section	.text.pwmISR_GetPriority,"ax",%progbits
 312              		.align	2
 313              		.global	pwmISR_GetPriority
 314              		.code	16
 315              		.thumb_func
 316              		.type	pwmISR_GetPriority, %function
 317              	pwmISR_GetPriority:
 318              	.LFB7:
 278:Generated_Source\PSoC4/pwmISR.c ****     uint32 priority;
 319              		.loc 1 278 0
 320              		.cfi_startproc
 321              	.LVL11:
 282:Generated_Source\PSoC4/pwmISR.c **** 
 322              		.loc 1 282 0
 323 0000 024B     		ldr	r3, .L21
 285:Generated_Source\PSoC4/pwmISR.c **** 
 324              		.loc 1 285 0
 325              		@ sp needed
 282:Generated_Source\PSoC4/pwmISR.c **** 
 326              		.loc 1 282 0
 327 0002 1868     		ldr	r0, [r3]
 328              	.LVL12:
 329 0004 0006     		lsl	r0, r0, #24
 330              	.LVL13:
 284:Generated_Source\PSoC4/pwmISR.c **** }
 331              		.loc 1 284 0
 332 0006 800F     		lsr	r0, r0, #30
 285:Generated_Source\PSoC4/pwmISR.c **** 
 333              		.loc 1 285 0
 334 0008 7047     		bx	lr
 335              	.L22:
 336 000a C046     		.align	2
 337              	.L21:
 338 000c 10E400E0 		.word	-536812528
 339              		.cfi_endproc
 340              	.LFE7:
 341              		.size	pwmISR_GetPriority, .-pwmISR_GetPriority
 342              		.section	.text.pwmISR_Enable,"ax",%progbits
 343              		.align	2
 344              		.global	pwmISR_Enable
 345              		.code	16
ARM GAS  C:\Users\g\AppData\Local\Temp\cciWnrh1.s 			page 14


 346              		.thumb_func
 347              		.type	pwmISR_Enable, %function
 348              	pwmISR_Enable:
 349              	.LFB8:
 305:Generated_Source\PSoC4/pwmISR.c ****     /* Enable the general interrupt. */
 350              		.loc 1 305 0
 351              		.cfi_startproc
 307:Generated_Source\PSoC4/pwmISR.c **** }
 352              		.loc 1 307 0
 353 0000 8022     		mov	r2, #128
 354 0002 024B     		ldr	r3, .L24
 355 0004 5202     		lsl	r2, r2, #9
 356 0006 1A60     		str	r2, [r3]
 308:Generated_Source\PSoC4/pwmISR.c **** 
 357              		.loc 1 308 0
 358              		@ sp needed
 359 0008 7047     		bx	lr
 360              	.L25:
 361 000a C046     		.align	2
 362              	.L24:
 363 000c 00E100E0 		.word	-536813312
 364              		.cfi_endproc
 365              	.LFE8:
 366              		.size	pwmISR_Enable, .-pwmISR_Enable
 367              		.section	.text.pwmISR_GetState,"ax",%progbits
 368              		.align	2
 369              		.global	pwmISR_GetState
 370              		.code	16
 371              		.thumb_func
 372              		.type	pwmISR_GetState, %function
 373              	pwmISR_GetState:
 374              	.LFB9:
 326:Generated_Source\PSoC4/pwmISR.c ****     /* Get the state of the general interrupt. */
 375              		.loc 1 326 0
 376              		.cfi_startproc
 328:Generated_Source\PSoC4/pwmISR.c **** }
 377              		.loc 1 328 0
 378 0000 024B     		ldr	r3, .L27
 329:Generated_Source\PSoC4/pwmISR.c **** 
 379              		.loc 1 329 0
 380              		@ sp needed
 328:Generated_Source\PSoC4/pwmISR.c **** }
 381              		.loc 1 328 0
 382 0002 1868     		ldr	r0, [r3]
 383 0004 C003     		lsl	r0, r0, #15
 384 0006 C00F     		lsr	r0, r0, #31
 329:Generated_Source\PSoC4/pwmISR.c **** 
 385              		.loc 1 329 0
 386 0008 7047     		bx	lr
 387              	.L28:
 388 000a C046     		.align	2
 389              	.L27:
 390 000c 00E100E0 		.word	-536813312
 391              		.cfi_endproc
 392              	.LFE9:
 393              		.size	pwmISR_GetState, .-pwmISR_GetState
 394              		.section	.text.pwmISR_Disable,"ax",%progbits
ARM GAS  C:\Users\g\AppData\Local\Temp\cciWnrh1.s 			page 15


 395              		.align	2
 396              		.global	pwmISR_Disable
 397              		.code	16
 398              		.thumb_func
 399              		.type	pwmISR_Disable, %function
 400              	pwmISR_Disable:
 401              	.LFB10:
 347:Generated_Source\PSoC4/pwmISR.c ****     /* Disable the general interrupt. */
 402              		.loc 1 347 0
 403              		.cfi_startproc
 404              		.loc 1 349 0
 405 0000 8022     		mov	r2, #128
 406 0002 024B     		ldr	r3, .L30
 407 0004 5202     		lsl	r2, r2, #9
 408 0006 1A60     		str	r2, [r3]
 350:Generated_Source\PSoC4/pwmISR.c **** }
 409              		.loc 1 350 0
 410              		@ sp needed
 411 0008 7047     		bx	lr
 412              	.L31:
 413 000a C046     		.align	2
 414              	.L30:
 415 000c 80E100E0 		.word	-536813184
 416              		.cfi_endproc
 417              	.LFE10:
 418              		.size	pwmISR_Disable, .-pwmISR_Disable
 419              		.section	.text.pwmISR_SetPending,"ax",%progbits
 420              		.align	2
 421              		.global	pwmISR_SetPending
 422              		.code	16
 423              		.thumb_func
 424              		.type	pwmISR_SetPending, %function
 425              	pwmISR_SetPending:
 426              	.LFB11:
 351:Generated_Source\PSoC4/pwmISR.c **** 
 352:Generated_Source\PSoC4/pwmISR.c **** 
 353:Generated_Source\PSoC4/pwmISR.c **** /*******************************************************************************
 354:Generated_Source\PSoC4/pwmISR.c **** * Function Name: pwmISR_SetPending
 355:Generated_Source\PSoC4/pwmISR.c **** ********************************************************************************
 356:Generated_Source\PSoC4/pwmISR.c **** *
 357:Generated_Source\PSoC4/pwmISR.c **** * Summary:
 358:Generated_Source\PSoC4/pwmISR.c **** *   Causes the Interrupt to enter the pending state, a software method of
 359:Generated_Source\PSoC4/pwmISR.c **** *   generating the interrupt.
 360:Generated_Source\PSoC4/pwmISR.c **** *
 361:Generated_Source\PSoC4/pwmISR.c **** * Parameters:
 362:Generated_Source\PSoC4/pwmISR.c **** *   None
 363:Generated_Source\PSoC4/pwmISR.c **** *
 364:Generated_Source\PSoC4/pwmISR.c **** * Return:
 365:Generated_Source\PSoC4/pwmISR.c **** *   None
 366:Generated_Source\PSoC4/pwmISR.c **** *
 367:Generated_Source\PSoC4/pwmISR.c **** * Side Effects:
 368:Generated_Source\PSoC4/pwmISR.c **** *   If interrupts are enabled and the interrupt is set up properly, the ISR is
 369:Generated_Source\PSoC4/pwmISR.c **** *   entered (depending on the priority of this interrupt and other pending 
 370:Generated_Source\PSoC4/pwmISR.c **** *   interrupts).
 371:Generated_Source\PSoC4/pwmISR.c **** *
 372:Generated_Source\PSoC4/pwmISR.c **** *******************************************************************************/
 373:Generated_Source\PSoC4/pwmISR.c **** void pwmISR_SetPending(void)
ARM GAS  C:\Users\g\AppData\Local\Temp\cciWnrh1.s 			page 16


 374:Generated_Source\PSoC4/pwmISR.c **** {
 427              		.loc 1 374 0
 428              		.cfi_startproc
 375:Generated_Source\PSoC4/pwmISR.c ****     *pwmISR_INTC_SET_PD = pwmISR__INTC_MASK;
 429              		.loc 1 375 0
 430 0000 8022     		mov	r2, #128
 431 0002 024B     		ldr	r3, .L33
 432 0004 5202     		lsl	r2, r2, #9
 433 0006 1A60     		str	r2, [r3]
 376:Generated_Source\PSoC4/pwmISR.c **** }
 434              		.loc 1 376 0
 435              		@ sp needed
 436 0008 7047     		bx	lr
 437              	.L34:
 438 000a C046     		.align	2
 439              	.L33:
 440 000c 00E200E0 		.word	-536813056
 441              		.cfi_endproc
 442              	.LFE11:
 443              		.size	pwmISR_SetPending, .-pwmISR_SetPending
 444              		.section	.text.pwmISR_ClearPending,"ax",%progbits
 445              		.align	2
 446              		.global	pwmISR_ClearPending
 447              		.code	16
 448              		.thumb_func
 449              		.type	pwmISR_ClearPending, %function
 450              	pwmISR_ClearPending:
 451              	.LFB12:
 377:Generated_Source\PSoC4/pwmISR.c **** 
 378:Generated_Source\PSoC4/pwmISR.c **** 
 379:Generated_Source\PSoC4/pwmISR.c **** /*******************************************************************************
 380:Generated_Source\PSoC4/pwmISR.c **** * Function Name: pwmISR_ClearPending
 381:Generated_Source\PSoC4/pwmISR.c **** ********************************************************************************
 382:Generated_Source\PSoC4/pwmISR.c **** *
 383:Generated_Source\PSoC4/pwmISR.c **** * Summary:
 384:Generated_Source\PSoC4/pwmISR.c **** *   Clears a pending interrupt in the interrupt controller.
 385:Generated_Source\PSoC4/pwmISR.c **** *
 386:Generated_Source\PSoC4/pwmISR.c **** *   Note Some interrupt sources are clear-on-read and require the block 
 387:Generated_Source\PSoC4/pwmISR.c **** *   interrupt/status register to be read/cleared with the appropriate block API 
 388:Generated_Source\PSoC4/pwmISR.c **** *   (GPIO, UART, and so on). Otherwise the ISR will continue to remain in 
 389:Generated_Source\PSoC4/pwmISR.c **** *   pending state even though the interrupt itself is cleared using this API.
 390:Generated_Source\PSoC4/pwmISR.c **** *
 391:Generated_Source\PSoC4/pwmISR.c **** * Parameters:
 392:Generated_Source\PSoC4/pwmISR.c **** *   None
 393:Generated_Source\PSoC4/pwmISR.c **** *
 394:Generated_Source\PSoC4/pwmISR.c **** * Return:
 395:Generated_Source\PSoC4/pwmISR.c **** *   None
 396:Generated_Source\PSoC4/pwmISR.c **** *
 397:Generated_Source\PSoC4/pwmISR.c **** *******************************************************************************/
 398:Generated_Source\PSoC4/pwmISR.c **** void pwmISR_ClearPending(void)
 399:Generated_Source\PSoC4/pwmISR.c **** {
 452              		.loc 1 399 0
 453              		.cfi_startproc
 400:Generated_Source\PSoC4/pwmISR.c ****     *pwmISR_INTC_CLR_PD = pwmISR__INTC_MASK;
 454              		.loc 1 400 0
 455 0000 8022     		mov	r2, #128
 456 0002 024B     		ldr	r3, .L36
ARM GAS  C:\Users\g\AppData\Local\Temp\cciWnrh1.s 			page 17


 457 0004 5202     		lsl	r2, r2, #9
 458 0006 1A60     		str	r2, [r3]
 401:Generated_Source\PSoC4/pwmISR.c **** }
 459              		.loc 1 401 0
 460              		@ sp needed
 461 0008 7047     		bx	lr
 462              	.L37:
 463 000a C046     		.align	2
 464              	.L36:
 465 000c 80E200E0 		.word	-536812928
 466              		.cfi_endproc
 467              	.LFE12:
 468              		.size	pwmISR_ClearPending, .-pwmISR_ClearPending
 469              		.text
 470              	.Letext0:
 471              		.file 2 "Generated_Source\\PSoC4/cytypes.h"
 472              		.file 3 "Generated_Source\\PSoC4/CyLib.h"