ARM GAS  C:\Users\g\AppData\Local\Temp\ccHHl3vk.s 			page 1


   1              		.cpu cortex-m0
   2              		.fpu softvfp
   3              		.eabi_attribute 20, 1
   4              		.eabi_attribute 21, 1
   5              		.eabi_attribute 23, 3
   6              		.eabi_attribute 24, 1
   7              		.eabi_attribute 25, 1
   8              		.eabi_attribute 26, 1
   9              		.eabi_attribute 30, 2
  10              		.eabi_attribute 34, 0
  11              		.eabi_attribute 18, 4
  12              		.code	16
  13              		.file	"ADC.c"
  14              		.text
  15              	.Ltext0:
  16              		.cfi_sections	.debug_frame
  17              		.section	.text.ADC_Init,"ax",%progbits
  18              		.align	2
  19              		.global	ADC_Init
  20              		.code	16
  21              		.thumb_func
  22              		.type	ADC_Init, %function
  23              	ADC_Init:
  24              	.LFB1:
  25              		.file 1 "Generated_Source\\PSoC4\\ADC.c"
   1:Generated_Source\PSoC4/ADC.c **** /*******************************************************************************
   2:Generated_Source\PSoC4/ADC.c **** * File Name: ADC.c
   3:Generated_Source\PSoC4/ADC.c **** * Version 2.40
   4:Generated_Source\PSoC4/ADC.c **** *
   5:Generated_Source\PSoC4/ADC.c **** * Description:
   6:Generated_Source\PSoC4/ADC.c **** *  This file provides the source code to the API for the Sequencing Successive
   7:Generated_Source\PSoC4/ADC.c **** *  Approximation ADC Component Component.
   8:Generated_Source\PSoC4/ADC.c **** *
   9:Generated_Source\PSoC4/ADC.c **** * Note:
  10:Generated_Source\PSoC4/ADC.c **** *
  11:Generated_Source\PSoC4/ADC.c **** ********************************************************************************
  12:Generated_Source\PSoC4/ADC.c **** * Copyright 2008-2015, Cypress Semiconductor Corporation.  All rights reserved.
  13:Generated_Source\PSoC4/ADC.c **** * You may use this file only in accordance with the license, terms, conditions,
  14:Generated_Source\PSoC4/ADC.c **** * disclaimers, and limitations in the end user license agreement accompanying
  15:Generated_Source\PSoC4/ADC.c **** * the software package with which this file was provided.
  16:Generated_Source\PSoC4/ADC.c **** *******************************************************************************/
  17:Generated_Source\PSoC4/ADC.c **** 
  18:Generated_Source\PSoC4/ADC.c **** #include "ADC.h"
  19:Generated_Source\PSoC4/ADC.c **** 
  20:Generated_Source\PSoC4/ADC.c **** 
  21:Generated_Source\PSoC4/ADC.c **** /***************************************
  22:Generated_Source\PSoC4/ADC.c **** * Global data allocation
  23:Generated_Source\PSoC4/ADC.c **** ***************************************/
  24:Generated_Source\PSoC4/ADC.c **** uint8 ADC_initVar = 0u;
  25:Generated_Source\PSoC4/ADC.c **** volatile int16 ADC_offset[ADC_TOTAL_CHANNELS_NUM];
  26:Generated_Source\PSoC4/ADC.c **** volatile int32 ADC_countsPer10Volt[ADC_TOTAL_CHANNELS_NUM];   /* Gain compensation */
  27:Generated_Source\PSoC4/ADC.c **** 
  28:Generated_Source\PSoC4/ADC.c **** 
  29:Generated_Source\PSoC4/ADC.c **** /***************************************
  30:Generated_Source\PSoC4/ADC.c **** * Local data allocation
  31:Generated_Source\PSoC4/ADC.c **** ***************************************/
  32:Generated_Source\PSoC4/ADC.c **** /* Channels configuration generated by customiser */
ARM GAS  C:\Users\g\AppData\Local\Temp\ccHHl3vk.s 			page 2


  33:Generated_Source\PSoC4/ADC.c **** static const uint32 CYCODE ADC_channelsConfig[] = { 0x00000000u };
  34:Generated_Source\PSoC4/ADC.c **** 
  35:Generated_Source\PSoC4/ADC.c **** 
  36:Generated_Source\PSoC4/ADC.c **** /*******************************************************************************
  37:Generated_Source\PSoC4/ADC.c **** * Function Name: ADC_Start
  38:Generated_Source\PSoC4/ADC.c **** ********************************************************************************
  39:Generated_Source\PSoC4/ADC.c **** *
  40:Generated_Source\PSoC4/ADC.c **** * Summary:
  41:Generated_Source\PSoC4/ADC.c **** *  Performs all required initialization for this component
  42:Generated_Source\PSoC4/ADC.c **** *  and enables the power. The power will be set to the appropriate
  43:Generated_Source\PSoC4/ADC.c **** *  power based on the clock frequency.
  44:Generated_Source\PSoC4/ADC.c **** *
  45:Generated_Source\PSoC4/ADC.c **** * Parameters:
  46:Generated_Source\PSoC4/ADC.c **** *  None.
  47:Generated_Source\PSoC4/ADC.c **** *
  48:Generated_Source\PSoC4/ADC.c **** * Return:
  49:Generated_Source\PSoC4/ADC.c **** *  None.
  50:Generated_Source\PSoC4/ADC.c **** *
  51:Generated_Source\PSoC4/ADC.c **** * Global variables:
  52:Generated_Source\PSoC4/ADC.c **** *  The ADC_initVar variable is used to indicate when/if initial
  53:Generated_Source\PSoC4/ADC.c **** *  configuration of this component has happened. The variable is initialized to
  54:Generated_Source\PSoC4/ADC.c **** *  zero and set to 1 the first time ADC_Start() is called. This allows for
  55:Generated_Source\PSoC4/ADC.c **** *  component Re-Start without re-initialization in all subsequent calls to the
  56:Generated_Source\PSoC4/ADC.c **** *  ADC_Start() routine.
  57:Generated_Source\PSoC4/ADC.c **** *  If re-initialization of the component is required the variable should be set
  58:Generated_Source\PSoC4/ADC.c **** *  to zero before call of ADC_Start() routine, or the user may call
  59:Generated_Source\PSoC4/ADC.c **** *  ADC_Init() and ADC_Enable() as done in the
  60:Generated_Source\PSoC4/ADC.c **** *  ADC_Start() routine.
  61:Generated_Source\PSoC4/ADC.c **** *
  62:Generated_Source\PSoC4/ADC.c **** *******************************************************************************/
  63:Generated_Source\PSoC4/ADC.c **** void ADC_Start(void)
  64:Generated_Source\PSoC4/ADC.c **** {
  65:Generated_Source\PSoC4/ADC.c ****     /* If not Initialized then initialize all required hardware and software */
  66:Generated_Source\PSoC4/ADC.c ****     if(ADC_initVar == 0u)
  67:Generated_Source\PSoC4/ADC.c ****     {
  68:Generated_Source\PSoC4/ADC.c ****         ADC_Init();
  69:Generated_Source\PSoC4/ADC.c ****         ADC_initVar = 1u;
  70:Generated_Source\PSoC4/ADC.c ****     }
  71:Generated_Source\PSoC4/ADC.c ****     ADC_Enable();
  72:Generated_Source\PSoC4/ADC.c **** }
  73:Generated_Source\PSoC4/ADC.c **** 
  74:Generated_Source\PSoC4/ADC.c **** 
  75:Generated_Source\PSoC4/ADC.c **** /*******************************************************************************
  76:Generated_Source\PSoC4/ADC.c **** * Function Name: ADC_Init
  77:Generated_Source\PSoC4/ADC.c **** ********************************************************************************
  78:Generated_Source\PSoC4/ADC.c **** *
  79:Generated_Source\PSoC4/ADC.c **** * Summary:
  80:Generated_Source\PSoC4/ADC.c **** *  Initialize component's parameters to the parameters set by user in the
  81:Generated_Source\PSoC4/ADC.c **** *  customizer of the component placed onto schematic. Usually called in
  82:Generated_Source\PSoC4/ADC.c **** *  ADC_Start().
  83:Generated_Source\PSoC4/ADC.c **** *
  84:Generated_Source\PSoC4/ADC.c **** * Parameters:
  85:Generated_Source\PSoC4/ADC.c **** *  None.
  86:Generated_Source\PSoC4/ADC.c **** *
  87:Generated_Source\PSoC4/ADC.c **** * Return:
  88:Generated_Source\PSoC4/ADC.c **** *  None.
  89:Generated_Source\PSoC4/ADC.c **** *
ARM GAS  C:\Users\g\AppData\Local\Temp\ccHHl3vk.s 			page 3


  90:Generated_Source\PSoC4/ADC.c **** * Global variables:
  91:Generated_Source\PSoC4/ADC.c **** *  The ADC_offset variable is initialized.
  92:Generated_Source\PSoC4/ADC.c **** *
  93:Generated_Source\PSoC4/ADC.c **** *******************************************************************************/
  94:Generated_Source\PSoC4/ADC.c **** void ADC_Init(void)
  95:Generated_Source\PSoC4/ADC.c **** {
  26              		.loc 1 95 0
  27              		.cfi_startproc
  28 0000 08B5     		push	{r3, lr}
  29              		.cfi_def_cfa_offset 8
  30              		.cfi_offset 3, -8
  31              		.cfi_offset 14, -4
  96:Generated_Source\PSoC4/ADC.c ****     uint32 chNum;
  97:Generated_Source\PSoC4/ADC.c ****     uint32 tmpRegVal;
  98:Generated_Source\PSoC4/ADC.c ****     int32 counts;
  99:Generated_Source\PSoC4/ADC.c **** 
 100:Generated_Source\PSoC4/ADC.c ****     #if(ADC_TOTAL_CHANNELS_NUM > 1u)
 101:Generated_Source\PSoC4/ADC.c ****         static const uint8 CYCODE ADC_InputsPlacement[] =
 102:Generated_Source\PSoC4/ADC.c ****         {
 103:Generated_Source\PSoC4/ADC.c ****             (uint8)(ADC_cy_psoc4_sarmux_8__CH_0_PORT << 4u) |
 104:Generated_Source\PSoC4/ADC.c ****             (uint8)ADC_cy_psoc4_sarmux_8__CH_0_PIN
 105:Generated_Source\PSoC4/ADC.c ****             ,(uint8)(ADC_cy_psoc4_sarmux_8__CH_1_PORT << 4u) |
 106:Generated_Source\PSoC4/ADC.c ****              (uint8)ADC_cy_psoc4_sarmux_8__CH_1_PIN
 107:Generated_Source\PSoC4/ADC.c ****             #if(ADC_TOTAL_CHANNELS_NUM > 2u)
 108:Generated_Source\PSoC4/ADC.c ****                 ,(uint8)(ADC_cy_psoc4_sarmux_8__CH_2_PORT << 4u) |
 109:Generated_Source\PSoC4/ADC.c ****                  (uint8)ADC_cy_psoc4_sarmux_8__CH_2_PIN
 110:Generated_Source\PSoC4/ADC.c ****             #endif /* End ADC_TOTAL_CHANNELS_NUM > 2u */
 111:Generated_Source\PSoC4/ADC.c ****             #if(ADC_TOTAL_CHANNELS_NUM > 3u)
 112:Generated_Source\PSoC4/ADC.c ****                 ,(uint8)(ADC_cy_psoc4_sarmux_8__CH_3_PORT << 4u) |
 113:Generated_Source\PSoC4/ADC.c ****                  (uint8)ADC_cy_psoc4_sarmux_8__CH_3_PIN
 114:Generated_Source\PSoC4/ADC.c ****             #endif /* End ADC_TOTAL_CHANNELS_NUM > 3u */
 115:Generated_Source\PSoC4/ADC.c ****             #if(ADC_TOTAL_CHANNELS_NUM > 4u)
 116:Generated_Source\PSoC4/ADC.c ****                 ,(uint8)(ADC_cy_psoc4_sarmux_8__CH_4_PORT << 4u) |
 117:Generated_Source\PSoC4/ADC.c ****                  (uint8)ADC_cy_psoc4_sarmux_8__CH_4_PIN
 118:Generated_Source\PSoC4/ADC.c ****             #endif /* End ADC_TOTAL_CHANNELS_NUM > 4u */
 119:Generated_Source\PSoC4/ADC.c ****             #if(ADC_TOTAL_CHANNELS_NUM > 5u)
 120:Generated_Source\PSoC4/ADC.c ****                 ,(uint8)(ADC_cy_psoc4_sarmux_8__CH_5_PORT << 4u) |
 121:Generated_Source\PSoC4/ADC.c ****                  (uint8)ADC_cy_psoc4_sarmux_8__CH_5_PIN
 122:Generated_Source\PSoC4/ADC.c ****             #endif /* End ADC_TOTAL_CHANNELS_NUM > 5u */
 123:Generated_Source\PSoC4/ADC.c ****             #if(ADC_TOTAL_CHANNELS_NUM > 6u)
 124:Generated_Source\PSoC4/ADC.c ****                 ,(uint8)(ADC_cy_psoc4_sarmux_8__CH_6_PORT << 4u) |
 125:Generated_Source\PSoC4/ADC.c ****                  (uint8)ADC_cy_psoc4_sarmux_8__CH_6_PIN
 126:Generated_Source\PSoC4/ADC.c ****             #endif /* End ADC_TOTAL_CHANNELS_NUM > 6u */
 127:Generated_Source\PSoC4/ADC.c ****             #if(ADC_TOTAL_CHANNELS_NUM > 7u)
 128:Generated_Source\PSoC4/ADC.c ****                 ,(uint8)(ADC_cy_psoc4_sarmux_8__CH_7_PORT << 4u) |
 129:Generated_Source\PSoC4/ADC.c ****                  (uint8)ADC_cy_psoc4_sarmux_8__CH_7_PIN
 130:Generated_Source\PSoC4/ADC.c ****             #endif /* End ADC_TOTAL_CHANNELS_NUM > 7u */
 131:Generated_Source\PSoC4/ADC.c ****             #if(ADC_TOTAL_CHANNELS_NUM > 8u)
 132:Generated_Source\PSoC4/ADC.c ****                 ,(uint8)(ADC_cy_psoc4_sarmux_8__CH_8_PORT << 4u) |
 133:Generated_Source\PSoC4/ADC.c ****                  (uint8)ADC_cy_psoc4_sarmux_8__CH_8_PIN
 134:Generated_Source\PSoC4/ADC.c ****             #endif /* End ADC_TOTAL_CHANNELS_NUM > 8u */
 135:Generated_Source\PSoC4/ADC.c ****             #if(ADC_TOTAL_CHANNELS_NUM > 9u)
 136:Generated_Source\PSoC4/ADC.c ****                 ,(uint8)(ADC_cy_psoc4_sarmux_8__CH_9_PORT << 4u) |
 137:Generated_Source\PSoC4/ADC.c ****                  (uint8)ADC_cy_psoc4_sarmux_8__CH_9_PIN
 138:Generated_Source\PSoC4/ADC.c ****             #endif /* End ADC_TOTAL_CHANNELS_NUM > 9u */
 139:Generated_Source\PSoC4/ADC.c ****             #if(ADC_TOTAL_CHANNELS_NUM > 10u)
 140:Generated_Source\PSoC4/ADC.c ****                 ,(uint8)(ADC_cy_psoc4_sarmux_8__CH_10_PORT << 4u) |
ARM GAS  C:\Users\g\AppData\Local\Temp\ccHHl3vk.s 			page 4


 141:Generated_Source\PSoC4/ADC.c ****                  (uint8)ADC_cy_psoc4_sarmux_8__CH_10_PIN
 142:Generated_Source\PSoC4/ADC.c ****             #endif /* End ADC_TOTAL_CHANNELS_NUM > 10u */
 143:Generated_Source\PSoC4/ADC.c ****             #if(ADC_TOTAL_CHANNELS_NUM > 11u)
 144:Generated_Source\PSoC4/ADC.c ****                 ,(uint8)(ADC_cy_psoc4_sarmux_8__CH_11_PORT << 4u) |
 145:Generated_Source\PSoC4/ADC.c ****                  (uint8)ADC_cy_psoc4_sarmux_8__CH_11_PIN
 146:Generated_Source\PSoC4/ADC.c ****             #endif /* End ADC_TOTAL_CHANNELS_NUM > 11u */
 147:Generated_Source\PSoC4/ADC.c ****             #if(ADC_TOTAL_CHANNELS_NUM > 12u)
 148:Generated_Source\PSoC4/ADC.c ****                 ,(uint8)(ADC_cy_psoc4_sarmux_8__CH_12_PORT << 4u) |
 149:Generated_Source\PSoC4/ADC.c ****                  (uint8)ADC_cy_psoc4_sarmux_8__CH_12_PIN
 150:Generated_Source\PSoC4/ADC.c ****             #endif /* End ADC_TOTAL_CHANNELS_NUM > 12u */
 151:Generated_Source\PSoC4/ADC.c ****             #if(ADC_TOTAL_CHANNELS_NUM > 13u)
 152:Generated_Source\PSoC4/ADC.c ****                 ,(uint8)(ADC_cy_psoc4_sarmux_8__CH_13_PORT << 4u) |
 153:Generated_Source\PSoC4/ADC.c ****                  (uint8)ADC_cy_psoc4_sarmux_8__CH_13_PIN
 154:Generated_Source\PSoC4/ADC.c ****             #endif /* End ADC_TOTAL_CHANNELS_NUM > 13u */
 155:Generated_Source\PSoC4/ADC.c ****             #if(ADC_TOTAL_CHANNELS_NUM > 14u)
 156:Generated_Source\PSoC4/ADC.c ****                 ,(uint8)(ADC_cy_psoc4_sarmux_8__CH_14_PORT << 4u) |
 157:Generated_Source\PSoC4/ADC.c ****                  (uint8)ADC_cy_psoc4_sarmux_8__CH_14_PIN
 158:Generated_Source\PSoC4/ADC.c ****             #endif /* End ADC_TOTAL_CHANNELS_NUM > 14u */
 159:Generated_Source\PSoC4/ADC.c ****             #if(ADC_TOTAL_CHANNELS_NUM > 15u)
 160:Generated_Source\PSoC4/ADC.c ****                 ,(uint8)(ADC_cy_psoc4_sarmux_8__CH_15_PORT << 4u) |
 161:Generated_Source\PSoC4/ADC.c ****                  (uint8)ADC_cy_psoc4_sarmux_8__CH_15_PIN
 162:Generated_Source\PSoC4/ADC.c ****             #endif /* End ADC_TOTAL_CHANNELS_NUM > 15u */
 163:Generated_Source\PSoC4/ADC.c ****             #if(ADC_TOTAL_CHANNELS_NUM > 16u)
 164:Generated_Source\PSoC4/ADC.c ****                 ,(uint8)(ADC_cy_psoc4_sarmux_8__CH_16_PORT << 4u) |
 165:Generated_Source\PSoC4/ADC.c ****                  (uint8)ADC_cy_psoc4_sarmux_8__CH_16_PIN
 166:Generated_Source\PSoC4/ADC.c ****             #endif /* End ADC_TOTAL_CHANNELS_NUM > 16u */
 167:Generated_Source\PSoC4/ADC.c ****         };
 168:Generated_Source\PSoC4/ADC.c ****     #endif /* End ADC_TOTAL_CHANNELS_NUM > 1u */
 169:Generated_Source\PSoC4/ADC.c **** 
 170:Generated_Source\PSoC4/ADC.c ****     #if(ADC_IRQ_REMOVE == 0u)
 171:Generated_Source\PSoC4/ADC.c ****         /* Start and set interrupt vector */
 172:Generated_Source\PSoC4/ADC.c ****         CyIntSetPriority(ADC_INTC_NUMBER, ADC_INTC_PRIOR_NUMBER);
  32              		.loc 1 172 0
  33 0002 0E20     		mov	r0, #14
  34 0004 0321     		mov	r1, #3
  35 0006 FFF7FEFF 		bl	CyIntSetPriority
  36              	.LVL0:
 173:Generated_Source\PSoC4/ADC.c ****         (void)CyIntSetVector(ADC_INTC_NUMBER, &ADC_ISR);
  37              		.loc 1 173 0
  38 000a 0E20     		mov	r0, #14
  39 000c 2049     		ldr	r1, .L5
  40 000e FFF7FEFF 		bl	CyIntSetVector
  41              	.LVL1:
 174:Generated_Source\PSoC4/ADC.c ****     #endif   /* End ADC_IRQ_REMOVE */
 175:Generated_Source\PSoC4/ADC.c **** 
 176:Generated_Source\PSoC4/ADC.c ****     /* Init SAR and MUX registers */
 177:Generated_Source\PSoC4/ADC.c ****     ADC_SAR_CHAN_EN_REG = ADC_DEFAULT_EN_CHANNELS;
  42              		.loc 1 177 0
  43 0012 0122     		mov	r2, #1
  44 0014 1F4B     		ldr	r3, .L5+4
  45 0016 1A60     		str	r2, [r3]
 178:Generated_Source\PSoC4/ADC.c ****     ADC_SAR_CTRL_REG |= ADC_DEFAULT_CTRL_REG_CFG | 
 179:Generated_Source\PSoC4/ADC.c ****         /* Enable the SAR internal pump when global pump is enabled */
 180:Generated_Source\PSoC4/ADC.c ****         (((ADC_PUMP_CTRL_REG & ADC_PUMP_CTRL_ENABLED) != 0u) ? 
  46              		.loc 1 180 0
  47 0018 1F4B     		ldr	r3, .L5+8
  48 001a 1B68     		ldr	r3, [r3]
ARM GAS  C:\Users\g\AppData\Local\Temp\ccHHl3vk.s 			page 5


 178:Generated_Source\PSoC4/ADC.c ****     ADC_SAR_CTRL_REG |= ADC_DEFAULT_CTRL_REG_CFG | 
  49              		.loc 1 178 0
  50 001c 002B     		cmp	r3, #0
  51 001e 34DB     		blt	.L3
  52 0020 1E49     		ldr	r1, .L5+12
  53              	.L2:
 178:Generated_Source\PSoC4/ADC.c ****     ADC_SAR_CTRL_REG |= ADC_DEFAULT_CTRL_REG_CFG | 
  54              		.loc 1 178 0 is_stmt 0 discriminator 4
  55 0022 1F4A     		ldr	r2, .L5+16
 181:Generated_Source\PSoC4/ADC.c ****         ADC_BOOSTPUMP_EN : 0u);
 182:Generated_Source\PSoC4/ADC.c ****     ADC_SAR_SAMPLE_CTRL_REG = ADC_DEFAULT_SAMPLE_CTRL_REG_CFG;
 183:Generated_Source\PSoC4/ADC.c ****     ADC_SAR_RANGE_THRES_REG = ADC_DEFAULT_RANGE_THRES_REG_CFG;
 184:Generated_Source\PSoC4/ADC.c ****     ADC_SAR_RANGE_COND_REG  = ADC_COMPARE_MODE;
 185:Generated_Source\PSoC4/ADC.c ****     ADC_SAR_SAMPLE_TIME01_REG = ADC_DEFAULT_SAMPLE_TIME01_REG_CFG;
 186:Generated_Source\PSoC4/ADC.c ****     ADC_SAR_SAMPLE_TIME23_REG = ADC_DEFAULT_SAMPLE_TIME23_REG_CFG;
 187:Generated_Source\PSoC4/ADC.c ****     
 188:Generated_Source\PSoC4/ADC.c ****     /* Connect Vm to VSSA when even one channel is single-ended or multiple channels configured */
 189:Generated_Source\PSoC4/ADC.c ****     #if(ADC_DEFAULT_MUX_SWITCH0 != 0u)
 190:Generated_Source\PSoC4/ADC.c ****         ADC_MUX_SWITCH0_REG |= ADC_DEFAULT_MUX_SWITCH0;
 191:Generated_Source\PSoC4/ADC.c ****         /* Set MUX_HW_CTRL_VSSA in MUX_SWITCH_HW_CTRL when multiple channels enabled */
 192:Generated_Source\PSoC4/ADC.c ****         #if(ADC_TOTAL_CHANNELS_NUM > 1u)
 193:Generated_Source\PSoC4/ADC.c ****             ADC_MUX_SWITCH_HW_CTRL_REG |= ADC_DEFAULT_MUX_SWITCH0;
 194:Generated_Source\PSoC4/ADC.c ****         #endif /* ADC_TOTAL_CHANNELS_NUM > 1u */
 195:Generated_Source\PSoC4/ADC.c ****     #endif /*ADC_CHANNELS_MODE !=0 */
 196:Generated_Source\PSoC4/ADC.c **** 
 197:Generated_Source\PSoC4/ADC.c ****     ADC_SAR_SATURATE_INTR_MASK_REG = 0u;
 198:Generated_Source\PSoC4/ADC.c ****     ADC_SAR_RANGE_INTR_MASK_REG = 0u;
 199:Generated_Source\PSoC4/ADC.c ****     ADC_SAR_INTR_MASK_REG = ADC_SAR_INTR_MASK;
 200:Generated_Source\PSoC4/ADC.c **** 
 201:Generated_Source\PSoC4/ADC.c ****     #if(ADC_CY_SAR_IP_VER == ADC_CY_SAR_IP_VER0)
 202:Generated_Source\PSoC4/ADC.c ****         ADC_ANA_TRIM_REG = ADC_TRIM_COEF;
 203:Generated_Source\PSoC4/ADC.c ****     #endif /* (ADC_CY_SAR_IP_VER == ADC_CY_SAR_IP_VER0) */
 204:Generated_Source\PSoC4/ADC.c **** 
 205:Generated_Source\PSoC4/ADC.c ****     /* Read and modify default configuration based on characterization */
 206:Generated_Source\PSoC4/ADC.c ****     tmpRegVal = ADC_SAR_DFT_CTRL_REG;
 207:Generated_Source\PSoC4/ADC.c ****     tmpRegVal &= (uint32)~ADC_DCEN;
 208:Generated_Source\PSoC4/ADC.c ****     
 209:Generated_Source\PSoC4/ADC.c ****     #if(ADC_CY_SAR_IP_VER == ADC_CY_SAR_IP_VER0)
 210:Generated_Source\PSoC4/ADC.c ****         #if(ADC_NOMINAL_CLOCK_FREQ > (ADC_MAX_FREQUENCY / 2))
 211:Generated_Source\PSoC4/ADC.c ****             tmpRegVal |= ADC_SEL_CSEL_DFT_CHAR;
 212:Generated_Source\PSoC4/ADC.c ****         #else  /* clock speed < 9 Mhz */
 213:Generated_Source\PSoC4/ADC.c ****             tmpRegVal |= ADC_DLY_INC;
 214:Generated_Source\PSoC4/ADC.c ****         #endif /* clock speed > 9 Mhz */
 215:Generated_Source\PSoC4/ADC.c ****     #else
 216:Generated_Source\PSoC4/ADC.c ****         #if ((ADC_DEFAULT_VREF_SEL == ADC__INTERNAL1024) || \
 217:Generated_Source\PSoC4/ADC.c ****              (ADC_DEFAULT_VREF_SEL == ADC__INTERNALVREF))
 218:Generated_Source\PSoC4/ADC.c ****             tmpRegVal |= ADC_DLY_INC;
 219:Generated_Source\PSoC4/ADC.c ****         #else
 220:Generated_Source\PSoC4/ADC.c ****             tmpRegVal |= ADC_DCEN;
 221:Generated_Source\PSoC4/ADC.c ****             tmpRegVal &= (uint32)~ADC_DLY_INC;
 222:Generated_Source\PSoC4/ADC.c ****         #endif /* ((ADC_DEFAULT_VREF_SEL == ADC__INTERNAL1024) || \
 223:Generated_Source\PSoC4/ADC.c ****                    (ADC_DEFAULT_VREF_SEL == ADC__INTERNALVREF)) */
 224:Generated_Source\PSoC4/ADC.c ****     #endif /* (ADC_CY_SAR_IP_VER == ADC_CY_SAR_IP_VER0) */
 225:Generated_Source\PSoC4/ADC.c ****     
 226:Generated_Source\PSoC4/ADC.c ****     ADC_SAR_DFT_CTRL_REG = tmpRegVal;
 227:Generated_Source\PSoC4/ADC.c **** 
 228:Generated_Source\PSoC4/ADC.c ****     #if(ADC_MAX_RESOLUTION != ADC_RESOLUTION_12)
ARM GAS  C:\Users\g\AppData\Local\Temp\ccHHl3vk.s 			page 6


 229:Generated_Source\PSoC4/ADC.c ****         ADC_WOUNDING_REG = ADC_ALT_WOUNDING;
 230:Generated_Source\PSoC4/ADC.c ****     #endif /* ADC_MAX_RESOLUTION != ADC_RESOLUTION_12 */
 231:Generated_Source\PSoC4/ADC.c **** 
 232:Generated_Source\PSoC4/ADC.c ****     for(chNum = 0u; chNum < ADC_TOTAL_CHANNELS_NUM; chNum++)
 233:Generated_Source\PSoC4/ADC.c ****     {
 234:Generated_Source\PSoC4/ADC.c ****         tmpRegVal = (ADC_channelsConfig[chNum] & ADC_CHANNEL_CONFIG_MASK);
 235:Generated_Source\PSoC4/ADC.c ****         #if(ADC_TOTAL_CHANNELS_NUM > 1u)
 236:Generated_Source\PSoC4/ADC.c ****             tmpRegVal |= ADC_InputsPlacement[chNum];
 237:Generated_Source\PSoC4/ADC.c ****         #endif /* End ADC_TOTAL_CHANNELS_NUM > 1u */
 238:Generated_Source\PSoC4/ADC.c ****         
 239:Generated_Source\PSoC4/ADC.c ****         
 240:Generated_Source\PSoC4/ADC.c ****         /* When the part is limited to 10-bit then the SUB_RESOLUTION bit
 241:Generated_Source\PSoC4/ADC.c ****         *  will be ignored and the RESOLUTION bit selects between 10-bit
 242:Generated_Source\PSoC4/ADC.c ****         *  (0) and 8-bit (1) resolution.
 243:Generated_Source\PSoC4/ADC.c ****         */
 244:Generated_Source\PSoC4/ADC.c ****         #if((ADC_MAX_RESOLUTION != ADC_RESOLUTION_12) && \
 245:Generated_Source\PSoC4/ADC.c ****             (ADC_ALT_WOUNDING == ADC_WOUNDING_10BIT))
 246:Generated_Source\PSoC4/ADC.c ****             tmpRegVal &= (uint32)(~ADC_ALT_RESOLUTION_ON);
 247:Generated_Source\PSoC4/ADC.c ****         #endif /* ADC_MAX_RESOLUTION != ADC_RESOLUTION_12 */
 248:Generated_Source\PSoC4/ADC.c **** 
 249:Generated_Source\PSoC4/ADC.c ****         #if(ADC_INJ_CHANNEL_ENABLED)
 250:Generated_Source\PSoC4/ADC.c ****         if(chNum < ADC_SEQUENCED_CHANNELS_NUM)
 251:Generated_Source\PSoC4/ADC.c ****         #endif /* ADC_INJ_CHANNEL_ENABLED */
 252:Generated_Source\PSoC4/ADC.c ****         {
 253:Generated_Source\PSoC4/ADC.c ****             CY_SET_REG32((reg32 *)(ADC_SAR_CHAN_CONFIG_IND + (uint32)(chNum << 2)), tmpRegVal);
 254:Generated_Source\PSoC4/ADC.c **** 
 255:Generated_Source\PSoC4/ADC.c ****             if((ADC_channelsConfig[chNum] & ADC_IS_SATURATE_EN_MASK) != 0u)
 256:Generated_Source\PSoC4/ADC.c ****             {
 257:Generated_Source\PSoC4/ADC.c ****                 ADC_SAR_SATURATE_INTR_MASK_REG |= (uint16)((uint16)1 << chNum);
 258:Generated_Source\PSoC4/ADC.c ****             }
 259:Generated_Source\PSoC4/ADC.c **** 
 260:Generated_Source\PSoC4/ADC.c ****             if((ADC_channelsConfig[chNum] & ADC_IS_RANGE_CTRL_EN_MASK) != 0u)
 261:Generated_Source\PSoC4/ADC.c ****             {
 262:Generated_Source\PSoC4/ADC.c ****                 ADC_SAR_RANGE_INTR_MASK_REG |= (uint16)((uint16)1 << chNum);
 263:Generated_Source\PSoC4/ADC.c ****             }
 264:Generated_Source\PSoC4/ADC.c ****         }
 265:Generated_Source\PSoC4/ADC.c ****         #if(ADC_INJ_CHANNEL_ENABLED)
 266:Generated_Source\PSoC4/ADC.c ****             else
 267:Generated_Source\PSoC4/ADC.c ****             {
 268:Generated_Source\PSoC4/ADC.c ****                 CY_SET_REG32(ADC_SAR_INJ_CHAN_CONFIG_PTR, tmpRegVal | ADC_INJ_TAILGATING);
 269:Generated_Source\PSoC4/ADC.c **** 
 270:Generated_Source\PSoC4/ADC.c ****                 if((ADC_channelsConfig[chNum] & ADC_IS_SATURATE_EN_MASK) != 0u)
 271:Generated_Source\PSoC4/ADC.c ****                 {
 272:Generated_Source\PSoC4/ADC.c ****                     ADC_SAR_INTR_MASK_REG |= ADC_INJ_SATURATE_MASK;
 273:Generated_Source\PSoC4/ADC.c ****                 }
 274:Generated_Source\PSoC4/ADC.c **** 
 275:Generated_Source\PSoC4/ADC.c ****                 if((ADC_channelsConfig[chNum] & ADC_IS_RANGE_CTRL_EN_MASK) != 0u)
 276:Generated_Source\PSoC4/ADC.c ****                 {
 277:Generated_Source\PSoC4/ADC.c ****                     ADC_SAR_INTR_MASK_REG |= ADC_INJ_RANGE_MASK;
 278:Generated_Source\PSoC4/ADC.c ****                 }
 279:Generated_Source\PSoC4/ADC.c ****             }
 280:Generated_Source\PSoC4/ADC.c ****         #endif /* ADC_INJ_CHANNEL_ENABLED */
 281:Generated_Source\PSoC4/ADC.c **** 
 282:Generated_Source\PSoC4/ADC.c ****         if((ADC_channelsConfig[chNum] & ADC_ALT_RESOLUTION_ON) != 0u)
 283:Generated_Source\PSoC4/ADC.c ****         {
 284:Generated_Source\PSoC4/ADC.c ****                counts = (int32)ADC_DEFAULT_MAX_WRK_ALT;
 285:Generated_Source\PSoC4/ADC.c ****         }
ARM GAS  C:\Users\g\AppData\Local\Temp\ccHHl3vk.s 			page 7


 286:Generated_Source\PSoC4/ADC.c ****         else
 287:Generated_Source\PSoC4/ADC.c ****         {
 288:Generated_Source\PSoC4/ADC.c ****                counts = (int32)ADC_SAR_WRK_MAX_12BIT;
 289:Generated_Source\PSoC4/ADC.c ****         }
 290:Generated_Source\PSoC4/ADC.c **** 
 291:Generated_Source\PSoC4/ADC.c ****         if((ADC_channelsConfig[chNum] & ADC_DIFFERENTIAL_EN) == 0u)
 292:Generated_Source\PSoC4/ADC.c ****         {
 293:Generated_Source\PSoC4/ADC.c ****             #if((ADC_DEFAULT_SE_RESULT_FORMAT_SEL == ADC__FSIGNED) && \
 294:Generated_Source\PSoC4/ADC.c ****                 (ADC_DEFAULT_NEG_INPUT_SEL == ADC__VREF))
 295:Generated_Source\PSoC4/ADC.c ****                 /* Set offset to the minus half scale to convert results to unsigned format */
 296:Generated_Source\PSoC4/ADC.c ****                 ADC_offset[chNum] = (int16)(counts / -2);
 297:Generated_Source\PSoC4/ADC.c ****             #else
 298:Generated_Source\PSoC4/ADC.c ****                 ADC_offset[chNum] = 0;
 299:Generated_Source\PSoC4/ADC.c ****             #endif /* end DEFAULT_SE_RESULT_FORMAT_SEL == ADC__FSIGNED */
 300:Generated_Source\PSoC4/ADC.c ****         }
 301:Generated_Source\PSoC4/ADC.c ****         else    /* Differential channel */
 302:Generated_Source\PSoC4/ADC.c ****         {
 303:Generated_Source\PSoC4/ADC.c ****             #if(ADC_DEFAULT_DIFF_RESULT_FORMAT_SEL == ADC__FUNSIGNED)
 304:Generated_Source\PSoC4/ADC.c ****                 /* Set offset to the half scale to convert results to signed format */
 305:Generated_Source\PSoC4/ADC.c ****                 ADC_offset[chNum] = (int16)(counts / 2);
 306:Generated_Source\PSoC4/ADC.c ****             #else
 307:Generated_Source\PSoC4/ADC.c ****                 ADC_offset[chNum] = 0;
 308:Generated_Source\PSoC4/ADC.c ****             #endif /* end ADC_DEFAULT_DIFF_RESULT_FORMAT_SEL == ADC__FUNSIGNED */
 309:Generated_Source\PSoC4/ADC.c ****         }
 310:Generated_Source\PSoC4/ADC.c ****         /* Calculate gain in counts per 10 volts with rounding */
 311:Generated_Source\PSoC4/ADC.c ****         ADC_countsPer10Volt[chNum] = (int16)(((counts * ADC_10MV_COUNTS) +
 312:Generated_Source\PSoC4/ADC.c ****                             ADC_DEFAULT_VREF_MV_VALUE) / (ADC_DEFAULT_VREF_MV_VALUE * 2));
 313:Generated_Source\PSoC4/ADC.c ****     }
 314:Generated_Source\PSoC4/ADC.c **** }
  56              		.loc 1 314 0 is_stmt 1 discriminator 4
  57              		@ sp needed
 178:Generated_Source\PSoC4/ADC.c ****     ADC_SAR_CTRL_REG |= ADC_DEFAULT_CTRL_REG_CFG | 
  58              		.loc 1 178 0 discriminator 4
  59 0024 1368     		ldr	r3, [r2]
  60 0026 0B43     		orr	r3, r1
  61 0028 1360     		str	r3, [r2]
 182:Generated_Source\PSoC4/ADC.c ****     ADC_SAR_RANGE_THRES_REG = ADC_DEFAULT_RANGE_THRES_REG_CFG;
  62              		.loc 1 182 0 discriminator 4
  63 002a 1E4A     		ldr	r2, .L5+20
  64 002c 1E4B     		ldr	r3, .L5+24
 190:Generated_Source\PSoC4/ADC.c ****         /* Set MUX_HW_CTRL_VSSA in MUX_SWITCH_HW_CTRL when multiple channels enabled */
  65              		.loc 1 190 0 discriminator 4
  66 002e 8021     		mov	r1, #128
 182:Generated_Source\PSoC4/ADC.c ****     ADC_SAR_RANGE_THRES_REG = ADC_DEFAULT_RANGE_THRES_REG_CFG;
  67              		.loc 1 182 0 discriminator 4
  68 0030 1A60     		str	r2, [r3]
 183:Generated_Source\PSoC4/ADC.c ****     ADC_SAR_RANGE_COND_REG  = ADC_COMPARE_MODE;
  69              		.loc 1 183 0 discriminator 4
  70 0032 1E4A     		ldr	r2, .L5+28
  71 0034 1E4B     		ldr	r3, .L5+32
 190:Generated_Source\PSoC4/ADC.c ****         /* Set MUX_HW_CTRL_VSSA in MUX_SWITCH_HW_CTRL when multiple channels enabled */
  72              		.loc 1 190 0 discriminator 4
  73 0036 4902     		lsl	r1, r1, #9
 183:Generated_Source\PSoC4/ADC.c ****     ADC_SAR_RANGE_COND_REG  = ADC_COMPARE_MODE;
  74              		.loc 1 183 0 discriminator 4
  75 0038 1A60     		str	r2, [r3]
 184:Generated_Source\PSoC4/ADC.c ****     ADC_SAR_SAMPLE_TIME01_REG = ADC_DEFAULT_SAMPLE_TIME01_REG_CFG;
ARM GAS  C:\Users\g\AppData\Local\Temp\ccHHl3vk.s 			page 8


  76              		.loc 1 184 0 discriminator 4
  77 003a 8022     		mov	r2, #128
  78 003c 1D4B     		ldr	r3, .L5+36
  79 003e 1206     		lsl	r2, r2, #24
  80 0040 1A60     		str	r2, [r3]
 185:Generated_Source\PSoC4/ADC.c ****     ADC_SAR_SAMPLE_TIME23_REG = ADC_DEFAULT_SAMPLE_TIME23_REG_CFG;
  81              		.loc 1 185 0 discriminator 4
  82 0042 1D4B     		ldr	r3, .L5+40
  83 0044 1D4A     		ldr	r2, .L5+44
  84 0046 1360     		str	r3, [r2]
 186:Generated_Source\PSoC4/ADC.c ****     
  85              		.loc 1 186 0 discriminator 4
  86 0048 1D4A     		ldr	r2, .L5+48
  87 004a 1360     		str	r3, [r2]
 190:Generated_Source\PSoC4/ADC.c ****         /* Set MUX_HW_CTRL_VSSA in MUX_SWITCH_HW_CTRL when multiple channels enabled */
  88              		.loc 1 190 0 discriminator 4
  89 004c 1D4A     		ldr	r2, .L5+52
  90 004e 1368     		ldr	r3, [r2]
  91 0050 0B43     		orr	r3, r1
  92 0052 1360     		str	r3, [r2]
 197:Generated_Source\PSoC4/ADC.c ****     ADC_SAR_RANGE_INTR_MASK_REG = 0u;
  93              		.loc 1 197 0 discriminator 4
  94 0054 0022     		mov	r2, #0
 199:Generated_Source\PSoC4/ADC.c **** 
  95              		.loc 1 199 0 discriminator 4
  96 0056 0121     		mov	r1, #1
 197:Generated_Source\PSoC4/ADC.c ****     ADC_SAR_RANGE_INTR_MASK_REG = 0u;
  97              		.loc 1 197 0 discriminator 4
  98 0058 1B4B     		ldr	r3, .L5+56
  99 005a 1A60     		str	r2, [r3]
 198:Generated_Source\PSoC4/ADC.c ****     ADC_SAR_INTR_MASK_REG = ADC_SAR_INTR_MASK;
 100              		.loc 1 198 0 discriminator 4
 101 005c 1B4B     		ldr	r3, .L5+60
 102 005e 1A60     		str	r2, [r3]
 199:Generated_Source\PSoC4/ADC.c **** 
 103              		.loc 1 199 0 discriminator 4
 104 0060 1B4B     		ldr	r3, .L5+64
 105 0062 1960     		str	r1, [r3]
 202:Generated_Source\PSoC4/ADC.c ****     #endif /* (ADC_CY_SAR_IP_VER == ADC_CY_SAR_IP_VER0) */
 106              		.loc 1 202 0 discriminator 4
 107 0064 1B4B     		ldr	r3, .L5+68
 108 0066 0131     		add	r1, r1, #1
 109 0068 1960     		str	r1, [r3]
 206:Generated_Source\PSoC4/ADC.c ****     tmpRegVal &= (uint32)~ADC_DCEN;
 110              		.loc 1 206 0 discriminator 4
 111 006a 1B49     		ldr	r1, .L5+72
 207:Generated_Source\PSoC4/ADC.c ****     
 112              		.loc 1 207 0 discriminator 4
 113 006c 1B4B     		ldr	r3, .L5+76
 206:Generated_Source\PSoC4/ADC.c ****     tmpRegVal &= (uint32)~ADC_DCEN;
 114              		.loc 1 206 0 discriminator 4
 115 006e 0868     		ldr	r0, [r1]
 116              	.LVL2:
 207:Generated_Source\PSoC4/ADC.c ****     
 117              		.loc 1 207 0 discriminator 4
 118 0070 0340     		and	r3, r0
 119              	.LVL3:
ARM GAS  C:\Users\g\AppData\Local\Temp\ccHHl3vk.s 			page 9


 211:Generated_Source\PSoC4/ADC.c ****         #else  /* clock speed < 9 Mhz */
 120              		.loc 1 211 0 discriminator 4
 121 0072 C020     		mov	r0, #192
 122 0074 8004     		lsl	r0, r0, #18
 123 0076 0343     		orr	r3, r0
 124              	.LVL4:
 226:Generated_Source\PSoC4/ADC.c **** 
 125              		.loc 1 226 0 discriminator 4
 126 0078 0B60     		str	r3, [r1]
 127              	.LVL5:
 253:Generated_Source\PSoC4/ADC.c **** 
 128              		.loc 1 253 0 discriminator 4
 129 007a 194B     		ldr	r3, .L5+80
 130 007c 1A60     		str	r2, [r3]
 131              	.LVL6:
 298:Generated_Source\PSoC4/ADC.c ****             #endif /* end DEFAULT_SE_RESULT_FORMAT_SEL == ADC__FSIGNED */
 132              		.loc 1 298 0 discriminator 4
 133 007e 194B     		ldr	r3, .L5+84
 134 0080 1A80     		strh	r2, [r3]
 311:Generated_Source\PSoC4/ADC.c ****                             ADC_DEFAULT_VREF_MV_VALUE) / (ADC_DEFAULT_VREF_MV_VALUE * 2));
 135              		.loc 1 311 0 discriminator 4
 136 0082 194A     		ldr	r2, .L5+88
 137 0084 194B     		ldr	r3, .L5+92
 138 0086 1A60     		str	r2, [r3]
 139              	.LVL7:
 140              		.loc 1 314 0 discriminator 4
 141 0088 08BD     		pop	{r3, pc}
 142              	.LVL8:
 143              	.L3:
 178:Generated_Source\PSoC4/ADC.c ****         /* Enable the SAR internal pump when global pump is enabled */
 144              		.loc 1 178 0
 145 008a 1949     		ldr	r1, .L5+96
 146 008c C9E7     		b	.L2
 147              	.L6:
 148 008e C046     		.align	2
 149              	.L5:
 150 0090 00000000 		.word	ADC_ISR
 151 0094 20001A40 		.word	1075445792
 152 0098 80031A40 		.word	1075446656
 153 009c C0020050 		.word	1342177984
 154 00a0 00001A40 		.word	1075445760
 155 00a4 AC000A80 		.word	-2146828116
 156 00a8 04001A40 		.word	1075445764
 157 00ac 0000DC05 		.word	98304000
 158 00b0 18001A40 		.word	1075445784
 159 00b4 1C001A40 		.word	1075445788
 160 00b8 04000400 		.word	262148
 161 00bc 10001A40 		.word	1075445776
 162 00c0 14001A40 		.word	1075445780
 163 00c4 00031A40 		.word	1075446528
 164 00c8 28021A40 		.word	1075446312
 165 00cc 38021A40 		.word	1075446328
 166 00d0 18021A40 		.word	1075446296
 167 00d4 000F1A40 		.word	1075449600
 168 00d8 30001A40 		.word	1075445808
 169 00dc FFFFFFDF 		.word	-536870913
 170 00e0 80001A40 		.word	1075445888
ARM GAS  C:\Users\g\AppData\Local\Temp\ccHHl3vk.s 			page 10


 171 00e4 00000000 		.word	ADC_offset
 172 00e8 204E0000 		.word	20000
 173 00ec 00000000 		.word	ADC_countsPer10Volt
 174 00f0 C0021050 		.word	1343226560
 175              		.cfi_endproc
 176              	.LFE1:
 177              		.size	ADC_Init, .-ADC_Init
 178              		.section	.text.ADC_Start,"ax",%progbits
 179              		.align	2
 180              		.global	ADC_Start
 181              		.code	16
 182              		.thumb_func
 183              		.type	ADC_Start, %function
 184              	ADC_Start:
 185              	.LFB0:
  64:Generated_Source\PSoC4/ADC.c ****     /* If not Initialized then initialize all required hardware and software */
 186              		.loc 1 64 0
 187              		.cfi_startproc
 188 0000 10B5     		push	{r4, lr}
 189              		.cfi_def_cfa_offset 8
 190              		.cfi_offset 4, -8
 191              		.cfi_offset 14, -4
  66:Generated_Source\PSoC4/ADC.c ****     {
 192              		.loc 1 66 0
 193 0002 0B4C     		ldr	r4, .L11
 194 0004 2378     		ldrb	r3, [r4]
 195 0006 002B     		cmp	r3, #0
 196 0008 0CD0     		beq	.L10
 197              	.L8:
 198              	.LBB8:
 199              	.LBB9:
 315:Generated_Source\PSoC4/ADC.c **** 
 316:Generated_Source\PSoC4/ADC.c **** /*******************************************************************************
 317:Generated_Source\PSoC4/ADC.c **** * Function Name: ADC_SAR_1_Enable
 318:Generated_Source\PSoC4/ADC.c **** ********************************************************************************
 319:Generated_Source\PSoC4/ADC.c **** *
 320:Generated_Source\PSoC4/ADC.c **** * Summary:
 321:Generated_Source\PSoC4/ADC.c **** *  Enables the clock and analog power for SAR ADC.
 322:Generated_Source\PSoC4/ADC.c **** *
 323:Generated_Source\PSoC4/ADC.c **** * Parameters:
 324:Generated_Source\PSoC4/ADC.c **** *  None.
 325:Generated_Source\PSoC4/ADC.c **** *
 326:Generated_Source\PSoC4/ADC.c **** * Return:
 327:Generated_Source\PSoC4/ADC.c **** *  None.
 328:Generated_Source\PSoC4/ADC.c **** *
 329:Generated_Source\PSoC4/ADC.c **** *******************************************************************************/
 330:Generated_Source\PSoC4/ADC.c **** void ADC_Enable(void)
 331:Generated_Source\PSoC4/ADC.c **** {
 332:Generated_Source\PSoC4/ADC.c ****     if (0u == (ADC_SAR_CTRL_REG & ADC_ENABLE))
 200              		.loc 1 332 0
 201 000a 0A4B     		ldr	r3, .L11+4
 202 000c 1A68     		ldr	r2, [r3]
 203 000e 002A     		cmp	r2, #0
 204 0010 07DB     		blt	.L7
 205              	.LBB10:
 206              	.LBB11:
 333:Generated_Source\PSoC4/ADC.c ****     {
ARM GAS  C:\Users\g\AppData\Local\Temp\ccHHl3vk.s 			page 11


 334:Generated_Source\PSoC4/ADC.c ****         #if(ADC_CY_SAR_IP_VER != ADC_CY_SAR_IP_VER0)
 335:Generated_Source\PSoC4/ADC.c **** 
 336:Generated_Source\PSoC4/ADC.c ****             while (0u != (ADC_SAR_STATUS_REG & ADC_STATUS_BUSY))
 337:Generated_Source\PSoC4/ADC.c ****             {
 338:Generated_Source\PSoC4/ADC.c ****                 /* wait for SAR to go idle to avoid deadlock */
 339:Generated_Source\PSoC4/ADC.c ****             }
 340:Generated_Source\PSoC4/ADC.c ****         #endif /* (ADC_CY_SAR_IP_VER != ADC_CY_SAR_IP_VER0) */
 341:Generated_Source\PSoC4/ADC.c ****         
 342:Generated_Source\PSoC4/ADC.c ****         ADC_SAR_CTRL_REG |= ADC_ENABLE;
 207              		.loc 1 342 0
 208 0012 8021     		mov	r1, #128
 209 0014 1A68     		ldr	r2, [r3]
 210 0016 0906     		lsl	r1, r1, #24
 211 0018 0A43     		orr	r2, r1
 212 001a 1A60     		str	r2, [r3]
 343:Generated_Source\PSoC4/ADC.c ****         
 344:Generated_Source\PSoC4/ADC.c ****         /* The block is ready to use 10 us after the enable signal is set high. */
 345:Generated_Source\PSoC4/ADC.c ****         CyDelayUs(ADC_10US_DELAY);         
 213              		.loc 1 345 0
 214 001c 0A20     		mov	r0, #10
 215 001e FFF7FEFF 		bl	CyDelayUs
 216              	.LVL9:
 217              	.L7:
 218              	.LBE11:
 219              	.LBE10:
 220              	.LBE9:
 221              	.LBE8:
  72:Generated_Source\PSoC4/ADC.c **** 
 222              		.loc 1 72 0
 223              		@ sp needed
 224 0022 10BD     		pop	{r4, pc}
 225              	.L10:
  68:Generated_Source\PSoC4/ADC.c ****         ADC_initVar = 1u;
 226              		.loc 1 68 0
 227 0024 FFF7FEFF 		bl	ADC_Init
 228              	.LVL10:
  69:Generated_Source\PSoC4/ADC.c ****     }
 229              		.loc 1 69 0
 230 0028 0123     		mov	r3, #1
 231 002a 2370     		strb	r3, [r4]
 232 002c EDE7     		b	.L8
 233              	.L12:
 234 002e C046     		.align	2
 235              	.L11:
 236 0030 00000000 		.word	.LANCHOR0
 237 0034 00001A40 		.word	1075445760
 238              		.cfi_endproc
 239              	.LFE0:
 240              		.size	ADC_Start, .-ADC_Start
 241              		.section	.text.ADC_Enable,"ax",%progbits
 242              		.align	2
 243              		.global	ADC_Enable
 244              		.code	16
 245              		.thumb_func
 246              		.type	ADC_Enable, %function
 247              	ADC_Enable:
 248              	.LFB2:
ARM GAS  C:\Users\g\AppData\Local\Temp\ccHHl3vk.s 			page 12


 331:Generated_Source\PSoC4/ADC.c ****     if (0u == (ADC_SAR_CTRL_REG & ADC_ENABLE))
 249              		.loc 1 331 0
 250              		.cfi_startproc
 251 0000 08B5     		push	{r3, lr}
 252              		.cfi_def_cfa_offset 8
 253              		.cfi_offset 3, -8
 254              		.cfi_offset 14, -4
 332:Generated_Source\PSoC4/ADC.c ****     {
 255              		.loc 1 332 0
 256 0002 064B     		ldr	r3, .L15
 257 0004 1A68     		ldr	r2, [r3]
 258 0006 002A     		cmp	r2, #0
 259 0008 07DB     		blt	.L13
 260              	.LBB14:
 261              	.LBB15:
 342:Generated_Source\PSoC4/ADC.c ****         
 262              		.loc 1 342 0
 263 000a 8021     		mov	r1, #128
 264 000c 1A68     		ldr	r2, [r3]
 265 000e 0906     		lsl	r1, r1, #24
 266 0010 0A43     		orr	r2, r1
 267 0012 1A60     		str	r2, [r3]
 268              		.loc 1 345 0
 269 0014 0A20     		mov	r0, #10
 270 0016 FFF7FEFF 		bl	CyDelayUs
 271              	.LVL11:
 272              	.L13:
 273              	.LBE15:
 274              	.LBE14:
 346:Generated_Source\PSoC4/ADC.c ****     }
 347:Generated_Source\PSoC4/ADC.c **** }
 275              		.loc 1 347 0
 276              		@ sp needed
 277 001a 08BD     		pop	{r3, pc}
 278              	.L16:
 279              		.align	2
 280              	.L15:
 281 001c 00001A40 		.word	1075445760
 282              		.cfi_endproc
 283              	.LFE2:
 284              		.size	ADC_Enable, .-ADC_Enable
 285              		.section	.text.ADC_Stop,"ax",%progbits
 286              		.align	2
 287              		.global	ADC_Stop
 288              		.code	16
 289              		.thumb_func
 290              		.type	ADC_Stop, %function
 291              	ADC_Stop:
 292              	.LFB3:
 348:Generated_Source\PSoC4/ADC.c **** 
 349:Generated_Source\PSoC4/ADC.c **** 
 350:Generated_Source\PSoC4/ADC.c **** /*******************************************************************************
 351:Generated_Source\PSoC4/ADC.c **** * Function Name: ADC_Stop
 352:Generated_Source\PSoC4/ADC.c **** ********************************************************************************
 353:Generated_Source\PSoC4/ADC.c **** *
 354:Generated_Source\PSoC4/ADC.c **** * Summary:
 355:Generated_Source\PSoC4/ADC.c **** *  This function stops ADC conversions and puts the ADC into its lowest power
ARM GAS  C:\Users\g\AppData\Local\Temp\ccHHl3vk.s 			page 13


 356:Generated_Source\PSoC4/ADC.c **** *  mode.
 357:Generated_Source\PSoC4/ADC.c **** *
 358:Generated_Source\PSoC4/ADC.c **** * Parameters:
 359:Generated_Source\PSoC4/ADC.c **** *  None.
 360:Generated_Source\PSoC4/ADC.c **** *
 361:Generated_Source\PSoC4/ADC.c **** * Return:
 362:Generated_Source\PSoC4/ADC.c **** *  None.
 363:Generated_Source\PSoC4/ADC.c **** *
 364:Generated_Source\PSoC4/ADC.c **** *******************************************************************************/
 365:Generated_Source\PSoC4/ADC.c **** void ADC_Stop(void)
 366:Generated_Source\PSoC4/ADC.c **** {
 293              		.loc 1 366 0
 294              		.cfi_startproc
 367:Generated_Source\PSoC4/ADC.c ****     ADC_SAR_CTRL_REG &= (uint32)~ADC_ENABLE;
 295              		.loc 1 367 0
 296 0000 024A     		ldr	r2, .L18
 368:Generated_Source\PSoC4/ADC.c **** }
 297              		.loc 1 368 0
 298              		@ sp needed
 367:Generated_Source\PSoC4/ADC.c ****     ADC_SAR_CTRL_REG &= (uint32)~ADC_ENABLE;
 299              		.loc 1 367 0
 300 0002 1368     		ldr	r3, [r2]
 301 0004 5B00     		lsl	r3, r3, #1
 302 0006 5B08     		lsr	r3, r3, #1
 303 0008 1360     		str	r3, [r2]
 304              		.loc 1 368 0
 305 000a 7047     		bx	lr
 306              	.L19:
 307              		.align	2
 308              	.L18:
 309 000c 00001A40 		.word	1075445760
 310              		.cfi_endproc
 311              	.LFE3:
 312              		.size	ADC_Stop, .-ADC_Stop
 313              		.section	.text.ADC_StartConvert,"ax",%progbits
 314              		.align	2
 315              		.global	ADC_StartConvert
 316              		.code	16
 317              		.thumb_func
 318              		.type	ADC_StartConvert, %function
 319              	ADC_StartConvert:
 320              	.LFB4:
 369:Generated_Source\PSoC4/ADC.c **** 
 370:Generated_Source\PSoC4/ADC.c **** 
 371:Generated_Source\PSoC4/ADC.c **** /*******************************************************************************
 372:Generated_Source\PSoC4/ADC.c **** * Function Name: ADC_StartConvert
 373:Generated_Source\PSoC4/ADC.c **** ********************************************************************************
 374:Generated_Source\PSoC4/ADC.c **** *
 375:Generated_Source\PSoC4/ADC.c **** * Summary:
 376:Generated_Source\PSoC4/ADC.c **** *  Description:
 377:Generated_Source\PSoC4/ADC.c **** *  For free running mode, this API starts the conversion process and it
 378:Generated_Source\PSoC4/ADC.c **** *  runs continuously.
 379:Generated_Source\PSoC4/ADC.c **** *
 380:Generated_Source\PSoC4/ADC.c **** *  In a triggered mode, this routine triggers every conversion by
 381:Generated_Source\PSoC4/ADC.c **** *  writing into the FW_TRIGGER bit in SAR_START_CTRL reg. In triggered mode,
 382:Generated_Source\PSoC4/ADC.c **** *  every conversion has to start by this API.
 383:Generated_Source\PSoC4/ADC.c **** *
ARM GAS  C:\Users\g\AppData\Local\Temp\ccHHl3vk.s 			page 14


 384:Generated_Source\PSoC4/ADC.c **** * Parameters:
 385:Generated_Source\PSoC4/ADC.c **** *  None.
 386:Generated_Source\PSoC4/ADC.c **** *
 387:Generated_Source\PSoC4/ADC.c **** * Return:
 388:Generated_Source\PSoC4/ADC.c **** *  None.
 389:Generated_Source\PSoC4/ADC.c **** *
 390:Generated_Source\PSoC4/ADC.c **** *******************************************************************************/
 391:Generated_Source\PSoC4/ADC.c **** void ADC_StartConvert(void)
 392:Generated_Source\PSoC4/ADC.c **** {
 321              		.loc 1 392 0
 322              		.cfi_startproc
 393:Generated_Source\PSoC4/ADC.c ****     #if(ADC_DEFAULT_SAMPLE_MODE_SEL == ADC__FREERUNNING)
 394:Generated_Source\PSoC4/ADC.c ****         ADC_SAR_SAMPLE_CTRL_REG |= ADC_CONTINUOUS_EN;
 395:Generated_Source\PSoC4/ADC.c ****     #else /* Firmware trigger */
 396:Generated_Source\PSoC4/ADC.c ****         ADC_SAR_START_CTRL_REG = ADC_FW_TRIGGER;
 323              		.loc 1 396 0
 324 0000 0122     		mov	r2, #1
 325 0002 014B     		ldr	r3, .L21
 397:Generated_Source\PSoC4/ADC.c ****     #endif /* End ADC_DEFAULT_SAMPLE_MODE == ADC__FREERUNNING */
 398:Generated_Source\PSoC4/ADC.c **** 
 399:Generated_Source\PSoC4/ADC.c **** }
 326              		.loc 1 399 0
 327              		@ sp needed
 396:Generated_Source\PSoC4/ADC.c ****     #endif /* End ADC_DEFAULT_SAMPLE_MODE == ADC__FREERUNNING */
 328              		.loc 1 396 0
 329 0004 1A60     		str	r2, [r3]
 330              		.loc 1 399 0
 331 0006 7047     		bx	lr
 332              	.L22:
 333              		.align	2
 334              	.L21:
 335 0008 24001A40 		.word	1075445796
 336              		.cfi_endproc
 337              	.LFE4:
 338              		.size	ADC_StartConvert, .-ADC_StartConvert
 339              		.section	.text.ADC_StopConvert,"ax",%progbits
 340              		.align	2
 341              		.global	ADC_StopConvert
 342              		.code	16
 343              		.thumb_func
 344              		.type	ADC_StopConvert, %function
 345              	ADC_StopConvert:
 346              	.LFB5:
 400:Generated_Source\PSoC4/ADC.c **** 
 401:Generated_Source\PSoC4/ADC.c **** 
 402:Generated_Source\PSoC4/ADC.c **** /*******************************************************************************
 403:Generated_Source\PSoC4/ADC.c **** * Function Name: ADC_StopConvert
 404:Generated_Source\PSoC4/ADC.c **** ********************************************************************************
 405:Generated_Source\PSoC4/ADC.c **** *
 406:Generated_Source\PSoC4/ADC.c **** * Summary:
 407:Generated_Source\PSoC4/ADC.c **** *  Forces the ADC to stop all conversions.
 408:Generated_Source\PSoC4/ADC.c **** *
 409:Generated_Source\PSoC4/ADC.c **** * Parameters:
 410:Generated_Source\PSoC4/ADC.c **** *  None.
 411:Generated_Source\PSoC4/ADC.c **** *
 412:Generated_Source\PSoC4/ADC.c **** * Return:
 413:Generated_Source\PSoC4/ADC.c **** *  None.
ARM GAS  C:\Users\g\AppData\Local\Temp\ccHHl3vk.s 			page 15


 414:Generated_Source\PSoC4/ADC.c **** *
 415:Generated_Source\PSoC4/ADC.c **** *******************************************************************************/
 416:Generated_Source\PSoC4/ADC.c **** void ADC_StopConvert(void)
 417:Generated_Source\PSoC4/ADC.c **** {
 347              		.loc 1 417 0
 348              		.cfi_startproc
 418:Generated_Source\PSoC4/ADC.c ****     #if(ADC_DEFAULT_SAMPLE_MODE_SEL == ADC__FREERUNNING)
 419:Generated_Source\PSoC4/ADC.c ****         ADC_SAR_SAMPLE_CTRL_REG &= (uint32)(~ADC_CONTINUOUS_EN);
 420:Generated_Source\PSoC4/ADC.c ****     #endif /* ADC_DEFAULT_SAMPLE_MODE == ADC__FREERUNNING */
 421:Generated_Source\PSoC4/ADC.c **** }
 349              		.loc 1 421 0
 350              		@ sp needed
 351 0000 7047     		bx	lr
 352              		.cfi_endproc
 353              	.LFE5:
 354              		.size	ADC_StopConvert, .-ADC_StopConvert
 355 0002 C046     		.section	.text.ADC_IsEndConversion,"ax",%progbits
 356              		.align	2
 357              		.global	ADC_IsEndConversion
 358              		.code	16
 359              		.thumb_func
 360              		.type	ADC_IsEndConversion, %function
 361              	ADC_IsEndConversion:
 362              	.LFB6:
 422:Generated_Source\PSoC4/ADC.c **** 
 423:Generated_Source\PSoC4/ADC.c **** 
 424:Generated_Source\PSoC4/ADC.c **** /*******************************************************************************
 425:Generated_Source\PSoC4/ADC.c **** * Function Name: ADC_IsEndConversion
 426:Generated_Source\PSoC4/ADC.c **** ********************************************************************************
 427:Generated_Source\PSoC4/ADC.c **** *
 428:Generated_Source\PSoC4/ADC.c **** * Summary:
 429:Generated_Source\PSoC4/ADC.c **** *  Description: Checks for ADC end of conversion for the case one
 430:Generated_Source\PSoC4/ADC.c **** *  channel and end of scan for the case of multiple channels. It acts
 431:Generated_Source\PSoC4/ADC.c **** *  as a software version of the EOC. This function provides the
 432:Generated_Source\PSoC4/ADC.c **** *  programmer with two options. In one mode this function
 433:Generated_Source\PSoC4/ADC.c **** *  immediately returns with the conversion status. In the other mode,
 434:Generated_Source\PSoC4/ADC.c **** *  the function does not return (blocking) until the conversion has
 435:Generated_Source\PSoC4/ADC.c **** *  completed.
 436:Generated_Source\PSoC4/ADC.c **** *
 437:Generated_Source\PSoC4/ADC.c **** * Parameters:
 438:Generated_Source\PSoC4/ADC.c **** *  ADC_RETURN_STATUS        -> Immediately returns conversion result status
 439:Generated_Source\PSoC4/ADC.c **** *  ADC_WAIT_FOR_RESULT      -> Does not return until ADC complete
 440:Generated_Source\PSoC4/ADC.c **** *  ADC_RETURN_STATUS_INJ    -> Immediately returns conversion result status
 441:Generated_Source\PSoC4/ADC.c **** *                              for injection channel
 442:Generated_Source\PSoC4/ADC.c **** *  ADC_WAIT_FOR_RESULT_INJ  -> Does not return until ADC completes injection
 443:Generated_Source\PSoC4/ADC.c **** *                              channel conversion
 444:Generated_Source\PSoC4/ADC.c **** *
 445:Generated_Source\PSoC4/ADC.c **** * Return:
 446:Generated_Source\PSoC4/ADC.c **** *  If a non-zero value is returned, the last conversion or scan has completed.
 447:Generated_Source\PSoC4/ADC.c **** *  If the returned value is zero, the ADC is still in the process of a scan.
 448:Generated_Source\PSoC4/ADC.c **** *
 449:Generated_Source\PSoC4/ADC.c **** *******************************************************************************/
 450:Generated_Source\PSoC4/ADC.c **** uint32 ADC_IsEndConversion(uint32 retMode)
 451:Generated_Source\PSoC4/ADC.c **** {
 363              		.loc 1 451 0
 364              		.cfi_startproc
 365              	.LVL12:
ARM GAS  C:\Users\g\AppData\Local\Temp\ccHHl3vk.s 			page 16


 452:Generated_Source\PSoC4/ADC.c ****     uint32 status = 0u;
 366              		.loc 1 452 0
 367 0000 0023     		mov	r3, #0
 453:Generated_Source\PSoC4/ADC.c **** 
 454:Generated_Source\PSoC4/ADC.c ****     if((retMode & (ADC_RETURN_STATUS | ADC_WAIT_FOR_RESULT)) != 0u)
 368              		.loc 1 454 0
 369 0002 8207     		lsl	r2, r0, #30
 370 0004 0DD0     		beq	.L29
 455:Generated_Source\PSoC4/ADC.c ****     {
 456:Generated_Source\PSoC4/ADC.c ****         do
 457:Generated_Source\PSoC4/ADC.c ****         {
 458:Generated_Source\PSoC4/ADC.c ****             status = ADC_SAR_INTR_REG & ADC_EOS_MASK;
 459:Generated_Source\PSoC4/ADC.c ****         }while((status == 0u) && ((retMode & ADC_WAIT_FOR_RESULT) != 0u));
 371              		.loc 1 459 0 discriminator 2
 372 0006 0233     		add	r3, r3, #2
 458:Generated_Source\PSoC4/ADC.c ****         }while((status == 0u) && ((retMode & ADC_WAIT_FOR_RESULT) != 0u));
 373              		.loc 1 458 0 discriminator 2
 374 0008 0749     		ldr	r1, .L34
 375 000a 0122     		mov	r2, #1
 376              		.loc 1 459 0 discriminator 2
 377 000c 1840     		and	r0, r3
 378              	.LVL13:
 379 000e 01E0     		b	.L30
 380              	.LVL14:
 381              	.L33:
 382              		.loc 1 459 0 is_stmt 0 discriminator 1
 383 0010 0028     		cmp	r0, #0
 384 0012 06D0     		beq	.L29
 385              	.LVL15:
 386              	.L30:
 458:Generated_Source\PSoC4/ADC.c ****         }while((status == 0u) && ((retMode & ADC_WAIT_FOR_RESULT) != 0u));
 387              		.loc 1 458 0 is_stmt 1 discriminator 2
 388 0014 0B68     		ldr	r3, [r1]
 389 0016 1340     		and	r3, r2
 390              	.LVL16:
 391              		.loc 1 459 0 discriminator 2
 392 0018 FAD0     		beq	.L33
 460:Generated_Source\PSoC4/ADC.c **** 
 461:Generated_Source\PSoC4/ADC.c ****         if(status != 0u)
 462:Generated_Source\PSoC4/ADC.c ****         {
 463:Generated_Source\PSoC4/ADC.c ****             /* Clear EOS bit */
 464:Generated_Source\PSoC4/ADC.c ****             ADC_SAR_INTR_REG = ADC_EOS_MASK;
 393              		.loc 1 464 0
 394 001a 0122     		mov	r2, #1
 395 001c 024B     		ldr	r3, .L34
 396              	.LVL17:
 397 001e 1A60     		str	r2, [r3]
 398 0020 0123     		mov	r3, #1
 399              	.LVL18:
 400              	.L29:
 465:Generated_Source\PSoC4/ADC.c ****         }
 466:Generated_Source\PSoC4/ADC.c ****     }
 467:Generated_Source\PSoC4/ADC.c **** 
 468:Generated_Source\PSoC4/ADC.c ****     #if(ADC_INJ_CHANNEL_ENABLED)
 469:Generated_Source\PSoC4/ADC.c ****         if((retMode & (ADC_RETURN_STATUS_INJ | ADC_WAIT_FOR_RESULT_INJ)) != 0u)
 470:Generated_Source\PSoC4/ADC.c ****         {
 471:Generated_Source\PSoC4/ADC.c ****             do
ARM GAS  C:\Users\g\AppData\Local\Temp\ccHHl3vk.s 			page 17


 472:Generated_Source\PSoC4/ADC.c ****             {
 473:Generated_Source\PSoC4/ADC.c ****                 status |= ADC_SAR_INTR_REG & ADC_INJ_EOC_MASK;
 474:Generated_Source\PSoC4/ADC.c ****             }while(((status & ADC_INJ_EOC_MASK) == 0u) &&
 475:Generated_Source\PSoC4/ADC.c ****                    ((retMode & ADC_WAIT_FOR_RESULT_INJ) != 0u));
 476:Generated_Source\PSoC4/ADC.c **** 
 477:Generated_Source\PSoC4/ADC.c ****             if((status & ADC_INJ_EOC_MASK) != 0u)
 478:Generated_Source\PSoC4/ADC.c ****             {
 479:Generated_Source\PSoC4/ADC.c ****                 /* Clear Injection EOS bit */
 480:Generated_Source\PSoC4/ADC.c ****                 ADC_SAR_INTR_REG = ADC_INJ_EOC_MASK;
 481:Generated_Source\PSoC4/ADC.c ****             }
 482:Generated_Source\PSoC4/ADC.c ****         }
 483:Generated_Source\PSoC4/ADC.c ****     #endif /* ADC_INJ_CHANNEL_ENABLED */
 484:Generated_Source\PSoC4/ADC.c **** 
 485:Generated_Source\PSoC4/ADC.c ****     return (status);
 486:Generated_Source\PSoC4/ADC.c **** }
 401              		.loc 1 486 0
 402 0022 181C     		mov	r0, r3
 403              		@ sp needed
 404 0024 7047     		bx	lr
 405              	.L35:
 406 0026 C046     		.align	2
 407              	.L34:
 408 0028 10021A40 		.word	1075446288
 409              		.cfi_endproc
 410              	.LFE6:
 411              		.size	ADC_IsEndConversion, .-ADC_IsEndConversion
 412              		.section	.text.ADC_GetResult16,"ax",%progbits
 413              		.align	2
 414              		.global	ADC_GetResult16
 415              		.code	16
 416              		.thumb_func
 417              		.type	ADC_GetResult16, %function
 418              	ADC_GetResult16:
 419              	.LFB7:
 487:Generated_Source\PSoC4/ADC.c **** 
 488:Generated_Source\PSoC4/ADC.c **** 
 489:Generated_Source\PSoC4/ADC.c **** /*******************************************************************************
 490:Generated_Source\PSoC4/ADC.c **** * Function Name: ADC_GetResult16
 491:Generated_Source\PSoC4/ADC.c **** ********************************************************************************
 492:Generated_Source\PSoC4/ADC.c **** *
 493:Generated_Source\PSoC4/ADC.c **** * Summary:
 494:Generated_Source\PSoC4/ADC.c **** *  Gets the data available in the SAR DATA register.
 495:Generated_Source\PSoC4/ADC.c **** *
 496:Generated_Source\PSoC4/ADC.c **** * Parameters:
 497:Generated_Source\PSoC4/ADC.c **** *  chan: The ADC channel in which to return the result. The first channel
 498:Generated_Source\PSoC4/ADC.c **** *  is 0 and the injection channel if enabled is the number of valid channels.
 499:Generated_Source\PSoC4/ADC.c **** *
 500:Generated_Source\PSoC4/ADC.c **** * Return:
 501:Generated_Source\PSoC4/ADC.c **** *  Returns converted data as a signed 16-bit integer
 502:Generated_Source\PSoC4/ADC.c **** *
 503:Generated_Source\PSoC4/ADC.c **** *******************************************************************************/
 504:Generated_Source\PSoC4/ADC.c **** int16 ADC_GetResult16(uint32 chan)
 505:Generated_Source\PSoC4/ADC.c **** {
 420              		.loc 1 505 0
 421              		.cfi_startproc
 422              	.LVL19:
 423 0000 08B5     		push	{r3, lr}
ARM GAS  C:\Users\g\AppData\Local\Temp\ccHHl3vk.s 			page 18


 424              		.cfi_def_cfa_offset 8
 425              		.cfi_offset 3, -8
 426              		.cfi_offset 14, -4
 506:Generated_Source\PSoC4/ADC.c ****     uint32 result;
 507:Generated_Source\PSoC4/ADC.c **** 
 508:Generated_Source\PSoC4/ADC.c ****     /* Halt CPU in debug mode if channel is out of valid range */
 509:Generated_Source\PSoC4/ADC.c ****     CYASSERT(chan < ADC_TOTAL_CHANNELS_NUM);
 427              		.loc 1 509 0
 428 0002 0028     		cmp	r0, #0
 429 0004 04D1     		bne	.L40
 510:Generated_Source\PSoC4/ADC.c **** 
 511:Generated_Source\PSoC4/ADC.c ****     if(chan < ADC_SEQUENCED_CHANNELS_NUM)
 512:Generated_Source\PSoC4/ADC.c ****     {
 513:Generated_Source\PSoC4/ADC.c ****         result = CY_GET_REG32((reg32 *)(ADC_SAR_CHAN_RESULT_IND + (uint32)(chan << 2u))) &
 430              		.loc 1 513 0
 431 0006 054B     		ldr	r3, .L41
 432 0008 1868     		ldr	r0, [r3]
 433              	.LVL20:
 434 000a 80B2     		uxth	r0, r0
 435              	.LVL21:
 436              	.L38:
 514:Generated_Source\PSoC4/ADC.c ****                 ADC_RESULT_MASK;
 515:Generated_Source\PSoC4/ADC.c ****     }
 516:Generated_Source\PSoC4/ADC.c ****     else
 517:Generated_Source\PSoC4/ADC.c ****     {
 518:Generated_Source\PSoC4/ADC.c ****         #if(ADC_INJ_CHANNEL_ENABLED)
 519:Generated_Source\PSoC4/ADC.c ****             result = ADC_SAR_INJ_RESULT_REG & ADC_RESULT_MASK;
 520:Generated_Source\PSoC4/ADC.c ****         #else
 521:Generated_Source\PSoC4/ADC.c ****             result = 0u;
 522:Generated_Source\PSoC4/ADC.c ****         #endif /* ADC_INJ_CHANNEL_ENABLED */
 523:Generated_Source\PSoC4/ADC.c ****     }
 524:Generated_Source\PSoC4/ADC.c **** 
 525:Generated_Source\PSoC4/ADC.c ****     return ( (int16)result );
 437              		.loc 1 525 0
 438 000c 00B2     		sxth	r0, r0
 526:Generated_Source\PSoC4/ADC.c **** }
 439              		.loc 1 526 0
 440              		@ sp needed
 441 000e 08BD     		pop	{r3, pc}
 442              	.LVL22:
 443              	.L40:
 509:Generated_Source\PSoC4/ADC.c **** 
 444              		.loc 1 509 0 discriminator 1
 445 0010 0020     		mov	r0, #0
 446              	.LVL23:
 447 0012 FFF7FEFF 		bl	CyHalt
 448              	.LVL24:
 449 0016 0020     		mov	r0, #0
 450 0018 F8E7     		b	.L38
 451              	.L42:
 452 001a C046     		.align	2
 453              	.L41:
 454 001c 80011A40 		.word	1075446144
 455              		.cfi_endproc
 456              	.LFE7:
 457              		.size	ADC_GetResult16, .-ADC_GetResult16
 458              		.section	.text.ADC_SetChanMask,"ax",%progbits
ARM GAS  C:\Users\g\AppData\Local\Temp\ccHHl3vk.s 			page 19


 459              		.align	2
 460              		.global	ADC_SetChanMask
 461              		.code	16
 462              		.thumb_func
 463              		.type	ADC_SetChanMask, %function
 464              	ADC_SetChanMask:
 465              	.LFB8:
 527:Generated_Source\PSoC4/ADC.c **** 
 528:Generated_Source\PSoC4/ADC.c **** 
 529:Generated_Source\PSoC4/ADC.c **** /*******************************************************************************
 530:Generated_Source\PSoC4/ADC.c **** * Function Name: ADC_SetChanMask
 531:Generated_Source\PSoC4/ADC.c **** ********************************************************************************
 532:Generated_Source\PSoC4/ADC.c **** *
 533:Generated_Source\PSoC4/ADC.c **** * Summary:
 534:Generated_Source\PSoC4/ADC.c **** *  Sets the channel enable mask.
 535:Generated_Source\PSoC4/ADC.c **** *
 536:Generated_Source\PSoC4/ADC.c **** * Parameters:
 537:Generated_Source\PSoC4/ADC.c **** *  mask: Sets which channels that will be
 538:Generated_Source\PSoC4/ADC.c **** *  scanned. Setting bits for channels that do not exist will have no
 539:Generated_Source\PSoC4/ADC.c **** *  effect. For example, if only 6 channels were enabled, setting a
 540:Generated_Source\PSoC4/ADC.c **** *  mask of 0x0103 would only enable the last two channels (0 and 1).
 541:Generated_Source\PSoC4/ADC.c **** *  This API will not enable the injection channel.
 542:Generated_Source\PSoC4/ADC.c **** *  Examples: If the component is setup to sequence through 8
 543:Generated_Source\PSoC4/ADC.c **** *  channels, a mask of 0x000F would enable channels 0, 1, 2, and 3.
 544:Generated_Source\PSoC4/ADC.c **** *
 545:Generated_Source\PSoC4/ADC.c **** * Return:
 546:Generated_Source\PSoC4/ADC.c **** *  None.
 547:Generated_Source\PSoC4/ADC.c **** *
 548:Generated_Source\PSoC4/ADC.c **** *******************************************************************************/
 549:Generated_Source\PSoC4/ADC.c **** void ADC_SetChanMask(uint32 mask)
 550:Generated_Source\PSoC4/ADC.c **** {
 466              		.loc 1 550 0
 467              		.cfi_startproc
 468              	.LVL25:
 551:Generated_Source\PSoC4/ADC.c ****     ADC_SAR_CHAN_EN_REG = mask & ADC_MAX_CHANNELS_EN_MASK;
 469              		.loc 1 551 0
 470 0000 0123     		mov	r3, #1
 471 0002 1840     		and	r0, r3
 472              	.LVL26:
 473 0004 014B     		ldr	r3, .L44
 552:Generated_Source\PSoC4/ADC.c **** }
 474              		.loc 1 552 0
 475              		@ sp needed
 551:Generated_Source\PSoC4/ADC.c ****     ADC_SAR_CHAN_EN_REG = mask & ADC_MAX_CHANNELS_EN_MASK;
 476              		.loc 1 551 0
 477 0006 1860     		str	r0, [r3]
 478              		.loc 1 552 0
 479 0008 7047     		bx	lr
 480              	.L45:
 481 000a C046     		.align	2
 482              	.L44:
 483 000c 20001A40 		.word	1075445792
 484              		.cfi_endproc
 485              	.LFE8:
 486              		.size	ADC_SetChanMask, .-ADC_SetChanMask
 487              		.section	.text.ADC_SetLowLimit,"ax",%progbits
 488              		.align	2
ARM GAS  C:\Users\g\AppData\Local\Temp\ccHHl3vk.s 			page 20


 489              		.global	ADC_SetLowLimit
 490              		.code	16
 491              		.thumb_func
 492              		.type	ADC_SetLowLimit, %function
 493              	ADC_SetLowLimit:
 494              	.LFB9:
 553:Generated_Source\PSoC4/ADC.c **** 
 554:Generated_Source\PSoC4/ADC.c **** #if(ADC_INJ_CHANNEL_ENABLED)
 555:Generated_Source\PSoC4/ADC.c **** 
 556:Generated_Source\PSoC4/ADC.c **** 
 557:Generated_Source\PSoC4/ADC.c ****     /*******************************************************************************
 558:Generated_Source\PSoC4/ADC.c ****     * Function Name: ADC_EnableInjection
 559:Generated_Source\PSoC4/ADC.c ****     ********************************************************************************
 560:Generated_Source\PSoC4/ADC.c ****     *
 561:Generated_Source\PSoC4/ADC.c ****     * Summary:
 562:Generated_Source\PSoC4/ADC.c ****     *  Enables the injection channel for the next scan only.
 563:Generated_Source\PSoC4/ADC.c ****     *
 564:Generated_Source\PSoC4/ADC.c ****     * Parameters:
 565:Generated_Source\PSoC4/ADC.c ****     *  None.
 566:Generated_Source\PSoC4/ADC.c ****     *
 567:Generated_Source\PSoC4/ADC.c ****     * Return:
 568:Generated_Source\PSoC4/ADC.c ****     *  None.
 569:Generated_Source\PSoC4/ADC.c ****     *
 570:Generated_Source\PSoC4/ADC.c ****     *******************************************************************************/
 571:Generated_Source\PSoC4/ADC.c ****     void ADC_EnableInjection(void)
 572:Generated_Source\PSoC4/ADC.c ****     {
 573:Generated_Source\PSoC4/ADC.c ****         ADC_SAR_INJ_CHAN_CONFIG_REG |= ADC_INJ_CHAN_EN;
 574:Generated_Source\PSoC4/ADC.c ****     }
 575:Generated_Source\PSoC4/ADC.c **** 
 576:Generated_Source\PSoC4/ADC.c **** #endif /* ADC_INJ_CHANNEL_ENABLED */
 577:Generated_Source\PSoC4/ADC.c **** 
 578:Generated_Source\PSoC4/ADC.c **** 
 579:Generated_Source\PSoC4/ADC.c **** /*******************************************************************************
 580:Generated_Source\PSoC4/ADC.c **** * Function Name: ADC_SetLowLimit
 581:Generated_Source\PSoC4/ADC.c **** ********************************************************************************
 582:Generated_Source\PSoC4/ADC.c **** *
 583:Generated_Source\PSoC4/ADC.c **** * Summary:
 584:Generated_Source\PSoC4/ADC.c **** *  Sets the low limit parameter for a limit condition.
 585:Generated_Source\PSoC4/ADC.c **** *
 586:Generated_Source\PSoC4/ADC.c **** * Parameters:
 587:Generated_Source\PSoC4/ADC.c **** *  lowLimit: The low limit for a limit condition.
 588:Generated_Source\PSoC4/ADC.c **** *
 589:Generated_Source\PSoC4/ADC.c **** * Return:
 590:Generated_Source\PSoC4/ADC.c **** *  None.
 591:Generated_Source\PSoC4/ADC.c **** *
 592:Generated_Source\PSoC4/ADC.c **** *******************************************************************************/
 593:Generated_Source\PSoC4/ADC.c **** void ADC_SetLowLimit(uint32 lowLimit)
 594:Generated_Source\PSoC4/ADC.c **** {
 495              		.loc 1 594 0
 496              		.cfi_startproc
 497              	.LVL27:
 595:Generated_Source\PSoC4/ADC.c ****     ADC_SAR_RANGE_THRES_REG &= (uint32)(~ADC_RANGE_LOW_MASK);
 498              		.loc 1 595 0
 499 0000 054A     		ldr	r2, .L47
 596:Generated_Source\PSoC4/ADC.c ****     ADC_SAR_RANGE_THRES_REG |= lowLimit & ADC_RANGE_LOW_MASK;
 500              		.loc 1 596 0
 501 0002 0004     		lsl	r0, r0, #16
ARM GAS  C:\Users\g\AppData\Local\Temp\ccHHl3vk.s 			page 21


 502              	.LVL28:
 595:Generated_Source\PSoC4/ADC.c ****     ADC_SAR_RANGE_THRES_REG &= (uint32)(~ADC_RANGE_LOW_MASK);
 503              		.loc 1 595 0
 504 0004 1368     		ldr	r3, [r2]
 505              		.loc 1 596 0
 506 0006 000C     		lsr	r0, r0, #16
 595:Generated_Source\PSoC4/ADC.c ****     ADC_SAR_RANGE_THRES_REG &= (uint32)(~ADC_RANGE_LOW_MASK);
 507              		.loc 1 595 0
 508 0008 1B0C     		lsr	r3, r3, #16
 509 000a 1B04     		lsl	r3, r3, #16
 510 000c 1360     		str	r3, [r2]
 511              		.loc 1 596 0
 512 000e 1368     		ldr	r3, [r2]
 597:Generated_Source\PSoC4/ADC.c **** }
 513              		.loc 1 597 0
 514              		@ sp needed
 596:Generated_Source\PSoC4/ADC.c ****     ADC_SAR_RANGE_THRES_REG |= lowLimit & ADC_RANGE_LOW_MASK;
 515              		.loc 1 596 0
 516 0010 1843     		orr	r0, r3
 517 0012 1060     		str	r0, [r2]
 518              		.loc 1 597 0
 519 0014 7047     		bx	lr
 520              	.L48:
 521 0016 C046     		.align	2
 522              	.L47:
 523 0018 18001A40 		.word	1075445784
 524              		.cfi_endproc
 525              	.LFE9:
 526              		.size	ADC_SetLowLimit, .-ADC_SetLowLimit
 527              		.section	.text.ADC_SetHighLimit,"ax",%progbits
 528              		.align	2
 529              		.global	ADC_SetHighLimit
 530              		.code	16
 531              		.thumb_func
 532              		.type	ADC_SetHighLimit, %function
 533              	ADC_SetHighLimit:
 534              	.LFB10:
 598:Generated_Source\PSoC4/ADC.c **** 
 599:Generated_Source\PSoC4/ADC.c **** 
 600:Generated_Source\PSoC4/ADC.c **** /*******************************************************************************
 601:Generated_Source\PSoC4/ADC.c **** * Function Name: ADC_SetHighLimit
 602:Generated_Source\PSoC4/ADC.c **** ********************************************************************************
 603:Generated_Source\PSoC4/ADC.c **** *
 604:Generated_Source\PSoC4/ADC.c **** * Summary:
 605:Generated_Source\PSoC4/ADC.c **** *  Sets the low limit parameter for a limit condition.
 606:Generated_Source\PSoC4/ADC.c **** *
 607:Generated_Source\PSoC4/ADC.c **** * Parameters:
 608:Generated_Source\PSoC4/ADC.c **** *  highLimit: The high limit for a limit condition.
 609:Generated_Source\PSoC4/ADC.c **** *
 610:Generated_Source\PSoC4/ADC.c **** * Return:
 611:Generated_Source\PSoC4/ADC.c **** *  None.
 612:Generated_Source\PSoC4/ADC.c **** *
 613:Generated_Source\PSoC4/ADC.c **** *******************************************************************************/
 614:Generated_Source\PSoC4/ADC.c **** void ADC_SetHighLimit(uint32 highLimit)
 615:Generated_Source\PSoC4/ADC.c **** {
 535              		.loc 1 615 0
 536              		.cfi_startproc
ARM GAS  C:\Users\g\AppData\Local\Temp\ccHHl3vk.s 			page 22


 537              	.LVL29:
 616:Generated_Source\PSoC4/ADC.c ****     ADC_SAR_RANGE_THRES_REG &= (uint32)(~ADC_RANGE_HIGH_MASK);
 538              		.loc 1 616 0
 539 0000 044A     		ldr	r2, .L50
 617:Generated_Source\PSoC4/ADC.c ****     ADC_SAR_RANGE_THRES_REG |= (uint32)(highLimit << ADC_RANGE_HIGH_OFFSET);
 540              		.loc 1 617 0
 541 0002 0004     		lsl	r0, r0, #16
 542              	.LVL30:
 616:Generated_Source\PSoC4/ADC.c ****     ADC_SAR_RANGE_THRES_REG &= (uint32)(~ADC_RANGE_HIGH_MASK);
 543              		.loc 1 616 0
 544 0004 1368     		ldr	r3, [r2]
 618:Generated_Source\PSoC4/ADC.c **** }
 545              		.loc 1 618 0
 546              		@ sp needed
 616:Generated_Source\PSoC4/ADC.c ****     ADC_SAR_RANGE_THRES_REG &= (uint32)(~ADC_RANGE_HIGH_MASK);
 547              		.loc 1 616 0
 548 0006 1B04     		lsl	r3, r3, #16
 549 0008 1B0C     		lsr	r3, r3, #16
 550 000a 1360     		str	r3, [r2]
 617:Generated_Source\PSoC4/ADC.c ****     ADC_SAR_RANGE_THRES_REG |= (uint32)(highLimit << ADC_RANGE_HIGH_OFFSET);
 551              		.loc 1 617 0
 552 000c 1368     		ldr	r3, [r2]
 553 000e 1843     		orr	r0, r3
 554 0010 1060     		str	r0, [r2]
 555              		.loc 1 618 0
 556 0012 7047     		bx	lr
 557              	.L51:
 558              		.align	2
 559              	.L50:
 560 0014 18001A40 		.word	1075445784
 561              		.cfi_endproc
 562              	.LFE10:
 563              		.size	ADC_SetHighLimit, .-ADC_SetHighLimit
 564              		.section	.text.ADC_SetLimitMask,"ax",%progbits
 565              		.align	2
 566              		.global	ADC_SetLimitMask
 567              		.code	16
 568              		.thumb_func
 569              		.type	ADC_SetLimitMask, %function
 570              	ADC_SetLimitMask:
 571              	.LFB11:
 619:Generated_Source\PSoC4/ADC.c **** 
 620:Generated_Source\PSoC4/ADC.c **** 
 621:Generated_Source\PSoC4/ADC.c **** /*******************************************************************************
 622:Generated_Source\PSoC4/ADC.c **** * Function Name: ADC_SetLimitMask
 623:Generated_Source\PSoC4/ADC.c **** ********************************************************************************
 624:Generated_Source\PSoC4/ADC.c **** *
 625:Generated_Source\PSoC4/ADC.c **** * Summary:
 626:Generated_Source\PSoC4/ADC.c **** *  Sets the channel limit condition mask.
 627:Generated_Source\PSoC4/ADC.c **** *
 628:Generated_Source\PSoC4/ADC.c **** * Parameters:
 629:Generated_Source\PSoC4/ADC.c **** *  mask: Sets which channels that may cause a
 630:Generated_Source\PSoC4/ADC.c **** *  limit condition interrupt. Setting bits for channels that do not exist
 631:Generated_Source\PSoC4/ADC.c **** *  will have no effect. For example, if only 6 channels were enabled,
 632:Generated_Source\PSoC4/ADC.c **** *  setting a mask of 0x0103 would only enable the last two channels (0 and 1).
 633:Generated_Source\PSoC4/ADC.c **** *
 634:Generated_Source\PSoC4/ADC.c **** * Return:
ARM GAS  C:\Users\g\AppData\Local\Temp\ccHHl3vk.s 			page 23


 635:Generated_Source\PSoC4/ADC.c **** *  None.
 636:Generated_Source\PSoC4/ADC.c **** *
 637:Generated_Source\PSoC4/ADC.c **** *******************************************************************************/
 638:Generated_Source\PSoC4/ADC.c **** void ADC_SetLimitMask(uint32 mask)
 639:Generated_Source\PSoC4/ADC.c **** {
 572              		.loc 1 639 0
 573              		.cfi_startproc
 574              	.LVL31:
 640:Generated_Source\PSoC4/ADC.c ****     ADC_SAR_RANGE_INTR_MASK_REG = mask & ADC_MAX_CHANNELS_EN_MASK;
 575              		.loc 1 640 0
 576 0000 0123     		mov	r3, #1
 577 0002 1840     		and	r0, r3
 578              	.LVL32:
 579 0004 014B     		ldr	r3, .L53
 641:Generated_Source\PSoC4/ADC.c **** }
 580              		.loc 1 641 0
 581              		@ sp needed
 640:Generated_Source\PSoC4/ADC.c ****     ADC_SAR_RANGE_INTR_MASK_REG = mask & ADC_MAX_CHANNELS_EN_MASK;
 582              		.loc 1 640 0
 583 0006 1860     		str	r0, [r3]
 584              		.loc 1 641 0
 585 0008 7047     		bx	lr
 586              	.L54:
 587 000a C046     		.align	2
 588              	.L53:
 589 000c 38021A40 		.word	1075446328
 590              		.cfi_endproc
 591              	.LFE11:
 592              		.size	ADC_SetLimitMask, .-ADC_SetLimitMask
 593              		.section	.text.ADC_SetSatMask,"ax",%progbits
 594              		.align	2
 595              		.global	ADC_SetSatMask
 596              		.code	16
 597              		.thumb_func
 598              		.type	ADC_SetSatMask, %function
 599              	ADC_SetSatMask:
 600              	.LFB12:
 642:Generated_Source\PSoC4/ADC.c **** 
 643:Generated_Source\PSoC4/ADC.c **** 
 644:Generated_Source\PSoC4/ADC.c **** /*******************************************************************************
 645:Generated_Source\PSoC4/ADC.c **** * Function Name: ADC_SetSatMask
 646:Generated_Source\PSoC4/ADC.c **** ********************************************************************************
 647:Generated_Source\PSoC4/ADC.c **** *
 648:Generated_Source\PSoC4/ADC.c **** * Summary:
 649:Generated_Source\PSoC4/ADC.c **** *  Sets the channel saturation event mask.
 650:Generated_Source\PSoC4/ADC.c **** *
 651:Generated_Source\PSoC4/ADC.c **** * Parameters:
 652:Generated_Source\PSoC4/ADC.c **** *  mask: Sets which channels that may cause a
 653:Generated_Source\PSoC4/ADC.c **** *  saturation event interrupt. Setting bits for channels that do not exist
 654:Generated_Source\PSoC4/ADC.c **** *  will have no effect. For example, if only 8 channels were enabled,
 655:Generated_Source\PSoC4/ADC.c **** *  setting a mask of 0x01C0 would only enable two channels (6 and 7).
 656:Generated_Source\PSoC4/ADC.c **** *
 657:Generated_Source\PSoC4/ADC.c **** * Return:
 658:Generated_Source\PSoC4/ADC.c **** *  None.
 659:Generated_Source\PSoC4/ADC.c **** *
 660:Generated_Source\PSoC4/ADC.c **** *******************************************************************************/
 661:Generated_Source\PSoC4/ADC.c **** void ADC_SetSatMask(uint32 mask)
ARM GAS  C:\Users\g\AppData\Local\Temp\ccHHl3vk.s 			page 24


 662:Generated_Source\PSoC4/ADC.c **** {
 601              		.loc 1 662 0
 602              		.cfi_startproc
 603              	.LVL33:
 663:Generated_Source\PSoC4/ADC.c ****     ADC_SAR_SATURATE_INTR_MASK_REG = mask & ADC_MAX_CHANNELS_EN_MASK;
 604              		.loc 1 663 0
 605 0000 0123     		mov	r3, #1
 606 0002 1840     		and	r0, r3
 607              	.LVL34:
 608 0004 014B     		ldr	r3, .L56
 664:Generated_Source\PSoC4/ADC.c **** }
 609              		.loc 1 664 0
 610              		@ sp needed
 663:Generated_Source\PSoC4/ADC.c ****     ADC_SAR_SATURATE_INTR_MASK_REG = mask & ADC_MAX_CHANNELS_EN_MASK;
 611              		.loc 1 663 0
 612 0006 1860     		str	r0, [r3]
 613              		.loc 1 664 0
 614 0008 7047     		bx	lr
 615              	.L57:
 616 000a C046     		.align	2
 617              	.L56:
 618 000c 28021A40 		.word	1075446312
 619              		.cfi_endproc
 620              	.LFE12:
 621              		.size	ADC_SetSatMask, .-ADC_SetSatMask
 622              		.section	.text.ADC_SetOffset,"ax",%progbits
 623              		.align	2
 624              		.global	ADC_SetOffset
 625              		.code	16
 626              		.thumb_func
 627              		.type	ADC_SetOffset, %function
 628              	ADC_SetOffset:
 629              	.LFB13:
 665:Generated_Source\PSoC4/ADC.c **** 
 666:Generated_Source\PSoC4/ADC.c **** 
 667:Generated_Source\PSoC4/ADC.c **** /*******************************************************************************
 668:Generated_Source\PSoC4/ADC.c **** * Function Name: ADC_SetOffset
 669:Generated_Source\PSoC4/ADC.c **** ********************************************************************************
 670:Generated_Source\PSoC4/ADC.c **** *
 671:Generated_Source\PSoC4/ADC.c **** * Summary:
 672:Generated_Source\PSoC4/ADC.c **** *   Description: Sets the ADC offset which is used by the functions
 673:Generated_Source\PSoC4/ADC.c **** *   ADC_CountsTo_uVolts, ADC_CountsTo_mVolts and ADC_CountsTo_Volts
 674:Generated_Source\PSoC4/ADC.c **** *   to substract the offset from the given reading
 675:Generated_Source\PSoC4/ADC.c **** *   before calculating the voltage conversion.
 676:Generated_Source\PSoC4/ADC.c **** *
 677:Generated_Source\PSoC4/ADC.c **** * Parameters:
 678:Generated_Source\PSoC4/ADC.c **** *  chan: ADC channel number.
 679:Generated_Source\PSoC4/ADC.c **** *  offset: This value is a measured value when the
 680:Generated_Source\PSoC4/ADC.c **** *          inputs are shorted or connected to the same input voltage.
 681:Generated_Source\PSoC4/ADC.c **** *
 682:Generated_Source\PSoC4/ADC.c **** * Return:
 683:Generated_Source\PSoC4/ADC.c **** *  None.
 684:Generated_Source\PSoC4/ADC.c **** *
 685:Generated_Source\PSoC4/ADC.c **** * Global variables:
 686:Generated_Source\PSoC4/ADC.c **** *  ADC_Offset:  Modified to set the user provided offset.
 687:Generated_Source\PSoC4/ADC.c **** *
 688:Generated_Source\PSoC4/ADC.c **** *******************************************************************************/
ARM GAS  C:\Users\g\AppData\Local\Temp\ccHHl3vk.s 			page 25


 689:Generated_Source\PSoC4/ADC.c **** void ADC_SetOffset(uint32 chan, int16 offset)
 690:Generated_Source\PSoC4/ADC.c **** {
 630              		.loc 1 690 0
 631              		.cfi_startproc
 632              	.LVL35:
 633 0000 38B5     		push	{r3, r4, r5, lr}
 634              		.cfi_def_cfa_offset 16
 635              		.cfi_offset 3, -16
 636              		.cfi_offset 4, -12
 637              		.cfi_offset 5, -8
 638              		.cfi_offset 14, -4
 639              		.loc 1 690 0
 640 0002 041C     		mov	r4, r0
 641 0004 0D1C     		mov	r5, r1
 691:Generated_Source\PSoC4/ADC.c ****     /* Halt CPU in debug mode if channel is out of valid range */
 692:Generated_Source\PSoC4/ADC.c ****     CYASSERT(chan < ADC_TOTAL_CHANNELS_NUM);
 642              		.loc 1 692 0
 643 0006 0028     		cmp	r0, #0
 644 0008 02D0     		beq	.L59
 645              		.loc 1 692 0 is_stmt 0 discriminator 1
 646 000a 0020     		mov	r0, #0
 647              	.LVL36:
 648 000c FFF7FEFF 		bl	CyHalt
 649              	.LVL37:
 650              	.L59:
 693:Generated_Source\PSoC4/ADC.c **** 
 694:Generated_Source\PSoC4/ADC.c ****     ADC_offset[chan] = offset;
 651              		.loc 1 694 0 is_stmt 1
 652 0010 014B     		ldr	r3, .L63
 653 0012 6400     		lsl	r4, r4, #1
 654              	.LVL38:
 655 0014 E552     		strh	r5, [r4, r3]
 695:Generated_Source\PSoC4/ADC.c **** }
 656              		.loc 1 695 0
 657              		@ sp needed
 658 0016 38BD     		pop	{r3, r4, r5, pc}
 659              	.L64:
 660              		.align	2
 661              	.L63:
 662 0018 00000000 		.word	ADC_offset
 663              		.cfi_endproc
 664              	.LFE13:
 665              		.size	ADC_SetOffset, .-ADC_SetOffset
 666              		.section	.text.ADC_SetGain,"ax",%progbits
 667              		.align	2
 668              		.global	ADC_SetGain
 669              		.code	16
 670              		.thumb_func
 671              		.type	ADC_SetGain, %function
 672              	ADC_SetGain:
 673              	.LFB14:
 696:Generated_Source\PSoC4/ADC.c **** 
 697:Generated_Source\PSoC4/ADC.c **** 
 698:Generated_Source\PSoC4/ADC.c **** /*******************************************************************************
 699:Generated_Source\PSoC4/ADC.c **** * Function Name: ADC_SetGain
 700:Generated_Source\PSoC4/ADC.c **** ********************************************************************************
 701:Generated_Source\PSoC4/ADC.c **** *
ARM GAS  C:\Users\g\AppData\Local\Temp\ccHHl3vk.s 			page 26


 702:Generated_Source\PSoC4/ADC.c **** * Summary:
 703:Generated_Source\PSoC4/ADC.c **** *  Description: Sets the ADC gain in counts per 10 volt for the voltage
 704:Generated_Source\PSoC4/ADC.c **** *  conversion functions below. This value is set by default by the
 705:Generated_Source\PSoC4/ADC.c **** *  reference and input range settings. It should only be used to further
 706:Generated_Source\PSoC4/ADC.c **** *  calibrate the ADC with a known input or if an external reference is
 707:Generated_Source\PSoC4/ADC.c **** *  used. Affects the ADC_CountsTo_uVolts, ADC_CountsTo_mVolts
 708:Generated_Source\PSoC4/ADC.c **** *  and ADC_CountsTo_Volts functions by supplying the correct
 709:Generated_Source\PSoC4/ADC.c **** *  conversion between ADC counts and voltage.
 710:Generated_Source\PSoC4/ADC.c **** *
 711:Generated_Source\PSoC4/ADC.c **** * Parameters:
 712:Generated_Source\PSoC4/ADC.c **** *  chan: ADC channel number.
 713:Generated_Source\PSoC4/ADC.c **** *  adcGain: ADC gain in counts per 10 volts.
 714:Generated_Source\PSoC4/ADC.c **** *
 715:Generated_Source\PSoC4/ADC.c **** * Return:
 716:Generated_Source\PSoC4/ADC.c **** *  None.
 717:Generated_Source\PSoC4/ADC.c **** *
 718:Generated_Source\PSoC4/ADC.c **** * Global variables:
 719:Generated_Source\PSoC4/ADC.c **** *  ADC_CountsPer10Volt:  modified to set the ADC gain in counts
 720:Generated_Source\PSoC4/ADC.c **** *   per 10 volt.
 721:Generated_Source\PSoC4/ADC.c **** *
 722:Generated_Source\PSoC4/ADC.c **** *******************************************************************************/
 723:Generated_Source\PSoC4/ADC.c **** void ADC_SetGain(uint32 chan, int32 adcGain)
 724:Generated_Source\PSoC4/ADC.c **** {
 674              		.loc 1 724 0
 675              		.cfi_startproc
 676              	.LVL39:
 677 0000 38B5     		push	{r3, r4, r5, lr}
 678              		.cfi_def_cfa_offset 16
 679              		.cfi_offset 3, -16
 680              		.cfi_offset 4, -12
 681              		.cfi_offset 5, -8
 682              		.cfi_offset 14, -4
 683              		.loc 1 724 0
 684 0002 041C     		mov	r4, r0
 685 0004 0D1C     		mov	r5, r1
 725:Generated_Source\PSoC4/ADC.c ****     /* Halt CPU in debug mode if channel is out of valid range */
 726:Generated_Source\PSoC4/ADC.c ****     CYASSERT(chan < ADC_TOTAL_CHANNELS_NUM);
 686              		.loc 1 726 0
 687 0006 0028     		cmp	r0, #0
 688 0008 02D0     		beq	.L66
 689              		.loc 1 726 0 is_stmt 0 discriminator 1
 690 000a 0020     		mov	r0, #0
 691              	.LVL40:
 692 000c FFF7FEFF 		bl	CyHalt
 693              	.LVL41:
 694              	.L66:
 727:Generated_Source\PSoC4/ADC.c **** 
 728:Generated_Source\PSoC4/ADC.c ****     ADC_countsPer10Volt[chan] = adcGain;
 695              		.loc 1 728 0 is_stmt 1
 696 0010 014B     		ldr	r3, .L70
 697 0012 A400     		lsl	r4, r4, #2
 698              	.LVL42:
 699 0014 E550     		str	r5, [r4, r3]
 729:Generated_Source\PSoC4/ADC.c **** }
 700              		.loc 1 729 0
 701              		@ sp needed
 702              	.LVL43:
ARM GAS  C:\Users\g\AppData\Local\Temp\ccHHl3vk.s 			page 27


 703 0016 38BD     		pop	{r3, r4, r5, pc}
 704              	.L71:
 705              		.align	2
 706              	.L70:
 707 0018 00000000 		.word	ADC_countsPer10Volt
 708              		.cfi_endproc
 709              	.LFE14:
 710              		.size	ADC_SetGain, .-ADC_SetGain
 711              		.global	__aeabi_idiv
 712              		.section	.text.ADC_CountsTo_mVolts,"ax",%progbits
 713              		.align	2
 714              		.global	ADC_CountsTo_mVolts
 715              		.code	16
 716              		.thumb_func
 717              		.type	ADC_CountsTo_mVolts, %function
 718              	ADC_CountsTo_mVolts:
 719              	.LFB15:
 730:Generated_Source\PSoC4/ADC.c **** 
 731:Generated_Source\PSoC4/ADC.c **** 
 732:Generated_Source\PSoC4/ADC.c **** #if(ADC_DEFAULT_JUSTIFICATION_SEL == ADC__RIGHT)
 733:Generated_Source\PSoC4/ADC.c **** 
 734:Generated_Source\PSoC4/ADC.c **** 
 735:Generated_Source\PSoC4/ADC.c ****     /*******************************************************************************
 736:Generated_Source\PSoC4/ADC.c ****     * Function Name: ADC_CountsTo_mVolts
 737:Generated_Source\PSoC4/ADC.c ****     ********************************************************************************
 738:Generated_Source\PSoC4/ADC.c ****     *
 739:Generated_Source\PSoC4/ADC.c ****     * Summary:
 740:Generated_Source\PSoC4/ADC.c ****     *  This function converts ADC counts to mVolts
 741:Generated_Source\PSoC4/ADC.c ****     *  This function is not available when left data format justification selected.
 742:Generated_Source\PSoC4/ADC.c ****     *
 743:Generated_Source\PSoC4/ADC.c ****     * Parameters:
 744:Generated_Source\PSoC4/ADC.c ****     *  chan: The ADC channel number.
 745:Generated_Source\PSoC4/ADC.c ****     *  adcCounts: Result from the ADC conversion
 746:Generated_Source\PSoC4/ADC.c ****     *
 747:Generated_Source\PSoC4/ADC.c ****     * Return:
 748:Generated_Source\PSoC4/ADC.c ****     *  Results in mVolts
 749:Generated_Source\PSoC4/ADC.c ****     *
 750:Generated_Source\PSoC4/ADC.c ****     * Global variables:
 751:Generated_Source\PSoC4/ADC.c ****     *  ADC_countsPer10Volt:  used to convert ADC counts to mVolts.
 752:Generated_Source\PSoC4/ADC.c ****     *  ADC_Offset:  Used as the offset while converting ADC counts
 753:Generated_Source\PSoC4/ADC.c ****     *   to mVolts.
 754:Generated_Source\PSoC4/ADC.c ****     *
 755:Generated_Source\PSoC4/ADC.c ****     *******************************************************************************/
 756:Generated_Source\PSoC4/ADC.c ****     int16 ADC_CountsTo_mVolts(uint32 chan, int16 adcCounts)
 757:Generated_Source\PSoC4/ADC.c ****     {
 720              		.loc 1 757 0
 721              		.cfi_startproc
 722              	.LVL44:
 723 0000 38B5     		push	{r3, r4, r5, lr}
 724              		.cfi_def_cfa_offset 16
 725              		.cfi_offset 3, -16
 726              		.cfi_offset 4, -12
 727              		.cfi_offset 5, -8
 728              		.cfi_offset 14, -4
 729              		.loc 1 757 0
 730 0002 051C     		mov	r5, r0
 731 0004 0C1C     		mov	r4, r1
ARM GAS  C:\Users\g\AppData\Local\Temp\ccHHl3vk.s 			page 28


 758:Generated_Source\PSoC4/ADC.c ****         int16 mVolts;
 759:Generated_Source\PSoC4/ADC.c **** 
 760:Generated_Source\PSoC4/ADC.c ****         /* Halt CPU in debug mode if channel is out of valid range */
 761:Generated_Source\PSoC4/ADC.c ****         CYASSERT(chan < ADC_TOTAL_CHANNELS_NUM);
 732              		.loc 1 761 0
 733 0006 0028     		cmp	r0, #0
 734 0008 19D1     		bne	.L79
 735              	.LVL45:
 736              	.L73:
 762:Generated_Source\PSoC4/ADC.c **** 
 763:Generated_Source\PSoC4/ADC.c ****         /* Divide the adcCount when accumulate averaging mode selected */
 764:Generated_Source\PSoC4/ADC.c ****         #if(ADC_DEFAULT_AVG_MODE == ADC__ACCUMULATE)
 765:Generated_Source\PSoC4/ADC.c ****             if((ADC_channelsConfig[chan] & ADC_AVERAGING_EN) != 0u)
 766:Generated_Source\PSoC4/ADC.c ****             {
 767:Generated_Source\PSoC4/ADC.c ****                 adcCounts /= ADC_DEFAULT_AVG_SAMPLES_DIV;
 768:Generated_Source\PSoC4/ADC.c ****             }
 769:Generated_Source\PSoC4/ADC.c ****         #endif /* ADC_DEFAULT_AVG_MODE == ADC__ACCUMULATE */
 770:Generated_Source\PSoC4/ADC.c **** 
 771:Generated_Source\PSoC4/ADC.c ****         /* Subtract ADC offset */
 772:Generated_Source\PSoC4/ADC.c ****         adcCounts -= ADC_offset[chan];
 737              		.loc 1 772 0
 738 000a 0F4B     		ldr	r3, .L80
 739 000c 6A00     		lsl	r2, r5, #1
 740 000e D15A     		ldrh	r1, [r2, r3]
 773:Generated_Source\PSoC4/ADC.c **** 
 774:Generated_Source\PSoC4/ADC.c ****         mVolts = (int16)((((int32)adcCounts * ADC_10MV_COUNTS) + ( (adcCounts > 0) ?
 741              		.loc 1 774 0
 742 0010 0E48     		ldr	r0, .L80+4
 772:Generated_Source\PSoC4/ADC.c **** 
 743              		.loc 1 772 0
 744 0012 611A     		sub	r1, r4, r1
 775:Generated_Source\PSoC4/ADC.c ****                  (ADC_countsPer10Volt[chan] / 2) : (-(ADC_countsPer10Volt[chan] / 2)) ))
 745              		.loc 1 775 0
 746 0014 0E4A     		ldr	r2, .L80+8
 772:Generated_Source\PSoC4/ADC.c **** 
 747              		.loc 1 772 0
 748 0016 09B2     		sxth	r1, r1
 749              	.LVL46:
 750              		.loc 1 775 0
 751 0018 AD00     		lsl	r5, r5, #2
 752              	.LVL47:
 774:Generated_Source\PSoC4/ADC.c ****                  (ADC_countsPer10Volt[chan] / 2) : (-(ADC_countsPer10Volt[chan] / 2)) ))
 753              		.loc 1 774 0
 754 001a 4843     		mul	r0, r1
 755              		.loc 1 775 0
 756 001c 5359     		ldr	r3, [r2, r5]
 757 001e 0029     		cmp	r1, #0
 758 0020 08DD     		ble	.L74
 759              		.loc 1 775 0 is_stmt 0 discriminator 1
 760 0022 D90F     		lsr	r1, r3, #31
 761              	.LVL48:
 762 0024 CB18     		add	r3, r1, r3
 763 0026 5B10     		asr	r3, r3, #1
 764              	.L75:
 776:Generated_Source\PSoC4/ADC.c ****                  / ADC_countsPer10Volt[chan]);
 765              		.loc 1 776 0 is_stmt 1
 766 0028 5159     		ldr	r1, [r2, r5]
ARM GAS  C:\Users\g\AppData\Local\Temp\ccHHl3vk.s 			page 29


 767              	.LVL49:
 774:Generated_Source\PSoC4/ADC.c ****                  (ADC_countsPer10Volt[chan] / 2) : (-(ADC_countsPer10Volt[chan] / 2)) ))
 768              		.loc 1 774 0
 769 002a C018     		add	r0, r0, r3
 770              	.LVL50:
 771              		.loc 1 776 0
 772 002c FFF7FEFF 		bl	__aeabi_idiv
 773              	.LVL51:
 777:Generated_Source\PSoC4/ADC.c **** 
 778:Generated_Source\PSoC4/ADC.c ****         return( mVolts );
 779:Generated_Source\PSoC4/ADC.c ****     }
 774              		.loc 1 779 0
 775              		@ sp needed
 778:Generated_Source\PSoC4/ADC.c ****     }
 776              		.loc 1 778 0
 777 0030 00B2     		sxth	r0, r0
 778              		.loc 1 779 0
 779 0032 38BD     		pop	{r3, r4, r5, pc}
 780              	.LVL52:
 781              	.L74:
 775:Generated_Source\PSoC4/ADC.c ****                  / ADC_countsPer10Volt[chan]);
 782              		.loc 1 775 0 discriminator 2
 783 0034 D90F     		lsr	r1, r3, #31
 784              	.LVL53:
 785 0036 CB18     		add	r3, r1, r3
 786 0038 5B10     		asr	r3, r3, #1
 787 003a 5B42     		neg	r3, r3
 788 003c F4E7     		b	.L75
 789              	.LVL54:
 790              	.L79:
 761:Generated_Source\PSoC4/ADC.c **** 
 791              		.loc 1 761 0 discriminator 1
 792 003e 0020     		mov	r0, #0
 793              	.LVL55:
 794 0040 FFF7FEFF 		bl	CyHalt
 795              	.LVL56:
 796 0044 E1E7     		b	.L73
 797              	.L81:
 798 0046 C046     		.align	2
 799              	.L80:
 800 0048 00000000 		.word	ADC_offset
 801 004c 10270000 		.word	10000
 802 0050 00000000 		.word	ADC_countsPer10Volt
 803              		.cfi_endproc
 804              	.LFE15:
 805              		.size	ADC_CountsTo_mVolts, .-ADC_CountsTo_mVolts
 806              		.global	__aeabi_lmul
 807              		.global	__aeabi_ldivmod
 808              		.section	.text.ADC_CountsTo_uVolts,"ax",%progbits
 809              		.align	2
 810              		.global	ADC_CountsTo_uVolts
 811              		.code	16
 812              		.thumb_func
 813              		.type	ADC_CountsTo_uVolts, %function
 814              	ADC_CountsTo_uVolts:
 815              	.LFB16:
 780:Generated_Source\PSoC4/ADC.c **** 
ARM GAS  C:\Users\g\AppData\Local\Temp\ccHHl3vk.s 			page 30


 781:Generated_Source\PSoC4/ADC.c **** 
 782:Generated_Source\PSoC4/ADC.c ****     /*******************************************************************************
 783:Generated_Source\PSoC4/ADC.c ****     * Function Name: ADC_CountsTo_uVolts
 784:Generated_Source\PSoC4/ADC.c ****     ********************************************************************************
 785:Generated_Source\PSoC4/ADC.c ****     *
 786:Generated_Source\PSoC4/ADC.c ****     * Summary:
 787:Generated_Source\PSoC4/ADC.c ****     *  This function converts ADC counts to micro Volts
 788:Generated_Source\PSoC4/ADC.c ****     *  This function is not available when left data format justification selected.
 789:Generated_Source\PSoC4/ADC.c ****     *
 790:Generated_Source\PSoC4/ADC.c ****     * Parameters:
 791:Generated_Source\PSoC4/ADC.c ****     *  chan: The ADC channel number.
 792:Generated_Source\PSoC4/ADC.c ****     *  adcCounts: Result from the ADC conversion
 793:Generated_Source\PSoC4/ADC.c ****     *
 794:Generated_Source\PSoC4/ADC.c ****     * Return:
 795:Generated_Source\PSoC4/ADC.c ****     *  Results in uVolts
 796:Generated_Source\PSoC4/ADC.c ****     *
 797:Generated_Source\PSoC4/ADC.c ****     * Global variables:
 798:Generated_Source\PSoC4/ADC.c ****     *  ADC_countsPer10Volt:  used to convert ADC counts to uVolts.
 799:Generated_Source\PSoC4/ADC.c ****     *  ADC_Offset:  Used as the offset while converting ADC counts
 800:Generated_Source\PSoC4/ADC.c ****     *   to mVolts.
 801:Generated_Source\PSoC4/ADC.c ****     *
 802:Generated_Source\PSoC4/ADC.c ****     * Theory:
 803:Generated_Source\PSoC4/ADC.c ****     *  Care must be taken to not exceed the maximum value for a 31 bit signed
 804:Generated_Source\PSoC4/ADC.c ****     *  number in the conversion to uVolts and at the same time not loose
 805:Generated_Source\PSoC4/ADC.c ****     *  resolution.
 806:Generated_Source\PSoC4/ADC.c ****     *  To convert adcCounts to microVolts it is required to be multiplied
 807:Generated_Source\PSoC4/ADC.c ****     *  on 10 million and later divide on gain in counts per 10V.
 808:Generated_Source\PSoC4/ADC.c ****     *
 809:Generated_Source\PSoC4/ADC.c ****     *******************************************************************************/
 810:Generated_Source\PSoC4/ADC.c ****     int32 ADC_CountsTo_uVolts(uint32 chan, int16 adcCounts)
 811:Generated_Source\PSoC4/ADC.c ****     {
 816              		.loc 1 811 0
 817              		.cfi_startproc
 818              	.LVL57:
 819 0000 38B5     		push	{r3, r4, r5, lr}
 820              		.cfi_def_cfa_offset 16
 821              		.cfi_offset 3, -16
 822              		.cfi_offset 4, -12
 823              		.cfi_offset 5, -8
 824              		.cfi_offset 14, -4
 825              		.loc 1 811 0
 826 0002 051C     		mov	r5, r0
 827 0004 0C1C     		mov	r4, r1
 812:Generated_Source\PSoC4/ADC.c ****         int64 uVolts;
 813:Generated_Source\PSoC4/ADC.c **** 
 814:Generated_Source\PSoC4/ADC.c ****         /* Halt CPU in debug mode if channel is out of valid range */
 815:Generated_Source\PSoC4/ADC.c ****         CYASSERT(chan < ADC_TOTAL_CHANNELS_NUM);
 828              		.loc 1 815 0
 829 0006 0028     		cmp	r0, #0
 830 0008 02D0     		beq	.L83
 831              		.loc 1 815 0 is_stmt 0 discriminator 1
 832 000a 0020     		mov	r0, #0
 833              	.LVL58:
 834 000c FFF7FEFF 		bl	CyHalt
 835              	.LVL59:
 836              	.L83:
 816:Generated_Source\PSoC4/ADC.c **** 
ARM GAS  C:\Users\g\AppData\Local\Temp\ccHHl3vk.s 			page 31


 817:Generated_Source\PSoC4/ADC.c ****         /* Divide the adcCount when accumulate averaging mode selected */
 818:Generated_Source\PSoC4/ADC.c ****         #if(ADC_DEFAULT_AVG_MODE == ADC__ACCUMULATE)
 819:Generated_Source\PSoC4/ADC.c ****             if((ADC_channelsConfig[chan] & ADC_AVERAGING_EN) != 0u)
 820:Generated_Source\PSoC4/ADC.c ****             {
 821:Generated_Source\PSoC4/ADC.c ****                 adcCounts /= ADC_DEFAULT_AVG_SAMPLES_DIV;
 822:Generated_Source\PSoC4/ADC.c ****             }
 823:Generated_Source\PSoC4/ADC.c ****         #endif /* ADC_DEFAULT_AVG_MODE == ADC__ACCUMULATE */
 824:Generated_Source\PSoC4/ADC.c **** 
 825:Generated_Source\PSoC4/ADC.c ****         /* Subtract ADC offset */
 826:Generated_Source\PSoC4/ADC.c ****         adcCounts -= ADC_offset[chan];
 837              		.loc 1 826 0 is_stmt 1
 838 0010 084B     		ldr	r3, .L87
 839 0012 6A00     		lsl	r2, r5, #1
 840 0014 D05A     		ldrh	r0, [r2, r3]
 827:Generated_Source\PSoC4/ADC.c **** 
 828:Generated_Source\PSoC4/ADC.c ****         uVolts = ((int64)adcCounts * ADC_10UV_COUNTS) / ADC_countsPer10Volt[chan];
 841              		.loc 1 828 0
 842 0016 084B     		ldr	r3, .L87+4
 826:Generated_Source\PSoC4/ADC.c **** 
 843              		.loc 1 826 0
 844 0018 241A     		sub	r4, r4, r0
 845              	.LVL60:
 846              		.loc 1 828 0
 847 001a AD00     		lsl	r5, r5, #2
 848              	.LVL61:
 849 001c ED58     		ldr	r5, [r5, r3]
 850              	.LVL62:
 851 001e 20B2     		sxth	r0, r4
 852 0020 064A     		ldr	r2, .L87+8
 853 0022 0023     		mov	r3, #0
 854 0024 C117     		asr	r1, r0, #31
 855 0026 FFF7FEFF 		bl	__aeabi_lmul
 856              	.LVL63:
 857 002a EB17     		asr	r3, r5, #31
 858 002c 2A1C     		mov	r2, r5
 859 002e FFF7FEFF 		bl	__aeabi_ldivmod
 860              	.LVL64:
 829:Generated_Source\PSoC4/ADC.c **** 
 830:Generated_Source\PSoC4/ADC.c ****         return( (int32)uVolts );
 831:Generated_Source\PSoC4/ADC.c ****     }
 861              		.loc 1 831 0
 862              		@ sp needed
 863              	.LVL65:
 864 0032 38BD     		pop	{r3, r4, r5, pc}
 865              	.L88:
 866              		.align	2
 867              	.L87:
 868 0034 00000000 		.word	ADC_offset
 869 0038 00000000 		.word	ADC_countsPer10Volt
 870 003c 80969800 		.word	10000000
 871              		.cfi_endproc
 872              	.LFE16:
 873              		.size	ADC_CountsTo_uVolts, .-ADC_CountsTo_uVolts
 874              		.global	__aeabi_i2f
 875              		.global	__aeabi_fmul
 876              		.global	__aeabi_fdiv
 877              		.section	.text.ADC_CountsTo_Volts,"ax",%progbits
ARM GAS  C:\Users\g\AppData\Local\Temp\ccHHl3vk.s 			page 32


 878              		.align	2
 879              		.global	ADC_CountsTo_Volts
 880              		.code	16
 881              		.thumb_func
 882              		.type	ADC_CountsTo_Volts, %function
 883              	ADC_CountsTo_Volts:
 884              	.LFB17:
 832:Generated_Source\PSoC4/ADC.c **** 
 833:Generated_Source\PSoC4/ADC.c **** 
 834:Generated_Source\PSoC4/ADC.c ****     /*******************************************************************************
 835:Generated_Source\PSoC4/ADC.c ****     * Function Name: ADC_CountsTo_Volts
 836:Generated_Source\PSoC4/ADC.c ****     ********************************************************************************
 837:Generated_Source\PSoC4/ADC.c ****     *
 838:Generated_Source\PSoC4/ADC.c ****     * Summary:
 839:Generated_Source\PSoC4/ADC.c ****     *  Converts the ADC output to Volts as a floating point number.
 840:Generated_Source\PSoC4/ADC.c ****     *  This function is not available when left data format justification selected.
 841:Generated_Source\PSoC4/ADC.c ****     *
 842:Generated_Source\PSoC4/ADC.c ****     * Parameters:
 843:Generated_Source\PSoC4/ADC.c ****     *  chan: The ADC channel number.
 844:Generated_Source\PSoC4/ADC.c ****     *  Result from the ADC conversion
 845:Generated_Source\PSoC4/ADC.c ****     *
 846:Generated_Source\PSoC4/ADC.c ****     * Return:
 847:Generated_Source\PSoC4/ADC.c ****     *  Results in Volts
 848:Generated_Source\PSoC4/ADC.c ****     *
 849:Generated_Source\PSoC4/ADC.c ****     * Global variables:
 850:Generated_Source\PSoC4/ADC.c ****     *  ADC_countsPer10Volt:  used to convert ADC counts to Volts.
 851:Generated_Source\PSoC4/ADC.c ****     *  ADC_Offset:  Used as the offset while converting ADC counts
 852:Generated_Source\PSoC4/ADC.c ****     *   to mVolts.
 853:Generated_Source\PSoC4/ADC.c ****     *
 854:Generated_Source\PSoC4/ADC.c ****     *******************************************************************************/
 855:Generated_Source\PSoC4/ADC.c ****     float32 ADC_CountsTo_Volts(uint32 chan, int16 adcCounts)
 856:Generated_Source\PSoC4/ADC.c ****     {
 885              		.loc 1 856 0
 886              		.cfi_startproc
 887              	.LVL66:
 888 0000 38B5     		push	{r3, r4, r5, lr}
 889              		.cfi_def_cfa_offset 16
 890              		.cfi_offset 3, -16
 891              		.cfi_offset 4, -12
 892              		.cfi_offset 5, -8
 893              		.cfi_offset 14, -4
 894              		.loc 1 856 0
 895 0002 051C     		mov	r5, r0
 896 0004 0C1C     		mov	r4, r1
 857:Generated_Source\PSoC4/ADC.c ****         float32 volts;
 858:Generated_Source\PSoC4/ADC.c **** 
 859:Generated_Source\PSoC4/ADC.c ****         /* Halt CPU in debug mode if channel is out of valid range */
 860:Generated_Source\PSoC4/ADC.c ****         CYASSERT(chan < ADC_TOTAL_CHANNELS_NUM);
 897              		.loc 1 860 0
 898 0006 0028     		cmp	r0, #0
 899 0008 02D0     		beq	.L90
 900              		.loc 1 860 0 is_stmt 0 discriminator 1
 901 000a 0020     		mov	r0, #0
 902              	.LVL67:
 903 000c FFF7FEFF 		bl	CyHalt
 904              	.LVL68:
 905              	.L90:
ARM GAS  C:\Users\g\AppData\Local\Temp\ccHHl3vk.s 			page 33


 861:Generated_Source\PSoC4/ADC.c **** 
 862:Generated_Source\PSoC4/ADC.c ****         /* Divide the adcCount when accumulate averaging mode selected */
 863:Generated_Source\PSoC4/ADC.c ****         #if(ADC_DEFAULT_AVG_MODE == ADC__ACCUMULATE)
 864:Generated_Source\PSoC4/ADC.c ****             if((ADC_channelsConfig[chan] & ADC_AVERAGING_EN) != 0u)
 865:Generated_Source\PSoC4/ADC.c ****             {
 866:Generated_Source\PSoC4/ADC.c ****                 adcCounts /= ADC_DEFAULT_AVG_SAMPLES_DIV;
 867:Generated_Source\PSoC4/ADC.c ****             }
 868:Generated_Source\PSoC4/ADC.c ****         #endif /* ADC_DEFAULT_AVG_MODE == ADC__ACCUMULATE */
 869:Generated_Source\PSoC4/ADC.c **** 
 870:Generated_Source\PSoC4/ADC.c ****         /* Subtract ADC offset */
 871:Generated_Source\PSoC4/ADC.c ****         adcCounts -= ADC_offset[chan];
 906              		.loc 1 871 0 is_stmt 1
 907 0010 0A4B     		ldr	r3, .L94
 908 0012 6A00     		lsl	r2, r5, #1
 909 0014 D05A     		ldrh	r0, [r2, r3]
 872:Generated_Source\PSoC4/ADC.c **** 
 873:Generated_Source\PSoC4/ADC.c ****         volts = ((float32)adcCounts * ADC_10V_COUNTS) / (float32)ADC_countsPer10Volt[chan];
 910              		.loc 1 873 0
 911 0016 0A4B     		ldr	r3, .L94+4
 871:Generated_Source\PSoC4/ADC.c **** 
 912              		.loc 1 871 0
 913 0018 241A     		sub	r4, r4, r0
 914              	.LVL69:
 915              		.loc 1 873 0
 916 001a 20B2     		sxth	r0, r4
 917 001c AD00     		lsl	r5, r5, #2
 918              	.LVL70:
 919 001e ED58     		ldr	r5, [r5, r3]
 920              	.LVL71:
 921 0020 FFF7FEFF 		bl	__aeabi_i2f
 922              	.LVL72:
 923 0024 0749     		ldr	r1, .L94+8
 924 0026 FFF7FEFF 		bl	__aeabi_fmul
 925              	.LVL73:
 926 002a 041C     		add	r4, r0, #0
 927              	.LVL74:
 928 002c 281C     		mov	r0, r5
 929 002e FFF7FEFF 		bl	__aeabi_i2f
 930              	.LVL75:
 931 0032 011C     		add	r1, r0, #0
 932 0034 201C     		add	r0, r4, #0
 933 0036 FFF7FEFF 		bl	__aeabi_fdiv
 934              	.LVL76:
 874:Generated_Source\PSoC4/ADC.c **** 
 875:Generated_Source\PSoC4/ADC.c ****         return( volts );
 876:Generated_Source\PSoC4/ADC.c ****     }
 935              		.loc 1 876 0
 936              		@ sp needed
 937 003a 38BD     		pop	{r3, r4, r5, pc}
 938              	.L95:
 939              		.align	2
 940              	.L94:
 941 003c 00000000 		.word	ADC_offset
 942 0040 00000000 		.word	ADC_countsPer10Volt
 943 0044 00002041 		.word	1092616192
 944              		.cfi_endproc
 945              	.LFE17:
ARM GAS  C:\Users\g\AppData\Local\Temp\ccHHl3vk.s 			page 34


 946              		.size	ADC_CountsTo_Volts, .-ADC_CountsTo_Volts
 947              		.comm	ADC_countsPer10Volt,4,4
 948              		.comm	ADC_offset,2,4
 949              		.global	ADC_initVar
 950              		.bss
 951              		.set	.LANCHOR0,. + 0
 952              		.type	ADC_initVar, %object
 953              		.size	ADC_initVar, 1
 954              	ADC_initVar:
 955 0000 00       		.space	1
 956              		.text
 957              	.Letext0:
 958              		.file 2 "Generated_Source\\PSoC4\\cytypes.h"
 959              		.file 3 "Generated_Source\\PSoC4\\CyLib.h"