ARM GAS  C:\Users\g\AppData\Local\Temp\ccKrnPDx.s 			page 1


   1              		.cpu cortex-m0
   2              		.fpu softvfp
   3              		.eabi_attribute 20, 1
   4              		.eabi_attribute 21, 1
   5              		.eabi_attribute 23, 3
   6              		.eabi_attribute 24, 1
   7              		.eabi_attribute 25, 1
   8              		.eabi_attribute 26, 1
   9              		.eabi_attribute 30, 2
  10              		.eabi_attribute 34, 0
  11              		.eabi_attribute 18, 4
  12              		.code	16
  13              		.file	"Cm0Start.c"
  14              		.text
  15              	.Ltext0:
  16              		.cfi_sections	.debug_frame
  17              		.section	.text.IntDefaultHandler,"ax",%progbits
  18              		.align	2
  19              		.global	IntDefaultHandler
  20              		.code	16
  21              		.thumb_func
  22              		.type	IntDefaultHandler, %function
  23              	IntDefaultHandler:
  24              	.LFB0:
  25              		.file 1 "Generated_Source\\PSoC4\\Cm0Start.c"
   1:Generated_Source\PSoC4/Cm0Start.c **** /***************************************************************************//**
   2:Generated_Source\PSoC4/Cm0Start.c **** * \file Cm0Start.c
   3:Generated_Source\PSoC4/Cm0Start.c **** * \version 5.40
   4:Generated_Source\PSoC4/Cm0Start.c **** *
   5:Generated_Source\PSoC4/Cm0Start.c **** * \brief Startup code for the ARM CM0.
   6:Generated_Source\PSoC4/Cm0Start.c **** *
   7:Generated_Source\PSoC4/Cm0Start.c **** ********************************************************************************
   8:Generated_Source\PSoC4/Cm0Start.c **** * \copyright
   9:Generated_Source\PSoC4/Cm0Start.c **** * Copyright 2010-2016, Cypress Semiconductor Corporation.  All rights reserved.
  10:Generated_Source\PSoC4/Cm0Start.c **** * You may use this file only in accordance with the license, terms, conditions,
  11:Generated_Source\PSoC4/Cm0Start.c **** * disclaimers, and limitations in the end user license agreement accompanying
  12:Generated_Source\PSoC4/Cm0Start.c **** * the software package with which this file was provided.
  13:Generated_Source\PSoC4/Cm0Start.c **** *******************************************************************************/
  14:Generated_Source\PSoC4/Cm0Start.c **** 
  15:Generated_Source\PSoC4/Cm0Start.c **** #include <limits.h>
  16:Generated_Source\PSoC4/Cm0Start.c **** #include "cydevice_trm.h"
  17:Generated_Source\PSoC4/Cm0Start.c **** #include "cytypes.h"
  18:Generated_Source\PSoC4/Cm0Start.c **** #include "cyfitter_cfg.h"
  19:Generated_Source\PSoC4/Cm0Start.c **** #include "CyLib.h"
  20:Generated_Source\PSoC4/Cm0Start.c **** #include "cyfitter.h"
  21:Generated_Source\PSoC4/Cm0Start.c **** #include "cyapicallbacks.h"
  22:Generated_Source\PSoC4/Cm0Start.c **** 
  23:Generated_Source\PSoC4/Cm0Start.c **** #define CY_NUM_VECTORS              (CY_INT_IRQ_BASE + CY_NUM_INTERRUPTS)
  24:Generated_Source\PSoC4/Cm0Start.c **** 
  25:Generated_Source\PSoC4/Cm0Start.c **** #if (CY_IP_CPUSS_CM0)
  26:Generated_Source\PSoC4/Cm0Start.c ****     #define CY_CPUSS_CONFIG_VECT_IN_RAM (( uint32 ) 0x01)
  27:Generated_Source\PSoC4/Cm0Start.c **** #endif /* (CY_IP_CPUSS_CM0) */
  28:Generated_Source\PSoC4/Cm0Start.c **** 
  29:Generated_Source\PSoC4/Cm0Start.c **** 
  30:Generated_Source\PSoC4/Cm0Start.c **** #if (CY_IP_CPUSS_CM0)
  31:Generated_Source\PSoC4/Cm0Start.c ****     /* CPUSS Configuration register */
  32:Generated_Source\PSoC4/Cm0Start.c ****     #define CY_CPUSS_CONFIG_REG         (*(reg32 *) CYREG_CPUSS_CONFIG)
ARM GAS  C:\Users\g\AppData\Local\Temp\ccKrnPDx.s 			page 2


  33:Generated_Source\PSoC4/Cm0Start.c ****     #define CY_CPUSS_CONFIG_PTR         ( (reg32 *) CYREG_CPUSS_CONFIG)
  34:Generated_Source\PSoC4/Cm0Start.c **** #endif /* (CY_IP_CPUSS_CM0) */
  35:Generated_Source\PSoC4/Cm0Start.c **** 
  36:Generated_Source\PSoC4/Cm0Start.c **** 
  37:Generated_Source\PSoC4/Cm0Start.c **** #if defined (__ICCARM__)
  38:Generated_Source\PSoC4/Cm0Start.c ****     #define CY_NUM_ROM_VECTORS      (CY_NUM_VECTORS)
  39:Generated_Source\PSoC4/Cm0Start.c **** #else
  40:Generated_Source\PSoC4/Cm0Start.c ****     #define CY_NUM_ROM_VECTORS      (4u)
  41:Generated_Source\PSoC4/Cm0Start.c **** #endif  /* defined (__ICCARM__) */
  42:Generated_Source\PSoC4/Cm0Start.c **** 
  43:Generated_Source\PSoC4/Cm0Start.c **** /* Vector table address in SRAM */
  44:Generated_Source\PSoC4/Cm0Start.c **** #define CY_CPUSS_CONFIG_VECT_ADDR_IN_RAM    (0x20000000u)
  45:Generated_Source\PSoC4/Cm0Start.c **** 
  46:Generated_Source\PSoC4/Cm0Start.c **** #ifndef CY_SYS_INITIAL_STACK_POINTER
  47:Generated_Source\PSoC4/Cm0Start.c **** 
  48:Generated_Source\PSoC4/Cm0Start.c ****     #if defined(__ARMCC_VERSION)
  49:Generated_Source\PSoC4/Cm0Start.c ****         #define CY_SYS_INITIAL_STACK_POINTER ((cyisraddress)(uint32)&Image$$ARM_LIB_STACK$$ZI$$Limi
  50:Generated_Source\PSoC4/Cm0Start.c ****     #elif defined (__GNUC__)
  51:Generated_Source\PSoC4/Cm0Start.c ****         #define CY_SYS_INITIAL_STACK_POINTER (&__cy_stack)
  52:Generated_Source\PSoC4/Cm0Start.c ****     #elif defined (__ICCARM__)
  53:Generated_Source\PSoC4/Cm0Start.c ****         #pragma language=extended
  54:Generated_Source\PSoC4/Cm0Start.c ****         #pragma segment="CSTACK"
  55:Generated_Source\PSoC4/Cm0Start.c ****         #define CY_SYS_INITIAL_STACK_POINTER  { .__ptr = __sfe( "CSTACK" ) }
  56:Generated_Source\PSoC4/Cm0Start.c **** 
  57:Generated_Source\PSoC4/Cm0Start.c ****         extern void __iar_program_start( void );
  58:Generated_Source\PSoC4/Cm0Start.c ****         extern void __iar_data_init3 (void);
  59:Generated_Source\PSoC4/Cm0Start.c ****     #endif  /* (__ARMCC_VERSION) */
  60:Generated_Source\PSoC4/Cm0Start.c **** 
  61:Generated_Source\PSoC4/Cm0Start.c **** #endif /* CY_SYS_INITIAL_STACK_POINTER */
  62:Generated_Source\PSoC4/Cm0Start.c **** 
  63:Generated_Source\PSoC4/Cm0Start.c **** 
  64:Generated_Source\PSoC4/Cm0Start.c **** #if defined(__GNUC__)
  65:Generated_Source\PSoC4/Cm0Start.c ****     #include <errno.h>
  66:Generated_Source\PSoC4/Cm0Start.c ****     extern int  errno;
  67:Generated_Source\PSoC4/Cm0Start.c ****     extern int  end;
  68:Generated_Source\PSoC4/Cm0Start.c **** #endif  /* defined(__GNUC__) */
  69:Generated_Source\PSoC4/Cm0Start.c **** 
  70:Generated_Source\PSoC4/Cm0Start.c **** /* Extern functions */
  71:Generated_Source\PSoC4/Cm0Start.c **** extern void CyBtldr_CheckLaunch(void);
  72:Generated_Source\PSoC4/Cm0Start.c **** 
  73:Generated_Source\PSoC4/Cm0Start.c **** /* Function prototypes */
  74:Generated_Source\PSoC4/Cm0Start.c **** void initialize_psoc(void);
  75:Generated_Source\PSoC4/Cm0Start.c **** 
  76:Generated_Source\PSoC4/Cm0Start.c **** /* Global variables */
  77:Generated_Source\PSoC4/Cm0Start.c **** #if !defined (__ICCARM__)
  78:Generated_Source\PSoC4/Cm0Start.c ****     CY_NOINIT static uint32 cySysNoInitDataValid;
  79:Generated_Source\PSoC4/Cm0Start.c **** #endif  /* !defined (__ICCARM__) */
  80:Generated_Source\PSoC4/Cm0Start.c **** 
  81:Generated_Source\PSoC4/Cm0Start.c **** 
  82:Generated_Source\PSoC4/Cm0Start.c **** #if (CYDEV_PROJ_TYPE != CYDEV_PROJ_TYPE_STANDARD)
  83:Generated_Source\PSoC4/Cm0Start.c **** 
  84:Generated_Source\PSoC4/Cm0Start.c ****     /*******************************************************************************
  85:Generated_Source\PSoC4/Cm0Start.c ****     This variable is used by the Bootloader/Bootloadable components to schedule
  86:Generated_Source\PSoC4/Cm0Start.c ****     what application will be started after a software reset.
  87:Generated_Source\PSoC4/Cm0Start.c ****     *******************************************************************************/
  88:Generated_Source\PSoC4/Cm0Start.c ****     #if (__ARMCC_VERSION)
  89:Generated_Source\PSoC4/Cm0Start.c ****         __attribute__ ((section(".bootloaderruntype"), zero_init))
ARM GAS  C:\Users\g\AppData\Local\Temp\ccKrnPDx.s 			page 3


  90:Generated_Source\PSoC4/Cm0Start.c ****     #elif defined (__GNUC__)
  91:Generated_Source\PSoC4/Cm0Start.c ****         __attribute__ ((section(".bootloaderruntype")))
  92:Generated_Source\PSoC4/Cm0Start.c ****     #elif defined (__ICCARM__)
  93:Generated_Source\PSoC4/Cm0Start.c ****         #pragma location=".bootloaderruntype"
  94:Generated_Source\PSoC4/Cm0Start.c ****     #endif /* (__ARMCC_VERSION) */
  95:Generated_Source\PSoC4/Cm0Start.c ****     volatile uint32 cyBtldrRunType;
  96:Generated_Source\PSoC4/Cm0Start.c **** 
  97:Generated_Source\PSoC4/Cm0Start.c **** #endif  /* (CYDEV_PROJ_TYPE != CYDEV_PROJ_TYPE_STANDARD) */
  98:Generated_Source\PSoC4/Cm0Start.c **** 
  99:Generated_Source\PSoC4/Cm0Start.c **** 
 100:Generated_Source\PSoC4/Cm0Start.c **** /*******************************************************************************
 101:Generated_Source\PSoC4/Cm0Start.c **** * Function Name: IntDefaultHandler
 102:Generated_Source\PSoC4/Cm0Start.c **** ****************************************************************************//**
 103:Generated_Source\PSoC4/Cm0Start.c **** *
 104:Generated_Source\PSoC4/Cm0Start.c **** *  This function is called for all interrupts, other than a reset that is called
 105:Generated_Source\PSoC4/Cm0Start.c **** *  before the system is setup.
 106:Generated_Source\PSoC4/Cm0Start.c **** *
 107:Generated_Source\PSoC4/Cm0Start.c **** *******************************************************************************/
 108:Generated_Source\PSoC4/Cm0Start.c **** CY_NORETURN
 109:Generated_Source\PSoC4/Cm0Start.c **** CY_ISR(IntDefaultHandler)
 110:Generated_Source\PSoC4/Cm0Start.c **** {
  26              		.loc 1 110 0
  27              		.cfi_startproc
  28              	.L2:
 111:Generated_Source\PSoC4/Cm0Start.c ****     /***************************************************************************
 112:Generated_Source\PSoC4/Cm0Start.c ****     * We must not get here. If we do, a serious problem occurs, so go into
 113:Generated_Source\PSoC4/Cm0Start.c ****     * an infinite loop.
 114:Generated_Source\PSoC4/Cm0Start.c ****     ***************************************************************************/
 115:Generated_Source\PSoC4/Cm0Start.c **** 
 116:Generated_Source\PSoC4/Cm0Start.c ****     #ifdef CY_BOOT_INT_DEFAULT_HANDLER_EXCEPTION_ENTRY_CALLBACK
 117:Generated_Source\PSoC4/Cm0Start.c ****         CyBoot_IntDefaultHandler_Exception_EntryCallback();
 118:Generated_Source\PSoC4/Cm0Start.c ****     #endif /* CY_BOOT_INT_DEFAULT_HANDLER_EXCEPTION_ENTRY_CALLBACK */
 119:Generated_Source\PSoC4/Cm0Start.c **** 
 120:Generated_Source\PSoC4/Cm0Start.c ****     while(1)
 121:Generated_Source\PSoC4/Cm0Start.c ****     {
 122:Generated_Source\PSoC4/Cm0Start.c **** 
 123:Generated_Source\PSoC4/Cm0Start.c ****     }
  29              		.loc 1 123 0 discriminator 1
  30 0000 FEE7     		b	.L2
  31              		.cfi_endproc
  32              	.LFE0:
  33              		.size	IntDefaultHandler, .-IntDefaultHandler
  34 0002 C046     		.section	.text._exit,"ax",%progbits
  35              		.align	2
  36              		.weak	_exit
  37              		.code	16
  38              		.thumb_func
  39              		.type	_exit, %function
  40              	_exit:
  41              	.LFB1:
 124:Generated_Source\PSoC4/Cm0Start.c **** }
 125:Generated_Source\PSoC4/Cm0Start.c **** 
 126:Generated_Source\PSoC4/Cm0Start.c **** #if defined(__ARMCC_VERSION)
 127:Generated_Source\PSoC4/Cm0Start.c **** 
 128:Generated_Source\PSoC4/Cm0Start.c **** /* Local function for device reset. */
 129:Generated_Source\PSoC4/Cm0Start.c **** extern void Reset(void);
 130:Generated_Source\PSoC4/Cm0Start.c **** 
ARM GAS  C:\Users\g\AppData\Local\Temp\ccKrnPDx.s 			page 4


 131:Generated_Source\PSoC4/Cm0Start.c **** /* Application entry point. */
 132:Generated_Source\PSoC4/Cm0Start.c **** extern void $Super$$main(void);
 133:Generated_Source\PSoC4/Cm0Start.c **** 
 134:Generated_Source\PSoC4/Cm0Start.c **** /* Linker-generated Stack Base addresses, Two Region and One Region */
 135:Generated_Source\PSoC4/Cm0Start.c **** extern unsigned long Image$$ARM_LIB_STACK$$ZI$$Limit;
 136:Generated_Source\PSoC4/Cm0Start.c **** 
 137:Generated_Source\PSoC4/Cm0Start.c **** /* RealView C Library initialization. */
 138:Generated_Source\PSoC4/Cm0Start.c **** extern int __main(void);
 139:Generated_Source\PSoC4/Cm0Start.c **** 
 140:Generated_Source\PSoC4/Cm0Start.c **** 
 141:Generated_Source\PSoC4/Cm0Start.c **** /*******************************************************************************
 142:Generated_Source\PSoC4/Cm0Start.c **** * Function Name: Reset
 143:Generated_Source\PSoC4/Cm0Start.c **** ****************************************************************************//**
 144:Generated_Source\PSoC4/Cm0Start.c **** *
 145:Generated_Source\PSoC4/Cm0Start.c **** * This function handles the reset interrupt for the MDK toolchains.
 146:Generated_Source\PSoC4/Cm0Start.c **** * This is the first bit of code that is executed at startup.
 147:Generated_Source\PSoC4/Cm0Start.c **** *
 148:Generated_Source\PSoC4/Cm0Start.c **** *******************************************************************************/
 149:Generated_Source\PSoC4/Cm0Start.c **** void Reset(void)
 150:Generated_Source\PSoC4/Cm0Start.c **** {
 151:Generated_Source\PSoC4/Cm0Start.c ****     #if (CYDEV_PROJ_TYPE == CYDEV_PROJ_TYPE_LOADABLE || CYDEV_PROJ_TYPE == CYDEV_PROJ_TYPE_LOADABLE
 152:Generated_Source\PSoC4/Cm0Start.c ****         /* The bootloadable application image is started at Reset() handler
 153:Generated_Source\PSoC4/Cm0Start.c ****         * as a result of a branch instruction execution from the bootloader.
 154:Generated_Source\PSoC4/Cm0Start.c ****         * So, the stack pointer needs to be reset to be sure that
 155:Generated_Source\PSoC4/Cm0Start.c ****         * there is no garbage in the stack.
 156:Generated_Source\PSoC4/Cm0Start.c ****         */
 157:Generated_Source\PSoC4/Cm0Start.c ****         register uint32_t msp __asm("msp");
 158:Generated_Source\PSoC4/Cm0Start.c ****         msp = (uint32_t)&Image$$ARM_LIB_STACK$$ZI$$Limit;
 159:Generated_Source\PSoC4/Cm0Start.c ****     #endif /*(CYDEV_PROJ_TYPE == CYDEV_PROJ_TYPE_LOADABLE || CYDEV_PROJ_TYPE == CYDEV_PROJ_TYPE_LOA
 160:Generated_Source\PSoC4/Cm0Start.c **** 
 161:Generated_Source\PSoC4/Cm0Start.c ****     #if(CY_IP_SRSSLT)
 162:Generated_Source\PSoC4/Cm0Start.c ****         CySysWdtDisable();
 163:Generated_Source\PSoC4/Cm0Start.c ****     #endif  /* (CY_IP_SRSSLT) */
 164:Generated_Source\PSoC4/Cm0Start.c **** 
 165:Generated_Source\PSoC4/Cm0Start.c ****     #if ((CYDEV_BOOTLOADER_ENABLE) && (CYDEV_PROJ_TYPE != CYDEV_PROJ_TYPE_LOADABLEANDBOOTLOADER))
 166:Generated_Source\PSoC4/Cm0Start.c ****         CyBtldr_CheckLaunch();
 167:Generated_Source\PSoC4/Cm0Start.c ****     #endif /* ((CYDEV_BOOTLOADER_ENABLE) && (CYDEV_PROJ_TYPE != CYDEV_PROJ_TYPE_LOADABLEANDBOOTLOAD
 168:Generated_Source\PSoC4/Cm0Start.c **** 
 169:Generated_Source\PSoC4/Cm0Start.c ****     __main();
 170:Generated_Source\PSoC4/Cm0Start.c **** }
 171:Generated_Source\PSoC4/Cm0Start.c **** 
 172:Generated_Source\PSoC4/Cm0Start.c **** /*******************************************************************************
 173:Generated_Source\PSoC4/Cm0Start.c **** * Function Name: $Sub$$main
 174:Generated_Source\PSoC4/Cm0Start.c **** ****************************************************************************//**
 175:Generated_Source\PSoC4/Cm0Start.c **** *
 176:Generated_Source\PSoC4/Cm0Start.c **** * This function is called immediately before the users main
 177:Generated_Source\PSoC4/Cm0Start.c **** *
 178:Generated_Source\PSoC4/Cm0Start.c **** *******************************************************************************/
 179:Generated_Source\PSoC4/Cm0Start.c **** __attribute__ ((noreturn, __noinline__))
 180:Generated_Source\PSoC4/Cm0Start.c **** void $Sub$$main(void)
 181:Generated_Source\PSoC4/Cm0Start.c **** {
 182:Generated_Source\PSoC4/Cm0Start.c ****     initialize_psoc();
 183:Generated_Source\PSoC4/Cm0Start.c **** 
 184:Generated_Source\PSoC4/Cm0Start.c ****     /* Call original main */
 185:Generated_Source\PSoC4/Cm0Start.c ****     $Super$$main();
 186:Generated_Source\PSoC4/Cm0Start.c **** 
 187:Generated_Source\PSoC4/Cm0Start.c ****     while (1)
ARM GAS  C:\Users\g\AppData\Local\Temp\ccKrnPDx.s 			page 5


 188:Generated_Source\PSoC4/Cm0Start.c ****     {
 189:Generated_Source\PSoC4/Cm0Start.c ****         /* If main returns it is undefined what we should do. */
 190:Generated_Source\PSoC4/Cm0Start.c ****     }
 191:Generated_Source\PSoC4/Cm0Start.c **** }
 192:Generated_Source\PSoC4/Cm0Start.c **** 
 193:Generated_Source\PSoC4/Cm0Start.c **** #elif defined(__GNUC__)
 194:Generated_Source\PSoC4/Cm0Start.c **** 
 195:Generated_Source\PSoC4/Cm0Start.c **** /* Stack Base address */
 196:Generated_Source\PSoC4/Cm0Start.c **** extern void __cy_stack(void);
 197:Generated_Source\PSoC4/Cm0Start.c **** 
 198:Generated_Source\PSoC4/Cm0Start.c **** /* Application entry point. */
 199:Generated_Source\PSoC4/Cm0Start.c **** extern int main(void);
 200:Generated_Source\PSoC4/Cm0Start.c **** 
 201:Generated_Source\PSoC4/Cm0Start.c **** /* The static objects constructors initializer */
 202:Generated_Source\PSoC4/Cm0Start.c **** extern void __libc_init_array(void);
 203:Generated_Source\PSoC4/Cm0Start.c **** 
 204:Generated_Source\PSoC4/Cm0Start.c **** typedef unsigned char __cy_byte_align8 __attribute ((aligned (8)));
 205:Generated_Source\PSoC4/Cm0Start.c **** 
 206:Generated_Source\PSoC4/Cm0Start.c **** struct __cy_region
 207:Generated_Source\PSoC4/Cm0Start.c **** {
 208:Generated_Source\PSoC4/Cm0Start.c ****     __cy_byte_align8 *init; /* Initial contents of this region.  */
 209:Generated_Source\PSoC4/Cm0Start.c ****     __cy_byte_align8 *data; /* Start address of region.  */
 210:Generated_Source\PSoC4/Cm0Start.c ****     size_t init_size;       /* Size of initial data.  */
 211:Generated_Source\PSoC4/Cm0Start.c ****     size_t zero_size;       /* Additional size to be zeroed.  */
 212:Generated_Source\PSoC4/Cm0Start.c **** };
 213:Generated_Source\PSoC4/Cm0Start.c **** 
 214:Generated_Source\PSoC4/Cm0Start.c **** extern const struct __cy_region __cy_regions[];
 215:Generated_Source\PSoC4/Cm0Start.c **** extern const char __cy_region_num __attribute__((weak));
 216:Generated_Source\PSoC4/Cm0Start.c **** #define __cy_region_num ((size_t)&__cy_region_num)
 217:Generated_Source\PSoC4/Cm0Start.c **** 
 218:Generated_Source\PSoC4/Cm0Start.c **** 
 219:Generated_Source\PSoC4/Cm0Start.c **** /*******************************************************************************
 220:Generated_Source\PSoC4/Cm0Start.c **** * System Calls of the Red Hat newlib C Library
 221:Generated_Source\PSoC4/Cm0Start.c **** *******************************************************************************/
 222:Generated_Source\PSoC4/Cm0Start.c **** 
 223:Generated_Source\PSoC4/Cm0Start.c **** 
 224:Generated_Source\PSoC4/Cm0Start.c **** /*******************************************************************************
 225:Generated_Source\PSoC4/Cm0Start.c **** * Function Name: _exit
 226:Generated_Source\PSoC4/Cm0Start.c **** ****************************************************************************//**
 227:Generated_Source\PSoC4/Cm0Start.c **** *
 228:Generated_Source\PSoC4/Cm0Start.c **** * Exit a program without cleaning up files. If your system doesn't provide
 229:Generated_Source\PSoC4/Cm0Start.c **** * this, it is best to avoid linking with subroutines that require it (exit,
 230:Generated_Source\PSoC4/Cm0Start.c **** * system).
 231:Generated_Source\PSoC4/Cm0Start.c **** *
 232:Generated_Source\PSoC4/Cm0Start.c **** * \param status: Status caused program exit.
 233:Generated_Source\PSoC4/Cm0Start.c **** *
 234:Generated_Source\PSoC4/Cm0Start.c **** *******************************************************************************/
 235:Generated_Source\PSoC4/Cm0Start.c **** __attribute__((weak))
 236:Generated_Source\PSoC4/Cm0Start.c **** void _exit(int status)
 237:Generated_Source\PSoC4/Cm0Start.c **** {
  42              		.loc 1 237 0
  43              		.cfi_startproc
  44              	.LVL0:
  45 0000 08B5     		push	{r3, lr}
  46              		.cfi_def_cfa_offset 8
  47              		.cfi_offset 3, -8
  48              		.cfi_offset 14, -4
ARM GAS  C:\Users\g\AppData\Local\Temp\ccKrnPDx.s 			page 6


 238:Generated_Source\PSoC4/Cm0Start.c ****     CyHalt((uint8) status);
  49              		.loc 1 238 0
  50 0002 C0B2     		uxtb	r0, r0
  51              	.LVL1:
  52 0004 FFF7FEFF 		bl	CyHalt
  53              	.LVL2:
  54              	.L4:
 239:Generated_Source\PSoC4/Cm0Start.c **** 
 240:Generated_Source\PSoC4/Cm0Start.c ****     while(1)
 241:Generated_Source\PSoC4/Cm0Start.c ****     {
 242:Generated_Source\PSoC4/Cm0Start.c **** 
 243:Generated_Source\PSoC4/Cm0Start.c ****     }
  55              		.loc 1 243 0 discriminator 1
  56 0008 FEE7     		b	.L4
  57              		.cfi_endproc
  58              	.LFE1:
  59              		.size	_exit, .-_exit
  60 000a C046     		.section	.text._sbrk,"ax",%progbits
  61              		.align	2
  62              		.weak	_sbrk
  63              		.code	16
  64              		.thumb_func
  65              		.type	_sbrk, %function
  66              	_sbrk:
  67              	.LFB2:
 244:Generated_Source\PSoC4/Cm0Start.c **** }
 245:Generated_Source\PSoC4/Cm0Start.c **** 
 246:Generated_Source\PSoC4/Cm0Start.c **** 
 247:Generated_Source\PSoC4/Cm0Start.c **** /*******************************************************************************
 248:Generated_Source\PSoC4/Cm0Start.c **** * Function Name: _sbrk
 249:Generated_Source\PSoC4/Cm0Start.c **** ****************************************************************************//**
 250:Generated_Source\PSoC4/Cm0Start.c **** *
 251:Generated_Source\PSoC4/Cm0Start.c **** * Increase program data space. As malloc and related functions depend on this,
 252:Generated_Source\PSoC4/Cm0Start.c **** * it is useful to have a working implementation. The following suffices for a
 253:Generated_Source\PSoC4/Cm0Start.c **** * standalone system; it exploits the symbol end automatically defined by the
 254:Generated_Source\PSoC4/Cm0Start.c **** * GNU linker.
 255:Generated_Source\PSoC4/Cm0Start.c **** *
 256:Generated_Source\PSoC4/Cm0Start.c **** * \param nbytes: The number of bytes requested (if the parameter value is positive)
 257:Generated_Source\PSoC4/Cm0Start.c **** * from the heap or returned back to the heap (if the parameter value is
 258:Generated_Source\PSoC4/Cm0Start.c **** * negative).
 259:Generated_Source\PSoC4/Cm0Start.c **** *
 260:Generated_Source\PSoC4/Cm0Start.c **** *******************************************************************************/
 261:Generated_Source\PSoC4/Cm0Start.c **** __attribute__((weak))
 262:Generated_Source\PSoC4/Cm0Start.c **** void * _sbrk (int nbytes)
 263:Generated_Source\PSoC4/Cm0Start.c **** {
  68              		.loc 1 263 0
  69              		.cfi_startproc
  70              	.LVL3:
  71 0000 08B5     		push	{r3, lr}
  72              		.cfi_def_cfa_offset 8
  73              		.cfi_offset 3, -8
  74              		.cfi_offset 14, -4
  75              		.loc 1 263 0
  76 0002 031C     		mov	r3, r0
 264:Generated_Source\PSoC4/Cm0Start.c ****     extern int  end;            /* Symbol defined by linker map. Start of free memory (as symbol). 
 265:Generated_Source\PSoC4/Cm0Start.c ****     void *      returnValue;
 266:Generated_Source\PSoC4/Cm0Start.c **** 
ARM GAS  C:\Users\g\AppData\Local\Temp\ccKrnPDx.s 			page 7


 267:Generated_Source\PSoC4/Cm0Start.c ****     /* The statically held previous end of the heap, with its initialization. */
 268:Generated_Source\PSoC4/Cm0Start.c ****     static void *heapPointer = (void *) &end;                 /* Previous end */
 269:Generated_Source\PSoC4/Cm0Start.c **** 
 270:Generated_Source\PSoC4/Cm0Start.c ****     if (((heapPointer + nbytes) - (void *) &end) <= CYDEV_HEAP_SIZE)
  77              		.loc 1 270 0
  78 0004 0749     		ldr	r1, .L9
  79 0006 084A     		ldr	r2, .L9+4
  80 0008 0868     		ldr	r0, [r1]
  81              	.LVL4:
  82 000a C318     		add	r3, r0, r3
  83              	.LVL5:
  84 000c 9A1A     		sub	r2, r3, r2
  85 000e 202A     		cmp	r2, #32
  86 0010 01DC     		bgt	.L7
  87              	.LVL6:
 271:Generated_Source\PSoC4/Cm0Start.c ****     {
 272:Generated_Source\PSoC4/Cm0Start.c ****         returnValue  = heapPointer;
 273:Generated_Source\PSoC4/Cm0Start.c ****         heapPointer += nbytes;
  88              		.loc 1 273 0
  89 0012 0B60     		str	r3, [r1]
  90              	.LVL7:
  91              	.L8:
 274:Generated_Source\PSoC4/Cm0Start.c ****     }
 275:Generated_Source\PSoC4/Cm0Start.c ****     else
 276:Generated_Source\PSoC4/Cm0Start.c ****     {
 277:Generated_Source\PSoC4/Cm0Start.c ****         errno = ENOMEM;
 278:Generated_Source\PSoC4/Cm0Start.c ****         returnValue = (void *) -1;
 279:Generated_Source\PSoC4/Cm0Start.c ****     }
 280:Generated_Source\PSoC4/Cm0Start.c **** 
 281:Generated_Source\PSoC4/Cm0Start.c ****     return (returnValue);
 282:Generated_Source\PSoC4/Cm0Start.c **** }
  92              		.loc 1 282 0
  93              		@ sp needed
  94 0014 08BD     		pop	{r3, pc}
  95              	.LVL8:
  96              	.L7:
 277:Generated_Source\PSoC4/Cm0Start.c ****         returnValue = (void *) -1;
  97              		.loc 1 277 0
  98 0016 FFF7FEFF 		bl	__errno
  99              	.LVL9:
 100 001a 0C23     		mov	r3, #12
 101 001c 0360     		str	r3, [r0]
 102              	.LVL10:
 278:Generated_Source\PSoC4/Cm0Start.c ****     }
 103              		.loc 1 278 0
 104 001e 0120     		mov	r0, #1
 105 0020 4042     		neg	r0, r0
 106 0022 F7E7     		b	.L8
 107              	.L10:
 108              		.align	2
 109              	.L9:
 110 0024 00000000 		.word	.LANCHOR0
 111 0028 00000000 		.word	end
 112              		.cfi_endproc
 113              	.LFE2:
 114              		.size	_sbrk, .-_sbrk
 115              		.section	.text.Start_c,"ax",%progbits
ARM GAS  C:\Users\g\AppData\Local\Temp\ccKrnPDx.s 			page 8


 116              		.align	2
 117              		.global	Start_c
 118              		.code	16
 119              		.thumb_func
 120              		.type	Start_c, %function
 121              	Start_c:
 122              	.LFB3:
 283:Generated_Source\PSoC4/Cm0Start.c **** 
 284:Generated_Source\PSoC4/Cm0Start.c **** 
 285:Generated_Source\PSoC4/Cm0Start.c **** /*******************************************************************************
 286:Generated_Source\PSoC4/Cm0Start.c **** * Function Name: Start_c
 287:Generated_Source\PSoC4/Cm0Start.c **** ****************************************************************************//**
 288:Generated_Source\PSoC4/Cm0Start.c **** *
 289:Generated_Source\PSoC4/Cm0Start.c **** * This function handles initializing the .data and .bss sections in
 290:Generated_Source\PSoC4/Cm0Start.c **** * preparation for running the standard c code.  Once initialization is complete
 291:Generated_Source\PSoC4/Cm0Start.c **** * it will call main().  This function will never return.
 292:Generated_Source\PSoC4/Cm0Start.c **** *
 293:Generated_Source\PSoC4/Cm0Start.c **** *******************************************************************************/
 294:Generated_Source\PSoC4/Cm0Start.c **** void Start_c(void)  __attribute__ ((noreturn, noinline));
 295:Generated_Source\PSoC4/Cm0Start.c **** void Start_c(void)
 296:Generated_Source\PSoC4/Cm0Start.c **** {
 123              		.loc 1 296 0
 124              		.cfi_startproc
 125              	.LVL11:
 126 0000 F8B5     		push	{r3, r4, r5, r6, r7, lr}
 127              		.cfi_def_cfa_offset 24
 128              		.cfi_offset 3, -24
 129              		.cfi_offset 4, -20
 130              		.cfi_offset 5, -16
 131              		.cfi_offset 6, -12
 132              		.cfi_offset 7, -8
 133              		.cfi_offset 14, -4
 297:Generated_Source\PSoC4/Cm0Start.c ****     #ifdef CY_BOOT_START_C_CALLBACK
 298:Generated_Source\PSoC4/Cm0Start.c ****         CyBoot_Start_c_Callback();
 299:Generated_Source\PSoC4/Cm0Start.c ****     #else
 300:Generated_Source\PSoC4/Cm0Start.c ****         unsigned regions = __cy_region_num;
 301:Generated_Source\PSoC4/Cm0Start.c ****         const struct __cy_region *rptr = __cy_regions;
 302:Generated_Source\PSoC4/Cm0Start.c **** 
 303:Generated_Source\PSoC4/Cm0Start.c ****         /* Initialize memory */
 304:Generated_Source\PSoC4/Cm0Start.c ****         for (regions = __cy_region_num; regions != 0u; regions--)
 134              		.loc 1 304 0
 135 0002 104E     		ldr	r6, .L28
 136              	.LVL12:
 137 0004 002E     		cmp	r6, #0
 138 0006 18D0     		beq	.L18
 139              	.LBB2:
 305:Generated_Source\PSoC4/Cm0Start.c ****         {
 306:Generated_Source\PSoC4/Cm0Start.c ****             uint32 *src = (uint32 *)rptr->init;
 307:Generated_Source\PSoC4/Cm0Start.c ****             uint32 *dst = (uint32 *)rptr->data;
 308:Generated_Source\PSoC4/Cm0Start.c ****             unsigned limit = rptr->init_size;
 309:Generated_Source\PSoC4/Cm0Start.c ****             unsigned count;
 310:Generated_Source\PSoC4/Cm0Start.c **** 
 311:Generated_Source\PSoC4/Cm0Start.c ****             for (count = 0u; count != limit; count += sizeof (uint32))
 140              		.loc 1 311 0
 141 0008 0020     		mov	r0, #0
 142              	.LBE2:
 304:Generated_Source\PSoC4/Cm0Start.c ****         {
ARM GAS  C:\Users\g\AppData\Local\Temp\ccKrnPDx.s 			page 9


 143              		.loc 1 304 0
 144 000a 0F4D     		ldr	r5, .L28+4
 145              	.LVL13:
 146              	.L17:
 147              	.LBB3:
 308:Generated_Source\PSoC4/Cm0Start.c ****             unsigned count;
 148              		.loc 1 308 0
 149 000c A968     		ldr	r1, [r5, #8]
 306:Generated_Source\PSoC4/Cm0Start.c ****             uint32 *dst = (uint32 *)rptr->data;
 150              		.loc 1 306 0
 151 000e 2C68     		ldr	r4, [r5]
 152              	.LVL14:
 307:Generated_Source\PSoC4/Cm0Start.c ****             unsigned limit = rptr->init_size;
 153              		.loc 1 307 0
 154 0010 6A68     		ldr	r2, [r5, #4]
 155              	.LVL15:
 156              		.loc 1 311 0
 157 0012 0029     		cmp	r1, #0
 158 0014 05D0     		beq	.L14
 159              		.loc 1 311 0 is_stmt 0 discriminator 3
 160 0016 0023     		mov	r3, #0
 161              	.LVL16:
 162              	.L15:
 312:Generated_Source\PSoC4/Cm0Start.c ****             {
 313:Generated_Source\PSoC4/Cm0Start.c ****                 *dst = *src;
 163              		.loc 1 313 0 is_stmt 1 discriminator 3
 164 0018 E758     		ldr	r7, [r4, r3]
 311:Generated_Source\PSoC4/Cm0Start.c ****             {
 165              		.loc 1 311 0 discriminator 3
 166 001a 0433     		add	r3, r3, #4
 167              	.LVL17:
 168              		.loc 1 313 0 discriminator 3
 169 001c 80C2     		stmia	r2!, {r7}
 170              	.LVL18:
 311:Generated_Source\PSoC4/Cm0Start.c ****             {
 171              		.loc 1 311 0 discriminator 3
 172 001e 9942     		cmp	r1, r3
 173 0020 FAD1     		bne	.L15
 174              	.LVL19:
 175              	.L14:
 314:Generated_Source\PSoC4/Cm0Start.c ****                 dst++;
 315:Generated_Source\PSoC4/Cm0Start.c ****                 src++;
 316:Generated_Source\PSoC4/Cm0Start.c ****             }
 317:Generated_Source\PSoC4/Cm0Start.c ****             limit = rptr->zero_size;
 176              		.loc 1 317 0
 177 0022 E968     		ldr	r1, [r5, #12]
 178              	.LVL20:
 318:Generated_Source\PSoC4/Cm0Start.c ****             for (count = 0u; count != limit; count += sizeof (uint32))
 179              		.loc 1 318 0
 180 0024 0023     		mov	r3, #0
 181 0026 0029     		cmp	r1, #0
 182 0028 03D0     		beq	.L19
 183              	.LVL21:
 184              	.L23:
 319:Generated_Source\PSoC4/Cm0Start.c ****             {
 320:Generated_Source\PSoC4/Cm0Start.c ****                 *dst = 0u;
 185              		.loc 1 320 0 discriminator 3
ARM GAS  C:\Users\g\AppData\Local\Temp\ccKrnPDx.s 			page 10


 186 002a D050     		str	r0, [r2, r3]
 187              	.LVL22:
 318:Generated_Source\PSoC4/Cm0Start.c ****             for (count = 0u; count != limit; count += sizeof (uint32))
 188              		.loc 1 318 0 discriminator 3
 189 002c 0433     		add	r3, r3, #4
 190              	.LVL23:
 191 002e 9942     		cmp	r1, r3
 192 0030 FBD1     		bne	.L23
 193              	.LVL24:
 194              	.L19:
 195              	.LBE3:
 304:Generated_Source\PSoC4/Cm0Start.c ****         {
 196              		.loc 1 304 0
 197 0032 013E     		sub	r6, r6, #1
 198              	.LVL25:
 199              	.LBB4:
 321:Generated_Source\PSoC4/Cm0Start.c ****                 dst++;
 322:Generated_Source\PSoC4/Cm0Start.c ****             }
 323:Generated_Source\PSoC4/Cm0Start.c **** 
 324:Generated_Source\PSoC4/Cm0Start.c ****             rptr++;
 200              		.loc 1 324 0
 201 0034 1035     		add	r5, r5, #16
 202              	.LVL26:
 203              	.LBE4:
 304:Generated_Source\PSoC4/Cm0Start.c ****         {
 204              		.loc 1 304 0
 205 0036 002E     		cmp	r6, #0
 206 0038 E8D1     		bne	.L17
 207              	.LVL27:
 208              	.L18:
 325:Generated_Source\PSoC4/Cm0Start.c ****         }
 326:Generated_Source\PSoC4/Cm0Start.c **** 
 327:Generated_Source\PSoC4/Cm0Start.c ****         /* Invoke static objects constructors */
 328:Generated_Source\PSoC4/Cm0Start.c ****         __libc_init_array();
 209              		.loc 1 328 0
 210 003a FFF7FEFF 		bl	__libc_init_array
 211              	.LVL28:
 329:Generated_Source\PSoC4/Cm0Start.c ****         (void) main();
 212              		.loc 1 329 0
 213 003e FFF7FEFF 		bl	main
 214              	.LVL29:
 215              	.L13:
 330:Generated_Source\PSoC4/Cm0Start.c **** 
 331:Generated_Source\PSoC4/Cm0Start.c ****         while (1)
 332:Generated_Source\PSoC4/Cm0Start.c ****         {
 333:Generated_Source\PSoC4/Cm0Start.c ****             /* If main returns, make sure we don't return. */
 334:Generated_Source\PSoC4/Cm0Start.c ****         }
 216              		.loc 1 334 0 discriminator 1
 217 0042 FEE7     		b	.L13
 218              	.L29:
 219              		.align	2
 220              	.L28:
 221 0044 00000000 		.word	__cy_region_num
 222 0048 00000000 		.word	__cy_regions
 223              		.cfi_endproc
 224              	.LFE3:
 225              		.size	Start_c, .-Start_c
ARM GAS  C:\Users\g\AppData\Local\Temp\ccKrnPDx.s 			page 11


 226              		.section	.text.Reset,"ax",%progbits
 227              		.align	2
 228              		.global	Reset
 229              		.code	16
 230              		.thumb_func
 231              		.type	Reset, %function
 232              	Reset:
 233              	.LFB4:
 335:Generated_Source\PSoC4/Cm0Start.c **** 
 336:Generated_Source\PSoC4/Cm0Start.c ****     #endif /* CY_BOOT_START_C_CALLBACK */
 337:Generated_Source\PSoC4/Cm0Start.c **** }
 338:Generated_Source\PSoC4/Cm0Start.c **** 
 339:Generated_Source\PSoC4/Cm0Start.c **** 
 340:Generated_Source\PSoC4/Cm0Start.c **** /*******************************************************************************
 341:Generated_Source\PSoC4/Cm0Start.c **** * Function Name: Reset
 342:Generated_Source\PSoC4/Cm0Start.c **** ****************************************************************************//**
 343:Generated_Source\PSoC4/Cm0Start.c **** *
 344:Generated_Source\PSoC4/Cm0Start.c **** * This function handles the reset interrupt for the GCC toolchain.  This is
 345:Generated_Source\PSoC4/Cm0Start.c **** * the first bit of code that is executed at startup.
 346:Generated_Source\PSoC4/Cm0Start.c **** *
 347:Generated_Source\PSoC4/Cm0Start.c **** *******************************************************************************/
 348:Generated_Source\PSoC4/Cm0Start.c **** void Reset(void)
 349:Generated_Source\PSoC4/Cm0Start.c **** {
 234              		.loc 1 349 0
 235              		.cfi_startproc
 236 0000 08B5     		push	{r3, lr}
 237              		.cfi_def_cfa_offset 8
 238              		.cfi_offset 3, -8
 239              		.cfi_offset 14, -4
 350:Generated_Source\PSoC4/Cm0Start.c ****     #if (CYDEV_PROJ_TYPE == CYDEV_PROJ_TYPE_LOADABLE || CYDEV_PROJ_TYPE == CYDEV_PROJ_TYPE_LOADABLE
 351:Generated_Source\PSoC4/Cm0Start.c **** 
 352:Generated_Source\PSoC4/Cm0Start.c ****         /* The bootloadable application image is started at Reset() handler
 353:Generated_Source\PSoC4/Cm0Start.c ****         * as a result of a branch instruction execution from the bootloader.
 354:Generated_Source\PSoC4/Cm0Start.c ****         * So, the stack pointer needs to be reset to be sure that
 355:Generated_Source\PSoC4/Cm0Start.c ****         * there is no garbage in the stack.
 356:Generated_Source\PSoC4/Cm0Start.c ****         */
 357:Generated_Source\PSoC4/Cm0Start.c ****         __asm volatile ("MSR msp, %0\n" : : "r" ((uint32)&__cy_stack) : "sp");
 240              		.loc 1 357 0
 241 0002 024B     		ldr	r3, .L31
 242              	@ 357 "Generated_Source\PSoC4\Cm0Start.c" 1
 243 0004 83F30888 		MSR msp, r3
 244              	
 245              	@ 0 "" 2
 358:Generated_Source\PSoC4/Cm0Start.c ****     #endif /* CYDEV_PROJ_TYPE_LOADABLE */
 359:Generated_Source\PSoC4/Cm0Start.c **** 
 360:Generated_Source\PSoC4/Cm0Start.c ****     #if(CY_IP_SRSSLT)
 361:Generated_Source\PSoC4/Cm0Start.c ****         CySysWdtDisable();
 362:Generated_Source\PSoC4/Cm0Start.c ****     #endif  /* (CY_IP_SRSSLT) */
 363:Generated_Source\PSoC4/Cm0Start.c **** 
 364:Generated_Source\PSoC4/Cm0Start.c ****     #if ((CYDEV_BOOTLOADER_ENABLE) && (CYDEV_PROJ_TYPE != CYDEV_PROJ_TYPE_LOADABLEANDBOOTLOADER))
 365:Generated_Source\PSoC4/Cm0Start.c ****         CyBtldr_CheckLaunch();
 366:Generated_Source\PSoC4/Cm0Start.c ****     #endif /* ((CYDEV_BOOTLOADER_ENABLE) && (CYDEV_PROJ_TYPE != CYDEV_PROJ_TYPE_LOADABLEANDBOOTLOAD
 367:Generated_Source\PSoC4/Cm0Start.c ****     Start_c();
 246              		.loc 1 367 0
 247              		.code	16
 248 0008 FFF7FEFF 		bl	Start_c
 249              	.LVL30:
ARM GAS  C:\Users\g\AppData\Local\Temp\ccKrnPDx.s 			page 12


 250              	.L32:
 251              		.align	2
 252              	.L31:
 253 000c 00000000 		.word	__cy_stack
 254              		.cfi_endproc
 255              	.LFE4:
 256              		.size	Reset, .-Reset
 257              		.section	.text.startup.initialize_psoc,"ax",%progbits
 258              		.align	2
 259              		.global	initialize_psoc
 260              		.code	16
 261              		.thumb_func
 262              		.type	initialize_psoc, %function
 263              	initialize_psoc:
 264              	.LFB5:
 368:Generated_Source\PSoC4/Cm0Start.c **** }
 369:Generated_Source\PSoC4/Cm0Start.c **** 
 370:Generated_Source\PSoC4/Cm0Start.c **** #elif defined (__ICCARM__)
 371:Generated_Source\PSoC4/Cm0Start.c **** 
 372:Generated_Source\PSoC4/Cm0Start.c **** 
 373:Generated_Source\PSoC4/Cm0Start.c **** /*******************************************************************************
 374:Generated_Source\PSoC4/Cm0Start.c **** * Function Name: __low_level_init
 375:Generated_Source\PSoC4/Cm0Start.c **** ****************************************************************************//**
 376:Generated_Source\PSoC4/Cm0Start.c **** *
 377:Generated_Source\PSoC4/Cm0Start.c **** * This function performs early initializations for the IAR Embedded
 378:Generated_Source\PSoC4/Cm0Start.c **** * Workbench IDE. It is executed in the context of reset interrupt handler
 379:Generated_Source\PSoC4/Cm0Start.c **** * before the data sections are initialized.
 380:Generated_Source\PSoC4/Cm0Start.c **** *
 381:Generated_Source\PSoC4/Cm0Start.c **** * \return The value that determines whether or not data sections should be
 382:Generated_Source\PSoC4/Cm0Start.c **** * initialized by the system startup code:
 383:Generated_Source\PSoC4/Cm0Start.c **** *    0 - skip data sections initialization;
 384:Generated_Source\PSoC4/Cm0Start.c **** *    1 - initialize data sections;
 385:Generated_Source\PSoC4/Cm0Start.c **** *
 386:Generated_Source\PSoC4/Cm0Start.c **** *******************************************************************************/
 387:Generated_Source\PSoC4/Cm0Start.c **** #pragma inline = never
 388:Generated_Source\PSoC4/Cm0Start.c **** int __low_level_init(void)
 389:Generated_Source\PSoC4/Cm0Start.c **** {
 390:Generated_Source\PSoC4/Cm0Start.c ****     #if(CY_IP_SRSSLT)
 391:Generated_Source\PSoC4/Cm0Start.c ****         CySysWdtDisable();
 392:Generated_Source\PSoC4/Cm0Start.c ****     #endif  /* (CY_IP_SRSSLT) */
 393:Generated_Source\PSoC4/Cm0Start.c **** 
 394:Generated_Source\PSoC4/Cm0Start.c **** #if ((CYDEV_BOOTLOADER_ENABLE) && (CYDEV_PROJ_TYPE != CYDEV_PROJ_TYPE_LOADABLEANDBOOTLOADER))
 395:Generated_Source\PSoC4/Cm0Start.c ****     CyBtldr_CheckLaunch();
 396:Generated_Source\PSoC4/Cm0Start.c **** #endif /* ((CYDEV_BOOTLOADER_ENABLE) && (CYDEV_PROJ_TYPE != CYDEV_PROJ_TYPE_LOADABLEANDBOOTLOADER))
 397:Generated_Source\PSoC4/Cm0Start.c **** 
 398:Generated_Source\PSoC4/Cm0Start.c ****     /* Initialize data sections */
 399:Generated_Source\PSoC4/Cm0Start.c ****     __iar_data_init3();
 400:Generated_Source\PSoC4/Cm0Start.c **** 
 401:Generated_Source\PSoC4/Cm0Start.c ****     initialize_psoc();
 402:Generated_Source\PSoC4/Cm0Start.c **** 
 403:Generated_Source\PSoC4/Cm0Start.c ****     return 0;
 404:Generated_Source\PSoC4/Cm0Start.c **** }
 405:Generated_Source\PSoC4/Cm0Start.c **** 
 406:Generated_Source\PSoC4/Cm0Start.c **** #endif /* __GNUC__ */
 407:Generated_Source\PSoC4/Cm0Start.c **** 
 408:Generated_Source\PSoC4/Cm0Start.c **** 
 409:Generated_Source\PSoC4/Cm0Start.c **** /*******************************************************************************
ARM GAS  C:\Users\g\AppData\Local\Temp\ccKrnPDx.s 			page 13


 410:Generated_Source\PSoC4/Cm0Start.c **** * Ram Interrupt Vector table storage area. Must be placed at 0x20000000.
 411:Generated_Source\PSoC4/Cm0Start.c **** *******************************************************************************/
 412:Generated_Source\PSoC4/Cm0Start.c **** 
 413:Generated_Source\PSoC4/Cm0Start.c **** #if defined (__ICCARM__)
 414:Generated_Source\PSoC4/Cm0Start.c ****     #pragma location=".ramvectors"
 415:Generated_Source\PSoC4/Cm0Start.c **** #else
 416:Generated_Source\PSoC4/Cm0Start.c ****     #ifndef CY_SYS_RAM_VECTOR_SECTION
 417:Generated_Source\PSoC4/Cm0Start.c ****         #define CY_SYS_RAM_VECTOR_SECTION CY_SECTION(".ramvectors")
 418:Generated_Source\PSoC4/Cm0Start.c ****     #endif /* CY_SYS_RAM_VECTOR_SECTION */
 419:Generated_Source\PSoC4/Cm0Start.c ****     CY_SYS_RAM_VECTOR_SECTION
 420:Generated_Source\PSoC4/Cm0Start.c **** #endif  /* defined (__ICCARM__) */
 421:Generated_Source\PSoC4/Cm0Start.c **** cyisraddress CyRamVectors[CY_NUM_VECTORS];
 422:Generated_Source\PSoC4/Cm0Start.c **** 
 423:Generated_Source\PSoC4/Cm0Start.c **** 
 424:Generated_Source\PSoC4/Cm0Start.c **** /*******************************************************************************
 425:Generated_Source\PSoC4/Cm0Start.c **** * Rom Interrupt Vector table storage area. Must be 256-byte aligned.
 426:Generated_Source\PSoC4/Cm0Start.c **** *******************************************************************************/
 427:Generated_Source\PSoC4/Cm0Start.c **** 
 428:Generated_Source\PSoC4/Cm0Start.c **** #if defined(__ARMCC_VERSION)
 429:Generated_Source\PSoC4/Cm0Start.c ****     /* Suppress diagnostic message 1296-D: extended constant initialiser used */
 430:Generated_Source\PSoC4/Cm0Start.c ****     #pragma diag_suppress 1296
 431:Generated_Source\PSoC4/Cm0Start.c **** #endif  /* defined(__ARMCC_VERSION) */
 432:Generated_Source\PSoC4/Cm0Start.c **** 
 433:Generated_Source\PSoC4/Cm0Start.c **** #if defined (__ICCARM__)
 434:Generated_Source\PSoC4/Cm0Start.c ****     #pragma location=".romvectors"
 435:Generated_Source\PSoC4/Cm0Start.c ****     const intvec_elem __vector_table[CY_NUM_ROM_VECTORS] =
 436:Generated_Source\PSoC4/Cm0Start.c **** #else
 437:Generated_Source\PSoC4/Cm0Start.c ****     #ifndef CY_SYS_ROM_VECTOR_SECTION
 438:Generated_Source\PSoC4/Cm0Start.c ****         #define CY_SYS_ROM_VECTOR_SECTION CY_SECTION(".romvectors")
 439:Generated_Source\PSoC4/Cm0Start.c ****     #endif /* CY_SYS_ROM_VECTOR_SECTION */
 440:Generated_Source\PSoC4/Cm0Start.c ****     CY_SYS_ROM_VECTOR_SECTION
 441:Generated_Source\PSoC4/Cm0Start.c ****     const cyisraddress RomVectors[CY_NUM_ROM_VECTORS] =
 442:Generated_Source\PSoC4/Cm0Start.c **** #endif  /* defined (__ICCARM__) */
 443:Generated_Source\PSoC4/Cm0Start.c **** {
 444:Generated_Source\PSoC4/Cm0Start.c ****     CY_SYS_INITIAL_STACK_POINTER,   /* The initial stack pointer  0 */
 445:Generated_Source\PSoC4/Cm0Start.c ****     #if defined (__ICCARM__) /* The reset handler          1 */
 446:Generated_Source\PSoC4/Cm0Start.c ****         __iar_program_start,
 447:Generated_Source\PSoC4/Cm0Start.c ****     #else
 448:Generated_Source\PSoC4/Cm0Start.c ****         (cyisraddress)&Reset,
 449:Generated_Source\PSoC4/Cm0Start.c ****     #endif  /* defined (__ICCARM__) */
 450:Generated_Source\PSoC4/Cm0Start.c ****     &IntDefaultHandler,      /* The NMI handler            2 */
 451:Generated_Source\PSoC4/Cm0Start.c ****     &IntDefaultHandler,      /* The hard fault handler     3 */
 452:Generated_Source\PSoC4/Cm0Start.c **** };
 453:Generated_Source\PSoC4/Cm0Start.c **** 
 454:Generated_Source\PSoC4/Cm0Start.c **** #if defined(__ARMCC_VERSION)
 455:Generated_Source\PSoC4/Cm0Start.c ****     #pragma diag_default 1296
 456:Generated_Source\PSoC4/Cm0Start.c **** #endif  /* defined(__ARMCC_VERSION) */
 457:Generated_Source\PSoC4/Cm0Start.c **** 
 458:Generated_Source\PSoC4/Cm0Start.c **** 
 459:Generated_Source\PSoC4/Cm0Start.c **** /*******************************************************************************
 460:Generated_Source\PSoC4/Cm0Start.c **** * Function Name: initialize_psoc
 461:Generated_Source\PSoC4/Cm0Start.c **** ****************************************************************************//**
 462:Generated_Source\PSoC4/Cm0Start.c **** *
 463:Generated_Source\PSoC4/Cm0Start.c **** * This function is used to initialize the PSoC chip before calling main.
 464:Generated_Source\PSoC4/Cm0Start.c **** *
 465:Generated_Source\PSoC4/Cm0Start.c **** *******************************************************************************/
 466:Generated_Source\PSoC4/Cm0Start.c **** #if(defined(__GNUC__) && !defined(__ARMCC_VERSION))
ARM GAS  C:\Users\g\AppData\Local\Temp\ccKrnPDx.s 			page 14


 467:Generated_Source\PSoC4/Cm0Start.c **** __attribute__ ((constructor(101)))
 468:Generated_Source\PSoC4/Cm0Start.c **** #endif  /* (defined(__GNUC__) && !defined(__ARMCC_VERSION)) */
 469:Generated_Source\PSoC4/Cm0Start.c **** void initialize_psoc(void)
 470:Generated_Source\PSoC4/Cm0Start.c **** {
 265              		.loc 1 470 0
 266              		.cfi_startproc
 267              	.LVL31:
 268 0000 38B5     		push	{r3, r4, r5, lr}
 269              		.cfi_def_cfa_offset 16
 270              		.cfi_offset 3, -16
 271              		.cfi_offset 4, -12
 272              		.cfi_offset 5, -8
 273              		.cfi_offset 14, -4
 274              		.loc 1 470 0
 275 0002 0022     		mov	r2, #0
 471:Generated_Source\PSoC4/Cm0Start.c ****     uint32 indexInit;
 472:Generated_Source\PSoC4/Cm0Start.c **** 
 473:Generated_Source\PSoC4/Cm0Start.c ****     #if(CY_IP_CPUSSV2)
 474:Generated_Source\PSoC4/Cm0Start.c ****         #if (CY_IP_CPUSS_CM0)
 475:Generated_Source\PSoC4/Cm0Start.c ****             /***********************************************************************
 476:Generated_Source\PSoC4/Cm0Start.c ****             * Make sure that Vector Table is located at 0000_0000 in Flash, before
 477:Generated_Source\PSoC4/Cm0Start.c ****             * accessing RomVectors or calling functions that may be placed in
 478:Generated_Source\PSoC4/Cm0Start.c ****             * .psocinit (cyfitter_cfg and ClockSetup). Note The CY_CPUSS_CONFIG_REG
 479:Generated_Source\PSoC4/Cm0Start.c ****             * register is retention for the specified device family.
 480:Generated_Source\PSoC4/Cm0Start.c ****             ***********************************************************************/
 481:Generated_Source\PSoC4/Cm0Start.c ****             CY_CPUSS_CONFIG_REG &= (uint32) ~CY_CPUSS_CONFIG_VECT_IN_RAM;
 482:Generated_Source\PSoC4/Cm0Start.c ****         #endif /* (CY_IP_CPUSS_CM0) */
 483:Generated_Source\PSoC4/Cm0Start.c ****     #endif  /* (CY_IP_CPUSSV2) */
 484:Generated_Source\PSoC4/Cm0Start.c **** 
 485:Generated_Source\PSoC4/Cm0Start.c ****     /* Set Ram interrupt vectors to default functions. */
 486:Generated_Source\PSoC4/Cm0Start.c ****     for (indexInit = 0u; indexInit < CY_NUM_VECTORS; indexInit++)
 276              		.loc 1 486 0
 277 0004 0023     		mov	r3, #0
 278 0006 114C     		ldr	r4, .L40
 487:Generated_Source\PSoC4/Cm0Start.c ****     {
 488:Generated_Source\PSoC4/Cm0Start.c ****         CyRamVectors[indexInit] = (indexInit < CY_NUM_ROM_VECTORS) ?
 489:Generated_Source\PSoC4/Cm0Start.c ****             #if defined (__ICCARM__)
 490:Generated_Source\PSoC4/Cm0Start.c ****                 __vector_table[indexInit].__fun : &IntDefaultHandler;
 491:Generated_Source\PSoC4/Cm0Start.c ****             #else
 492:Generated_Source\PSoC4/Cm0Start.c ****                 RomVectors[indexInit] : &IntDefaultHandler;
 279              		.loc 1 492 0
 280 0008 1148     		ldr	r0, .L40+4
 281 000a 124D     		ldr	r5, .L40+8
 282 000c 04E0     		b	.L35
 283              	.LVL32:
 284              	.L34:
 486:Generated_Source\PSoC4/Cm0Start.c ****     {
 285              		.loc 1 486 0 discriminator 2
 286 000e 0133     		add	r3, r3, #1
 287              	.LVL33:
 488:Generated_Source\PSoC4/Cm0Start.c ****             #if defined (__ICCARM__)
 288              		.loc 1 488 0 discriminator 2
 289 0010 A150     		str	r1, [r4, r2]
 290 0012 0432     		add	r2, r2, #4
 486:Generated_Source\PSoC4/Cm0Start.c ****     {
 291              		.loc 1 486 0 discriminator 2
 292 0014 302B     		cmp	r3, #48
ARM GAS  C:\Users\g\AppData\Local\Temp\ccKrnPDx.s 			page 15


 293 0016 08D0     		beq	.L39
 294              	.LVL34:
 295              	.L35:
 296              		.loc 1 492 0
 297 0018 011C     		mov	r1, r0
 298 001a 032B     		cmp	r3, #3
 299 001c F7D8     		bhi	.L34
 300              		.loc 1 492 0 is_stmt 0 discriminator 1
 301 001e 5159     		ldr	r1, [r2, r5]
 486:Generated_Source\PSoC4/Cm0Start.c ****     {
 302              		.loc 1 486 0 is_stmt 1 discriminator 1
 303 0020 0133     		add	r3, r3, #1
 304              	.LVL35:
 488:Generated_Source\PSoC4/Cm0Start.c ****             #if defined (__ICCARM__)
 305              		.loc 1 488 0 discriminator 1
 306 0022 A150     		str	r1, [r4, r2]
 307 0024 0432     		add	r2, r2, #4
 486:Generated_Source\PSoC4/Cm0Start.c ****     {
 308              		.loc 1 486 0 discriminator 1
 309 0026 302B     		cmp	r3, #48
 310 0028 F6D1     		bne	.L35
 311              	.L39:
 493:Generated_Source\PSoC4/Cm0Start.c ****             #endif  /* defined (__ICCARM__) */
 494:Generated_Source\PSoC4/Cm0Start.c ****     }
 495:Generated_Source\PSoC4/Cm0Start.c **** 
 496:Generated_Source\PSoC4/Cm0Start.c ****     /* Initialize configuration registers. */
 497:Generated_Source\PSoC4/Cm0Start.c ****     cyfitter_cfg();
 312              		.loc 1 497 0
 313 002a FFF7FEFF 		bl	cyfitter_cfg
 314              	.LVL36:
 498:Generated_Source\PSoC4/Cm0Start.c **** 
 499:Generated_Source\PSoC4/Cm0Start.c ****     #if !defined (__ICCARM__)
 500:Generated_Source\PSoC4/Cm0Start.c ****         /* Actually, no need to clean this variable, just to make compiler happy. */
 501:Generated_Source\PSoC4/Cm0Start.c ****         cySysNoInitDataValid = 0u;
 315              		.loc 1 501 0
 316 002e 0022     		mov	r2, #0
 317 0030 094B     		ldr	r3, .L40+12
 318 0032 1A60     		str	r2, [r3]
 502:Generated_Source\PSoC4/Cm0Start.c ****     #endif  /* !defined (__ICCARM__) */
 503:Generated_Source\PSoC4/Cm0Start.c **** 
 504:Generated_Source\PSoC4/Cm0Start.c ****     #if (CYDEV_PROJ_TYPE != CYDEV_PROJ_TYPE_STANDARD)
 505:Generated_Source\PSoC4/Cm0Start.c **** 
 506:Generated_Source\PSoC4/Cm0Start.c ****         /* Need to make sure that this variable will not be optimized out */
 507:Generated_Source\PSoC4/Cm0Start.c ****         if (0u == cyBtldrRunType)
 319              		.loc 1 507 0
 320 0034 094B     		ldr	r3, .L40+16
 321 0036 1A68     		ldr	r2, [r3]
 322 0038 002A     		cmp	r2, #0
 323 003a 00D1     		bne	.L36
 508:Generated_Source\PSoC4/Cm0Start.c ****         {
 509:Generated_Source\PSoC4/Cm0Start.c ****             cyBtldrRunType = 0u;
 324              		.loc 1 509 0
 325 003c 1A60     		str	r2, [r3]
 326              	.L36:
 510:Generated_Source\PSoC4/Cm0Start.c ****         }
 511:Generated_Source\PSoC4/Cm0Start.c **** 
 512:Generated_Source\PSoC4/Cm0Start.c ****     #endif  /* (CYDEV_PROJ_TYPE != CYDEV_PROJ_TYPE_STANDARD) */
ARM GAS  C:\Users\g\AppData\Local\Temp\ccKrnPDx.s 			page 16


 513:Generated_Source\PSoC4/Cm0Start.c **** 
 514:Generated_Source\PSoC4/Cm0Start.c ****     #if (CY_IP_CPUSS_CM0)
 515:Generated_Source\PSoC4/Cm0Start.c ****         /* Vector Table is located at 0x2000:0000 in SRAM */
 516:Generated_Source\PSoC4/Cm0Start.c ****         CY_CPUSS_CONFIG_REG |= CY_CPUSS_CONFIG_VECT_IN_RAM;
 327              		.loc 1 516 0
 328 003e 8022     		mov	r2, #128
 329 0040 0123     		mov	r3, #1
 330 0042 D205     		lsl	r2, r2, #23
 331 0044 1168     		ldr	r1, [r2]
 517:Generated_Source\PSoC4/Cm0Start.c **** 	#else
 518:Generated_Source\PSoC4/Cm0Start.c **** 		(*(uint32 *)CYREG_CM0P_VTOR) = CY_CPUSS_CONFIG_VECT_ADDR_IN_RAM;
 519:Generated_Source\PSoC4/Cm0Start.c ****     #endif /* (CY_IP_CPUSS_CM0) */
 520:Generated_Source\PSoC4/Cm0Start.c **** }
 332              		.loc 1 520 0
 333              		@ sp needed
 516:Generated_Source\PSoC4/Cm0Start.c **** 	#else
 334              		.loc 1 516 0
 335 0046 0B43     		orr	r3, r1
 336 0048 1360     		str	r3, [r2]
 337              		.loc 1 520 0
 338 004a 38BD     		pop	{r3, r4, r5, pc}
 339              	.L41:
 340              		.align	2
 341              	.L40:
 342 004c 00000000 		.word	.LANCHOR2
 343 0050 00000000 		.word	IntDefaultHandler
 344 0054 00000000 		.word	.LANCHOR1
 345 0058 00000000 		.word	.LANCHOR3
 346 005c 00000000 		.word	.LANCHOR4
 347              		.cfi_endproc
 348              	.LFE5:
 349              		.size	initialize_psoc, .-initialize_psoc
 350              		.section	.init_array,"aw",%init_array
 351              		.align	2
 352 0000 00000000 		.word	initialize_psoc(target1)
 353              		.global	RomVectors
 354              		.global	CyRamVectors
 355              		.global	cyBtldrRunType
 356              		.section	.bootloaderruntype,"aw",%progbits
 357              		.align	2
 358              		.set	.LANCHOR4,. + 0
 359              		.type	cyBtldrRunType, %object
 360              		.size	cyBtldrRunType, 4
 361              	cyBtldrRunType:
 362 0000 00000000 		.space	4
 363              		.section	.romvectors,"a",%progbits
 364              		.align	2
 365              		.set	.LANCHOR1,. + 0
 366              		.type	RomVectors, %object
 367              		.size	RomVectors, 16
 368              	RomVectors:
 369 0000 00000000 		.word	__cy_stack
 370 0004 00000000 		.word	Reset
 371 0008 00000000 		.word	IntDefaultHandler
 372 000c 00000000 		.word	IntDefaultHandler
 373              		.data
 374              		.align	2
ARM GAS  C:\Users\g\AppData\Local\Temp\ccKrnPDx.s 			page 17


 375              		.set	.LANCHOR0,. + 0
 376              		.type	heapPointer.4723, %object
 377              		.size	heapPointer.4723, 4
 378              	heapPointer.4723:
 379 0000 00000000 		.word	end
 380              		.section	.noinit,"aw",%progbits
 381              		.align	2
 382              		.set	.LANCHOR3,. + 0
 383              		.type	cySysNoInitDataValid, %object
 384              		.size	cySysNoInitDataValid, 4
 385              	cySysNoInitDataValid:
 386 0000 00000000 		.space	4
 387              		.section	.ramvectors,"aw",%progbits
 388              		.align	2
 389              		.set	.LANCHOR2,. + 0
 390              		.type	CyRamVectors, %object
 391              		.size	CyRamVectors, 192
 392              	CyRamVectors:
 393 0000 00000000 		.space	192
 393      00000000 
 393      00000000 
 393      00000000 
 393      00000000 
 394              		.weak	__cy_region_num
 395              		.text
 396              	.Letext0:
 397              		.file 2 "Generated_Source\\PSoC4\\cytypes.h"
 398              		.file 3 "c:\\program files (x86)\\cypress\\psoc creator\\4.0\\psoc creator\\import\\gnu\\arm\\4.9.
 399              		.file 4 "c:\\program files (x86)\\cypress\\psoc creator\\4.0\\psoc creator\\import\\gnu\\arm\\4.9.
 400              		.file 5 "Generated_Source\\PSoC4\\cyfitter_cfg.h"
 401              		.file 6 "Generated_Source\\PSoC4\\CyLib.h"