ARM GAS  C:\Users\g\AppData\Local\Temp\ccXK3s4R.s 			page 1


   1              		.cpu cortex-m0
   2              		.fpu softvfp
   3              		.eabi_attribute 20, 1
   4              		.eabi_attribute 21, 1
   5              		.eabi_attribute 23, 3
   6              		.eabi_attribute 24, 1
   7              		.eabi_attribute 25, 1
   8              		.eabi_attribute 26, 1
   9              		.eabi_attribute 30, 2
  10              		.eabi_attribute 34, 0
  11              		.eabi_attribute 18, 4
  12              		.code	16
  13              		.file	"Counter_1.c"
  14              		.text
  15              	.Ltext0:
  16              		.cfi_sections	.debug_frame
  17              		.section	.text.Counter_1_Init,"ax",%progbits
  18              		.align	2
  19              		.global	Counter_1_Init
  20              		.code	16
  21              		.thumb_func
  22              		.type	Counter_1_Init, %function
  23              	Counter_1_Init:
  24              	.LFB0:
  25              		.file 1 "Generated_Source\\PSoC4\\Counter_1.c"
   1:Generated_Source\PSoC4/Counter_1.c **** /*******************************************************************************
   2:Generated_Source\PSoC4/Counter_1.c **** * File Name: Counter_1.c  
   3:Generated_Source\PSoC4/Counter_1.c **** * Version 3.0
   4:Generated_Source\PSoC4/Counter_1.c **** *
   5:Generated_Source\PSoC4/Counter_1.c **** *  Description:
   6:Generated_Source\PSoC4/Counter_1.c **** *     The Counter component consists of a 8, 16, 24 or 32-bit counter with
   7:Generated_Source\PSoC4/Counter_1.c **** *     a selectable period between 2 and 2^Width - 1.  
   8:Generated_Source\PSoC4/Counter_1.c **** *
   9:Generated_Source\PSoC4/Counter_1.c **** *   Note:
  10:Generated_Source\PSoC4/Counter_1.c **** *     None
  11:Generated_Source\PSoC4/Counter_1.c **** *
  12:Generated_Source\PSoC4/Counter_1.c **** ********************************************************************************
  13:Generated_Source\PSoC4/Counter_1.c **** * Copyright 2008-2012, Cypress Semiconductor Corporation.  All rights reserved.
  14:Generated_Source\PSoC4/Counter_1.c **** * You may use this file only in accordance with the license, terms, conditions, 
  15:Generated_Source\PSoC4/Counter_1.c **** * disclaimers, and limitations in the end user license agreement accompanying 
  16:Generated_Source\PSoC4/Counter_1.c **** * the software package with which this file was provided.
  17:Generated_Source\PSoC4/Counter_1.c **** *******************************************************************************/
  18:Generated_Source\PSoC4/Counter_1.c **** 
  19:Generated_Source\PSoC4/Counter_1.c **** #include "Counter_1.h"
  20:Generated_Source\PSoC4/Counter_1.c **** 
  21:Generated_Source\PSoC4/Counter_1.c **** uint8 Counter_1_initVar = 0u;
  22:Generated_Source\PSoC4/Counter_1.c **** 
  23:Generated_Source\PSoC4/Counter_1.c **** 
  24:Generated_Source\PSoC4/Counter_1.c **** /*******************************************************************************
  25:Generated_Source\PSoC4/Counter_1.c **** * Function Name: Counter_1_Init
  26:Generated_Source\PSoC4/Counter_1.c **** ********************************************************************************
  27:Generated_Source\PSoC4/Counter_1.c **** * Summary:
  28:Generated_Source\PSoC4/Counter_1.c **** *     Initialize to the schematic state
  29:Generated_Source\PSoC4/Counter_1.c **** * 
  30:Generated_Source\PSoC4/Counter_1.c **** * Parameters:  
  31:Generated_Source\PSoC4/Counter_1.c **** *  void  
  32:Generated_Source\PSoC4/Counter_1.c **** *
ARM GAS  C:\Users\g\AppData\Local\Temp\ccXK3s4R.s 			page 2


  33:Generated_Source\PSoC4/Counter_1.c **** * Return: 
  34:Generated_Source\PSoC4/Counter_1.c **** *  void
  35:Generated_Source\PSoC4/Counter_1.c **** *
  36:Generated_Source\PSoC4/Counter_1.c **** *******************************************************************************/
  37:Generated_Source\PSoC4/Counter_1.c **** void Counter_1_Init(void) 
  38:Generated_Source\PSoC4/Counter_1.c **** {
  26              		.loc 1 38 0
  27              		.cfi_startproc
  39:Generated_Source\PSoC4/Counter_1.c ****         #if (!Counter_1_UsingFixedFunction && !Counter_1_ControlRegRemoved)
  40:Generated_Source\PSoC4/Counter_1.c ****             uint8 ctrl;
  41:Generated_Source\PSoC4/Counter_1.c ****         #endif /* (!Counter_1_UsingFixedFunction && !Counter_1_ControlRegRemoved) */
  42:Generated_Source\PSoC4/Counter_1.c ****         
  43:Generated_Source\PSoC4/Counter_1.c ****         #if(!Counter_1_UsingFixedFunction) 
  44:Generated_Source\PSoC4/Counter_1.c ****             /* Interrupt State Backup for Critical Region*/
  45:Generated_Source\PSoC4/Counter_1.c ****             uint8 Counter_1_interruptState;
  46:Generated_Source\PSoC4/Counter_1.c ****         #endif /* (!Counter_1_UsingFixedFunction) */
  47:Generated_Source\PSoC4/Counter_1.c ****         
  48:Generated_Source\PSoC4/Counter_1.c ****         #if (Counter_1_UsingFixedFunction)
  49:Generated_Source\PSoC4/Counter_1.c ****             /* Clear all bits but the enable bit (if it's already set for Timer operation */
  50:Generated_Source\PSoC4/Counter_1.c ****             Counter_1_CONTROL &= Counter_1_CTRL_ENABLE;
  51:Generated_Source\PSoC4/Counter_1.c ****             
  52:Generated_Source\PSoC4/Counter_1.c ****             /* Clear the mode bits for continuous run mode */
  53:Generated_Source\PSoC4/Counter_1.c ****             #if (CY_PSOC5A)
  54:Generated_Source\PSoC4/Counter_1.c ****                 Counter_1_CONTROL2 &= ((uint8)(~Counter_1_CTRL_MODE_MASK));
  55:Generated_Source\PSoC4/Counter_1.c ****             #endif /* (CY_PSOC5A) */
  56:Generated_Source\PSoC4/Counter_1.c ****             #if (CY_PSOC3 || CY_PSOC5LP)
  57:Generated_Source\PSoC4/Counter_1.c ****                 Counter_1_CONTROL3 &= ((uint8)(~Counter_1_CTRL_MODE_MASK));                
  58:Generated_Source\PSoC4/Counter_1.c ****             #endif /* (CY_PSOC3 || CY_PSOC5LP) */
  59:Generated_Source\PSoC4/Counter_1.c ****             /* Check if One Shot mode is enabled i.e. RunMode !=0*/
  60:Generated_Source\PSoC4/Counter_1.c ****             #if (Counter_1_RunModeUsed != 0x0u)
  61:Generated_Source\PSoC4/Counter_1.c ****                 /* Set 3rd bit of Control register to enable one shot mode */
  62:Generated_Source\PSoC4/Counter_1.c ****                 Counter_1_CONTROL |= Counter_1_ONESHOT;
  63:Generated_Source\PSoC4/Counter_1.c ****             #endif /* (Counter_1_RunModeUsed != 0x0u) */
  64:Generated_Source\PSoC4/Counter_1.c ****             
  65:Generated_Source\PSoC4/Counter_1.c ****             /* Set the IRQ to use the status register interrupts */
  66:Generated_Source\PSoC4/Counter_1.c ****             Counter_1_CONTROL2 |= Counter_1_CTRL2_IRQ_SEL;
  67:Generated_Source\PSoC4/Counter_1.c ****             
  68:Generated_Source\PSoC4/Counter_1.c ****             /* Clear and Set SYNCTC and SYNCCMP bits of RT1 register */
  69:Generated_Source\PSoC4/Counter_1.c ****             Counter_1_RT1 &= ((uint8)(~Counter_1_RT1_MASK));
  70:Generated_Source\PSoC4/Counter_1.c ****             Counter_1_RT1 |= Counter_1_SYNC;     
  71:Generated_Source\PSoC4/Counter_1.c ****                     
  72:Generated_Source\PSoC4/Counter_1.c ****             /*Enable DSI Sync all all inputs of the Timer*/
  73:Generated_Source\PSoC4/Counter_1.c ****             Counter_1_RT1 &= ((uint8)(~Counter_1_SYNCDSI_MASK));
  74:Generated_Source\PSoC4/Counter_1.c ****             Counter_1_RT1 |= Counter_1_SYNCDSI_EN;
  75:Generated_Source\PSoC4/Counter_1.c **** 
  76:Generated_Source\PSoC4/Counter_1.c ****         #else
  77:Generated_Source\PSoC4/Counter_1.c ****             #if(!Counter_1_ControlRegRemoved)
  78:Generated_Source\PSoC4/Counter_1.c ****             /* Set the default compare mode defined in the parameter */
  79:Generated_Source\PSoC4/Counter_1.c ****             ctrl = Counter_1_CONTROL & ((uint8)(~Counter_1_CTRL_CMPMODE_MASK));
  28              		.loc 1 79 0
  29 0000 0721     		mov	r1, #7
  38:Generated_Source\PSoC4/Counter_1.c ****         #if (!Counter_1_UsingFixedFunction && !Counter_1_ControlRegRemoved)
  30              		.loc 1 38 0
  31 0002 08B5     		push	{r3, lr}
  32              		.cfi_def_cfa_offset 8
  33              		.cfi_offset 3, -8
  34              		.cfi_offset 14, -4
ARM GAS  C:\Users\g\AppData\Local\Temp\ccXK3s4R.s 			page 3


  35              		.loc 1 79 0
  36 0004 154B     		ldr	r3, .L10
  37 0006 1A78     		ldrb	r2, [r3]
  38              	.LVL0:
  39 0008 8A43     		bic	r2, r1
  40              	.LVL1:
  80:Generated_Source\PSoC4/Counter_1.c ****             Counter_1_CONTROL = ctrl | Counter_1_DEFAULT_COMPARE_MODE;
  41              		.loc 1 80 0
  42 000a 0239     		sub	r1, r1, #2
  43 000c 0A43     		orr	r2, r1
  44 000e 1A70     		strb	r2, [r3]
  81:Generated_Source\PSoC4/Counter_1.c ****             
  82:Generated_Source\PSoC4/Counter_1.c ****             /* Set the default capture mode defined in the parameter */
  83:Generated_Source\PSoC4/Counter_1.c ****             ctrl = Counter_1_CONTROL & ((uint8)(~Counter_1_CTRL_CAPMODE_MASK));
  45              		.loc 1 83 0
  46 0010 1A78     		ldrb	r2, [r3]
  47 0012 0239     		sub	r1, r1, #2
  48 0014 8A43     		bic	r2, r1
  49              	.LVL2:
  84:Generated_Source\PSoC4/Counter_1.c ****             
  85:Generated_Source\PSoC4/Counter_1.c ****             #if( 0 != Counter_1_CAPTURE_MODE_CONF)
  86:Generated_Source\PSoC4/Counter_1.c ****                 Counter_1_CONTROL = ctrl | Counter_1_DEFAULT_CAPTURE_MODE;
  87:Generated_Source\PSoC4/Counter_1.c ****             #else
  88:Generated_Source\PSoC4/Counter_1.c ****                 Counter_1_CONTROL = ctrl;
  50              		.loc 1 88 0
  51 0016 1A70     		strb	r2, [r3]
  52              	.LBB24:
  53              	.LBB25:
  54              	.LBB26:
  55              	.LBB27:
  89:Generated_Source\PSoC4/Counter_1.c ****             #endif /* 0 != Counter_1_CAPTURE_MODE */ 
  90:Generated_Source\PSoC4/Counter_1.c ****             
  91:Generated_Source\PSoC4/Counter_1.c ****             #endif /* (!Counter_1_ControlRegRemoved) */
  92:Generated_Source\PSoC4/Counter_1.c ****         #endif /* (Counter_1_UsingFixedFunction) */
  93:Generated_Source\PSoC4/Counter_1.c ****         
  94:Generated_Source\PSoC4/Counter_1.c ****         /* Clear all data in the FIFO's */
  95:Generated_Source\PSoC4/Counter_1.c ****         #if (!Counter_1_UsingFixedFunction)
  96:Generated_Source\PSoC4/Counter_1.c ****             Counter_1_ClearFIFO();
  97:Generated_Source\PSoC4/Counter_1.c ****         #endif /* (!Counter_1_UsingFixedFunction) */
  98:Generated_Source\PSoC4/Counter_1.c ****         
  99:Generated_Source\PSoC4/Counter_1.c ****         /* Set Initial values from Configuration */
 100:Generated_Source\PSoC4/Counter_1.c ****         Counter_1_WritePeriod(Counter_1_INIT_PERIOD_VALUE);
 101:Generated_Source\PSoC4/Counter_1.c ****         #if (!(Counter_1_UsingFixedFunction && (CY_PSOC5A)))
 102:Generated_Source\PSoC4/Counter_1.c ****             Counter_1_WriteCounter(Counter_1_INIT_COUNTER_VALUE);
 103:Generated_Source\PSoC4/Counter_1.c ****         #endif /* (!(Counter_1_UsingFixedFunction && (CY_PSOC5A))) */
 104:Generated_Source\PSoC4/Counter_1.c ****         Counter_1_SetInterruptMode(Counter_1_INIT_INTERRUPTS_MASK);
 105:Generated_Source\PSoC4/Counter_1.c ****         
 106:Generated_Source\PSoC4/Counter_1.c ****         #if (!Counter_1_UsingFixedFunction)
 107:Generated_Source\PSoC4/Counter_1.c ****             /* Read the status register to clear the unwanted interrupts */
 108:Generated_Source\PSoC4/Counter_1.c ****             (void)Counter_1_ReadStatusRegister();
 109:Generated_Source\PSoC4/Counter_1.c ****             /* Set the compare value (only available to non-fixed function implementation */
 110:Generated_Source\PSoC4/Counter_1.c ****             Counter_1_WriteCompare(Counter_1_INIT_COMPARE_VALUE);
 111:Generated_Source\PSoC4/Counter_1.c ****             /* Use the interrupt output of the status register for IRQ output */
 112:Generated_Source\PSoC4/Counter_1.c ****             
 113:Generated_Source\PSoC4/Counter_1.c ****             /* CyEnterCriticalRegion and CyExitCriticalRegion are used to mark following region cri
 114:Generated_Source\PSoC4/Counter_1.c ****             /* Enter Critical Region*/
 115:Generated_Source\PSoC4/Counter_1.c ****             Counter_1_interruptState = CyEnterCriticalSection();
ARM GAS  C:\Users\g\AppData\Local\Temp\ccXK3s4R.s 			page 4


 116:Generated_Source\PSoC4/Counter_1.c ****             
 117:Generated_Source\PSoC4/Counter_1.c ****             Counter_1_STATUS_AUX_CTRL |= Counter_1_STATUS_ACTL_INT_EN_MASK;
 118:Generated_Source\PSoC4/Counter_1.c ****             
 119:Generated_Source\PSoC4/Counter_1.c ****             /* Exit Critical Region*/
 120:Generated_Source\PSoC4/Counter_1.c ****             CyExitCriticalSection(Counter_1_interruptState);
 121:Generated_Source\PSoC4/Counter_1.c ****             
 122:Generated_Source\PSoC4/Counter_1.c ****         #endif /* (!Counter_1_UsingFixedFunction) */
 123:Generated_Source\PSoC4/Counter_1.c **** }
 124:Generated_Source\PSoC4/Counter_1.c **** 
 125:Generated_Source\PSoC4/Counter_1.c **** 
 126:Generated_Source\PSoC4/Counter_1.c **** /*******************************************************************************
 127:Generated_Source\PSoC4/Counter_1.c **** * Function Name: Counter_1_Enable
 128:Generated_Source\PSoC4/Counter_1.c **** ********************************************************************************
 129:Generated_Source\PSoC4/Counter_1.c **** * Summary:
 130:Generated_Source\PSoC4/Counter_1.c **** *     Enable the Counter
 131:Generated_Source\PSoC4/Counter_1.c **** * 
 132:Generated_Source\PSoC4/Counter_1.c **** * Parameters:  
 133:Generated_Source\PSoC4/Counter_1.c **** *  void  
 134:Generated_Source\PSoC4/Counter_1.c **** *
 135:Generated_Source\PSoC4/Counter_1.c **** * Return: 
 136:Generated_Source\PSoC4/Counter_1.c **** *  void
 137:Generated_Source\PSoC4/Counter_1.c **** *
 138:Generated_Source\PSoC4/Counter_1.c **** * Side Effects: 
 139:Generated_Source\PSoC4/Counter_1.c **** *   If the Enable mode is set to Hardware only then this function has no effect 
 140:Generated_Source\PSoC4/Counter_1.c **** *   on the operation of the counter.
 141:Generated_Source\PSoC4/Counter_1.c **** *
 142:Generated_Source\PSoC4/Counter_1.c **** *******************************************************************************/
 143:Generated_Source\PSoC4/Counter_1.c **** void Counter_1_Enable(void) 
 144:Generated_Source\PSoC4/Counter_1.c **** {
 145:Generated_Source\PSoC4/Counter_1.c ****     /* Globally Enable the Fixed Function Block chosen */
 146:Generated_Source\PSoC4/Counter_1.c ****     #if (Counter_1_UsingFixedFunction)
 147:Generated_Source\PSoC4/Counter_1.c ****         Counter_1_GLOBAL_ENABLE |= Counter_1_BLOCK_EN_MASK;
 148:Generated_Source\PSoC4/Counter_1.c ****         Counter_1_GLOBAL_STBY_ENABLE |= Counter_1_BLOCK_STBY_EN_MASK;
 149:Generated_Source\PSoC4/Counter_1.c ****     #endif /* (Counter_1_UsingFixedFunction) */  
 150:Generated_Source\PSoC4/Counter_1.c ****         
 151:Generated_Source\PSoC4/Counter_1.c ****     /* Enable the counter from the control register  */
 152:Generated_Source\PSoC4/Counter_1.c ****     /* If Fixed Function then make sure Mode is set correctly */
 153:Generated_Source\PSoC4/Counter_1.c ****     /* else make sure reset is clear */
 154:Generated_Source\PSoC4/Counter_1.c ****     #if(!Counter_1_ControlRegRemoved || Counter_1_UsingFixedFunction)
 155:Generated_Source\PSoC4/Counter_1.c ****         Counter_1_CONTROL |= Counter_1_CTRL_ENABLE;                
 156:Generated_Source\PSoC4/Counter_1.c ****     #endif /* (!Counter_1_ControlRegRemoved || Counter_1_UsingFixedFunction) */
 157:Generated_Source\PSoC4/Counter_1.c ****     
 158:Generated_Source\PSoC4/Counter_1.c **** }
 159:Generated_Source\PSoC4/Counter_1.c **** 
 160:Generated_Source\PSoC4/Counter_1.c **** 
 161:Generated_Source\PSoC4/Counter_1.c **** /*******************************************************************************
 162:Generated_Source\PSoC4/Counter_1.c **** * Function Name: Counter_1_Start
 163:Generated_Source\PSoC4/Counter_1.c **** ********************************************************************************
 164:Generated_Source\PSoC4/Counter_1.c **** * Summary:
 165:Generated_Source\PSoC4/Counter_1.c **** *  Enables the counter for operation 
 166:Generated_Source\PSoC4/Counter_1.c **** *
 167:Generated_Source\PSoC4/Counter_1.c **** * Parameters:  
 168:Generated_Source\PSoC4/Counter_1.c **** *  void  
 169:Generated_Source\PSoC4/Counter_1.c **** *
 170:Generated_Source\PSoC4/Counter_1.c **** * Return: 
 171:Generated_Source\PSoC4/Counter_1.c **** *  void
 172:Generated_Source\PSoC4/Counter_1.c **** *
ARM GAS  C:\Users\g\AppData\Local\Temp\ccXK3s4R.s 			page 5


 173:Generated_Source\PSoC4/Counter_1.c **** * Global variables:
 174:Generated_Source\PSoC4/Counter_1.c **** *  Counter_1_initVar: Is modified when this function is called for the  
 175:Generated_Source\PSoC4/Counter_1.c **** *   first time. Is used to ensure that initialization happens only once.
 176:Generated_Source\PSoC4/Counter_1.c **** *
 177:Generated_Source\PSoC4/Counter_1.c **** *******************************************************************************/
 178:Generated_Source\PSoC4/Counter_1.c **** void Counter_1_Start(void) 
 179:Generated_Source\PSoC4/Counter_1.c **** {
 180:Generated_Source\PSoC4/Counter_1.c ****     if(Counter_1_initVar == 0u)
 181:Generated_Source\PSoC4/Counter_1.c ****     {
 182:Generated_Source\PSoC4/Counter_1.c ****         Counter_1_Init();
 183:Generated_Source\PSoC4/Counter_1.c ****         
 184:Generated_Source\PSoC4/Counter_1.c ****         Counter_1_initVar = 1u; /* Clear this bit for Initialization */        
 185:Generated_Source\PSoC4/Counter_1.c ****     }
 186:Generated_Source\PSoC4/Counter_1.c ****     
 187:Generated_Source\PSoC4/Counter_1.c ****     /* Enable the Counter */
 188:Generated_Source\PSoC4/Counter_1.c ****     Counter_1_Enable();        
 189:Generated_Source\PSoC4/Counter_1.c **** }
 190:Generated_Source\PSoC4/Counter_1.c **** 
 191:Generated_Source\PSoC4/Counter_1.c **** 
 192:Generated_Source\PSoC4/Counter_1.c **** /*******************************************************************************
 193:Generated_Source\PSoC4/Counter_1.c **** * Function Name: Counter_1_Stop
 194:Generated_Source\PSoC4/Counter_1.c **** ********************************************************************************
 195:Generated_Source\PSoC4/Counter_1.c **** * Summary:
 196:Generated_Source\PSoC4/Counter_1.c **** * Halts the counter, but does not change any modes or disable interrupts.
 197:Generated_Source\PSoC4/Counter_1.c **** *
 198:Generated_Source\PSoC4/Counter_1.c **** * Parameters:  
 199:Generated_Source\PSoC4/Counter_1.c **** *  void  
 200:Generated_Source\PSoC4/Counter_1.c **** *
 201:Generated_Source\PSoC4/Counter_1.c **** * Return: 
 202:Generated_Source\PSoC4/Counter_1.c **** *  void
 203:Generated_Source\PSoC4/Counter_1.c **** *
 204:Generated_Source\PSoC4/Counter_1.c **** * Side Effects: If the Enable mode is set to Hardware only then this function
 205:Generated_Source\PSoC4/Counter_1.c **** *               has no effect on the operation of the counter.
 206:Generated_Source\PSoC4/Counter_1.c **** *
 207:Generated_Source\PSoC4/Counter_1.c **** *******************************************************************************/
 208:Generated_Source\PSoC4/Counter_1.c **** void Counter_1_Stop(void) 
 209:Generated_Source\PSoC4/Counter_1.c **** {
 210:Generated_Source\PSoC4/Counter_1.c ****     /* Disable Counter */
 211:Generated_Source\PSoC4/Counter_1.c ****     #if(!Counter_1_ControlRegRemoved || Counter_1_UsingFixedFunction)
 212:Generated_Source\PSoC4/Counter_1.c ****         Counter_1_CONTROL &= ((uint8)(~Counter_1_CTRL_ENABLE));        
 213:Generated_Source\PSoC4/Counter_1.c ****     #endif /* (!Counter_1_ControlRegRemoved || Counter_1_UsingFixedFunction) */
 214:Generated_Source\PSoC4/Counter_1.c ****     
 215:Generated_Source\PSoC4/Counter_1.c ****     /* Globally disable the Fixed Function Block chosen */
 216:Generated_Source\PSoC4/Counter_1.c ****     #if (Counter_1_UsingFixedFunction)
 217:Generated_Source\PSoC4/Counter_1.c ****         Counter_1_GLOBAL_ENABLE &= ((uint8)(~Counter_1_BLOCK_EN_MASK));
 218:Generated_Source\PSoC4/Counter_1.c ****         Counter_1_GLOBAL_STBY_ENABLE &= ((uint8)(~Counter_1_BLOCK_STBY_EN_MASK));
 219:Generated_Source\PSoC4/Counter_1.c ****     #endif /* (Counter_1_UsingFixedFunction) */
 220:Generated_Source\PSoC4/Counter_1.c **** }
 221:Generated_Source\PSoC4/Counter_1.c **** 
 222:Generated_Source\PSoC4/Counter_1.c **** 
 223:Generated_Source\PSoC4/Counter_1.c **** /*******************************************************************************
 224:Generated_Source\PSoC4/Counter_1.c **** * Function Name: Counter_1_SetInterruptMode
 225:Generated_Source\PSoC4/Counter_1.c **** ********************************************************************************
 226:Generated_Source\PSoC4/Counter_1.c **** * Summary:
 227:Generated_Source\PSoC4/Counter_1.c **** * Configures which interrupt sources are enabled to generate the final interrupt
 228:Generated_Source\PSoC4/Counter_1.c **** *
 229:Generated_Source\PSoC4/Counter_1.c **** * Parameters:  
ARM GAS  C:\Users\g\AppData\Local\Temp\ccXK3s4R.s 			page 6


 230:Generated_Source\PSoC4/Counter_1.c **** *  InterruptsMask: This parameter is an or'd collection of the status bits
 231:Generated_Source\PSoC4/Counter_1.c **** *                   which will be allowed to generate the counters interrupt.   
 232:Generated_Source\PSoC4/Counter_1.c **** *
 233:Generated_Source\PSoC4/Counter_1.c **** * Return: 
 234:Generated_Source\PSoC4/Counter_1.c **** *  void
 235:Generated_Source\PSoC4/Counter_1.c **** *
 236:Generated_Source\PSoC4/Counter_1.c **** *******************************************************************************/
 237:Generated_Source\PSoC4/Counter_1.c **** void Counter_1_SetInterruptMode(uint8 interruptsMask) 
 238:Generated_Source\PSoC4/Counter_1.c **** {
 239:Generated_Source\PSoC4/Counter_1.c ****     Counter_1_STATUS_MASK = interruptsMask;
 240:Generated_Source\PSoC4/Counter_1.c **** }
 241:Generated_Source\PSoC4/Counter_1.c **** 
 242:Generated_Source\PSoC4/Counter_1.c **** 
 243:Generated_Source\PSoC4/Counter_1.c **** /*******************************************************************************
 244:Generated_Source\PSoC4/Counter_1.c **** * Function Name: Counter_1_ReadStatusRegister
 245:Generated_Source\PSoC4/Counter_1.c **** ********************************************************************************
 246:Generated_Source\PSoC4/Counter_1.c **** * Summary:
 247:Generated_Source\PSoC4/Counter_1.c **** *   Reads the status register and returns it's state. This function should use
 248:Generated_Source\PSoC4/Counter_1.c **** *       defined types for the bit-field information as the bits in this
 249:Generated_Source\PSoC4/Counter_1.c **** *       register may be permuteable.
 250:Generated_Source\PSoC4/Counter_1.c **** *
 251:Generated_Source\PSoC4/Counter_1.c **** * Parameters:  
 252:Generated_Source\PSoC4/Counter_1.c **** *  void
 253:Generated_Source\PSoC4/Counter_1.c **** *
 254:Generated_Source\PSoC4/Counter_1.c **** * Return: 
 255:Generated_Source\PSoC4/Counter_1.c **** *  (uint8) The contents of the status register
 256:Generated_Source\PSoC4/Counter_1.c **** *
 257:Generated_Source\PSoC4/Counter_1.c **** * Side Effects:
 258:Generated_Source\PSoC4/Counter_1.c **** *   Status register bits may be clear on read. 
 259:Generated_Source\PSoC4/Counter_1.c **** *
 260:Generated_Source\PSoC4/Counter_1.c **** *******************************************************************************/
 261:Generated_Source\PSoC4/Counter_1.c **** uint8   Counter_1_ReadStatusRegister(void) 
 262:Generated_Source\PSoC4/Counter_1.c **** {
 263:Generated_Source\PSoC4/Counter_1.c ****     return Counter_1_STATUS;
  56              		.loc 1 263 0
  57 0018 114A     		ldr	r2, .L10+4
  58              	.LVL3:
  59 001a 1378     		ldrb	r3, [r2]
  60              	.LVL4:
  61              	.LBE27:
  62              	.LBE26:
 264:Generated_Source\PSoC4/Counter_1.c **** }
 265:Generated_Source\PSoC4/Counter_1.c **** 
 266:Generated_Source\PSoC4/Counter_1.c **** 
 267:Generated_Source\PSoC4/Counter_1.c **** #if(!Counter_1_ControlRegRemoved)
 268:Generated_Source\PSoC4/Counter_1.c **** /*******************************************************************************
 269:Generated_Source\PSoC4/Counter_1.c **** * Function Name: Counter_1_ReadControlRegister
 270:Generated_Source\PSoC4/Counter_1.c **** ********************************************************************************
 271:Generated_Source\PSoC4/Counter_1.c **** * Summary:
 272:Generated_Source\PSoC4/Counter_1.c **** *   Reads the control register and returns it's state. This function should use
 273:Generated_Source\PSoC4/Counter_1.c **** *       defined types for the bit-field information as the bits in this
 274:Generated_Source\PSoC4/Counter_1.c **** *       register may be permuteable.
 275:Generated_Source\PSoC4/Counter_1.c **** *
 276:Generated_Source\PSoC4/Counter_1.c **** * Parameters:  
 277:Generated_Source\PSoC4/Counter_1.c **** *  void
 278:Generated_Source\PSoC4/Counter_1.c **** *
 279:Generated_Source\PSoC4/Counter_1.c **** * Return: 
ARM GAS  C:\Users\g\AppData\Local\Temp\ccXK3s4R.s 			page 7


 280:Generated_Source\PSoC4/Counter_1.c **** *  (uint8) The contents of the control register
 281:Generated_Source\PSoC4/Counter_1.c **** *
 282:Generated_Source\PSoC4/Counter_1.c **** *******************************************************************************/
 283:Generated_Source\PSoC4/Counter_1.c **** uint8   Counter_1_ReadControlRegister(void) 
 284:Generated_Source\PSoC4/Counter_1.c **** {
 285:Generated_Source\PSoC4/Counter_1.c ****     return Counter_1_CONTROL;
 286:Generated_Source\PSoC4/Counter_1.c **** }
 287:Generated_Source\PSoC4/Counter_1.c **** 
 288:Generated_Source\PSoC4/Counter_1.c **** 
 289:Generated_Source\PSoC4/Counter_1.c **** /*******************************************************************************
 290:Generated_Source\PSoC4/Counter_1.c **** * Function Name: Counter_1_WriteControlRegister
 291:Generated_Source\PSoC4/Counter_1.c **** ********************************************************************************
 292:Generated_Source\PSoC4/Counter_1.c **** * Summary:
 293:Generated_Source\PSoC4/Counter_1.c **** *   Sets the bit-field of the control register.  This function should use
 294:Generated_Source\PSoC4/Counter_1.c **** *       defined types for the bit-field information as the bits in this
 295:Generated_Source\PSoC4/Counter_1.c **** *       register may be permuteable.
 296:Generated_Source\PSoC4/Counter_1.c **** *
 297:Generated_Source\PSoC4/Counter_1.c **** * Parameters:  
 298:Generated_Source\PSoC4/Counter_1.c **** *  void
 299:Generated_Source\PSoC4/Counter_1.c **** *
 300:Generated_Source\PSoC4/Counter_1.c **** * Return: 
 301:Generated_Source\PSoC4/Counter_1.c **** *  (uint8) The contents of the control register
 302:Generated_Source\PSoC4/Counter_1.c **** *
 303:Generated_Source\PSoC4/Counter_1.c **** *******************************************************************************/
 304:Generated_Source\PSoC4/Counter_1.c **** void    Counter_1_WriteControlRegister(uint8 control) 
 305:Generated_Source\PSoC4/Counter_1.c **** {
 306:Generated_Source\PSoC4/Counter_1.c ****     Counter_1_CONTROL = control;
 307:Generated_Source\PSoC4/Counter_1.c **** }
 308:Generated_Source\PSoC4/Counter_1.c **** 
 309:Generated_Source\PSoC4/Counter_1.c **** #endif  /* (!Counter_1_ControlRegRemoved) */
 310:Generated_Source\PSoC4/Counter_1.c **** 
 311:Generated_Source\PSoC4/Counter_1.c **** 
 312:Generated_Source\PSoC4/Counter_1.c **** #if (!(Counter_1_UsingFixedFunction && (CY_PSOC5A)))
 313:Generated_Source\PSoC4/Counter_1.c **** /*******************************************************************************
 314:Generated_Source\PSoC4/Counter_1.c **** * Function Name: Counter_1_WriteCounter
 315:Generated_Source\PSoC4/Counter_1.c **** ********************************************************************************
 316:Generated_Source\PSoC4/Counter_1.c **** * Summary:
 317:Generated_Source\PSoC4/Counter_1.c **** *   This funtion is used to set the counter to a specific value
 318:Generated_Source\PSoC4/Counter_1.c **** *
 319:Generated_Source\PSoC4/Counter_1.c **** * Parameters:  
 320:Generated_Source\PSoC4/Counter_1.c **** *  counter:  New counter value. 
 321:Generated_Source\PSoC4/Counter_1.c **** *
 322:Generated_Source\PSoC4/Counter_1.c **** * Return: 
 323:Generated_Source\PSoC4/Counter_1.c **** *  void 
 324:Generated_Source\PSoC4/Counter_1.c **** *
 325:Generated_Source\PSoC4/Counter_1.c **** *******************************************************************************/
 326:Generated_Source\PSoC4/Counter_1.c **** void Counter_1_WriteCounter(uint16 counter) \
 327:Generated_Source\PSoC4/Counter_1.c ****                                    
 328:Generated_Source\PSoC4/Counter_1.c **** {
 329:Generated_Source\PSoC4/Counter_1.c ****     #if(Counter_1_UsingFixedFunction)
 330:Generated_Source\PSoC4/Counter_1.c ****         /* assert if block is already enabled */
 331:Generated_Source\PSoC4/Counter_1.c ****         CYASSERT (0u == (Counter_1_GLOBAL_ENABLE & Counter_1_BLOCK_EN_MASK));
 332:Generated_Source\PSoC4/Counter_1.c ****         /* If block is disabled, enable it and then write the counter */
 333:Generated_Source\PSoC4/Counter_1.c ****         Counter_1_GLOBAL_ENABLE |= Counter_1_BLOCK_EN_MASK;
 334:Generated_Source\PSoC4/Counter_1.c ****         CY_SET_REG16(Counter_1_COUNTER_LSB_PTR, (uint16)counter);
 335:Generated_Source\PSoC4/Counter_1.c ****         Counter_1_GLOBAL_ENABLE &= ((uint8)(~Counter_1_BLOCK_EN_MASK));
 336:Generated_Source\PSoC4/Counter_1.c ****     #else
ARM GAS  C:\Users\g\AppData\Local\Temp\ccXK3s4R.s 			page 8


 337:Generated_Source\PSoC4/Counter_1.c ****         CY_SET_REG16(Counter_1_COUNTER_LSB_PTR, counter);
 338:Generated_Source\PSoC4/Counter_1.c ****     #endif /* (Counter_1_UsingFixedFunction) */
 339:Generated_Source\PSoC4/Counter_1.c **** }
 340:Generated_Source\PSoC4/Counter_1.c **** #endif /* (!(Counter_1_UsingFixedFunction && (CY_PSOC5A))) */
 341:Generated_Source\PSoC4/Counter_1.c **** 
 342:Generated_Source\PSoC4/Counter_1.c **** 
 343:Generated_Source\PSoC4/Counter_1.c **** /*******************************************************************************
 344:Generated_Source\PSoC4/Counter_1.c **** * Function Name: Counter_1_ReadCounter
 345:Generated_Source\PSoC4/Counter_1.c **** ********************************************************************************
 346:Generated_Source\PSoC4/Counter_1.c **** * Summary:
 347:Generated_Source\PSoC4/Counter_1.c **** * Returns the current value of the counter.  It doesn't matter
 348:Generated_Source\PSoC4/Counter_1.c **** * if the counter is enabled or running.
 349:Generated_Source\PSoC4/Counter_1.c **** *
 350:Generated_Source\PSoC4/Counter_1.c **** * Parameters:  
 351:Generated_Source\PSoC4/Counter_1.c **** *  void:  
 352:Generated_Source\PSoC4/Counter_1.c **** *
 353:Generated_Source\PSoC4/Counter_1.c **** * Return: 
 354:Generated_Source\PSoC4/Counter_1.c **** *  (uint16) The present value of the counter.
 355:Generated_Source\PSoC4/Counter_1.c **** *
 356:Generated_Source\PSoC4/Counter_1.c **** *******************************************************************************/
 357:Generated_Source\PSoC4/Counter_1.c **** uint16 Counter_1_ReadCounter(void) 
 358:Generated_Source\PSoC4/Counter_1.c **** {
 359:Generated_Source\PSoC4/Counter_1.c ****     /* Force capture by reading Accumulator */
 360:Generated_Source\PSoC4/Counter_1.c ****     /* Must first do a software capture to be able to read the counter */
 361:Generated_Source\PSoC4/Counter_1.c ****     /* It is up to the user code to make sure there isn't already captured data in the FIFO */
 362:Generated_Source\PSoC4/Counter_1.c ****     #if(Counter_1_UsingFixedFunction)
 363:Generated_Source\PSoC4/Counter_1.c **** 		(void)CY_GET_REG16(Counter_1_COUNTER_LSB_PTR);
 364:Generated_Source\PSoC4/Counter_1.c **** 	#else
 365:Generated_Source\PSoC4/Counter_1.c **** 		(void)CY_GET_REG8(Counter_1_COUNTER_LSB_PTR_8BIT);
 366:Generated_Source\PSoC4/Counter_1.c **** 	#endif/* (Counter_1_UsingFixedFunction) */
 367:Generated_Source\PSoC4/Counter_1.c ****     
 368:Generated_Source\PSoC4/Counter_1.c ****     /* Read the data from the FIFO (or capture register for Fixed Function)*/
 369:Generated_Source\PSoC4/Counter_1.c ****     #if(Counter_1_UsingFixedFunction)
 370:Generated_Source\PSoC4/Counter_1.c ****         return ((uint16)CY_GET_REG16(Counter_1_STATICCOUNT_LSB_PTR));
 371:Generated_Source\PSoC4/Counter_1.c ****     #else
 372:Generated_Source\PSoC4/Counter_1.c ****         return (CY_GET_REG16(Counter_1_STATICCOUNT_LSB_PTR));
 373:Generated_Source\PSoC4/Counter_1.c ****     #endif /* (Counter_1_UsingFixedFunction) */
 374:Generated_Source\PSoC4/Counter_1.c **** }
 375:Generated_Source\PSoC4/Counter_1.c **** 
 376:Generated_Source\PSoC4/Counter_1.c **** 
 377:Generated_Source\PSoC4/Counter_1.c **** /*******************************************************************************
 378:Generated_Source\PSoC4/Counter_1.c **** * Function Name: Counter_1_ReadCapture
 379:Generated_Source\PSoC4/Counter_1.c **** ********************************************************************************
 380:Generated_Source\PSoC4/Counter_1.c **** * Summary:
 381:Generated_Source\PSoC4/Counter_1.c **** *   This function returns the last value captured.
 382:Generated_Source\PSoC4/Counter_1.c **** *
 383:Generated_Source\PSoC4/Counter_1.c **** * Parameters:  
 384:Generated_Source\PSoC4/Counter_1.c **** *  void
 385:Generated_Source\PSoC4/Counter_1.c **** *
 386:Generated_Source\PSoC4/Counter_1.c **** * Return: 
 387:Generated_Source\PSoC4/Counter_1.c **** *  (uint16) Present Capture value.
 388:Generated_Source\PSoC4/Counter_1.c **** *
 389:Generated_Source\PSoC4/Counter_1.c **** *******************************************************************************/
 390:Generated_Source\PSoC4/Counter_1.c **** uint16 Counter_1_ReadCapture(void) 
 391:Generated_Source\PSoC4/Counter_1.c **** {
 392:Generated_Source\PSoC4/Counter_1.c ****     #if(Counter_1_UsingFixedFunction)
 393:Generated_Source\PSoC4/Counter_1.c ****         return ((uint16)CY_GET_REG16(Counter_1_STATICCOUNT_LSB_PTR));
ARM GAS  C:\Users\g\AppData\Local\Temp\ccXK3s4R.s 			page 9


 394:Generated_Source\PSoC4/Counter_1.c ****     #else
 395:Generated_Source\PSoC4/Counter_1.c ****         return (CY_GET_REG16(Counter_1_STATICCOUNT_LSB_PTR));
 396:Generated_Source\PSoC4/Counter_1.c ****     #endif /* (Counter_1_UsingFixedFunction) */
 397:Generated_Source\PSoC4/Counter_1.c **** }
 398:Generated_Source\PSoC4/Counter_1.c **** 
 399:Generated_Source\PSoC4/Counter_1.c **** 
 400:Generated_Source\PSoC4/Counter_1.c **** /*******************************************************************************
 401:Generated_Source\PSoC4/Counter_1.c **** * Function Name: Counter_1_WritePeriod
 402:Generated_Source\PSoC4/Counter_1.c **** ********************************************************************************
 403:Generated_Source\PSoC4/Counter_1.c **** * Summary:
 404:Generated_Source\PSoC4/Counter_1.c **** * Changes the period of the counter.  The new period 
 405:Generated_Source\PSoC4/Counter_1.c **** * will be loaded the next time terminal count is detected.
 406:Generated_Source\PSoC4/Counter_1.c **** *
 407:Generated_Source\PSoC4/Counter_1.c **** * Parameters:  
 408:Generated_Source\PSoC4/Counter_1.c **** *  period: (uint16) A value of 0 will result in
 409:Generated_Source\PSoC4/Counter_1.c **** *         the counter remaining at zero.  
 410:Generated_Source\PSoC4/Counter_1.c **** *
 411:Generated_Source\PSoC4/Counter_1.c **** * Return: 
 412:Generated_Source\PSoC4/Counter_1.c **** *  void
 413:Generated_Source\PSoC4/Counter_1.c **** *
 414:Generated_Source\PSoC4/Counter_1.c **** *******************************************************************************/
 415:Generated_Source\PSoC4/Counter_1.c **** void Counter_1_WritePeriod(uint16 period) 
 416:Generated_Source\PSoC4/Counter_1.c **** {
 417:Generated_Source\PSoC4/Counter_1.c ****     #if(Counter_1_UsingFixedFunction)
 418:Generated_Source\PSoC4/Counter_1.c ****         CY_SET_REG16(Counter_1_PERIOD_LSB_PTR,(uint16)period);
 419:Generated_Source\PSoC4/Counter_1.c ****     #else
 420:Generated_Source\PSoC4/Counter_1.c ****         CY_SET_REG16(Counter_1_PERIOD_LSB_PTR, period);
 421:Generated_Source\PSoC4/Counter_1.c ****     #endif /* (Counter_1_UsingFixedFunction) */
 422:Generated_Source\PSoC4/Counter_1.c **** }
 423:Generated_Source\PSoC4/Counter_1.c **** 
 424:Generated_Source\PSoC4/Counter_1.c **** 
 425:Generated_Source\PSoC4/Counter_1.c **** /*******************************************************************************
 426:Generated_Source\PSoC4/Counter_1.c **** * Function Name: Counter_1_ReadPeriod
 427:Generated_Source\PSoC4/Counter_1.c **** ********************************************************************************
 428:Generated_Source\PSoC4/Counter_1.c **** * Summary:
 429:Generated_Source\PSoC4/Counter_1.c **** * Reads the current period value without affecting counter operation.
 430:Generated_Source\PSoC4/Counter_1.c **** *
 431:Generated_Source\PSoC4/Counter_1.c **** * Parameters:  
 432:Generated_Source\PSoC4/Counter_1.c **** *  void:  
 433:Generated_Source\PSoC4/Counter_1.c **** *
 434:Generated_Source\PSoC4/Counter_1.c **** * Return: 
 435:Generated_Source\PSoC4/Counter_1.c **** *  (uint16) Present period value.
 436:Generated_Source\PSoC4/Counter_1.c **** *
 437:Generated_Source\PSoC4/Counter_1.c **** *******************************************************************************/
 438:Generated_Source\PSoC4/Counter_1.c **** uint16 Counter_1_ReadPeriod(void) 
 439:Generated_Source\PSoC4/Counter_1.c **** {
 440:Generated_Source\PSoC4/Counter_1.c ****     #if(Counter_1_UsingFixedFunction)
 441:Generated_Source\PSoC4/Counter_1.c ****         return ((uint16)CY_GET_REG16(Counter_1_PERIOD_LSB_PTR));
 442:Generated_Source\PSoC4/Counter_1.c ****     #else
 443:Generated_Source\PSoC4/Counter_1.c ****         return (CY_GET_REG16(Counter_1_PERIOD_LSB_PTR));
 444:Generated_Source\PSoC4/Counter_1.c ****     #endif /* (Counter_1_UsingFixedFunction) */
 445:Generated_Source\PSoC4/Counter_1.c **** }
 446:Generated_Source\PSoC4/Counter_1.c **** 
 447:Generated_Source\PSoC4/Counter_1.c **** 
 448:Generated_Source\PSoC4/Counter_1.c **** #if (!Counter_1_UsingFixedFunction)
 449:Generated_Source\PSoC4/Counter_1.c **** /*******************************************************************************
 450:Generated_Source\PSoC4/Counter_1.c **** * Function Name: Counter_1_WriteCompare
ARM GAS  C:\Users\g\AppData\Local\Temp\ccXK3s4R.s 			page 10


 451:Generated_Source\PSoC4/Counter_1.c **** ********************************************************************************
 452:Generated_Source\PSoC4/Counter_1.c **** * Summary:
 453:Generated_Source\PSoC4/Counter_1.c **** * Changes the compare value.  The compare output will 
 454:Generated_Source\PSoC4/Counter_1.c **** * reflect the new value on the next UDB clock.  The compare output will be 
 455:Generated_Source\PSoC4/Counter_1.c **** * driven high when the present counter value compares true based on the 
 456:Generated_Source\PSoC4/Counter_1.c **** * configured compare mode setting. 
 457:Generated_Source\PSoC4/Counter_1.c **** *
 458:Generated_Source\PSoC4/Counter_1.c **** * Parameters:  
 459:Generated_Source\PSoC4/Counter_1.c **** *  Compare:  New compare value. 
 460:Generated_Source\PSoC4/Counter_1.c **** *
 461:Generated_Source\PSoC4/Counter_1.c **** * Return: 
 462:Generated_Source\PSoC4/Counter_1.c **** *  void
 463:Generated_Source\PSoC4/Counter_1.c **** *
 464:Generated_Source\PSoC4/Counter_1.c **** *******************************************************************************/
 465:Generated_Source\PSoC4/Counter_1.c **** void Counter_1_WriteCompare(uint16 compare) \
 466:Generated_Source\PSoC4/Counter_1.c ****                                    
 467:Generated_Source\PSoC4/Counter_1.c **** {
 468:Generated_Source\PSoC4/Counter_1.c ****     #if(Counter_1_UsingFixedFunction)
 469:Generated_Source\PSoC4/Counter_1.c ****         CY_SET_REG16(Counter_1_COMPARE_LSB_PTR, (uint16)compare);
 470:Generated_Source\PSoC4/Counter_1.c ****     #else
 471:Generated_Source\PSoC4/Counter_1.c ****         CY_SET_REG16(Counter_1_COMPARE_LSB_PTR, compare);
 472:Generated_Source\PSoC4/Counter_1.c ****     #endif /* (Counter_1_UsingFixedFunction) */
 473:Generated_Source\PSoC4/Counter_1.c **** }
 474:Generated_Source\PSoC4/Counter_1.c **** 
 475:Generated_Source\PSoC4/Counter_1.c **** 
 476:Generated_Source\PSoC4/Counter_1.c **** /*******************************************************************************
 477:Generated_Source\PSoC4/Counter_1.c **** * Function Name: Counter_1_ReadCompare
 478:Generated_Source\PSoC4/Counter_1.c **** ********************************************************************************
 479:Generated_Source\PSoC4/Counter_1.c **** * Summary:
 480:Generated_Source\PSoC4/Counter_1.c **** * Returns the compare value.
 481:Generated_Source\PSoC4/Counter_1.c **** *
 482:Generated_Source\PSoC4/Counter_1.c **** * Parameters:  
 483:Generated_Source\PSoC4/Counter_1.c **** *  void:
 484:Generated_Source\PSoC4/Counter_1.c **** *
 485:Generated_Source\PSoC4/Counter_1.c **** * Return: 
 486:Generated_Source\PSoC4/Counter_1.c **** *  (uint16) Present compare value.
 487:Generated_Source\PSoC4/Counter_1.c **** *
 488:Generated_Source\PSoC4/Counter_1.c **** *******************************************************************************/
 489:Generated_Source\PSoC4/Counter_1.c **** uint16 Counter_1_ReadCompare(void) 
 490:Generated_Source\PSoC4/Counter_1.c **** {
 491:Generated_Source\PSoC4/Counter_1.c ****     return (CY_GET_REG16(Counter_1_COMPARE_LSB_PTR));
 492:Generated_Source\PSoC4/Counter_1.c **** }
 493:Generated_Source\PSoC4/Counter_1.c **** 
 494:Generated_Source\PSoC4/Counter_1.c **** 
 495:Generated_Source\PSoC4/Counter_1.c **** #if (Counter_1_COMPARE_MODE_SOFTWARE)
 496:Generated_Source\PSoC4/Counter_1.c **** /*******************************************************************************
 497:Generated_Source\PSoC4/Counter_1.c **** * Function Name: Counter_1_SetCompareMode
 498:Generated_Source\PSoC4/Counter_1.c **** ********************************************************************************
 499:Generated_Source\PSoC4/Counter_1.c **** * Summary:
 500:Generated_Source\PSoC4/Counter_1.c **** *  Sets the software controlled Compare Mode.
 501:Generated_Source\PSoC4/Counter_1.c **** *
 502:Generated_Source\PSoC4/Counter_1.c **** * Parameters:
 503:Generated_Source\PSoC4/Counter_1.c **** *  compareMode:  Compare Mode Enumerated Type.
 504:Generated_Source\PSoC4/Counter_1.c **** *
 505:Generated_Source\PSoC4/Counter_1.c **** * Return:
 506:Generated_Source\PSoC4/Counter_1.c **** *  void
 507:Generated_Source\PSoC4/Counter_1.c **** *
ARM GAS  C:\Users\g\AppData\Local\Temp\ccXK3s4R.s 			page 11


 508:Generated_Source\PSoC4/Counter_1.c **** *******************************************************************************/
 509:Generated_Source\PSoC4/Counter_1.c **** void Counter_1_SetCompareMode(uint8 compareMode) 
 510:Generated_Source\PSoC4/Counter_1.c **** {
 511:Generated_Source\PSoC4/Counter_1.c ****     /* Clear the compare mode bits in the control register */
 512:Generated_Source\PSoC4/Counter_1.c ****     Counter_1_CONTROL &= ((uint8)(~Counter_1_CTRL_CMPMODE_MASK));
 513:Generated_Source\PSoC4/Counter_1.c ****     
 514:Generated_Source\PSoC4/Counter_1.c ****     /* Write the new setting */
 515:Generated_Source\PSoC4/Counter_1.c ****     Counter_1_CONTROL |= compareMode;
 516:Generated_Source\PSoC4/Counter_1.c **** }
 517:Generated_Source\PSoC4/Counter_1.c **** #endif  /* (Counter_1_COMPARE_MODE_SOFTWARE) */
 518:Generated_Source\PSoC4/Counter_1.c **** 
 519:Generated_Source\PSoC4/Counter_1.c **** 
 520:Generated_Source\PSoC4/Counter_1.c **** #if (Counter_1_CAPTURE_MODE_SOFTWARE)
 521:Generated_Source\PSoC4/Counter_1.c **** /*******************************************************************************
 522:Generated_Source\PSoC4/Counter_1.c **** * Function Name: Counter_1_SetCaptureMode
 523:Generated_Source\PSoC4/Counter_1.c **** ********************************************************************************
 524:Generated_Source\PSoC4/Counter_1.c **** * Summary:
 525:Generated_Source\PSoC4/Counter_1.c **** *  Sets the software controlled Capture Mode.
 526:Generated_Source\PSoC4/Counter_1.c **** *
 527:Generated_Source\PSoC4/Counter_1.c **** * Parameters:
 528:Generated_Source\PSoC4/Counter_1.c **** *  captureMode:  Capture Mode Enumerated Type.
 529:Generated_Source\PSoC4/Counter_1.c **** *
 530:Generated_Source\PSoC4/Counter_1.c **** * Return:
 531:Generated_Source\PSoC4/Counter_1.c **** *  void
 532:Generated_Source\PSoC4/Counter_1.c **** *
 533:Generated_Source\PSoC4/Counter_1.c **** *******************************************************************************/
 534:Generated_Source\PSoC4/Counter_1.c **** void Counter_1_SetCaptureMode(uint8 captureMode) 
 535:Generated_Source\PSoC4/Counter_1.c **** {
 536:Generated_Source\PSoC4/Counter_1.c ****     /* Clear the capture mode bits in the control register */
 537:Generated_Source\PSoC4/Counter_1.c ****     Counter_1_CONTROL &= ((uint8)(~Counter_1_CTRL_CAPMODE_MASK));
 538:Generated_Source\PSoC4/Counter_1.c ****     
 539:Generated_Source\PSoC4/Counter_1.c ****     /* Write the new setting */
 540:Generated_Source\PSoC4/Counter_1.c ****     Counter_1_CONTROL |= ((uint8)((uint8)captureMode << Counter_1_CTRL_CAPMODE0_SHIFT));
 541:Generated_Source\PSoC4/Counter_1.c **** }
 542:Generated_Source\PSoC4/Counter_1.c **** #endif  /* (Counter_1_CAPTURE_MODE_SOFTWARE) */
 543:Generated_Source\PSoC4/Counter_1.c **** 
 544:Generated_Source\PSoC4/Counter_1.c **** 
 545:Generated_Source\PSoC4/Counter_1.c **** /*******************************************************************************
 546:Generated_Source\PSoC4/Counter_1.c **** * Function Name: Counter_1_ClearFIFO
 547:Generated_Source\PSoC4/Counter_1.c **** ********************************************************************************
 548:Generated_Source\PSoC4/Counter_1.c **** * Summary:
 549:Generated_Source\PSoC4/Counter_1.c **** *   This function clears all capture data from the capture FIFO
 550:Generated_Source\PSoC4/Counter_1.c **** *
 551:Generated_Source\PSoC4/Counter_1.c **** * Parameters:  
 552:Generated_Source\PSoC4/Counter_1.c **** *  void:
 553:Generated_Source\PSoC4/Counter_1.c **** *
 554:Generated_Source\PSoC4/Counter_1.c **** * Return: 
 555:Generated_Source\PSoC4/Counter_1.c **** *  None
 556:Generated_Source\PSoC4/Counter_1.c **** *
 557:Generated_Source\PSoC4/Counter_1.c **** *******************************************************************************/
 558:Generated_Source\PSoC4/Counter_1.c **** void Counter_1_ClearFIFO(void) 
 559:Generated_Source\PSoC4/Counter_1.c **** {
 560:Generated_Source\PSoC4/Counter_1.c **** 
 561:Generated_Source\PSoC4/Counter_1.c ****     while(0u != (Counter_1_ReadStatusRegister() & Counter_1_STATUS_FIFONEMP))
  63              		.loc 1 561 0
  64 001c 5B06     		lsl	r3, r3, #25
  65 001e 05D5     		bpl	.L2
ARM GAS  C:\Users\g\AppData\Local\Temp\ccXK3s4R.s 			page 12


  66              	.LBB29:
  67              	.LBB30:
 395:Generated_Source\PSoC4/Counter_1.c ****     #endif /* (Counter_1_UsingFixedFunction) */
  68              		.loc 1 395 0
  69 0020 1048     		ldr	r0, .L10+8
  70              	.LBE30:
  71              	.LBE29:
  72              		.loc 1 561 0
  73 0022 3D31     		add	r1, r1, #61
  74              	.L6:
  75              	.LBB32:
  76              	.LBB31:
 395:Generated_Source\PSoC4/Counter_1.c ****     #endif /* (Counter_1_UsingFixedFunction) */
  77              		.loc 1 395 0
  78 0024 0388     		ldrh	r3, [r0]
  79              	.LBE31:
  80              	.LBE32:
  81              	.LBB33:
  82              	.LBB28:
 263:Generated_Source\PSoC4/Counter_1.c **** }
  83              		.loc 1 263 0
  84 0026 1378     		ldrb	r3, [r2]
  85              	.LBE28:
  86              	.LBE33:
  87              		.loc 1 561 0
  88 0028 1942     		tst	r1, r3
  89 002a FBD1     		bne	.L6
  90              	.L2:
  91              	.LVL5:
  92              	.LBE25:
  93              	.LBE24:
  94              	.LBB34:
  95              	.LBB35:
 420:Generated_Source\PSoC4/Counter_1.c ****     #endif /* (Counter_1_UsingFixedFunction) */
  96              		.loc 1 420 0
  97 002c 0223     		mov	r3, #2
  98 002e 0E4A     		ldr	r2, .L10+12
  99 0030 5B42     		neg	r3, r3
 100 0032 1380     		strh	r3, [r2]
 101              	.LVL6:
 102              	.LBE35:
 103              	.LBE34:
 104              	.LBB36:
 105              	.LBB37:
 337:Generated_Source\PSoC4/Counter_1.c ****     #endif /* (Counter_1_UsingFixedFunction) */
 106              		.loc 1 337 0
 107 0034 0D4A     		ldr	r2, .L10+16
 108              	.LBE37:
 109              	.LBE36:
 123:Generated_Source\PSoC4/Counter_1.c **** 
 110              		.loc 1 123 0
 111              		@ sp needed
 112              	.LBB39:
 113              	.LBB38:
 337:Generated_Source\PSoC4/Counter_1.c ****     #endif /* (Counter_1_UsingFixedFunction) */
 114              		.loc 1 337 0
 115 0036 1380     		strh	r3, [r2]
ARM GAS  C:\Users\g\AppData\Local\Temp\ccXK3s4R.s 			page 13


 116              	.LVL7:
 117              	.LBE38:
 118              	.LBE39:
 119              	.LBB40:
 120              	.LBB41:
 239:Generated_Source\PSoC4/Counter_1.c **** }
 121              		.loc 1 239 0
 122 0038 0022     		mov	r2, #0
 123 003a 0D4B     		ldr	r3, .L10+20
 124 003c 1A70     		strb	r2, [r3]
 125              	.LBE41:
 126              	.LBE40:
 127              	.LBB42:
 128              	.LBB43:
 263:Generated_Source\PSoC4/Counter_1.c **** }
 129              		.loc 1 263 0
 130 003e 084B     		ldr	r3, .L10+4
 131              	.LBE43:
 132              	.LBE42:
 133              	.LBB45:
 134              	.LBB46:
 471:Generated_Source\PSoC4/Counter_1.c ****     #endif /* (Counter_1_UsingFixedFunction) */
 135              		.loc 1 471 0
 136 0040 013A     		sub	r2, r2, #1
 137              	.LBE46:
 138              	.LBE45:
 139              	.LBB48:
 140              	.LBB44:
 263:Generated_Source\PSoC4/Counter_1.c **** }
 141              		.loc 1 263 0
 142 0042 1B78     		ldrb	r3, [r3]
 143              	.LVL8:
 144              	.LBE44:
 145              	.LBE48:
 146              	.LBB49:
 147              	.LBB47:
 471:Generated_Source\PSoC4/Counter_1.c ****     #endif /* (Counter_1_UsingFixedFunction) */
 148              		.loc 1 471 0
 149 0044 0B4B     		ldr	r3, .L10+24
 150 0046 1A80     		strh	r2, [r3]
 151              	.LBE47:
 152              	.LBE49:
 115:Generated_Source\PSoC4/Counter_1.c ****             
 153              		.loc 1 115 0
 154 0048 FFF7FEFF 		bl	CyEnterCriticalSection
 155              	.LVL9:
 117:Generated_Source\PSoC4/Counter_1.c ****             
 156              		.loc 1 117 0
 157 004c 1023     		mov	r3, #16
 158 004e 0A4A     		ldr	r2, .L10+28
 159 0050 1178     		ldrb	r1, [r2]
 160 0052 0B43     		orr	r3, r1
 161 0054 1370     		strb	r3, [r2]
 120:Generated_Source\PSoC4/Counter_1.c ****             
 162              		.loc 1 120 0
 163 0056 FFF7FEFF 		bl	CyExitCriticalSection
 164              	.LVL10:
ARM GAS  C:\Users\g\AppData\Local\Temp\ccXK3s4R.s 			page 14


 123:Generated_Source\PSoC4/Counter_1.c **** 
 165              		.loc 1 123 0
 166 005a 08BD     		pop	{r3, pc}
 167              	.L11:
 168              		.align	2
 169              	.L10:
 170 005c 73000F40 		.word	1074724979
 171 0060 63000F40 		.word	1074724963
 172 0064 84100F40 		.word	1074729092
 173 0068 44100F40 		.word	1074729028
 174 006c 04100F40 		.word	1074728964
 175 0070 83000F40 		.word	1074724995
 176 0074 64100F40 		.word	1074729060
 177 0078 93000F40 		.word	1074725011
 178              		.cfi_endproc
 179              	.LFE0:
 180              		.size	Counter_1_Init, .-Counter_1_Init
 181              		.section	.text.Counter_1_Enable,"ax",%progbits
 182              		.align	2
 183              		.global	Counter_1_Enable
 184              		.code	16
 185              		.thumb_func
 186              		.type	Counter_1_Enable, %function
 187              	Counter_1_Enable:
 188              	.LFB1:
 144:Generated_Source\PSoC4/Counter_1.c ****     /* Globally Enable the Fixed Function Block chosen */
 189              		.loc 1 144 0
 190              		.cfi_startproc
 155:Generated_Source\PSoC4/Counter_1.c ****     #endif /* (!Counter_1_ControlRegRemoved || Counter_1_UsingFixedFunction) */
 191              		.loc 1 155 0
 192 0000 8023     		mov	r3, #128
 193 0002 024A     		ldr	r2, .L13
 158:Generated_Source\PSoC4/Counter_1.c **** 
 194              		.loc 1 158 0
 195              		@ sp needed
 155:Generated_Source\PSoC4/Counter_1.c ****     #endif /* (!Counter_1_ControlRegRemoved || Counter_1_UsingFixedFunction) */
 196              		.loc 1 155 0
 197 0004 1178     		ldrb	r1, [r2]
 198 0006 0B43     		orr	r3, r1
 199 0008 1370     		strb	r3, [r2]
 158:Generated_Source\PSoC4/Counter_1.c **** 
 200              		.loc 1 158 0
 201 000a 7047     		bx	lr
 202              	.L14:
 203              		.align	2
 204              	.L13:
 205 000c 73000F40 		.word	1074724979
 206              		.cfi_endproc
 207              	.LFE1:
 208              		.size	Counter_1_Enable, .-Counter_1_Enable
 209              		.section	.text.Counter_1_Start,"ax",%progbits
 210              		.align	2
 211              		.global	Counter_1_Start
 212              		.code	16
 213              		.thumb_func
 214              		.type	Counter_1_Start, %function
 215              	Counter_1_Start:
ARM GAS  C:\Users\g\AppData\Local\Temp\ccXK3s4R.s 			page 15


 216              	.LFB2:
 179:Generated_Source\PSoC4/Counter_1.c ****     if(Counter_1_initVar == 0u)
 217              		.loc 1 179 0
 218              		.cfi_startproc
 219 0000 10B5     		push	{r4, lr}
 220              		.cfi_def_cfa_offset 8
 221              		.cfi_offset 4, -8
 222              		.cfi_offset 14, -4
 180:Generated_Source\PSoC4/Counter_1.c ****     {
 223              		.loc 1 180 0
 224 0002 074C     		ldr	r4, .L17
 225 0004 2378     		ldrb	r3, [r4]
 226 0006 002B     		cmp	r3, #0
 227 0008 03D1     		bne	.L16
 182:Generated_Source\PSoC4/Counter_1.c ****         
 228              		.loc 1 182 0
 229 000a FFF7FEFF 		bl	Counter_1_Init
 230              	.LVL11:
 184:Generated_Source\PSoC4/Counter_1.c ****     }
 231              		.loc 1 184 0
 232 000e 0123     		mov	r3, #1
 233 0010 2370     		strb	r3, [r4]
 234              	.L16:
 235              	.LBB50:
 236              	.LBB51:
 155:Generated_Source\PSoC4/Counter_1.c ****     #endif /* (!Counter_1_ControlRegRemoved || Counter_1_UsingFixedFunction) */
 237              		.loc 1 155 0
 238 0012 8023     		mov	r3, #128
 239 0014 034A     		ldr	r2, .L17+4
 240              	.LBE51:
 241              	.LBE50:
 189:Generated_Source\PSoC4/Counter_1.c **** 
 242              		.loc 1 189 0
 243              		@ sp needed
 244              	.LBB53:
 245              	.LBB52:
 155:Generated_Source\PSoC4/Counter_1.c ****     #endif /* (!Counter_1_ControlRegRemoved || Counter_1_UsingFixedFunction) */
 246              		.loc 1 155 0
 247 0016 1178     		ldrb	r1, [r2]
 248 0018 0B43     		orr	r3, r1
 249 001a 1370     		strb	r3, [r2]
 250              	.LBE52:
 251              	.LBE53:
 189:Generated_Source\PSoC4/Counter_1.c **** 
 252              		.loc 1 189 0
 253 001c 10BD     		pop	{r4, pc}
 254              	.L18:
 255 001e C046     		.align	2
 256              	.L17:
 257 0020 00000000 		.word	.LANCHOR0
 258 0024 73000F40 		.word	1074724979
 259              		.cfi_endproc
 260              	.LFE2:
 261              		.size	Counter_1_Start, .-Counter_1_Start
 262              		.section	.text.Counter_1_Stop,"ax",%progbits
 263              		.align	2
 264              		.global	Counter_1_Stop
ARM GAS  C:\Users\g\AppData\Local\Temp\ccXK3s4R.s 			page 16


 265              		.code	16
 266              		.thumb_func
 267              		.type	Counter_1_Stop, %function
 268              	Counter_1_Stop:
 269              	.LFB3:
 209:Generated_Source\PSoC4/Counter_1.c ****     /* Disable Counter */
 270              		.loc 1 209 0
 271              		.cfi_startproc
 212:Generated_Source\PSoC4/Counter_1.c ****     #endif /* (!Counter_1_ControlRegRemoved || Counter_1_UsingFixedFunction) */
 272              		.loc 1 212 0
 273 0000 7F21     		mov	r1, #127
 274 0002 024A     		ldr	r2, .L20
 220:Generated_Source\PSoC4/Counter_1.c **** 
 275              		.loc 1 220 0
 276              		@ sp needed
 212:Generated_Source\PSoC4/Counter_1.c ****     #endif /* (!Counter_1_ControlRegRemoved || Counter_1_UsingFixedFunction) */
 277              		.loc 1 212 0
 278 0004 1378     		ldrb	r3, [r2]
 279 0006 0B40     		and	r3, r1
 280 0008 1370     		strb	r3, [r2]
 220:Generated_Source\PSoC4/Counter_1.c **** 
 281              		.loc 1 220 0
 282 000a 7047     		bx	lr
 283              	.L21:
 284              		.align	2
 285              	.L20:
 286 000c 73000F40 		.word	1074724979
 287              		.cfi_endproc
 288              	.LFE3:
 289              		.size	Counter_1_Stop, .-Counter_1_Stop
 290              		.section	.text.Counter_1_SetInterruptMode,"ax",%progbits
 291              		.align	2
 292              		.global	Counter_1_SetInterruptMode
 293              		.code	16
 294              		.thumb_func
 295              		.type	Counter_1_SetInterruptMode, %function
 296              	Counter_1_SetInterruptMode:
 297              	.LFB4:
 238:Generated_Source\PSoC4/Counter_1.c ****     Counter_1_STATUS_MASK = interruptsMask;
 298              		.loc 1 238 0
 299              		.cfi_startproc
 300              	.LVL12:
 239:Generated_Source\PSoC4/Counter_1.c **** }
 301              		.loc 1 239 0
 302 0000 014B     		ldr	r3, .L23
 240:Generated_Source\PSoC4/Counter_1.c **** 
 303              		.loc 1 240 0
 304              		@ sp needed
 239:Generated_Source\PSoC4/Counter_1.c **** }
 305              		.loc 1 239 0
 306 0002 1870     		strb	r0, [r3]
 240:Generated_Source\PSoC4/Counter_1.c **** 
 307              		.loc 1 240 0
 308 0004 7047     		bx	lr
 309              	.L24:
 310 0006 C046     		.align	2
 311              	.L23:
ARM GAS  C:\Users\g\AppData\Local\Temp\ccXK3s4R.s 			page 17


 312 0008 83000F40 		.word	1074724995
 313              		.cfi_endproc
 314              	.LFE4:
 315              		.size	Counter_1_SetInterruptMode, .-Counter_1_SetInterruptMode
 316              		.section	.text.Counter_1_ReadStatusRegister,"ax",%progbits
 317              		.align	2
 318              		.global	Counter_1_ReadStatusRegister
 319              		.code	16
 320              		.thumb_func
 321              		.type	Counter_1_ReadStatusRegister, %function
 322              	Counter_1_ReadStatusRegister:
 323              	.LFB5:
 262:Generated_Source\PSoC4/Counter_1.c ****     return Counter_1_STATUS;
 324              		.loc 1 262 0
 325              		.cfi_startproc
 263:Generated_Source\PSoC4/Counter_1.c **** }
 326              		.loc 1 263 0
 327 0000 014B     		ldr	r3, .L26
 264:Generated_Source\PSoC4/Counter_1.c **** 
 328              		.loc 1 264 0
 329              		@ sp needed
 263:Generated_Source\PSoC4/Counter_1.c **** }
 330              		.loc 1 263 0
 331 0002 1878     		ldrb	r0, [r3]
 332 0004 C0B2     		uxtb	r0, r0
 264:Generated_Source\PSoC4/Counter_1.c **** 
 333              		.loc 1 264 0
 334 0006 7047     		bx	lr
 335              	.L27:
 336              		.align	2
 337              	.L26:
 338 0008 63000F40 		.word	1074724963
 339              		.cfi_endproc
 340              	.LFE5:
 341              		.size	Counter_1_ReadStatusRegister, .-Counter_1_ReadStatusRegister
 342              		.section	.text.Counter_1_ReadControlRegister,"ax",%progbits
 343              		.align	2
 344              		.global	Counter_1_ReadControlRegister
 345              		.code	16
 346              		.thumb_func
 347              		.type	Counter_1_ReadControlRegister, %function
 348              	Counter_1_ReadControlRegister:
 349              	.LFB6:
 284:Generated_Source\PSoC4/Counter_1.c ****     return Counter_1_CONTROL;
 350              		.loc 1 284 0
 351              		.cfi_startproc
 285:Generated_Source\PSoC4/Counter_1.c **** }
 352              		.loc 1 285 0
 353 0000 014B     		ldr	r3, .L29
 286:Generated_Source\PSoC4/Counter_1.c **** 
 354              		.loc 1 286 0
 355              		@ sp needed
 285:Generated_Source\PSoC4/Counter_1.c **** }
 356              		.loc 1 285 0
 357 0002 1878     		ldrb	r0, [r3]
 358 0004 C0B2     		uxtb	r0, r0
 286:Generated_Source\PSoC4/Counter_1.c **** 
ARM GAS  C:\Users\g\AppData\Local\Temp\ccXK3s4R.s 			page 18


 359              		.loc 1 286 0
 360 0006 7047     		bx	lr
 361              	.L30:
 362              		.align	2
 363              	.L29:
 364 0008 73000F40 		.word	1074724979
 365              		.cfi_endproc
 366              	.LFE6:
 367              		.size	Counter_1_ReadControlRegister, .-Counter_1_ReadControlRegister
 368              		.section	.text.Counter_1_WriteControlRegister,"ax",%progbits
 369              		.align	2
 370              		.global	Counter_1_WriteControlRegister
 371              		.code	16
 372              		.thumb_func
 373              		.type	Counter_1_WriteControlRegister, %function
 374              	Counter_1_WriteControlRegister:
 375              	.LFB7:
 305:Generated_Source\PSoC4/Counter_1.c ****     Counter_1_CONTROL = control;
 376              		.loc 1 305 0
 377              		.cfi_startproc
 378              	.LVL13:
 306:Generated_Source\PSoC4/Counter_1.c **** }
 379              		.loc 1 306 0
 380 0000 014B     		ldr	r3, .L32
 307:Generated_Source\PSoC4/Counter_1.c **** 
 381              		.loc 1 307 0
 382              		@ sp needed
 306:Generated_Source\PSoC4/Counter_1.c **** }
 383              		.loc 1 306 0
 384 0002 1870     		strb	r0, [r3]
 307:Generated_Source\PSoC4/Counter_1.c **** 
 385              		.loc 1 307 0
 386 0004 7047     		bx	lr
 387              	.L33:
 388 0006 C046     		.align	2
 389              	.L32:
 390 0008 73000F40 		.word	1074724979
 391              		.cfi_endproc
 392              	.LFE7:
 393              		.size	Counter_1_WriteControlRegister, .-Counter_1_WriteControlRegister
 394              		.section	.text.Counter_1_WriteCounter,"ax",%progbits
 395              		.align	2
 396              		.global	Counter_1_WriteCounter
 397              		.code	16
 398              		.thumb_func
 399              		.type	Counter_1_WriteCounter, %function
 400              	Counter_1_WriteCounter:
 401              	.LFB8:
 328:Generated_Source\PSoC4/Counter_1.c ****     #if(Counter_1_UsingFixedFunction)
 402              		.loc 1 328 0
 403              		.cfi_startproc
 404              	.LVL14:
 337:Generated_Source\PSoC4/Counter_1.c ****     #endif /* (Counter_1_UsingFixedFunction) */
 405              		.loc 1 337 0
 406 0000 014B     		ldr	r3, .L35
 339:Generated_Source\PSoC4/Counter_1.c **** #endif /* (!(Counter_1_UsingFixedFunction && (CY_PSOC5A))) */
 407              		.loc 1 339 0
ARM GAS  C:\Users\g\AppData\Local\Temp\ccXK3s4R.s 			page 19


 408              		@ sp needed
 337:Generated_Source\PSoC4/Counter_1.c ****     #endif /* (Counter_1_UsingFixedFunction) */
 409              		.loc 1 337 0
 410 0002 1880     		strh	r0, [r3]
 339:Generated_Source\PSoC4/Counter_1.c **** #endif /* (!(Counter_1_UsingFixedFunction && (CY_PSOC5A))) */
 411              		.loc 1 339 0
 412 0004 7047     		bx	lr
 413              	.L36:
 414 0006 C046     		.align	2
 415              	.L35:
 416 0008 04100F40 		.word	1074728964
 417              		.cfi_endproc
 418              	.LFE8:
 419              		.size	Counter_1_WriteCounter, .-Counter_1_WriteCounter
 420              		.section	.text.Counter_1_ReadCounter,"ax",%progbits
 421              		.align	2
 422              		.global	Counter_1_ReadCounter
 423              		.code	16
 424              		.thumb_func
 425              		.type	Counter_1_ReadCounter, %function
 426              	Counter_1_ReadCounter:
 427              	.LFB9:
 358:Generated_Source\PSoC4/Counter_1.c ****     /* Force capture by reading Accumulator */
 428              		.loc 1 358 0
 429              		.cfi_startproc
 365:Generated_Source\PSoC4/Counter_1.c **** 	#endif/* (Counter_1_UsingFixedFunction) */
 430              		.loc 1 365 0
 431 0000 024B     		ldr	r3, .L38
 374:Generated_Source\PSoC4/Counter_1.c **** 
 432              		.loc 1 374 0
 433              		@ sp needed
 365:Generated_Source\PSoC4/Counter_1.c **** 	#endif/* (Counter_1_UsingFixedFunction) */
 434              		.loc 1 365 0
 435 0002 1B78     		ldrb	r3, [r3]
 372:Generated_Source\PSoC4/Counter_1.c ****     #endif /* (Counter_1_UsingFixedFunction) */
 436              		.loc 1 372 0
 437 0004 024B     		ldr	r3, .L38+4
 438 0006 1888     		ldrh	r0, [r3]
 439 0008 80B2     		uxth	r0, r0
 374:Generated_Source\PSoC4/Counter_1.c **** 
 440              		.loc 1 374 0
 441 000a 7047     		bx	lr
 442              	.L39:
 443              		.align	2
 444              	.L38:
 445 000c 02000F40 		.word	1074724866
 446 0010 84100F40 		.word	1074729092
 447              		.cfi_endproc
 448              	.LFE9:
 449              		.size	Counter_1_ReadCounter, .-Counter_1_ReadCounter
 450              		.section	.text.Counter_1_ReadCapture,"ax",%progbits
 451              		.align	2
 452              		.global	Counter_1_ReadCapture
 453              		.code	16
 454              		.thumb_func
 455              		.type	Counter_1_ReadCapture, %function
 456              	Counter_1_ReadCapture:
ARM GAS  C:\Users\g\AppData\Local\Temp\ccXK3s4R.s 			page 20


 457              	.LFB10:
 391:Generated_Source\PSoC4/Counter_1.c ****     #if(Counter_1_UsingFixedFunction)
 458              		.loc 1 391 0
 459              		.cfi_startproc
 395:Generated_Source\PSoC4/Counter_1.c ****     #endif /* (Counter_1_UsingFixedFunction) */
 460              		.loc 1 395 0
 461 0000 014B     		ldr	r3, .L41
 397:Generated_Source\PSoC4/Counter_1.c **** 
 462              		.loc 1 397 0
 463              		@ sp needed
 395:Generated_Source\PSoC4/Counter_1.c ****     #endif /* (Counter_1_UsingFixedFunction) */
 464              		.loc 1 395 0
 465 0002 1888     		ldrh	r0, [r3]
 466 0004 80B2     		uxth	r0, r0
 397:Generated_Source\PSoC4/Counter_1.c **** 
 467              		.loc 1 397 0
 468 0006 7047     		bx	lr
 469              	.L42:
 470              		.align	2
 471              	.L41:
 472 0008 84100F40 		.word	1074729092
 473              		.cfi_endproc
 474              	.LFE10:
 475              		.size	Counter_1_ReadCapture, .-Counter_1_ReadCapture
 476              		.section	.text.Counter_1_WritePeriod,"ax",%progbits
 477              		.align	2
 478              		.global	Counter_1_WritePeriod
 479              		.code	16
 480              		.thumb_func
 481              		.type	Counter_1_WritePeriod, %function
 482              	Counter_1_WritePeriod:
 483              	.LFB11:
 416:Generated_Source\PSoC4/Counter_1.c ****     #if(Counter_1_UsingFixedFunction)
 484              		.loc 1 416 0
 485              		.cfi_startproc
 486              	.LVL15:
 420:Generated_Source\PSoC4/Counter_1.c ****     #endif /* (Counter_1_UsingFixedFunction) */
 487              		.loc 1 420 0
 488 0000 014B     		ldr	r3, .L44
 422:Generated_Source\PSoC4/Counter_1.c **** 
 489              		.loc 1 422 0
 490              		@ sp needed
 420:Generated_Source\PSoC4/Counter_1.c ****     #endif /* (Counter_1_UsingFixedFunction) */
 491              		.loc 1 420 0
 492 0002 1880     		strh	r0, [r3]
 422:Generated_Source\PSoC4/Counter_1.c **** 
 493              		.loc 1 422 0
 494 0004 7047     		bx	lr
 495              	.L45:
 496 0006 C046     		.align	2
 497              	.L44:
 498 0008 44100F40 		.word	1074729028
 499              		.cfi_endproc
 500              	.LFE11:
 501              		.size	Counter_1_WritePeriod, .-Counter_1_WritePeriod
 502              		.section	.text.Counter_1_ReadPeriod,"ax",%progbits
 503              		.align	2
ARM GAS  C:\Users\g\AppData\Local\Temp\ccXK3s4R.s 			page 21


 504              		.global	Counter_1_ReadPeriod
 505              		.code	16
 506              		.thumb_func
 507              		.type	Counter_1_ReadPeriod, %function
 508              	Counter_1_ReadPeriod:
 509              	.LFB12:
 439:Generated_Source\PSoC4/Counter_1.c ****     #if(Counter_1_UsingFixedFunction)
 510              		.loc 1 439 0
 511              		.cfi_startproc
 443:Generated_Source\PSoC4/Counter_1.c ****     #endif /* (Counter_1_UsingFixedFunction) */
 512              		.loc 1 443 0
 513 0000 014B     		ldr	r3, .L47
 445:Generated_Source\PSoC4/Counter_1.c **** 
 514              		.loc 1 445 0
 515              		@ sp needed
 443:Generated_Source\PSoC4/Counter_1.c ****     #endif /* (Counter_1_UsingFixedFunction) */
 516              		.loc 1 443 0
 517 0002 1888     		ldrh	r0, [r3]
 518 0004 80B2     		uxth	r0, r0
 445:Generated_Source\PSoC4/Counter_1.c **** 
 519              		.loc 1 445 0
 520 0006 7047     		bx	lr
 521              	.L48:
 522              		.align	2
 523              	.L47:
 524 0008 44100F40 		.word	1074729028
 525              		.cfi_endproc
 526              	.LFE12:
 527              		.size	Counter_1_ReadPeriod, .-Counter_1_ReadPeriod
 528              		.section	.text.Counter_1_WriteCompare,"ax",%progbits
 529              		.align	2
 530              		.global	Counter_1_WriteCompare
 531              		.code	16
 532              		.thumb_func
 533              		.type	Counter_1_WriteCompare, %function
 534              	Counter_1_WriteCompare:
 535              	.LFB13:
 467:Generated_Source\PSoC4/Counter_1.c ****     #if(Counter_1_UsingFixedFunction)
 536              		.loc 1 467 0
 537              		.cfi_startproc
 538              	.LVL16:
 471:Generated_Source\PSoC4/Counter_1.c ****     #endif /* (Counter_1_UsingFixedFunction) */
 539              		.loc 1 471 0
 540 0000 014B     		ldr	r3, .L50
 473:Generated_Source\PSoC4/Counter_1.c **** 
 541              		.loc 1 473 0
 542              		@ sp needed
 471:Generated_Source\PSoC4/Counter_1.c ****     #endif /* (Counter_1_UsingFixedFunction) */
 543              		.loc 1 471 0
 544 0002 1880     		strh	r0, [r3]
 473:Generated_Source\PSoC4/Counter_1.c **** 
 545              		.loc 1 473 0
 546 0004 7047     		bx	lr
 547              	.L51:
 548 0006 C046     		.align	2
 549              	.L50:
 550 0008 64100F40 		.word	1074729060
ARM GAS  C:\Users\g\AppData\Local\Temp\ccXK3s4R.s 			page 22


 551              		.cfi_endproc
 552              	.LFE13:
 553              		.size	Counter_1_WriteCompare, .-Counter_1_WriteCompare
 554              		.section	.text.Counter_1_ReadCompare,"ax",%progbits
 555              		.align	2
 556              		.global	Counter_1_ReadCompare
 557              		.code	16
 558              		.thumb_func
 559              		.type	Counter_1_ReadCompare, %function
 560              	Counter_1_ReadCompare:
 561              	.LFB14:
 490:Generated_Source\PSoC4/Counter_1.c ****     return (CY_GET_REG16(Counter_1_COMPARE_LSB_PTR));
 562              		.loc 1 490 0
 563              		.cfi_startproc
 491:Generated_Source\PSoC4/Counter_1.c **** }
 564              		.loc 1 491 0
 565 0000 014B     		ldr	r3, .L53
 492:Generated_Source\PSoC4/Counter_1.c **** 
 566              		.loc 1 492 0
 567              		@ sp needed
 491:Generated_Source\PSoC4/Counter_1.c **** }
 568              		.loc 1 491 0
 569 0002 1888     		ldrh	r0, [r3]
 570 0004 80B2     		uxth	r0, r0
 492:Generated_Source\PSoC4/Counter_1.c **** 
 571              		.loc 1 492 0
 572 0006 7047     		bx	lr
 573              	.L54:
 574              		.align	2
 575              	.L53:
 576 0008 64100F40 		.word	1074729060
 577              		.cfi_endproc
 578              	.LFE14:
 579              		.size	Counter_1_ReadCompare, .-Counter_1_ReadCompare
 580              		.section	.text.Counter_1_SetCompareMode,"ax",%progbits
 581              		.align	2
 582              		.global	Counter_1_SetCompareMode
 583              		.code	16
 584              		.thumb_func
 585              		.type	Counter_1_SetCompareMode, %function
 586              	Counter_1_SetCompareMode:
 587              	.LFB15:
 510:Generated_Source\PSoC4/Counter_1.c ****     /* Clear the compare mode bits in the control register */
 588              		.loc 1 510 0
 589              		.cfi_startproc
 590              	.LVL17:
 512:Generated_Source\PSoC4/Counter_1.c ****     
 591              		.loc 1 512 0
 592 0000 0721     		mov	r1, #7
 593 0002 044B     		ldr	r3, .L56
 516:Generated_Source\PSoC4/Counter_1.c **** #endif  /* (Counter_1_COMPARE_MODE_SOFTWARE) */
 594              		.loc 1 516 0
 595              		@ sp needed
 512:Generated_Source\PSoC4/Counter_1.c ****     
 596              		.loc 1 512 0
 597 0004 1A78     		ldrb	r2, [r3]
 598 0006 8A43     		bic	r2, r1
ARM GAS  C:\Users\g\AppData\Local\Temp\ccXK3s4R.s 			page 23


 599 0008 1A70     		strb	r2, [r3]
 515:Generated_Source\PSoC4/Counter_1.c **** }
 600              		.loc 1 515 0
 601 000a 1A78     		ldrb	r2, [r3]
 602 000c 1043     		orr	r0, r2
 603              	.LVL18:
 604 000e 1870     		strb	r0, [r3]
 516:Generated_Source\PSoC4/Counter_1.c **** #endif  /* (Counter_1_COMPARE_MODE_SOFTWARE) */
 605              		.loc 1 516 0
 606 0010 7047     		bx	lr
 607              	.L57:
 608 0012 C046     		.align	2
 609              	.L56:
 610 0014 73000F40 		.word	1074724979
 611              		.cfi_endproc
 612              	.LFE15:
 613              		.size	Counter_1_SetCompareMode, .-Counter_1_SetCompareMode
 614              		.section	.text.Counter_1_ClearFIFO,"ax",%progbits
 615              		.align	2
 616              		.global	Counter_1_ClearFIFO
 617              		.code	16
 618              		.thumb_func
 619              		.type	Counter_1_ClearFIFO, %function
 620              	Counter_1_ClearFIFO:
 621              	.LFB16:
 559:Generated_Source\PSoC4/Counter_1.c **** 
 622              		.loc 1 559 0
 623              		.cfi_startproc
 624              	.LBB54:
 625              	.LBB55:
 263:Generated_Source\PSoC4/Counter_1.c **** }
 626              		.loc 1 263 0
 627 0000 054A     		ldr	r2, .L66
 628 0002 1378     		ldrb	r3, [r2]
 629              	.LBE55:
 630              	.LBE54:
 631              		.loc 1 561 0
 632 0004 5B06     		lsl	r3, r3, #25
 633 0006 05D5     		bpl	.L58
 634 0008 4021     		mov	r1, #64
 635              	.LBB57:
 636              	.LBB58:
 395:Generated_Source\PSoC4/Counter_1.c ****     #endif /* (Counter_1_UsingFixedFunction) */
 637              		.loc 1 395 0
 638 000a 0448     		ldr	r0, .L66+4
 639              	.L63:
 640 000c 0388     		ldrh	r3, [r0]
 641              	.LBE58:
 642              	.LBE57:
 643              	.LBB59:
 644              	.LBB56:
 263:Generated_Source\PSoC4/Counter_1.c **** }
 645              		.loc 1 263 0
 646 000e 1378     		ldrb	r3, [r2]
 647              	.LBE56:
 648              	.LBE59:
 649              		.loc 1 561 0
ARM GAS  C:\Users\g\AppData\Local\Temp\ccXK3s4R.s 			page 24


 650 0010 1942     		tst	r1, r3
 651 0012 FBD1     		bne	.L63
 652              	.L58:
 562:Generated_Source\PSoC4/Counter_1.c ****     {
 563:Generated_Source\PSoC4/Counter_1.c ****         (void)Counter_1_ReadCapture();
 564:Generated_Source\PSoC4/Counter_1.c ****     }
 565:Generated_Source\PSoC4/Counter_1.c **** 
 566:Generated_Source\PSoC4/Counter_1.c **** }
 653              		.loc 1 566 0
 654              		@ sp needed
 655 0014 7047     		bx	lr
 656              	.L67:
 657 0016 C046     		.align	2
 658              	.L66:
 659 0018 63000F40 		.word	1074724963
 660 001c 84100F40 		.word	1074729092
 661              		.cfi_endproc
 662              	.LFE16:
 663              		.size	Counter_1_ClearFIFO, .-Counter_1_ClearFIFO
 664              		.global	Counter_1_initVar
 665              		.bss
 666              		.set	.LANCHOR0,. + 0
 667              		.type	Counter_1_initVar, %object
 668              		.size	Counter_1_initVar, 1
 669              	Counter_1_initVar:
 670 0000 00       		.space	1
 671              		.text
 672              	.Letext0:
 673              		.file 2 "Generated_Source\\PSoC4\\cytypes.h"
 674              		.file 3 "Generated_Source\\PSoC4\\CyLib.h"