ARM GAS  C:\Users\g\AppData\Local\Temp\ccplq7Se.s 			page 1


   1              		.cpu cortex-m0
   2              		.fpu softvfp
   3              		.eabi_attribute 20, 1
   4              		.eabi_attribute 21, 1
   5              		.eabi_attribute 23, 3
   6              		.eabi_attribute 24, 1
   7              		.eabi_attribute 25, 1
   8              		.eabi_attribute 26, 1
   9              		.eabi_attribute 30, 2
  10              		.eabi_attribute 34, 0
  11              		.eabi_attribute 18, 4
  12              		.code	16
  13              		.file	"cyfitter_cfg.c"
  14              		.text
  15              	.Ltext0:
  16              		.cfi_sections	.debug_frame
  17              		.section	.text.SetAnalogRoutingPumps,"ax",%progbits
  18              		.align	2
  19              		.global	SetAnalogRoutingPumps
  20              		.code	16
  21              		.thumb_func
  22              		.type	SetAnalogRoutingPumps, %function
  23              	SetAnalogRoutingPumps:
  24              	.LFB6:
  25              		.file 1 "Generated_Source\\PSoC4\\cyfitter_cfg.c"
   1:Generated_Source\PSoC4/cyfitter_cfg.c **** /*******************************************************************************
   2:Generated_Source\PSoC4/cyfitter_cfg.c **** * File Name: cyfitter_cfg.c
   3:Generated_Source\PSoC4/cyfitter_cfg.c **** * 
   4:Generated_Source\PSoC4/cyfitter_cfg.c **** * PSoC Creator  4.0 Update 1
   5:Generated_Source\PSoC4/cyfitter_cfg.c **** *
   6:Generated_Source\PSoC4/cyfitter_cfg.c **** * Description:
   7:Generated_Source\PSoC4/cyfitter_cfg.c **** * This file contains device initialization code.
   8:Generated_Source\PSoC4/cyfitter_cfg.c **** * Except for the user defined sections in CyClockStartupError(), this file should not be modified.
   9:Generated_Source\PSoC4/cyfitter_cfg.c **** * This file is automatically generated by PSoC Creator.
  10:Generated_Source\PSoC4/cyfitter_cfg.c **** *
  11:Generated_Source\PSoC4/cyfitter_cfg.c **** ********************************************************************************
  12:Generated_Source\PSoC4/cyfitter_cfg.c **** * Copyright (c) 2007-2016 Cypress Semiconductor.  All rights reserved.
  13:Generated_Source\PSoC4/cyfitter_cfg.c **** * You may use this file only in accordance with the license, terms, conditions, 
  14:Generated_Source\PSoC4/cyfitter_cfg.c **** * disclaimers, and limitations in the end user license agreement accompanying 
  15:Generated_Source\PSoC4/cyfitter_cfg.c **** * the software package with which this file was provided.
  16:Generated_Source\PSoC4/cyfitter_cfg.c **** ********************************************************************************/
  17:Generated_Source\PSoC4/cyfitter_cfg.c **** 
  18:Generated_Source\PSoC4/cyfitter_cfg.c **** #include <string.h>
  19:Generated_Source\PSoC4/cyfitter_cfg.c **** #include "cytypes.h"
  20:Generated_Source\PSoC4/cyfitter_cfg.c **** #include "cydevice_trm.h"
  21:Generated_Source\PSoC4/cyfitter_cfg.c **** #include "cyfitter.h"
  22:Generated_Source\PSoC4/cyfitter_cfg.c **** #include "CyLib.h"
  23:Generated_Source\PSoC4/cyfitter_cfg.c **** #include "CyLFClk.h"
  24:Generated_Source\PSoC4/cyfitter_cfg.c **** #include "cyfitter_cfg.h"
  25:Generated_Source\PSoC4/cyfitter_cfg.c **** #include "cyapicallbacks.h"
  26:Generated_Source\PSoC4/cyfitter_cfg.c **** 
  27:Generated_Source\PSoC4/cyfitter_cfg.c **** 
  28:Generated_Source\PSoC4/cyfitter_cfg.c **** #if defined(__GNUC__) || defined(__ARMCC_VERSION)
  29:Generated_Source\PSoC4/cyfitter_cfg.c ****     #define CYPACKED 
  30:Generated_Source\PSoC4/cyfitter_cfg.c ****     #define CYPACKED_ATTR __attribute__ ((packed))
  31:Generated_Source\PSoC4/cyfitter_cfg.c ****     #define CYALIGNED __attribute__ ((aligned))
  32:Generated_Source\PSoC4/cyfitter_cfg.c ****     #define CY_CFG_UNUSED __attribute__ ((unused))
ARM GAS  C:\Users\g\AppData\Local\Temp\ccplq7Se.s 			page 2


  33:Generated_Source\PSoC4/cyfitter_cfg.c ****     #ifndef CY_CFG_SECTION
  34:Generated_Source\PSoC4/cyfitter_cfg.c ****         #define CY_CFG_SECTION __attribute__ ((section(".psocinit")))
  35:Generated_Source\PSoC4/cyfitter_cfg.c ****     #endif
  36:Generated_Source\PSoC4/cyfitter_cfg.c ****     
  37:Generated_Source\PSoC4/cyfitter_cfg.c ****     #if defined(__ARMCC_VERSION)
  38:Generated_Source\PSoC4/cyfitter_cfg.c ****         #define CY_CFG_MEMORY_BARRIER() __memory_changed()
  39:Generated_Source\PSoC4/cyfitter_cfg.c ****     #else
  40:Generated_Source\PSoC4/cyfitter_cfg.c ****         #define CY_CFG_MEMORY_BARRIER() __sync_synchronize()
  41:Generated_Source\PSoC4/cyfitter_cfg.c ****     #endif
  42:Generated_Source\PSoC4/cyfitter_cfg.c ****     
  43:Generated_Source\PSoC4/cyfitter_cfg.c **** #elif defined(__ICCARM__)
  44:Generated_Source\PSoC4/cyfitter_cfg.c ****     #include <intrinsics.h>
  45:Generated_Source\PSoC4/cyfitter_cfg.c **** 
  46:Generated_Source\PSoC4/cyfitter_cfg.c ****     #define CYPACKED __packed
  47:Generated_Source\PSoC4/cyfitter_cfg.c ****     #define CYPACKED_ATTR 
  48:Generated_Source\PSoC4/cyfitter_cfg.c ****     #define CYALIGNED _Pragma("data_alignment=4")
  49:Generated_Source\PSoC4/cyfitter_cfg.c ****     #define CY_CFG_UNUSED _Pragma("diag_suppress=Pe177")
  50:Generated_Source\PSoC4/cyfitter_cfg.c ****     #define CY_CFG_SECTION _Pragma("location=\".psocinit\"")
  51:Generated_Source\PSoC4/cyfitter_cfg.c ****     
  52:Generated_Source\PSoC4/cyfitter_cfg.c ****     #define CY_CFG_MEMORY_BARRIER() __DMB()
  53:Generated_Source\PSoC4/cyfitter_cfg.c ****     
  54:Generated_Source\PSoC4/cyfitter_cfg.c **** #else
  55:Generated_Source\PSoC4/cyfitter_cfg.c ****     #error Unsupported toolchain
  56:Generated_Source\PSoC4/cyfitter_cfg.c **** #endif
  57:Generated_Source\PSoC4/cyfitter_cfg.c **** 
  58:Generated_Source\PSoC4/cyfitter_cfg.c **** 
  59:Generated_Source\PSoC4/cyfitter_cfg.c **** CY_CFG_UNUSED
  60:Generated_Source\PSoC4/cyfitter_cfg.c **** static void CYMEMZERO(void *s, size_t n);
  61:Generated_Source\PSoC4/cyfitter_cfg.c **** CY_CFG_UNUSED
  62:Generated_Source\PSoC4/cyfitter_cfg.c **** static void CYMEMZERO(void *s, size_t n)
  63:Generated_Source\PSoC4/cyfitter_cfg.c **** {
  64:Generated_Source\PSoC4/cyfitter_cfg.c **** 	(void)memset(s, 0, n);
  65:Generated_Source\PSoC4/cyfitter_cfg.c **** }
  66:Generated_Source\PSoC4/cyfitter_cfg.c **** CY_CFG_UNUSED
  67:Generated_Source\PSoC4/cyfitter_cfg.c **** static void CYCONFIGCPY(void *dest, const void *src, size_t n);
  68:Generated_Source\PSoC4/cyfitter_cfg.c **** CY_CFG_UNUSED
  69:Generated_Source\PSoC4/cyfitter_cfg.c **** static void CYCONFIGCPY(void *dest, const void *src, size_t n)
  70:Generated_Source\PSoC4/cyfitter_cfg.c **** {
  71:Generated_Source\PSoC4/cyfitter_cfg.c **** 	(void)memcpy(dest, src, n);
  72:Generated_Source\PSoC4/cyfitter_cfg.c **** }
  73:Generated_Source\PSoC4/cyfitter_cfg.c **** CY_CFG_UNUSED
  74:Generated_Source\PSoC4/cyfitter_cfg.c **** static void CYCONFIGCPYCODE(void *dest, const void *src, size_t n);
  75:Generated_Source\PSoC4/cyfitter_cfg.c **** CY_CFG_UNUSED
  76:Generated_Source\PSoC4/cyfitter_cfg.c **** static void CYCONFIGCPYCODE(void *dest, const void *src, size_t n)
  77:Generated_Source\PSoC4/cyfitter_cfg.c **** {
  78:Generated_Source\PSoC4/cyfitter_cfg.c **** 	(void)memcpy(dest, src, n);
  79:Generated_Source\PSoC4/cyfitter_cfg.c **** }
  80:Generated_Source\PSoC4/cyfitter_cfg.c **** 
  81:Generated_Source\PSoC4/cyfitter_cfg.c **** 
  82:Generated_Source\PSoC4/cyfitter_cfg.c **** 
  83:Generated_Source\PSoC4/cyfitter_cfg.c **** 
  84:Generated_Source\PSoC4/cyfitter_cfg.c **** /* Clock startup error codes                                                   */
  85:Generated_Source\PSoC4/cyfitter_cfg.c **** #define CYCLOCKSTART_NO_ERROR    0u
  86:Generated_Source\PSoC4/cyfitter_cfg.c **** #define CYCLOCKSTART_XTAL_ERROR  1u
  87:Generated_Source\PSoC4/cyfitter_cfg.c **** #define CYCLOCKSTART_32KHZ_ERROR 2u
  88:Generated_Source\PSoC4/cyfitter_cfg.c **** #define CYCLOCKSTART_PLL_ERROR   3u
  89:Generated_Source\PSoC4/cyfitter_cfg.c **** 
ARM GAS  C:\Users\g\AppData\Local\Temp\ccplq7Se.s 			page 3


  90:Generated_Source\PSoC4/cyfitter_cfg.c **** 
  91:Generated_Source\PSoC4/cyfitter_cfg.c **** #ifdef CY_NEED_CYCLOCKSTARTUPERROR
  92:Generated_Source\PSoC4/cyfitter_cfg.c **** /*******************************************************************************
  93:Generated_Source\PSoC4/cyfitter_cfg.c **** * Function Name: CyClockStartupError
  94:Generated_Source\PSoC4/cyfitter_cfg.c **** ********************************************************************************
  95:Generated_Source\PSoC4/cyfitter_cfg.c **** * Summary:
  96:Generated_Source\PSoC4/cyfitter_cfg.c **** *  If an error is encountered during clock configuration (crystal startup error,
  97:Generated_Source\PSoC4/cyfitter_cfg.c **** *  PLL lock error, etc.), the system will end up here.  Unless reimplemented by
  98:Generated_Source\PSoC4/cyfitter_cfg.c **** *  the customer, this function will stop in an infinite loop.
  99:Generated_Source\PSoC4/cyfitter_cfg.c **** *
 100:Generated_Source\PSoC4/cyfitter_cfg.c **** * Parameters:
 101:Generated_Source\PSoC4/cyfitter_cfg.c **** *   void
 102:Generated_Source\PSoC4/cyfitter_cfg.c **** *
 103:Generated_Source\PSoC4/cyfitter_cfg.c **** * Return:
 104:Generated_Source\PSoC4/cyfitter_cfg.c **** *   void
 105:Generated_Source\PSoC4/cyfitter_cfg.c **** *
 106:Generated_Source\PSoC4/cyfitter_cfg.c **** *******************************************************************************/
 107:Generated_Source\PSoC4/cyfitter_cfg.c **** CY_CFG_UNUSED
 108:Generated_Source\PSoC4/cyfitter_cfg.c **** static void CyClockStartupError(uint8 errorCode);
 109:Generated_Source\PSoC4/cyfitter_cfg.c **** CY_CFG_UNUSED
 110:Generated_Source\PSoC4/cyfitter_cfg.c **** static void CyClockStartupError(uint8 errorCode)
 111:Generated_Source\PSoC4/cyfitter_cfg.c **** {
 112:Generated_Source\PSoC4/cyfitter_cfg.c ****     /* To remove the compiler warning if errorCode not used.                */
 113:Generated_Source\PSoC4/cyfitter_cfg.c ****     errorCode = errorCode;
 114:Generated_Source\PSoC4/cyfitter_cfg.c **** 
 115:Generated_Source\PSoC4/cyfitter_cfg.c ****     /* If we have a clock startup error (bad MHz crystal, PLL lock, etc.),  */
 116:Generated_Source\PSoC4/cyfitter_cfg.c ****     /* we will end up here to allow the customer to implement something to  */
 117:Generated_Source\PSoC4/cyfitter_cfg.c ****     /* deal with the clock condition.                                       */
 118:Generated_Source\PSoC4/cyfitter_cfg.c **** 
 119:Generated_Source\PSoC4/cyfitter_cfg.c **** #ifdef CY_CFG_CLOCK_STARTUP_ERROR_CALLBACK
 120:Generated_Source\PSoC4/cyfitter_cfg.c **** 	CY_CFG_Clock_Startup_ErrorCallback();
 121:Generated_Source\PSoC4/cyfitter_cfg.c **** #else
 122:Generated_Source\PSoC4/cyfitter_cfg.c **** 	/*  If not using CY_CFG_CLOCK_STARTUP_ERROR_CALLBACK, place your clock startup code here. */
 123:Generated_Source\PSoC4/cyfitter_cfg.c ****     /* `#START CyClockStartupError` */
 124:Generated_Source\PSoC4/cyfitter_cfg.c **** 
 125:Generated_Source\PSoC4/cyfitter_cfg.c **** 
 126:Generated_Source\PSoC4/cyfitter_cfg.c **** 
 127:Generated_Source\PSoC4/cyfitter_cfg.c ****     /* `#END` */
 128:Generated_Source\PSoC4/cyfitter_cfg.c **** 
 129:Generated_Source\PSoC4/cyfitter_cfg.c ****     /* If nothing else, stop here since the clocks have not started         */
 130:Generated_Source\PSoC4/cyfitter_cfg.c ****     /* correctly.                                                           */
 131:Generated_Source\PSoC4/cyfitter_cfg.c ****     while(1) {}
 132:Generated_Source\PSoC4/cyfitter_cfg.c **** #endif /* CY_CFG_CLOCK_STARTUP_ERROR_CALLBACK */ 
 133:Generated_Source\PSoC4/cyfitter_cfg.c **** }
 134:Generated_Source\PSoC4/cyfitter_cfg.c **** #endif
 135:Generated_Source\PSoC4/cyfitter_cfg.c **** 
 136:Generated_Source\PSoC4/cyfitter_cfg.c **** #define CY_CFG_BASE_ADDR_COUNT 10u
 137:Generated_Source\PSoC4/cyfitter_cfg.c **** CYPACKED typedef struct
 138:Generated_Source\PSoC4/cyfitter_cfg.c **** {
 139:Generated_Source\PSoC4/cyfitter_cfg.c **** 	uint8 offset;
 140:Generated_Source\PSoC4/cyfitter_cfg.c **** 	uint8 value;
 141:Generated_Source\PSoC4/cyfitter_cfg.c **** } CYPACKED_ATTR cy_cfg_addrvalue_t;
 142:Generated_Source\PSoC4/cyfitter_cfg.c **** 
 143:Generated_Source\PSoC4/cyfitter_cfg.c **** 
 144:Generated_Source\PSoC4/cyfitter_cfg.c **** 
 145:Generated_Source\PSoC4/cyfitter_cfg.c **** /*******************************************************************************
 146:Generated_Source\PSoC4/cyfitter_cfg.c **** * Function Name: cfg_write_bytes32
ARM GAS  C:\Users\g\AppData\Local\Temp\ccplq7Se.s 			page 4


 147:Generated_Source\PSoC4/cyfitter_cfg.c **** ********************************************************************************
 148:Generated_Source\PSoC4/cyfitter_cfg.c **** * Summary:
 149:Generated_Source\PSoC4/cyfitter_cfg.c **** *  This function is used for setting up the chip configuration areas that
 150:Generated_Source\PSoC4/cyfitter_cfg.c **** *  contain relatively sparse data.
 151:Generated_Source\PSoC4/cyfitter_cfg.c **** *
 152:Generated_Source\PSoC4/cyfitter_cfg.c **** * Parameters:
 153:Generated_Source\PSoC4/cyfitter_cfg.c **** *   void
 154:Generated_Source\PSoC4/cyfitter_cfg.c **** *
 155:Generated_Source\PSoC4/cyfitter_cfg.c **** * Return:
 156:Generated_Source\PSoC4/cyfitter_cfg.c **** *   void
 157:Generated_Source\PSoC4/cyfitter_cfg.c **** *
 158:Generated_Source\PSoC4/cyfitter_cfg.c **** *******************************************************************************/
 159:Generated_Source\PSoC4/cyfitter_cfg.c **** static void cfg_write_bytes32(const uint32 addr_table[], const cy_cfg_addrvalue_t data_table[]);
 160:Generated_Source\PSoC4/cyfitter_cfg.c **** static void cfg_write_bytes32(const uint32 addr_table[], const cy_cfg_addrvalue_t data_table[])
 161:Generated_Source\PSoC4/cyfitter_cfg.c **** {
 162:Generated_Source\PSoC4/cyfitter_cfg.c **** 	/* For 32-bit little-endian architectures */
 163:Generated_Source\PSoC4/cyfitter_cfg.c **** 	uint32 i, j = 0u;
 164:Generated_Source\PSoC4/cyfitter_cfg.c **** 	for (i = 0u; i < CY_CFG_BASE_ADDR_COUNT; i++)
 165:Generated_Source\PSoC4/cyfitter_cfg.c **** 	{
 166:Generated_Source\PSoC4/cyfitter_cfg.c **** 		uint32 baseAddr = addr_table[i];
 167:Generated_Source\PSoC4/cyfitter_cfg.c **** 		uint8 count = (uint8)baseAddr;
 168:Generated_Source\PSoC4/cyfitter_cfg.c **** 		baseAddr &= 0xFFFFFF00u;
 169:Generated_Source\PSoC4/cyfitter_cfg.c **** 		while (count != 0u)
 170:Generated_Source\PSoC4/cyfitter_cfg.c **** 		{
 171:Generated_Source\PSoC4/cyfitter_cfg.c **** 			CY_SET_XTND_REG8((void CYFAR *)(baseAddr + data_table[j].offset), data_table[j].value);
 172:Generated_Source\PSoC4/cyfitter_cfg.c **** 			j++;
 173:Generated_Source\PSoC4/cyfitter_cfg.c **** 			count--;
 174:Generated_Source\PSoC4/cyfitter_cfg.c **** 		}
 175:Generated_Source\PSoC4/cyfitter_cfg.c **** 	}
 176:Generated_Source\PSoC4/cyfitter_cfg.c **** }
 177:Generated_Source\PSoC4/cyfitter_cfg.c **** 
 178:Generated_Source\PSoC4/cyfitter_cfg.c **** 
 179:Generated_Source\PSoC4/cyfitter_cfg.c **** /*******************************************************************************
 180:Generated_Source\PSoC4/cyfitter_cfg.c **** * Function Name: ClockSetup
 181:Generated_Source\PSoC4/cyfitter_cfg.c **** ********************************************************************************
 182:Generated_Source\PSoC4/cyfitter_cfg.c **** *
 183:Generated_Source\PSoC4/cyfitter_cfg.c **** * Summary:
 184:Generated_Source\PSoC4/cyfitter_cfg.c **** *   Performs the initialization of all of the clocks in the device based on the
 185:Generated_Source\PSoC4/cyfitter_cfg.c **** *   settings in the Clock tab of the DWR.  This includes enabling the requested
 186:Generated_Source\PSoC4/cyfitter_cfg.c **** *   clocks and setting the necessary dividers to produce the desired frequency. 
 187:Generated_Source\PSoC4/cyfitter_cfg.c **** *
 188:Generated_Source\PSoC4/cyfitter_cfg.c **** * Parameters:
 189:Generated_Source\PSoC4/cyfitter_cfg.c **** *   void
 190:Generated_Source\PSoC4/cyfitter_cfg.c **** *
 191:Generated_Source\PSoC4/cyfitter_cfg.c **** * Return:
 192:Generated_Source\PSoC4/cyfitter_cfg.c **** *   void
 193:Generated_Source\PSoC4/cyfitter_cfg.c **** *
 194:Generated_Source\PSoC4/cyfitter_cfg.c **** *******************************************************************************/
 195:Generated_Source\PSoC4/cyfitter_cfg.c **** static void ClockSetup(void);
 196:Generated_Source\PSoC4/cyfitter_cfg.c **** CY_CFG_SECTION
 197:Generated_Source\PSoC4/cyfitter_cfg.c **** static void ClockSetup(void)
 198:Generated_Source\PSoC4/cyfitter_cfg.c **** {
 199:Generated_Source\PSoC4/cyfitter_cfg.c **** 	/* Enable HALF_EN before trimming for the flash accelerator. */
 200:Generated_Source\PSoC4/cyfitter_cfg.c **** 	CY_SET_REG32((void CYXDATA *)(CYREG_CLK_SELECT), (CY_GET_REG32((void *)CYREG_CLK_SELECT) | 0x00040
 201:Generated_Source\PSoC4/cyfitter_cfg.c **** 
 202:Generated_Source\PSoC4/cyfitter_cfg.c **** 	/* Setup and trim IMO based on desired frequency. */
 203:Generated_Source\PSoC4/cyfitter_cfg.c **** 	CySysClkWriteImoFreq(48u);
ARM GAS  C:\Users\g\AppData\Local\Temp\ccplq7Se.s 			page 5


 204:Generated_Source\PSoC4/cyfitter_cfg.c **** 	/* CYDEV_CLK_ILO_CONFIG Starting address: CYDEV_CLK_ILO_CONFIG */
 205:Generated_Source\PSoC4/cyfitter_cfg.c **** 	CY_SET_XTND_REG32((void CYFAR *)(CYREG_CLK_ILO_CONFIG), 0x80000006u);
 206:Generated_Source\PSoC4/cyfitter_cfg.c **** 
 207:Generated_Source\PSoC4/cyfitter_cfg.c **** 
 208:Generated_Source\PSoC4/cyfitter_cfg.c **** 	/* CYDEV_CLK_SELECT00 Starting address: CYDEV_CLK_SELECT00 */
 209:Generated_Source\PSoC4/cyfitter_cfg.c **** 	CY_SET_XTND_REG32((void CYFAR *)(CYREG_CLK_SELECT03), 0x00000021u);
 210:Generated_Source\PSoC4/cyfitter_cfg.c **** 	CY_SET_XTND_REG32((void CYFAR *)(CYREG_CLK_SELECT07), 0x00000011u);
 211:Generated_Source\PSoC4/cyfitter_cfg.c **** 	CY_SET_XTND_REG32((void CYFAR *)(CYREG_CLK_SELECT08), 0x00000030u);
 212:Generated_Source\PSoC4/cyfitter_cfg.c **** 	CY_SET_XTND_REG32((void CYFAR *)(CYREG_CLK_SELECT09), 0x00000010u);
 213:Generated_Source\PSoC4/cyfitter_cfg.c **** 	CY_SET_XTND_REG32((void CYFAR *)(CYREG_CLK_SELECT13), 0x00000010u);
 214:Generated_Source\PSoC4/cyfitter_cfg.c **** 	CY_SET_XTND_REG32((void CYFAR *)(CYREG_CLK_SELECT15), 0x00000020u);
 215:Generated_Source\PSoC4/cyfitter_cfg.c **** 
 216:Generated_Source\PSoC4/cyfitter_cfg.c **** 	/* CYDEV_CLK_IMO_CONFIG Starting address: CYDEV_CLK_IMO_CONFIG */
 217:Generated_Source\PSoC4/cyfitter_cfg.c **** 	CY_SET_XTND_REG32((void CYFAR *)(CYREG_CLK_IMO_CONFIG), 0x82000000u);
 218:Generated_Source\PSoC4/cyfitter_cfg.c **** 
 219:Generated_Source\PSoC4/cyfitter_cfg.c **** 	/* CYDEV_CLK_SELECT Starting address: CYDEV_CLK_SELECT */
 220:Generated_Source\PSoC4/cyfitter_cfg.c **** 	CY_SET_XTND_REG32((void CYFAR *)(CYREG_CLK_SELECT), 0x00040000u);
 221:Generated_Source\PSoC4/cyfitter_cfg.c **** 
 222:Generated_Source\PSoC4/cyfitter_cfg.c **** 	/* CYDEV_CLK_DIVIDER_A00 Starting address: CYDEV_CLK_DIVIDER_A00 */
 223:Generated_Source\PSoC4/cyfitter_cfg.c **** 	CY_SET_XTND_REG32((void CYFAR *)(CYREG_CLK_DIVIDER_A00), 0x80000003u);
 224:Generated_Source\PSoC4/cyfitter_cfg.c **** 
 225:Generated_Source\PSoC4/cyfitter_cfg.c **** 	/* CYDEV_CLK_DIVIDER_B00 Starting address: CYDEV_CLK_DIVIDER_B00 */
 226:Generated_Source\PSoC4/cyfitter_cfg.c **** 	CY_SET_XTND_REG32((void CYFAR *)(CYREG_CLK_DIVIDER_B00), 0xC0000003u);
 227:Generated_Source\PSoC4/cyfitter_cfg.c **** 
 228:Generated_Source\PSoC4/cyfitter_cfg.c **** 	/* CYDEV_CLK_DIVIDER_C00 Starting address: CYDEV_CLK_DIVIDER_C00 */
 229:Generated_Source\PSoC4/cyfitter_cfg.c **** 	CY_SET_XTND_REG32((void CYFAR *)(CYREG_CLK_DIVIDER_C00), 0x80000000u);
 230:Generated_Source\PSoC4/cyfitter_cfg.c **** 
 231:Generated_Source\PSoC4/cyfitter_cfg.c **** 	/* CYDEV_CLK_DIVIDER_A01 Starting address: CYDEV_CLK_DIVIDER_A01 */
 232:Generated_Source\PSoC4/cyfitter_cfg.c **** 	CY_SET_XTND_REG32((void CYFAR *)(CYREG_CLK_DIVIDER_A01), 0x80000003u);
 233:Generated_Source\PSoC4/cyfitter_cfg.c **** 
 234:Generated_Source\PSoC4/cyfitter_cfg.c **** 	/* CYDEV_CLK_DIVIDER_B01 Starting address: CYDEV_CLK_DIVIDER_B01 */
 235:Generated_Source\PSoC4/cyfitter_cfg.c **** 	CY_SET_XTND_REG32((void CYFAR *)(CYREG_CLK_DIVIDER_B01), 0x800000F9u);
 236:Generated_Source\PSoC4/cyfitter_cfg.c **** 
 237:Generated_Source\PSoC4/cyfitter_cfg.c **** 	(void)CyIntSetVector(9u, &CySysWdtIsr);
 238:Generated_Source\PSoC4/cyfitter_cfg.c **** 	CyIntEnable(9u);
 239:Generated_Source\PSoC4/cyfitter_cfg.c **** 	CY_SET_XTND_REG32((void CYFAR *)(CYREG_WDT_CONFIG), 0x00000000u);
 240:Generated_Source\PSoC4/cyfitter_cfg.c **** }
 241:Generated_Source\PSoC4/cyfitter_cfg.c **** 
 242:Generated_Source\PSoC4/cyfitter_cfg.c **** 
 243:Generated_Source\PSoC4/cyfitter_cfg.c **** /* Analog API Functions */
 244:Generated_Source\PSoC4/cyfitter_cfg.c **** 
 245:Generated_Source\PSoC4/cyfitter_cfg.c **** 
 246:Generated_Source\PSoC4/cyfitter_cfg.c **** /*******************************************************************************
 247:Generated_Source\PSoC4/cyfitter_cfg.c **** * Function Name: AnalogSetDefault
 248:Generated_Source\PSoC4/cyfitter_cfg.c **** ********************************************************************************
 249:Generated_Source\PSoC4/cyfitter_cfg.c **** *
 250:Generated_Source\PSoC4/cyfitter_cfg.c **** * Summary:
 251:Generated_Source\PSoC4/cyfitter_cfg.c **** *  Sets up the analog portions of the chip to default values based on chip
 252:Generated_Source\PSoC4/cyfitter_cfg.c **** *  configuration options from the project.
 253:Generated_Source\PSoC4/cyfitter_cfg.c **** *
 254:Generated_Source\PSoC4/cyfitter_cfg.c **** * Parameters:
 255:Generated_Source\PSoC4/cyfitter_cfg.c **** *  void
 256:Generated_Source\PSoC4/cyfitter_cfg.c **** *
 257:Generated_Source\PSoC4/cyfitter_cfg.c **** * Return:
 258:Generated_Source\PSoC4/cyfitter_cfg.c **** *  void
 259:Generated_Source\PSoC4/cyfitter_cfg.c **** *
 260:Generated_Source\PSoC4/cyfitter_cfg.c **** *******************************************************************************/
ARM GAS  C:\Users\g\AppData\Local\Temp\ccplq7Se.s 			page 6


 261:Generated_Source\PSoC4/cyfitter_cfg.c **** static void AnalogSetDefault(void);
 262:Generated_Source\PSoC4/cyfitter_cfg.c **** static void AnalogSetDefault(void)
 263:Generated_Source\PSoC4/cyfitter_cfg.c **** {
 264:Generated_Source\PSoC4/cyfitter_cfg.c **** 	CY_SET_XTND_REG32((void CYFAR *)CYREG_SAR_MUX_SWITCH0, 0x00000004u);
 265:Generated_Source\PSoC4/cyfitter_cfg.c **** 	/* Variable VDDA is selected; no pumps are enabled by default */
 266:Generated_Source\PSoC4/cyfitter_cfg.c **** }
 267:Generated_Source\PSoC4/cyfitter_cfg.c **** 
 268:Generated_Source\PSoC4/cyfitter_cfg.c **** 
 269:Generated_Source\PSoC4/cyfitter_cfg.c **** /*******************************************************************************
 270:Generated_Source\PSoC4/cyfitter_cfg.c **** * Function Name: SetAnalogRoutingPumps
 271:Generated_Source\PSoC4/cyfitter_cfg.c **** ********************************************************************************
 272:Generated_Source\PSoC4/cyfitter_cfg.c **** *
 273:Generated_Source\PSoC4/cyfitter_cfg.c **** * Summary:
 274:Generated_Source\PSoC4/cyfitter_cfg.c **** * Enables or disables the analog pumps feeding analog routing switches.
 275:Generated_Source\PSoC4/cyfitter_cfg.c **** * Intended to be called at startup, based on the Vdda system configuration;
 276:Generated_Source\PSoC4/cyfitter_cfg.c **** * may be called during operation when the user informs us that the Vdda voltage crossed the pump th
 277:Generated_Source\PSoC4/cyfitter_cfg.c **** *
 278:Generated_Source\PSoC4/cyfitter_cfg.c **** * Parameters:
 279:Generated_Source\PSoC4/cyfitter_cfg.c **** *  enabled - 1 to enable the pumps, 0 to disable the pumps
 280:Generated_Source\PSoC4/cyfitter_cfg.c **** *
 281:Generated_Source\PSoC4/cyfitter_cfg.c **** * Return:
 282:Generated_Source\PSoC4/cyfitter_cfg.c **** *  void
 283:Generated_Source\PSoC4/cyfitter_cfg.c **** *
 284:Generated_Source\PSoC4/cyfitter_cfg.c **** *******************************************************************************/
 285:Generated_Source\PSoC4/cyfitter_cfg.c **** void SetAnalogRoutingPumps(uint8 enabled)
 286:Generated_Source\PSoC4/cyfitter_cfg.c **** {
  26              		.loc 1 286 0
  27              		.cfi_startproc
  28              	.LVL0:
 287:Generated_Source\PSoC4/cyfitter_cfg.c **** 	uint32 regValue = CY_GET_XTND_REG32((void *)(CYREG_SAR_PUMP_CTRL));
  29              		.loc 1 287 0
  30 0000 064B     		ldr	r3, .L6
  31 0002 1B68     		ldr	r3, [r3]
  32              	.LVL1:
 288:Generated_Source\PSoC4/cyfitter_cfg.c **** 	if (enabled != 0u)
  33              		.loc 1 288 0
  34 0004 0028     		cmp	r0, #0
  35 0006 04D1     		bne	.L5
 289:Generated_Source\PSoC4/cyfitter_cfg.c **** 	{
 290:Generated_Source\PSoC4/cyfitter_cfg.c **** 		regValue |= 0x80000000u;
 291:Generated_Source\PSoC4/cyfitter_cfg.c **** 	}
 292:Generated_Source\PSoC4/cyfitter_cfg.c **** 	else
 293:Generated_Source\PSoC4/cyfitter_cfg.c **** 	{
 294:Generated_Source\PSoC4/cyfitter_cfg.c **** 		regValue &= ~0x80000000u;
  36              		.loc 1 294 0
  37 0008 5B00     		lsl	r3, r3, #1
  38              	.LVL2:
  39 000a 5B08     		lsr	r3, r3, #1
  40              	.LVL3:
  41              	.L3:
 295:Generated_Source\PSoC4/cyfitter_cfg.c **** 	}
 296:Generated_Source\PSoC4/cyfitter_cfg.c **** 	CY_SET_XTND_REG32((void *)(CYREG_SAR_PUMP_CTRL), regValue);
  42              		.loc 1 296 0
  43 000c 034A     		ldr	r2, .L6
 297:Generated_Source\PSoC4/cyfitter_cfg.c **** }
  44              		.loc 1 297 0
  45              		@ sp needed
ARM GAS  C:\Users\g\AppData\Local\Temp\ccplq7Se.s 			page 7


 296:Generated_Source\PSoC4/cyfitter_cfg.c **** }
  46              		.loc 1 296 0
  47 000e 1360     		str	r3, [r2]
  48              		.loc 1 297 0
  49 0010 7047     		bx	lr
  50              	.L5:
 290:Generated_Source\PSoC4/cyfitter_cfg.c **** 	}
  51              		.loc 1 290 0
  52 0012 8022     		mov	r2, #128
  53 0014 1206     		lsl	r2, r2, #24
  54 0016 1343     		orr	r3, r2
  55              	.LVL4:
  56 0018 F8E7     		b	.L3
  57              	.L7:
  58 001a C046     		.align	2
  59              	.L6:
  60 001c 80031A40 		.word	1075446656
  61              		.cfi_endproc
  62              	.LFE6:
  63              		.size	SetAnalogRoutingPumps, .-SetAnalogRoutingPumps
  64              		.section	.psocinit,"ax",%progbits
  65              		.align	2
  66              		.global	cyfitter_cfg
  67              		.code	16
  68              		.thumb_func
  69              		.type	cyfitter_cfg, %function
  70              	cyfitter_cfg:
  71              	.LFB7:
 298:Generated_Source\PSoC4/cyfitter_cfg.c **** 
 299:Generated_Source\PSoC4/cyfitter_cfg.c **** #define CY_AMUX_UNUSED CYREG_CM0_ROM_DWT
 300:Generated_Source\PSoC4/cyfitter_cfg.c **** 
 301:Generated_Source\PSoC4/cyfitter_cfg.c **** 
 302:Generated_Source\PSoC4/cyfitter_cfg.c **** /*******************************************************************************
 303:Generated_Source\PSoC4/cyfitter_cfg.c **** * Function Name: cyfitter_cfg
 304:Generated_Source\PSoC4/cyfitter_cfg.c **** ********************************************************************************
 305:Generated_Source\PSoC4/cyfitter_cfg.c **** * Summary:
 306:Generated_Source\PSoC4/cyfitter_cfg.c **** *  This function is called by the start-up code for the selected device. It
 307:Generated_Source\PSoC4/cyfitter_cfg.c **** *  performs all of the necessary device configuration based on the design
 308:Generated_Source\PSoC4/cyfitter_cfg.c **** *  settings.  This includes settings from the Design Wide Resources (DWR) such
 309:Generated_Source\PSoC4/cyfitter_cfg.c **** *  as Clocks and Pins as well as any component configuration that is necessary.
 310:Generated_Source\PSoC4/cyfitter_cfg.c **** *
 311:Generated_Source\PSoC4/cyfitter_cfg.c **** * Parameters:  
 312:Generated_Source\PSoC4/cyfitter_cfg.c **** *   void
 313:Generated_Source\PSoC4/cyfitter_cfg.c **** *
 314:Generated_Source\PSoC4/cyfitter_cfg.c **** * Return:
 315:Generated_Source\PSoC4/cyfitter_cfg.c **** *   void
 316:Generated_Source\PSoC4/cyfitter_cfg.c **** *
 317:Generated_Source\PSoC4/cyfitter_cfg.c **** *******************************************************************************/
 318:Generated_Source\PSoC4/cyfitter_cfg.c **** CY_CFG_SECTION
 319:Generated_Source\PSoC4/cyfitter_cfg.c **** void cyfitter_cfg(void)
 320:Generated_Source\PSoC4/cyfitter_cfg.c **** {
  72              		.loc 1 320 0
  73              		.cfi_startproc
  74 0000 F0B5     		push	{r4, r5, r6, r7, lr}
  75              		.cfi_def_cfa_offset 20
  76              		.cfi_offset 4, -20
  77              		.cfi_offset 5, -16
ARM GAS  C:\Users\g\AppData\Local\Temp\ccplq7Se.s 			page 8


  78              		.cfi_offset 6, -12
  79              		.cfi_offset 7, -8
  80              		.cfi_offset 14, -4
  81 0002 4746     		mov	r7, r8
  82 0004 80B4     		push	{r7}
  83              		.cfi_def_cfa_offset 24
  84              		.cfi_offset 8, -24
 321:Generated_Source\PSoC4/cyfitter_cfg.c **** 	/* Disable interrupts by default. Let user enable if/when they want. */
 322:Generated_Source\PSoC4/cyfitter_cfg.c **** 	CyGlobalIntDisable;
  85              		.loc 1 322 0
  86              	@ 322 "Generated_Source\PSoC4\cyfitter_cfg.c" 1
  87 0006 72B6     		CPSID   i
  88              	@ 0 "" 2
 323:Generated_Source\PSoC4/cyfitter_cfg.c **** 
 324:Generated_Source\PSoC4/cyfitter_cfg.c **** 	/* Enable the clock in the interrupt controller for the routed interrupts */
 325:Generated_Source\PSoC4/cyfitter_cfg.c **** 	CY_SET_REG8((void *)CYREG_UDB_UDBIF_INT_CLK_CTL, 0x01u);
  89              		.loc 1 325 0
  90              		.code	16
  91 0008 0122     		mov	r2, #1
  92 000a 5B4B     		ldr	r3, .L17
  93              	.LBB20:
  94              	.LBB21:
  95              	.LBB22:
  96              	.LBB23:
  64:Generated_Source\PSoC4/cyfitter_cfg.c **** }
  97              		.loc 1 64 0
  98 000c 0021     		mov	r1, #0
  99              	.LBE23:
 100              	.LBE22:
 101              	.LBE21:
 102              	.LBE20:
 103              		.loc 1 325 0
 104 000e 1A70     		strb	r2, [r3]
 105              	.LVL5:
 106              	.LBB36:
 107              	.LBB28:
 108              	.LBB26:
 109              	.LBB24:
  64:Generated_Source\PSoC4/cyfitter_cfg.c **** }
 110              		.loc 1 64 0
 111 0010 8022     		mov	r2, #128
 112 0012 5A48     		ldr	r0, .L17+4
 113 0014 D200     		lsl	r2, r2, #3
 114 0016 FFF7FEFF 		bl	memset
 115              	.LVL6:
 116 001a 8022     		mov	r2, #128
 117 001c 5848     		ldr	r0, .L17+8
 118 001e 0021     		mov	r1, #0
 119 0020 D200     		lsl	r2, r2, #3
 120 0022 FFF7FEFF 		bl	memset
 121              	.LVL7:
 122 0026 2823     		mov	r3, #40
 123 0028 9846     		mov	r8, r3
 124 002a 564D     		ldr	r5, .L17+12
 125              	.LBE24:
 126              	.LBE26:
 127              	.LBE28:
ARM GAS  C:\Users\g\AppData\Local\Temp\ccplq7Se.s 			page 9


 128              	.LBB29:
 129              	.LBB30:
 130              	.LBB31:
 168:Generated_Source\PSoC4/cyfitter_cfg.c **** 		while (count != 0u)
 131              		.loc 1 168 0
 132 002c D733     		add	r3, r3, #215
 133 002e A844     		add	r8, r8, r5
 134              	.LBE31:
 135              	.LBE30:
 136              	.LBE29:
 137              	.LBB34:
 138              	.LBB27:
 139              	.LBB25:
  64:Generated_Source\PSoC4/cyfitter_cfg.c **** }
 140              		.loc 1 64 0
 141 0030 0027     		mov	r7, #0
 142              	.LBE25:
 143              	.LBE27:
 144              	.LBE34:
 145              	.LBB35:
 146              	.LBB33:
 147              	.LBB32:
 168:Generated_Source\PSoC4/cyfitter_cfg.c **** 		while (count != 0u)
 148              		.loc 1 168 0
 149 0032 9C46     		mov	ip, r3
 150 0034 4646     		mov	r6, r8
 151              	.LVL8:
 152              	.L11:
 153 0036 6346     		mov	r3, ip
 154 0038 2868     		ldr	r0, [r5]
 167:Generated_Source\PSoC4/cyfitter_cfg.c **** 		baseAddr &= 0xFFFFFF00u;
 155              		.loc 1 167 0
 156 003a 2A78     		ldrb	r2, [r5]
 157              	.LVL9:
 168:Generated_Source\PSoC4/cyfitter_cfg.c **** 		while (count != 0u)
 158              		.loc 1 168 0
 159 003c 9843     		bic	r0, r3
 160              	.LVL10:
 169:Generated_Source\PSoC4/cyfitter_cfg.c **** 		{
 161              		.loc 1 169 0
 162 003e 002A     		cmp	r2, #0
 163 0040 0ED0     		beq	.L9
 164 0042 511E     		sub	r1, r2, #1
 165 0044 7C1C     		add	r4, r7, #1
 166 0046 CAB2     		uxtb	r2, r1
 167              	.LVL11:
 168 0048 7B00     		lsl	r3, r7, #1
 169 004a A718     		add	r7, r4, r2
 170              	.LVL12:
 171 004c 7C00     		lsl	r4, r7, #1
 172              	.LVL13:
 173 004e F318     		add	r3, r6, r3
 174 0050 3419     		add	r4, r6, r4
 175              	.LVL14:
 176              	.L10:
 171:Generated_Source\PSoC4/cyfitter_cfg.c **** 			j++;
 177              		.loc 1 171 0
ARM GAS  C:\Users\g\AppData\Local\Temp\ccplq7Se.s 			page 10


 178 0052 1A78     		ldrb	r2, [r3]
 179 0054 5978     		ldrb	r1, [r3, #1]
 180 0056 1218     		add	r2, r2, r0
 181 0058 0233     		add	r3, r3, #2
 182 005a 1170     		strb	r1, [r2]
 169:Generated_Source\PSoC4/cyfitter_cfg.c **** 		{
 183              		.loc 1 169 0
 184 005c A342     		cmp	r3, r4
 185 005e F8D1     		bne	.L10
 186              	.L9:
 187              	.LVL15:
 188 0060 0435     		add	r5, r5, #4
 189              	.LBE32:
 164:Generated_Source\PSoC4/cyfitter_cfg.c **** 	{
 190              		.loc 1 164 0
 191 0062 4545     		cmp	r5, r8
 192 0064 E7D1     		bne	.L11
 193              	.LBE33:
 194              	.LBE35:
 326:Generated_Source\PSoC4/cyfitter_cfg.c **** 	{
 327:Generated_Source\PSoC4/cyfitter_cfg.c **** 		static const uint32 CYCODE cy_cfg_addr_table[] = {
 328:Generated_Source\PSoC4/cyfitter_cfg.c **** 			0x400F0001u, /* Base address: 0x400F0000 Count: 1 */
 329:Generated_Source\PSoC4/cyfitter_cfg.c **** 			0x400F303Cu, /* Base address: 0x400F3000 Count: 60 */
 330:Generated_Source\PSoC4/cyfitter_cfg.c **** 			0x400F312Fu, /* Base address: 0x400F3100 Count: 47 */
 331:Generated_Source\PSoC4/cyfitter_cfg.c **** 			0x400F325Eu, /* Base address: 0x400F3200 Count: 94 */
 332:Generated_Source\PSoC4/cyfitter_cfg.c **** 			0x400F3338u, /* Base address: 0x400F3300 Count: 56 */
 333:Generated_Source\PSoC4/cyfitter_cfg.c **** 			0x400F4009u, /* Base address: 0x400F4000 Count: 9 */
 334:Generated_Source\PSoC4/cyfitter_cfg.c **** 			0x400F410Eu, /* Base address: 0x400F4100 Count: 14 */
 335:Generated_Source\PSoC4/cyfitter_cfg.c **** 			0x400F4202u, /* Base address: 0x400F4200 Count: 2 */
 336:Generated_Source\PSoC4/cyfitter_cfg.c **** 			0x400F4306u, /* Base address: 0x400F4300 Count: 6 */
 337:Generated_Source\PSoC4/cyfitter_cfg.c **** 			0x400F6002u, /* Base address: 0x400F6000 Count: 2 */
 338:Generated_Source\PSoC4/cyfitter_cfg.c **** 		};
 339:Generated_Source\PSoC4/cyfitter_cfg.c **** 
 340:Generated_Source\PSoC4/cyfitter_cfg.c **** 		static const cy_cfg_addrvalue_t CYCODE cy_cfg_data_table[] = {
 341:Generated_Source\PSoC4/cyfitter_cfg.c **** 			{0x83u, 0x6Fu},
 342:Generated_Source\PSoC4/cyfitter_cfg.c **** 			{0x05u, 0x19u},
 343:Generated_Source\PSoC4/cyfitter_cfg.c **** 			{0x07u, 0x66u},
 344:Generated_Source\PSoC4/cyfitter_cfg.c **** 			{0x09u, 0x7Fu},
 345:Generated_Source\PSoC4/cyfitter_cfg.c **** 			{0x0Au, 0x02u},
 346:Generated_Source\PSoC4/cyfitter_cfg.c **** 			{0x0Bu, 0x80u},
 347:Generated_Source\PSoC4/cyfitter_cfg.c **** 			{0x0Du, 0x4Bu},
 348:Generated_Source\PSoC4/cyfitter_cfg.c **** 			{0x0Fu, 0x34u},
 349:Generated_Source\PSoC4/cyfitter_cfg.c **** 			{0x13u, 0xFFu},
 350:Generated_Source\PSoC4/cyfitter_cfg.c **** 			{0x1Du, 0x80u},
 351:Generated_Source\PSoC4/cyfitter_cfg.c **** 			{0x1Eu, 0x04u},
 352:Generated_Source\PSoC4/cyfitter_cfg.c **** 			{0x22u, 0x01u},
 353:Generated_Source\PSoC4/cyfitter_cfg.c **** 			{0x23u, 0x80u},
 354:Generated_Source\PSoC4/cyfitter_cfg.c **** 			{0x29u, 0x07u},
 355:Generated_Source\PSoC4/cyfitter_cfg.c **** 			{0x2Bu, 0x78u},
 356:Generated_Source\PSoC4/cyfitter_cfg.c **** 			{0x2Du, 0x2Au},
 357:Generated_Source\PSoC4/cyfitter_cfg.c **** 			{0x2Fu, 0x55u},
 358:Generated_Source\PSoC4/cyfitter_cfg.c **** 			{0x30u, 0x01u},
 359:Generated_Source\PSoC4/cyfitter_cfg.c **** 			{0x34u, 0x02u},
 360:Generated_Source\PSoC4/cyfitter_cfg.c **** 			{0x35u, 0xFFu},
 361:Generated_Source\PSoC4/cyfitter_cfg.c **** 			{0x36u, 0x04u},
 362:Generated_Source\PSoC4/cyfitter_cfg.c **** 			{0x3Bu, 0x03u},
 363:Generated_Source\PSoC4/cyfitter_cfg.c **** 			{0x3Fu, 0x10u},
ARM GAS  C:\Users\g\AppData\Local\Temp\ccplq7Se.s 			page 11


 364:Generated_Source\PSoC4/cyfitter_cfg.c **** 			{0x58u, 0x04u},
 365:Generated_Source\PSoC4/cyfitter_cfg.c **** 			{0x59u, 0x04u},
 366:Generated_Source\PSoC4/cyfitter_cfg.c **** 			{0x5Cu, 0x13u},
 367:Generated_Source\PSoC4/cyfitter_cfg.c **** 			{0x5Fu, 0x01u},
 368:Generated_Source\PSoC4/cyfitter_cfg.c **** 			{0x81u, 0x10u},
 369:Generated_Source\PSoC4/cyfitter_cfg.c **** 			{0x82u, 0x02u},
 370:Generated_Source\PSoC4/cyfitter_cfg.c **** 			{0x83u, 0x0Au},
 371:Generated_Source\PSoC4/cyfitter_cfg.c **** 			{0x87u, 0x20u},
 372:Generated_Source\PSoC4/cyfitter_cfg.c **** 			{0x89u, 0x1Au},
 373:Generated_Source\PSoC4/cyfitter_cfg.c **** 			{0x8Bu, 0x20u},
 374:Generated_Source\PSoC4/cyfitter_cfg.c **** 			{0x8Fu, 0x01u},
 375:Generated_Source\PSoC4/cyfitter_cfg.c **** 			{0x92u, 0x01u},
 376:Generated_Source\PSoC4/cyfitter_cfg.c **** 			{0x93u, 0x02u},
 377:Generated_Source\PSoC4/cyfitter_cfg.c **** 			{0x95u, 0x02u},
 378:Generated_Source\PSoC4/cyfitter_cfg.c **** 			{0x9Bu, 0x04u},
 379:Generated_Source\PSoC4/cyfitter_cfg.c **** 			{0x9Cu, 0x04u},
 380:Generated_Source\PSoC4/cyfitter_cfg.c **** 			{0x9Fu, 0x01u},
 381:Generated_Source\PSoC4/cyfitter_cfg.c **** 			{0xA1u, 0x02u},
 382:Generated_Source\PSoC4/cyfitter_cfg.c **** 			{0xA2u, 0x04u},
 383:Generated_Source\PSoC4/cyfitter_cfg.c **** 			{0xA5u, 0x01u},
 384:Generated_Source\PSoC4/cyfitter_cfg.c **** 			{0xA9u, 0x0Au},
 385:Generated_Source\PSoC4/cyfitter_cfg.c **** 			{0xABu, 0x10u},
 386:Generated_Source\PSoC4/cyfitter_cfg.c **** 			{0xB0u, 0x04u},
 387:Generated_Source\PSoC4/cyfitter_cfg.c **** 			{0xB1u, 0x06u},
 388:Generated_Source\PSoC4/cyfitter_cfg.c **** 			{0xB2u, 0x01u},
 389:Generated_Source\PSoC4/cyfitter_cfg.c **** 			{0xB3u, 0x38u},
 390:Generated_Source\PSoC4/cyfitter_cfg.c **** 			{0xB4u, 0x02u},
 391:Generated_Source\PSoC4/cyfitter_cfg.c **** 			{0xB7u, 0x01u},
 392:Generated_Source\PSoC4/cyfitter_cfg.c **** 			{0xBAu, 0x08u},
 393:Generated_Source\PSoC4/cyfitter_cfg.c **** 			{0xBEu, 0x01u},
 394:Generated_Source\PSoC4/cyfitter_cfg.c **** 			{0xBFu, 0x40u},
 395:Generated_Source\PSoC4/cyfitter_cfg.c **** 			{0xD6u, 0x08u},
 396:Generated_Source\PSoC4/cyfitter_cfg.c **** 			{0xD8u, 0x04u},
 397:Generated_Source\PSoC4/cyfitter_cfg.c **** 			{0xD9u, 0x04u},
 398:Generated_Source\PSoC4/cyfitter_cfg.c **** 			{0xDBu, 0x04u},
 399:Generated_Source\PSoC4/cyfitter_cfg.c **** 			{0xDCu, 0x11u},
 400:Generated_Source\PSoC4/cyfitter_cfg.c **** 			{0xDDu, 0x30u},
 401:Generated_Source\PSoC4/cyfitter_cfg.c **** 			{0xDFu, 0x01u},
 402:Generated_Source\PSoC4/cyfitter_cfg.c **** 			{0x02u, 0x04u},
 403:Generated_Source\PSoC4/cyfitter_cfg.c **** 			{0x07u, 0x40u},
 404:Generated_Source\PSoC4/cyfitter_cfg.c **** 			{0x0Bu, 0x01u},
 405:Generated_Source\PSoC4/cyfitter_cfg.c **** 			{0x0Du, 0x02u},
 406:Generated_Source\PSoC4/cyfitter_cfg.c **** 			{0x0Fu, 0x02u},
 407:Generated_Source\PSoC4/cyfitter_cfg.c **** 			{0x10u, 0x40u},
 408:Generated_Source\PSoC4/cyfitter_cfg.c **** 			{0x14u, 0x40u},
 409:Generated_Source\PSoC4/cyfitter_cfg.c **** 			{0x19u, 0x60u},
 410:Generated_Source\PSoC4/cyfitter_cfg.c **** 			{0x1Au, 0x80u},
 411:Generated_Source\PSoC4/cyfitter_cfg.c **** 			{0x1Bu, 0x81u},
 412:Generated_Source\PSoC4/cyfitter_cfg.c **** 			{0x1Cu, 0x10u},
 413:Generated_Source\PSoC4/cyfitter_cfg.c **** 			{0x1Eu, 0x40u},
 414:Generated_Source\PSoC4/cyfitter_cfg.c **** 			{0x1Fu, 0x10u},
 415:Generated_Source\PSoC4/cyfitter_cfg.c **** 			{0x21u, 0x02u},
 416:Generated_Source\PSoC4/cyfitter_cfg.c **** 			{0x22u, 0x22u},
 417:Generated_Source\PSoC4/cyfitter_cfg.c **** 			{0x26u, 0x08u},
 418:Generated_Source\PSoC4/cyfitter_cfg.c **** 			{0x27u, 0x41u},
 419:Generated_Source\PSoC4/cyfitter_cfg.c **** 			{0x28u, 0x40u},
 420:Generated_Source\PSoC4/cyfitter_cfg.c **** 			{0x29u, 0x60u},
ARM GAS  C:\Users\g\AppData\Local\Temp\ccplq7Se.s 			page 12


 421:Generated_Source\PSoC4/cyfitter_cfg.c **** 			{0x2Du, 0x20u},
 422:Generated_Source\PSoC4/cyfitter_cfg.c **** 			{0x2Fu, 0x90u},
 423:Generated_Source\PSoC4/cyfitter_cfg.c **** 			{0x31u, 0x02u},
 424:Generated_Source\PSoC4/cyfitter_cfg.c **** 			{0x32u, 0x40u},
 425:Generated_Source\PSoC4/cyfitter_cfg.c **** 			{0x35u, 0x04u},
 426:Generated_Source\PSoC4/cyfitter_cfg.c **** 			{0x36u, 0x22u},
 427:Generated_Source\PSoC4/cyfitter_cfg.c **** 			{0x37u, 0x40u},
 428:Generated_Source\PSoC4/cyfitter_cfg.c **** 			{0x38u, 0x10u},
 429:Generated_Source\PSoC4/cyfitter_cfg.c **** 			{0x3Au, 0x44u},
 430:Generated_Source\PSoC4/cyfitter_cfg.c **** 			{0x3Cu, 0x10u},
 431:Generated_Source\PSoC4/cyfitter_cfg.c **** 			{0x3Fu, 0x45u},
 432:Generated_Source\PSoC4/cyfitter_cfg.c **** 			{0x5Cu, 0x48u},
 433:Generated_Source\PSoC4/cyfitter_cfg.c **** 			{0x5Eu, 0x01u},
 434:Generated_Source\PSoC4/cyfitter_cfg.c **** 			{0x5Fu, 0x20u},
 435:Generated_Source\PSoC4/cyfitter_cfg.c **** 			{0x64u, 0x40u},
 436:Generated_Source\PSoC4/cyfitter_cfg.c **** 			{0x65u, 0x04u},
 437:Generated_Source\PSoC4/cyfitter_cfg.c **** 			{0x66u, 0x44u},
 438:Generated_Source\PSoC4/cyfitter_cfg.c **** 			{0x67u, 0x05u},
 439:Generated_Source\PSoC4/cyfitter_cfg.c **** 			{0x8Au, 0x01u},
 440:Generated_Source\PSoC4/cyfitter_cfg.c **** 			{0xC0u, 0x12u},
 441:Generated_Source\PSoC4/cyfitter_cfg.c **** 			{0xC2u, 0x91u},
 442:Generated_Source\PSoC4/cyfitter_cfg.c **** 			{0xC4u, 0x18u},
 443:Generated_Source\PSoC4/cyfitter_cfg.c **** 			{0xCAu, 0xEDu},
 444:Generated_Source\PSoC4/cyfitter_cfg.c **** 			{0xCCu, 0xF9u},
 445:Generated_Source\PSoC4/cyfitter_cfg.c **** 			{0xCEu, 0xFEu},
 446:Generated_Source\PSoC4/cyfitter_cfg.c **** 			{0xD6u, 0xF0u},
 447:Generated_Source\PSoC4/cyfitter_cfg.c **** 			{0xD8u, 0xF0u},
 448:Generated_Source\PSoC4/cyfitter_cfg.c **** 			{0xE4u, 0x80u},
 449:Generated_Source\PSoC4/cyfitter_cfg.c **** 			{0x03u, 0x01u},
 450:Generated_Source\PSoC4/cyfitter_cfg.c **** 			{0x1Eu, 0x01u},
 451:Generated_Source\PSoC4/cyfitter_cfg.c **** 			{0x2Cu, 0x01u},
 452:Generated_Source\PSoC4/cyfitter_cfg.c **** 			{0x31u, 0x01u},
 453:Generated_Source\PSoC4/cyfitter_cfg.c **** 			{0x36u, 0x01u},
 454:Generated_Source\PSoC4/cyfitter_cfg.c **** 			{0x3Eu, 0x40u},
 455:Generated_Source\PSoC4/cyfitter_cfg.c **** 			{0x40u, 0x40u},
 456:Generated_Source\PSoC4/cyfitter_cfg.c **** 			{0x41u, 0x06u},
 457:Generated_Source\PSoC4/cyfitter_cfg.c **** 			{0x49u, 0xFFu},
 458:Generated_Source\PSoC4/cyfitter_cfg.c **** 			{0x4Au, 0xFFu},
 459:Generated_Source\PSoC4/cyfitter_cfg.c **** 			{0x4Bu, 0xFFu},
 460:Generated_Source\PSoC4/cyfitter_cfg.c **** 			{0x4Du, 0xA0u},
 461:Generated_Source\PSoC4/cyfitter_cfg.c **** 			{0x4Fu, 0x01u},
 462:Generated_Source\PSoC4/cyfitter_cfg.c **** 			{0x50u, 0x18u},
 463:Generated_Source\PSoC4/cyfitter_cfg.c **** 			{0x54u, 0x01u},
 464:Generated_Source\PSoC4/cyfitter_cfg.c **** 			{0x58u, 0x04u},
 465:Generated_Source\PSoC4/cyfitter_cfg.c **** 			{0x59u, 0x04u},
 466:Generated_Source\PSoC4/cyfitter_cfg.c **** 			{0x5Au, 0x04u},
 467:Generated_Source\PSoC4/cyfitter_cfg.c **** 			{0x5Bu, 0x04u},
 468:Generated_Source\PSoC4/cyfitter_cfg.c **** 			{0x5Cu, 0x10u},
 469:Generated_Source\PSoC4/cyfitter_cfg.c **** 			{0x5Du, 0x11u},
 470:Generated_Source\PSoC4/cyfitter_cfg.c **** 			{0x5Fu, 0x01u},
 471:Generated_Source\PSoC4/cyfitter_cfg.c **** 			{0x60u, 0x40u},
 472:Generated_Source\PSoC4/cyfitter_cfg.c **** 			{0x62u, 0x80u},
 473:Generated_Source\PSoC4/cyfitter_cfg.c **** 			{0x64u, 0x40u},
 474:Generated_Source\PSoC4/cyfitter_cfg.c **** 			{0x65u, 0x40u},
 475:Generated_Source\PSoC4/cyfitter_cfg.c **** 			{0x66u, 0x80u},
 476:Generated_Source\PSoC4/cyfitter_cfg.c **** 			{0x68u, 0x40u},
 477:Generated_Source\PSoC4/cyfitter_cfg.c **** 			{0x6Au, 0x80u},
ARM GAS  C:\Users\g\AppData\Local\Temp\ccplq7Se.s 			page 13


 478:Generated_Source\PSoC4/cyfitter_cfg.c **** 			{0x6Cu, 0x40u},
 479:Generated_Source\PSoC4/cyfitter_cfg.c **** 			{0x6Du, 0x20u},
 480:Generated_Source\PSoC4/cyfitter_cfg.c **** 			{0x6Eu, 0x80u},
 481:Generated_Source\PSoC4/cyfitter_cfg.c **** 			{0x80u, 0x06u},
 482:Generated_Source\PSoC4/cyfitter_cfg.c **** 			{0x82u, 0x11u},
 483:Generated_Source\PSoC4/cyfitter_cfg.c **** 			{0x84u, 0x1Fu},
 484:Generated_Source\PSoC4/cyfitter_cfg.c **** 			{0x85u, 0x07u},
 485:Generated_Source\PSoC4/cyfitter_cfg.c **** 			{0x87u, 0x08u},
 486:Generated_Source\PSoC4/cyfitter_cfg.c **** 			{0x88u, 0x18u},
 487:Generated_Source\PSoC4/cyfitter_cfg.c **** 			{0x89u, 0x01u},
 488:Generated_Source\PSoC4/cyfitter_cfg.c **** 			{0x8Au, 0x03u},
 489:Generated_Source\PSoC4/cyfitter_cfg.c **** 			{0x8Bu, 0x12u},
 490:Generated_Source\PSoC4/cyfitter_cfg.c **** 			{0x8Du, 0x06u},
 491:Generated_Source\PSoC4/cyfitter_cfg.c **** 			{0x8Eu, 0x20u},
 492:Generated_Source\PSoC4/cyfitter_cfg.c **** 			{0x8Fu, 0x11u},
 493:Generated_Source\PSoC4/cyfitter_cfg.c **** 			{0x95u, 0x18u},
 494:Generated_Source\PSoC4/cyfitter_cfg.c **** 			{0x97u, 0x03u},
 495:Generated_Source\PSoC4/cyfitter_cfg.c **** 			{0x9Du, 0x10u},
 496:Generated_Source\PSoC4/cyfitter_cfg.c **** 			{0x9Fu, 0x04u},
 497:Generated_Source\PSoC4/cyfitter_cfg.c **** 			{0xA0u, 0x10u},
 498:Generated_Source\PSoC4/cyfitter_cfg.c **** 			{0xA2u, 0x04u},
 499:Generated_Source\PSoC4/cyfitter_cfg.c **** 			{0xA3u, 0x20u},
 500:Generated_Source\PSoC4/cyfitter_cfg.c **** 			{0xA4u, 0x07u},
 501:Generated_Source\PSoC4/cyfitter_cfg.c **** 			{0xA5u, 0x20u},
 502:Generated_Source\PSoC4/cyfitter_cfg.c **** 			{0xA6u, 0x08u},
 503:Generated_Source\PSoC4/cyfitter_cfg.c **** 			{0xA8u, 0x01u},
 504:Generated_Source\PSoC4/cyfitter_cfg.c **** 			{0xAAu, 0x12u},
 505:Generated_Source\PSoC4/cyfitter_cfg.c **** 			{0xB2u, 0x20u},
 506:Generated_Source\PSoC4/cyfitter_cfg.c **** 			{0xB3u, 0x20u},
 507:Generated_Source\PSoC4/cyfitter_cfg.c **** 			{0xB5u, 0x1Fu},
 508:Generated_Source\PSoC4/cyfitter_cfg.c **** 			{0xB6u, 0x1Fu},
 509:Generated_Source\PSoC4/cyfitter_cfg.c **** 			{0xBEu, 0x40u},
 510:Generated_Source\PSoC4/cyfitter_cfg.c **** 			{0xBFu, 0x04u},
 511:Generated_Source\PSoC4/cyfitter_cfg.c **** 			{0xC0u, 0x40u},
 512:Generated_Source\PSoC4/cyfitter_cfg.c **** 			{0xC1u, 0x06u},
 513:Generated_Source\PSoC4/cyfitter_cfg.c **** 			{0xC5u, 0x25u},
 514:Generated_Source\PSoC4/cyfitter_cfg.c **** 			{0xC6u, 0xC4u},
 515:Generated_Source\PSoC4/cyfitter_cfg.c **** 			{0xC7u, 0x3Eu},
 516:Generated_Source\PSoC4/cyfitter_cfg.c **** 			{0xC8u, 0x3Fu},
 517:Generated_Source\PSoC4/cyfitter_cfg.c **** 			{0xC9u, 0xFFu},
 518:Generated_Source\PSoC4/cyfitter_cfg.c **** 			{0xCAu, 0xFFu},
 519:Generated_Source\PSoC4/cyfitter_cfg.c **** 			{0xCBu, 0xFFu},
 520:Generated_Source\PSoC4/cyfitter_cfg.c **** 			{0xCDu, 0xAFu},
 521:Generated_Source\PSoC4/cyfitter_cfg.c **** 			{0xCEu, 0x07u},
 522:Generated_Source\PSoC4/cyfitter_cfg.c **** 			{0xCFu, 0x01u},
 523:Generated_Source\PSoC4/cyfitter_cfg.c **** 			{0xD0u, 0x18u},
 524:Generated_Source\PSoC4/cyfitter_cfg.c **** 			{0xD2u, 0x87u},
 525:Generated_Source\PSoC4/cyfitter_cfg.c **** 			{0xD4u, 0x0Fu},
 526:Generated_Source\PSoC4/cyfitter_cfg.c **** 			{0xD8u, 0x04u},
 527:Generated_Source\PSoC4/cyfitter_cfg.c **** 			{0xD9u, 0x04u},
 528:Generated_Source\PSoC4/cyfitter_cfg.c **** 			{0xDAu, 0x04u},
 529:Generated_Source\PSoC4/cyfitter_cfg.c **** 			{0xDBu, 0x04u},
 530:Generated_Source\PSoC4/cyfitter_cfg.c **** 			{0xDCu, 0x11u},
 531:Generated_Source\PSoC4/cyfitter_cfg.c **** 			{0xDDu, 0x11u},
 532:Generated_Source\PSoC4/cyfitter_cfg.c **** 			{0xDFu, 0x01u},
 533:Generated_Source\PSoC4/cyfitter_cfg.c **** 			{0xE0u, 0x40u},
 534:Generated_Source\PSoC4/cyfitter_cfg.c **** 			{0xE2u, 0x80u},
ARM GAS  C:\Users\g\AppData\Local\Temp\ccplq7Se.s 			page 14


 535:Generated_Source\PSoC4/cyfitter_cfg.c **** 			{0xE4u, 0x40u},
 536:Generated_Source\PSoC4/cyfitter_cfg.c **** 			{0xE5u, 0x40u},
 537:Generated_Source\PSoC4/cyfitter_cfg.c **** 			{0xE6u, 0x80u},
 538:Generated_Source\PSoC4/cyfitter_cfg.c **** 			{0xE8u, 0x40u},
 539:Generated_Source\PSoC4/cyfitter_cfg.c **** 			{0xEAu, 0x80u},
 540:Generated_Source\PSoC4/cyfitter_cfg.c **** 			{0xECu, 0x40u},
 541:Generated_Source\PSoC4/cyfitter_cfg.c **** 			{0xEDu, 0x20u},
 542:Generated_Source\PSoC4/cyfitter_cfg.c **** 			{0xEEu, 0x80u},
 543:Generated_Source\PSoC4/cyfitter_cfg.c **** 			{0x00u, 0x26u},
 544:Generated_Source\PSoC4/cyfitter_cfg.c **** 			{0x02u, 0x01u},
 545:Generated_Source\PSoC4/cyfitter_cfg.c **** 			{0x0Fu, 0x01u},
 546:Generated_Source\PSoC4/cyfitter_cfg.c **** 			{0x10u, 0xA8u},
 547:Generated_Source\PSoC4/cyfitter_cfg.c **** 			{0x17u, 0x80u},
 548:Generated_Source\PSoC4/cyfitter_cfg.c **** 			{0x19u, 0x48u},
 549:Generated_Source\PSoC4/cyfitter_cfg.c **** 			{0x1Eu, 0x01u},
 550:Generated_Source\PSoC4/cyfitter_cfg.c **** 			{0x20u, 0x04u},
 551:Generated_Source\PSoC4/cyfitter_cfg.c **** 			{0x22u, 0x04u},
 552:Generated_Source\PSoC4/cyfitter_cfg.c **** 			{0x27u, 0x80u},
 553:Generated_Source\PSoC4/cyfitter_cfg.c **** 			{0x29u, 0x08u},
 554:Generated_Source\PSoC4/cyfitter_cfg.c **** 			{0x2Au, 0x01u},
 555:Generated_Source\PSoC4/cyfitter_cfg.c **** 			{0x30u, 0x80u},
 556:Generated_Source\PSoC4/cyfitter_cfg.c **** 			{0x31u, 0x04u},
 557:Generated_Source\PSoC4/cyfitter_cfg.c **** 			{0x39u, 0x54u},
 558:Generated_Source\PSoC4/cyfitter_cfg.c **** 			{0x3Fu, 0x01u},
 559:Generated_Source\PSoC4/cyfitter_cfg.c **** 			{0x43u, 0x01u},
 560:Generated_Source\PSoC4/cyfitter_cfg.c **** 			{0x47u, 0x01u},
 561:Generated_Source\PSoC4/cyfitter_cfg.c **** 			{0x48u, 0x10u},
 562:Generated_Source\PSoC4/cyfitter_cfg.c **** 			{0x49u, 0x04u},
 563:Generated_Source\PSoC4/cyfitter_cfg.c **** 			{0x4Au, 0x08u},
 564:Generated_Source\PSoC4/cyfitter_cfg.c **** 			{0x4Bu, 0x01u},
 565:Generated_Source\PSoC4/cyfitter_cfg.c **** 			{0x4Eu, 0x08u},
 566:Generated_Source\PSoC4/cyfitter_cfg.c **** 			{0x50u, 0x80u},
 567:Generated_Source\PSoC4/cyfitter_cfg.c **** 			{0x51u, 0x08u},
 568:Generated_Source\PSoC4/cyfitter_cfg.c **** 			{0x52u, 0x11u},
 569:Generated_Source\PSoC4/cyfitter_cfg.c **** 			{0x59u, 0x40u},
 570:Generated_Source\PSoC4/cyfitter_cfg.c **** 			{0x5Au, 0x09u},
 571:Generated_Source\PSoC4/cyfitter_cfg.c **** 			{0x5Bu, 0x20u},
 572:Generated_Source\PSoC4/cyfitter_cfg.c **** 			{0x5Eu, 0x40u},
 573:Generated_Source\PSoC4/cyfitter_cfg.c **** 			{0x61u, 0x08u},
 574:Generated_Source\PSoC4/cyfitter_cfg.c **** 			{0x62u, 0x10u},
 575:Generated_Source\PSoC4/cyfitter_cfg.c **** 			{0x68u, 0x29u},
 576:Generated_Source\PSoC4/cyfitter_cfg.c **** 			{0x69u, 0x54u},
 577:Generated_Source\PSoC4/cyfitter_cfg.c **** 			{0x73u, 0x40u},
 578:Generated_Source\PSoC4/cyfitter_cfg.c **** 			{0x83u, 0x21u},
 579:Generated_Source\PSoC4/cyfitter_cfg.c **** 			{0x92u, 0x40u},
 580:Generated_Source\PSoC4/cyfitter_cfg.c **** 			{0x97u, 0x40u},
 581:Generated_Source\PSoC4/cyfitter_cfg.c **** 			{0x9Bu, 0x01u},
 582:Generated_Source\PSoC4/cyfitter_cfg.c **** 			{0xA2u, 0x08u},
 583:Generated_Source\PSoC4/cyfitter_cfg.c **** 			{0xAFu, 0x20u},
 584:Generated_Source\PSoC4/cyfitter_cfg.c **** 			{0xB0u, 0x08u},
 585:Generated_Source\PSoC4/cyfitter_cfg.c **** 			{0xB4u, 0x40u},
 586:Generated_Source\PSoC4/cyfitter_cfg.c **** 			{0xC0u, 0x0Fu},
 587:Generated_Source\PSoC4/cyfitter_cfg.c **** 			{0xC2u, 0x80u},
 588:Generated_Source\PSoC4/cyfitter_cfg.c **** 			{0xC4u, 0x8Eu},
 589:Generated_Source\PSoC4/cyfitter_cfg.c **** 			{0xCAu, 0x03u},
 590:Generated_Source\PSoC4/cyfitter_cfg.c **** 			{0xCCu, 0x0Au},
 591:Generated_Source\PSoC4/cyfitter_cfg.c **** 			{0xCEu, 0x8Eu},
ARM GAS  C:\Users\g\AppData\Local\Temp\ccplq7Se.s 			page 15


 592:Generated_Source\PSoC4/cyfitter_cfg.c **** 			{0xD0u, 0x81u},
 593:Generated_Source\PSoC4/cyfitter_cfg.c **** 			{0xD2u, 0x24u},
 594:Generated_Source\PSoC4/cyfitter_cfg.c **** 			{0xD6u, 0x1Fu},
 595:Generated_Source\PSoC4/cyfitter_cfg.c **** 			{0xD8u, 0x06u},
 596:Generated_Source\PSoC4/cyfitter_cfg.c **** 			{0xE0u, 0x04u},
 597:Generated_Source\PSoC4/cyfitter_cfg.c **** 			{0xE2u, 0x80u},
 598:Generated_Source\PSoC4/cyfitter_cfg.c **** 			{0xE8u, 0xC0u},
 599:Generated_Source\PSoC4/cyfitter_cfg.c **** 			{0x03u, 0x80u},
 600:Generated_Source\PSoC4/cyfitter_cfg.c **** 			{0x05u, 0x08u},
 601:Generated_Source\PSoC4/cyfitter_cfg.c **** 			{0x09u, 0x20u},
 602:Generated_Source\PSoC4/cyfitter_cfg.c **** 			{0x0Fu, 0x04u},
 603:Generated_Source\PSoC4/cyfitter_cfg.c **** 			{0x6Fu, 0x04u},
 604:Generated_Source\PSoC4/cyfitter_cfg.c **** 			{0x89u, 0x20u},
 605:Generated_Source\PSoC4/cyfitter_cfg.c **** 			{0xC0u, 0x30u},
 606:Generated_Source\PSoC4/cyfitter_cfg.c **** 			{0xC2u, 0xC0u},
 607:Generated_Source\PSoC4/cyfitter_cfg.c **** 			{0xDAu, 0x80u},
 608:Generated_Source\PSoC4/cyfitter_cfg.c **** 			{0x1Bu, 0x02u},
 609:Generated_Source\PSoC4/cyfitter_cfg.c **** 			{0x27u, 0x04u},
 610:Generated_Source\PSoC4/cyfitter_cfg.c **** 			{0x5Eu, 0x20u},
 611:Generated_Source\PSoC4/cyfitter_cfg.c **** 			{0x83u, 0x02u},
 612:Generated_Source\PSoC4/cyfitter_cfg.c **** 			{0x8Au, 0x10u},
 613:Generated_Source\PSoC4/cyfitter_cfg.c **** 			{0x9Fu, 0x04u},
 614:Generated_Source\PSoC4/cyfitter_cfg.c **** 			{0xAFu, 0x04u},
 615:Generated_Source\PSoC4/cyfitter_cfg.c **** 			{0xB1u, 0x08u},
 616:Generated_Source\PSoC4/cyfitter_cfg.c **** 			{0xB7u, 0x80u},
 617:Generated_Source\PSoC4/cyfitter_cfg.c **** 			{0xC6u, 0x10u},
 618:Generated_Source\PSoC4/cyfitter_cfg.c **** 			{0xC8u, 0x20u},
 619:Generated_Source\PSoC4/cyfitter_cfg.c **** 			{0xD6u, 0x20u},
 620:Generated_Source\PSoC4/cyfitter_cfg.c **** 			{0xE0u, 0x20u},
 621:Generated_Source\PSoC4/cyfitter_cfg.c **** 			{0xE8u, 0x40u},
 622:Generated_Source\PSoC4/cyfitter_cfg.c **** 			{0x6Au, 0x40u},
 623:Generated_Source\PSoC4/cyfitter_cfg.c **** 			{0xDAu, 0x02u},
 624:Generated_Source\PSoC4/cyfitter_cfg.c **** 			{0x20u, 0x02u},
 625:Generated_Source\PSoC4/cyfitter_cfg.c **** 			{0x82u, 0x40u},
 626:Generated_Source\PSoC4/cyfitter_cfg.c **** 			{0x88u, 0x01u},
 627:Generated_Source\PSoC4/cyfitter_cfg.c **** 			{0x96u, 0x40u},
 628:Generated_Source\PSoC4/cyfitter_cfg.c **** 			{0xC8u, 0x08u},
 629:Generated_Source\PSoC4/cyfitter_cfg.c **** 			{0xE2u, 0x01u},
 630:Generated_Source\PSoC4/cyfitter_cfg.c **** 			{0x01u, 0x0Au},
 631:Generated_Source\PSoC4/cyfitter_cfg.c **** 			{0x10u, 0x0Au},
 632:Generated_Source\PSoC4/cyfitter_cfg.c **** 		};
 633:Generated_Source\PSoC4/cyfitter_cfg.c **** 
 634:Generated_Source\PSoC4/cyfitter_cfg.c **** 
 635:Generated_Source\PSoC4/cyfitter_cfg.c **** 
 636:Generated_Source\PSoC4/cyfitter_cfg.c **** 		CYPACKED typedef struct {
 637:Generated_Source\PSoC4/cyfitter_cfg.c **** 			void CYFAR *address;
 638:Generated_Source\PSoC4/cyfitter_cfg.c **** 			uint16 size;
 639:Generated_Source\PSoC4/cyfitter_cfg.c **** 		} CYPACKED_ATTR cfg_memset_t;
 640:Generated_Source\PSoC4/cyfitter_cfg.c **** 
 641:Generated_Source\PSoC4/cyfitter_cfg.c **** 		static const cfg_memset_t CYCODE cfg_memset_list [] = {
 642:Generated_Source\PSoC4/cyfitter_cfg.c **** 			/* address, size */
 643:Generated_Source\PSoC4/cyfitter_cfg.c **** 			{(void CYFAR *)(CYDEV_UDB_P0_U0_BASE), 1024u},
 644:Generated_Source\PSoC4/cyfitter_cfg.c **** 			{(void CYFAR *)(CYDEV_UDB_DSI0_BASE), 1024u},
 645:Generated_Source\PSoC4/cyfitter_cfg.c **** 		};
 646:Generated_Source\PSoC4/cyfitter_cfg.c **** 
 647:Generated_Source\PSoC4/cyfitter_cfg.c **** 		uint8 CYDATA i;
 648:Generated_Source\PSoC4/cyfitter_cfg.c **** 
ARM GAS  C:\Users\g\AppData\Local\Temp\ccplq7Se.s 			page 16


 649:Generated_Source\PSoC4/cyfitter_cfg.c **** 		/* Zero out critical memory blocks before beginning configuration */
 650:Generated_Source\PSoC4/cyfitter_cfg.c **** 		for (i = 0u; i < (sizeof(cfg_memset_list)/sizeof(cfg_memset_list[0])); i++)
 651:Generated_Source\PSoC4/cyfitter_cfg.c **** 		{
 652:Generated_Source\PSoC4/cyfitter_cfg.c **** 			const cfg_memset_t CYCODE * CYDATA ms = &cfg_memset_list[i];
 653:Generated_Source\PSoC4/cyfitter_cfg.c **** 			CYMEMZERO(ms->address, (size_t)(uint32)(ms->size));
 654:Generated_Source\PSoC4/cyfitter_cfg.c **** 		}
 655:Generated_Source\PSoC4/cyfitter_cfg.c **** 
 656:Generated_Source\PSoC4/cyfitter_cfg.c **** 		cfg_write_bytes32(cy_cfg_addr_table, cy_cfg_data_table);
 657:Generated_Source\PSoC4/cyfitter_cfg.c **** 
 658:Generated_Source\PSoC4/cyfitter_cfg.c **** 		/* HSIOM Starting address: CYDEV_HSIOM_BASE */
 659:Generated_Source\PSoC4/cyfitter_cfg.c **** 		CY_SET_XTND_REG32((void CYFAR *)(CYREG_HSIOM_PORT_SEL1), 0x00000030u);
 195              		.loc 1 659 0
 196 0066 3025     		mov	r5, #48
 660:Generated_Source\PSoC4/cyfitter_cfg.c **** 		CY_SET_XTND_REG32((void CYFAR *)(CYREG_HSIOM_PORT_SEL3), 0x00000099u);
 197              		.loc 1 660 0
 198 0068 9922     		mov	r2, #153
 659:Generated_Source\PSoC4/cyfitter_cfg.c **** 		CY_SET_XTND_REG32((void CYFAR *)(CYREG_HSIOM_PORT_SEL3), 0x00000099u);
 199              		.loc 1 659 0
 200 006a 474B     		ldr	r3, .L17+16
 661:Generated_Source\PSoC4/cyfitter_cfg.c **** 
 662:Generated_Source\PSoC4/cyfitter_cfg.c **** 		/* UDB_PA_0 Starting address: CYDEV_UDB_PA0_BASE */
 663:Generated_Source\PSoC4/cyfitter_cfg.c **** 		CY_SET_XTND_REG32((void CYFAR *)(CYDEV_UDB_PA0_BASE), 0x00990000u);
 664:Generated_Source\PSoC4/cyfitter_cfg.c **** 
 665:Generated_Source\PSoC4/cyfitter_cfg.c **** 		/* UDB_PA_1 Starting address: CYDEV_UDB_PA1_BASE */
 666:Generated_Source\PSoC4/cyfitter_cfg.c **** 		CY_SET_XTND_REG32((void CYFAR *)(CYDEV_UDB_PA1_BASE), 0x00990000u);
 667:Generated_Source\PSoC4/cyfitter_cfg.c **** 		CY_SET_XTND_REG32((void CYFAR *)(CYREG_UDB_PA1_CFG8), 0x000C0000u);
 201              		.loc 1 667 0
 202 006c C021     		mov	r1, #192
 659:Generated_Source\PSoC4/cyfitter_cfg.c **** 		CY_SET_XTND_REG32((void CYFAR *)(CYREG_HSIOM_PORT_SEL3), 0x00000099u);
 203              		.loc 1 659 0
 204 006e 1D60     		str	r5, [r3]
 660:Generated_Source\PSoC4/cyfitter_cfg.c **** 
 205              		.loc 1 660 0
 206 0070 464B     		ldr	r3, .L17+20
 207              		.loc 1 667 0
 208 0072 0903     		lsl	r1, r1, #12
 660:Generated_Source\PSoC4/cyfitter_cfg.c **** 
 209              		.loc 1 660 0
 210 0074 1A60     		str	r2, [r3]
 663:Generated_Source\PSoC4/cyfitter_cfg.c **** 
 211              		.loc 1 663 0
 212 0076 9923     		mov	r3, #153
 213 0078 454A     		ldr	r2, .L17+24
 214 007a 1B04     		lsl	r3, r3, #16
 215 007c 1360     		str	r3, [r2]
 666:Generated_Source\PSoC4/cyfitter_cfg.c **** 		CY_SET_XTND_REG32((void CYFAR *)(CYREG_UDB_PA1_CFG8), 0x000C0000u);
 216              		.loc 1 666 0
 217 007e 454A     		ldr	r2, .L17+28
 668:Generated_Source\PSoC4/cyfitter_cfg.c **** 
 669:Generated_Source\PSoC4/cyfitter_cfg.c **** 		/* UDB_PA_2 Starting address: CYDEV_UDB_PA2_BASE */
 670:Generated_Source\PSoC4/cyfitter_cfg.c **** 		CY_SET_XTND_REG32((void CYFAR *)(CYDEV_UDB_PA2_BASE), 0x00990000u);
 671:Generated_Source\PSoC4/cyfitter_cfg.c **** 
 672:Generated_Source\PSoC4/cyfitter_cfg.c **** 		/* UDB_PA_3 Starting address: CYDEV_UDB_PA3_BASE */
 673:Generated_Source\PSoC4/cyfitter_cfg.c **** 		CY_SET_XTND_REG32((void CYFAR *)(CYDEV_UDB_PA3_BASE), 0x00990000u);
 674:Generated_Source\PSoC4/cyfitter_cfg.c **** 
 675:Generated_Source\PSoC4/cyfitter_cfg.c **** 		/* INT_SELECT Starting address: CYDEV_CPUSS_INTR_SELECT */
 676:Generated_Source\PSoC4/cyfitter_cfg.c **** 		CY_SET_XTND_REG32((void CYFAR *)(CYREG_CPUSS_INTR_SELECT), 0x00000001u);
ARM GAS  C:\Users\g\AppData\Local\Temp\ccplq7Se.s 			page 17


 677:Generated_Source\PSoC4/cyfitter_cfg.c **** 
 678:Generated_Source\PSoC4/cyfitter_cfg.c **** 		/* Enable digital routing */
 679:Generated_Source\PSoC4/cyfitter_cfg.c **** 		CY_SET_XTND_REG8((void *)CYREG_UDB_UDBIF_BANK_CTL, CY_GET_XTND_REG8((void *)CYREG_UDB_UDBIF_BANK_
 680:Generated_Source\PSoC4/cyfitter_cfg.c **** 
 681:Generated_Source\PSoC4/cyfitter_cfg.c **** 		/* Enable UDB array */
 682:Generated_Source\PSoC4/cyfitter_cfg.c **** 		CY_SET_XTND_REG8((void *)CYREG_UDB_UDBIF_WAIT_CFG, (uint8)((CY_GET_XTND_REG8((void *)CYREG_UDB_UD
 218              		.loc 1 682 0
 219 0080 454C     		ldr	r4, .L17+32
 666:Generated_Source\PSoC4/cyfitter_cfg.c **** 		CY_SET_XTND_REG32((void CYFAR *)(CYREG_UDB_PA1_CFG8), 0x000C0000u);
 220              		.loc 1 666 0
 221 0082 1360     		str	r3, [r2]
 667:Generated_Source\PSoC4/cyfitter_cfg.c **** 
 222              		.loc 1 667 0
 223 0084 454A     		ldr	r2, .L17+36
 224              	.LBE36:
 683:Generated_Source\PSoC4/cyfitter_cfg.c **** 		CY_SET_XTND_REG8((void *)CYREG_UDB_UDBIF_BANK_CTL, (uint8)(CY_GET_XTND_REG8((void *)CYREG_UDB_UDB
 684:Generated_Source\PSoC4/cyfitter_cfg.c **** 	}
 685:Generated_Source\PSoC4/cyfitter_cfg.c **** 
 686:Generated_Source\PSoC4/cyfitter_cfg.c **** 	/* Perform second pass device configuration. These items must be configured in specific order afte
 687:Generated_Source\PSoC4/cyfitter_cfg.c **** 	/* IOPINS0_0 Starting address: CYDEV_PRT0_BASE */
 688:Generated_Source\PSoC4/cyfitter_cfg.c **** 	CY_SET_XTND_REG32((void CYFAR *)(CYDEV_PRT0_BASE), 0x000000CBu);
 689:Generated_Source\PSoC4/cyfitter_cfg.c **** 	CY_SET_XTND_REG32((void CYFAR *)(CYREG_PRT0_PC), 0x00480512u);
 690:Generated_Source\PSoC4/cyfitter_cfg.c **** 
 691:Generated_Source\PSoC4/cyfitter_cfg.c **** 	/* IOPINS0_1 Starting address: CYDEV_PRT1_BASE */
 692:Generated_Source\PSoC4/cyfitter_cfg.c **** 	CY_SET_XTND_REG32((void CYFAR *)(CYDEV_PRT1_BASE), 0x00000002u);
 693:Generated_Source\PSoC4/cyfitter_cfg.c **** 	CY_SET_XTND_REG32((void CYFAR *)(CYREG_PRT1_PC), 0x000001B6u);
 694:Generated_Source\PSoC4/cyfitter_cfg.c **** 	CY_SET_XTND_REG32((void CYFAR *)(CYREG_PRT1_PC2), 0x00000080u);
 695:Generated_Source\PSoC4/cyfitter_cfg.c **** 
 696:Generated_Source\PSoC4/cyfitter_cfg.c **** 	/* IOPINS0_2 Starting address: CYDEV_PRT2_BASE */
 697:Generated_Source\PSoC4/cyfitter_cfg.c **** 	CY_SET_XTND_REG32((void CYFAR *)(CYDEV_PRT2_BASE), 0x0000001Cu);
 698:Generated_Source\PSoC4/cyfitter_cfg.c **** 	CY_SET_XTND_REG32((void CYFAR *)(CYREG_PRT2_PC), 0x00002400u);
 699:Generated_Source\PSoC4/cyfitter_cfg.c **** 	CY_SET_XTND_REG32((void CYFAR *)(CYREG_PRT2_PC2), 0x00000004u);
 225              		.loc 1 699 0
 226 0086 0426     		mov	r6, #4
 227              	.LBB37:
 667:Generated_Source\PSoC4/cyfitter_cfg.c **** 
 228              		.loc 1 667 0
 229 0088 1160     		str	r1, [r2]
 670:Generated_Source\PSoC4/cyfitter_cfg.c **** 
 230              		.loc 1 670 0
 231 008a 454A     		ldr	r2, .L17+40
 679:Generated_Source\PSoC4/cyfitter_cfg.c **** 
 232              		.loc 1 679 0
 233 008c 0221     		mov	r1, #2
 670:Generated_Source\PSoC4/cyfitter_cfg.c **** 
 234              		.loc 1 670 0
 235 008e 1360     		str	r3, [r2]
 673:Generated_Source\PSoC4/cyfitter_cfg.c **** 
 236              		.loc 1 673 0
 237 0090 444A     		ldr	r2, .L17+44
 238              	.LBE37:
 239              	.LBB38:
 240              	.LBB39:
 200:Generated_Source\PSoC4/cyfitter_cfg.c **** 
 241              		.loc 1 200 0
 242 0092 8027     		mov	r7, #128
 243              	.LVL16:
ARM GAS  C:\Users\g\AppData\Local\Temp\ccplq7Se.s 			page 18


 244              	.LBE39:
 245              	.LBE38:
 246              	.LBB44:
 673:Generated_Source\PSoC4/cyfitter_cfg.c **** 
 247              		.loc 1 673 0
 248 0094 1360     		str	r3, [r2]
 676:Generated_Source\PSoC4/cyfitter_cfg.c **** 
 249              		.loc 1 676 0
 250 0096 0122     		mov	r2, #1
 251 0098 434B     		ldr	r3, .L17+48
 252              	.LBE44:
 253              	.LBB45:
 254              	.LBB40:
 200:Generated_Source\PSoC4/cyfitter_cfg.c **** 
 255              		.loc 1 200 0
 256 009a FF02     		lsl	r7, r7, #11
 257              	.LBE40:
 258              	.LBE45:
 259              	.LBB46:
 676:Generated_Source\PSoC4/cyfitter_cfg.c **** 
 260              		.loc 1 676 0
 261 009c 1A60     		str	r2, [r3]
 679:Generated_Source\PSoC4/cyfitter_cfg.c **** 
 262              		.loc 1 679 0
 263 009e 434B     		ldr	r3, .L17+52
 264 00a0 0132     		add	r2, r2, #1
 265 00a2 1878     		ldrb	r0, [r3]
 266              	.LVL17:
 267              	.LBE46:
 700:Generated_Source\PSoC4/cyfitter_cfg.c **** 
 701:Generated_Source\PSoC4/cyfitter_cfg.c **** 	/* IOPINS0_3 Starting address: CYDEV_PRT3_BASE */
 702:Generated_Source\PSoC4/cyfitter_cfg.c **** 	CY_SET_XTND_REG32((void CYFAR *)(CYDEV_PRT3_BASE), 0x00000002u);
 703:Generated_Source\PSoC4/cyfitter_cfg.c **** 	CY_SET_XTND_REG32((void CYFAR *)(CYREG_PRT3_PC), 0x00000DB1u);
 704:Generated_Source\PSoC4/cyfitter_cfg.c **** 	CY_SET_XTND_REG32((void CYFAR *)(CYREG_PRT3_PC2), 0x00000002u);
 705:Generated_Source\PSoC4/cyfitter_cfg.c **** 
 706:Generated_Source\PSoC4/cyfitter_cfg.c **** 
 707:Generated_Source\PSoC4/cyfitter_cfg.c **** 	/* Setup clocks based on selections from Clock DWR */
 708:Generated_Source\PSoC4/cyfitter_cfg.c **** 	ClockSetup();
 709:Generated_Source\PSoC4/cyfitter_cfg.c **** 
 710:Generated_Source\PSoC4/cyfitter_cfg.c **** 	/* Perform basic analog initialization to defaults */
 711:Generated_Source\PSoC4/cyfitter_cfg.c **** 	AnalogSetDefault();
 712:Generated_Source\PSoC4/cyfitter_cfg.c **** 
 713:Generated_Source\PSoC4/cyfitter_cfg.c **** }
 268              		.loc 1 713 0
 269              		@ sp needed
 270              	.LBB47:
 679:Generated_Source\PSoC4/cyfitter_cfg.c **** 
 271              		.loc 1 679 0
 272 00a4 0143     		orr	r1, r0
 682:Generated_Source\PSoC4/cyfitter_cfg.c **** 		CY_SET_XTND_REG8((void *)CYREG_UDB_UDBIF_BANK_CTL, (uint8)(CY_GET_XTND_REG8((void *)CYREG_UDB_UDB
 273              		.loc 1 682 0
 274 00a6 3C20     		mov	r0, #60
 679:Generated_Source\PSoC4/cyfitter_cfg.c **** 
 275              		.loc 1 679 0
 276 00a8 1970     		strb	r1, [r3]
 682:Generated_Source\PSoC4/cyfitter_cfg.c **** 		CY_SET_XTND_REG8((void *)CYREG_UDB_UDBIF_BANK_CTL, (uint8)(CY_GET_XTND_REG8((void *)CYREG_UDB_UDB
 277              		.loc 1 682 0
ARM GAS  C:\Users\g\AppData\Local\Temp\ccplq7Se.s 			page 19


 278 00aa 2178     		ldrb	r1, [r4]
 279 00ac 8143     		bic	r1, r0
 280 00ae 2838     		sub	r0, r0, #40
 281 00b0 0143     		orr	r1, r0
 282 00b2 2170     		strb	r1, [r4]
 683:Generated_Source\PSoC4/cyfitter_cfg.c **** 	}
 283              		.loc 1 683 0
 284 00b4 1621     		mov	r1, #22
 285 00b6 1878     		ldrb	r0, [r3]
 286              	.LBE47:
 287              	.LBB48:
 288              	.LBB41:
 200:Generated_Source\PSoC4/cyfitter_cfg.c **** 
 289              		.loc 1 200 0
 290 00b8 3D4C     		ldr	r4, .L17+56
 291              	.LBE41:
 292              	.LBE48:
 293              	.LBB49:
 683:Generated_Source\PSoC4/cyfitter_cfg.c **** 	}
 294              		.loc 1 683 0
 295 00ba 0143     		orr	r1, r0
 296 00bc 1970     		strb	r1, [r3]
 297              	.LBE49:
 688:Generated_Source\PSoC4/cyfitter_cfg.c **** 	CY_SET_XTND_REG32((void CYFAR *)(CYREG_PRT0_PC), 0x00480512u);
 298              		.loc 1 688 0
 299 00be CB21     		mov	r1, #203
 300 00c0 3C4B     		ldr	r3, .L17+60
 301              	.LBB50:
 302              	.LBB42:
 203:Generated_Source\PSoC4/cyfitter_cfg.c **** 	/* CYDEV_CLK_ILO_CONFIG Starting address: CYDEV_CLK_ILO_CONFIG */
 303              		.loc 1 203 0
 304 00c2 3020     		mov	r0, #48
 305              	.LBE42:
 306              	.LBE50:
 688:Generated_Source\PSoC4/cyfitter_cfg.c **** 	CY_SET_XTND_REG32((void CYFAR *)(CYREG_PRT0_PC), 0x00480512u);
 307              		.loc 1 688 0
 308 00c4 1960     		str	r1, [r3]
 689:Generated_Source\PSoC4/cyfitter_cfg.c **** 
 309              		.loc 1 689 0
 310 00c6 3C49     		ldr	r1, .L17+64
 311 00c8 3C4B     		ldr	r3, .L17+68
 312 00ca 1960     		str	r1, [r3]
 693:Generated_Source\PSoC4/cyfitter_cfg.c **** 	CY_SET_XTND_REG32((void CYFAR *)(CYREG_PRT1_PC2), 0x00000080u);
 313              		.loc 1 693 0
 314 00cc DB21     		mov	r1, #219
 692:Generated_Source\PSoC4/cyfitter_cfg.c **** 	CY_SET_XTND_REG32((void CYFAR *)(CYREG_PRT1_PC), 0x000001B6u);
 315              		.loc 1 692 0
 316 00ce 3C4B     		ldr	r3, .L17+72
 693:Generated_Source\PSoC4/cyfitter_cfg.c **** 	CY_SET_XTND_REG32((void CYFAR *)(CYREG_PRT1_PC2), 0x00000080u);
 317              		.loc 1 693 0
 318 00d0 4900     		lsl	r1, r1, #1
 692:Generated_Source\PSoC4/cyfitter_cfg.c **** 	CY_SET_XTND_REG32((void CYFAR *)(CYREG_PRT1_PC), 0x000001B6u);
 319              		.loc 1 692 0
 320 00d2 1A60     		str	r2, [r3]
 693:Generated_Source\PSoC4/cyfitter_cfg.c **** 	CY_SET_XTND_REG32((void CYFAR *)(CYREG_PRT1_PC2), 0x00000080u);
 321              		.loc 1 693 0
 322 00d4 3B4B     		ldr	r3, .L17+76
ARM GAS  C:\Users\g\AppData\Local\Temp\ccplq7Se.s 			page 20


 323 00d6 1960     		str	r1, [r3]
 694:Generated_Source\PSoC4/cyfitter_cfg.c **** 
 324              		.loc 1 694 0
 325 00d8 3B4B     		ldr	r3, .L17+80
 326 00da 3739     		sub	r1, r1, #55
 327 00dc FF39     		sub	r1, r1, #255
 328 00de 1960     		str	r1, [r3]
 697:Generated_Source\PSoC4/cyfitter_cfg.c **** 	CY_SET_XTND_REG32((void CYFAR *)(CYREG_PRT2_PC), 0x00002400u);
 329              		.loc 1 697 0
 330 00e0 3A4B     		ldr	r3, .L17+84
 331 00e2 6439     		sub	r1, r1, #100
 332 00e4 1960     		str	r1, [r3]
 698:Generated_Source\PSoC4/cyfitter_cfg.c **** 	CY_SET_XTND_REG32((void CYFAR *)(CYREG_PRT2_PC2), 0x00000004u);
 333              		.loc 1 698 0
 334 00e6 9021     		mov	r1, #144
 335 00e8 394B     		ldr	r3, .L17+88
 336 00ea 8901     		lsl	r1, r1, #6
 337 00ec 1960     		str	r1, [r3]
 699:Generated_Source\PSoC4/cyfitter_cfg.c **** 
 338              		.loc 1 699 0
 339 00ee 394B     		ldr	r3, .L17+92
 703:Generated_Source\PSoC4/cyfitter_cfg.c **** 	CY_SET_XTND_REG32((void CYFAR *)(CYREG_PRT3_PC2), 0x00000002u);
 340              		.loc 1 703 0
 341 00f0 3949     		ldr	r1, .L17+96
 699:Generated_Source\PSoC4/cyfitter_cfg.c **** 
 342              		.loc 1 699 0
 343 00f2 1E60     		str	r6, [r3]
 702:Generated_Source\PSoC4/cyfitter_cfg.c **** 	CY_SET_XTND_REG32((void CYFAR *)(CYREG_PRT3_PC), 0x00000DB1u);
 344              		.loc 1 702 0
 345 00f4 394B     		ldr	r3, .L17+100
 346 00f6 1A60     		str	r2, [r3]
 703:Generated_Source\PSoC4/cyfitter_cfg.c **** 	CY_SET_XTND_REG32((void CYFAR *)(CYREG_PRT3_PC2), 0x00000002u);
 347              		.loc 1 703 0
 348 00f8 394B     		ldr	r3, .L17+104
 349 00fa 1960     		str	r1, [r3]
 704:Generated_Source\PSoC4/cyfitter_cfg.c **** 
 350              		.loc 1 704 0
 351 00fc 394B     		ldr	r3, .L17+108
 352 00fe 1A60     		str	r2, [r3]
 353              	.LBB51:
 354              	.LBB43:
 200:Generated_Source\PSoC4/cyfitter_cfg.c **** 
 355              		.loc 1 200 0
 356 0100 2368     		ldr	r3, [r4]
 357 0102 3B43     		orr	r3, r7
 358 0104 2360     		str	r3, [r4]
 203:Generated_Source\PSoC4/cyfitter_cfg.c **** 	/* CYDEV_CLK_ILO_CONFIG Starting address: CYDEV_CLK_ILO_CONFIG */
 359              		.loc 1 203 0
 360 0106 FFF7FEFF 		bl	CySysClkWriteImoFreq
 361              	.LVL18:
 205:Generated_Source\PSoC4/cyfitter_cfg.c **** 
 362              		.loc 1 205 0
 363 010a 374A     		ldr	r2, .L17+112
 364 010c 374B     		ldr	r3, .L17+116
 226:Generated_Source\PSoC4/cyfitter_cfg.c **** 
 365              		.loc 1 226 0
 366 010e 3849     		ldr	r1, .L17+120
ARM GAS  C:\Users\g\AppData\Local\Temp\ccplq7Se.s 			page 21


 205:Generated_Source\PSoC4/cyfitter_cfg.c **** 
 367              		.loc 1 205 0
 368 0110 1A60     		str	r2, [r3]
 209:Generated_Source\PSoC4/cyfitter_cfg.c **** 	CY_SET_XTND_REG32((void CYFAR *)(CYREG_CLK_SELECT07), 0x00000011u);
 369              		.loc 1 209 0
 370 0112 2122     		mov	r2, #33
 371 0114 374B     		ldr	r3, .L17+124
 237:Generated_Source\PSoC4/cyfitter_cfg.c **** 	CyIntEnable(9u);
 372              		.loc 1 237 0
 373 0116 0920     		mov	r0, #9
 209:Generated_Source\PSoC4/cyfitter_cfg.c **** 	CY_SET_XTND_REG32((void CYFAR *)(CYREG_CLK_SELECT07), 0x00000011u);
 374              		.loc 1 209 0
 375 0118 1A60     		str	r2, [r3]
 210:Generated_Source\PSoC4/cyfitter_cfg.c **** 	CY_SET_XTND_REG32((void CYFAR *)(CYREG_CLK_SELECT08), 0x00000030u);
 376              		.loc 1 210 0
 377 011a 374B     		ldr	r3, .L17+128
 378 011c 103A     		sub	r2, r2, #16
 379 011e 1A60     		str	r2, [r3]
 211:Generated_Source\PSoC4/cyfitter_cfg.c **** 	CY_SET_XTND_REG32((void CYFAR *)(CYREG_CLK_SELECT09), 0x00000010u);
 380              		.loc 1 211 0
 381 0120 364B     		ldr	r3, .L17+132
 212:Generated_Source\PSoC4/cyfitter_cfg.c **** 	CY_SET_XTND_REG32((void CYFAR *)(CYREG_CLK_SELECT13), 0x00000010u);
 382              		.loc 1 212 0
 383 0122 374A     		ldr	r2, .L17+136
 211:Generated_Source\PSoC4/cyfitter_cfg.c **** 	CY_SET_XTND_REG32((void CYFAR *)(CYREG_CLK_SELECT09), 0x00000010u);
 384              		.loc 1 211 0
 385 0124 1D60     		str	r5, [r3]
 212:Generated_Source\PSoC4/cyfitter_cfg.c **** 	CY_SET_XTND_REG32((void CYFAR *)(CYREG_CLK_SELECT13), 0x00000010u);
 386              		.loc 1 212 0
 387 0126 1023     		mov	r3, #16
 388 0128 1360     		str	r3, [r2]
 213:Generated_Source\PSoC4/cyfitter_cfg.c **** 	CY_SET_XTND_REG32((void CYFAR *)(CYREG_CLK_SELECT15), 0x00000020u);
 389              		.loc 1 213 0
 390 012a 364A     		ldr	r2, .L17+140
 391 012c 1360     		str	r3, [r2]
 214:Generated_Source\PSoC4/cyfitter_cfg.c **** 
 392              		.loc 1 214 0
 393 012e 2022     		mov	r2, #32
 394 0130 354B     		ldr	r3, .L17+144
 395 0132 1A60     		str	r2, [r3]
 217:Generated_Source\PSoC4/cyfitter_cfg.c **** 
 396              		.loc 1 217 0
 397 0134 8222     		mov	r2, #130
 398 0136 354B     		ldr	r3, .L17+148
 399 0138 1206     		lsl	r2, r2, #24
 400 013a 1A60     		str	r2, [r3]
 223:Generated_Source\PSoC4/cyfitter_cfg.c **** 
 401              		.loc 1 223 0
 402 013c 344B     		ldr	r3, .L17+152
 403 013e 354A     		ldr	r2, .L17+156
 220:Generated_Source\PSoC4/cyfitter_cfg.c **** 
 404              		.loc 1 220 0
 405 0140 2760     		str	r7, [r4]
 223:Generated_Source\PSoC4/cyfitter_cfg.c **** 
 406              		.loc 1 223 0
 407 0142 1360     		str	r3, [r2]
 226:Generated_Source\PSoC4/cyfitter_cfg.c **** 
ARM GAS  C:\Users\g\AppData\Local\Temp\ccplq7Se.s 			page 22


 408              		.loc 1 226 0
 409 0144 344A     		ldr	r2, .L17+160
 410 0146 1160     		str	r1, [r2]
 229:Generated_Source\PSoC4/cyfitter_cfg.c **** 
 411              		.loc 1 229 0
 412 0148 8021     		mov	r1, #128
 413 014a 344A     		ldr	r2, .L17+164
 414 014c 0906     		lsl	r1, r1, #24
 415 014e 1160     		str	r1, [r2]
 232:Generated_Source\PSoC4/cyfitter_cfg.c **** 
 416              		.loc 1 232 0
 417 0150 334A     		ldr	r2, .L17+168
 237:Generated_Source\PSoC4/cyfitter_cfg.c **** 	CyIntEnable(9u);
 418              		.loc 1 237 0
 419 0152 3449     		ldr	r1, .L17+172
 232:Generated_Source\PSoC4/cyfitter_cfg.c **** 
 420              		.loc 1 232 0
 421 0154 1360     		str	r3, [r2]
 235:Generated_Source\PSoC4/cyfitter_cfg.c **** 
 422              		.loc 1 235 0
 423 0156 344A     		ldr	r2, .L17+176
 424 0158 344B     		ldr	r3, .L17+180
 425 015a 1A60     		str	r2, [r3]
 237:Generated_Source\PSoC4/cyfitter_cfg.c **** 	CyIntEnable(9u);
 426              		.loc 1 237 0
 427 015c FFF7FEFF 		bl	CyIntSetVector
 428              	.LVL19:
 238:Generated_Source\PSoC4/cyfitter_cfg.c **** 	CY_SET_XTND_REG32((void CYFAR *)(CYREG_WDT_CONFIG), 0x00000000u);
 429              		.loc 1 238 0
 430 0160 0920     		mov	r0, #9
 431 0162 FFF7FEFF 		bl	CyIntEnable
 432              	.LVL20:
 239:Generated_Source\PSoC4/cyfitter_cfg.c **** }
 433              		.loc 1 239 0
 434 0166 0022     		mov	r2, #0
 435 0168 314B     		ldr	r3, .L17+184
 436 016a 1A60     		str	r2, [r3]
 437              	.LBE43:
 438              	.LBE51:
 439              	.LBB52:
 440              	.LBB53:
 264:Generated_Source\PSoC4/cyfitter_cfg.c **** 	/* Variable VDDA is selected; no pumps are enabled by default */
 441              		.loc 1 264 0
 442 016c 314B     		ldr	r3, .L17+188
 443 016e 1E60     		str	r6, [r3]
 444              	.LBE53:
 445              	.LBE52:
 446              		.loc 1 713 0
 447 0170 04BC     		pop	{r2}
 448 0172 9046     		mov	r8, r2
 449 0174 F0BD     		pop	{r4, r5, r6, r7, pc}
 450              	.L18:
 451 0176 C046     		.align	2
 452              	.L17:
 453 0178 1C700F40 		.word	1074753564
 454 017c 00300F40 		.word	1074737152
 455 0180 00400F40 		.word	1074741248
ARM GAS  C:\Users\g\AppData\Local\Temp\ccplq7Se.s 			page 23


 456 0184 00000000 		.word	.LANCHOR0
 457 0188 04000140 		.word	1073807364
 458 018c 0C000140 		.word	1073807372
 459 0190 00500F40 		.word	1074745344
 460 0194 10500F40 		.word	1074745360
 461 0198 01700F40 		.word	1074753537
 462 019c 18500F40 		.word	1074745368
 463 01a0 20500F40 		.word	1074745376
 464 01a4 30500F40 		.word	1074745392
 465 01a8 20000040 		.word	1073741856
 466 01ac 00700F40 		.word	1074753536
 467 01b0 00010B40 		.word	1074462976
 468 01b4 00000440 		.word	1074003968
 469 01b8 12054800 		.word	4719890
 470 01bc 08000440 		.word	1074003976
 471 01c0 00010440 		.word	1074004224
 472 01c4 08010440 		.word	1074004232
 473 01c8 18010440 		.word	1074004248
 474 01cc 00020440 		.word	1074004480
 475 01d0 08020440 		.word	1074004488
 476 01d4 18020440 		.word	1074004504
 477 01d8 B10D0000 		.word	3505
 478 01dc 00030440 		.word	1074004736
 479 01e0 08030440 		.word	1074004744
 480 01e4 18030440 		.word	1074004760
 481 01e8 06000080 		.word	-2147483642
 482 01ec 04010B40 		.word	1074462980
 483 01f0 030000C0 		.word	-1073741821
 484 01f4 0C020240 		.word	1073873420
 485 01f8 1C020240 		.word	1073873436
 486 01fc 20020240 		.word	1073873440
 487 0200 24020240 		.word	1073873444
 488 0204 34020240 		.word	1073873460
 489 0208 3C020240 		.word	1073873468
 490 020c 08010B40 		.word	1074462984
 491 0210 03000080 		.word	-2147483645
 492 0214 00000240 		.word	1073872896
 493 0218 40000240 		.word	1073872960
 494 021c 80000240 		.word	1073873024
 495 0220 04000240 		.word	1073872900
 496 0224 00000000 		.word	CySysWdtIsr
 497 0228 F9000080 		.word	-2147483399
 498 022c 44000240 		.word	1073872964
 499 0230 0C020B40 		.word	1074463244
 500 0234 00031A40 		.word	1075446528
 501              		.cfi_endproc
 502              	.LFE7:
 503              		.size	cyfitter_cfg, .-cyfitter_cfg
 504              		.section	.rodata
 505              		.align	2
 506              		.set	.LANCHOR0,. + 0
 507              		.type	cy_cfg_addr_table.4746, %object
 508              		.size	cy_cfg_addr_table.4746, 40
 509              	cy_cfg_addr_table.4746:
 510 0000 01000F40 		.word	1074724865
 511 0004 3C300F40 		.word	1074737212
 512 0008 2F310F40 		.word	1074737455
ARM GAS  C:\Users\g\AppData\Local\Temp\ccplq7Se.s 			page 24


 513 000c 5E320F40 		.word	1074737758
 514 0010 38330F40 		.word	1074737976
 515 0014 09400F40 		.word	1074741257
 516 0018 0E410F40 		.word	1074741518
 517 001c 02420F40 		.word	1074741762
 518 0020 06430F40 		.word	1074742022
 519 0024 02600F40 		.word	1074749442
 520              		.type	cy_cfg_data_table.4747, %object
 521              		.size	cy_cfg_data_table.4747, 582
 522              	cy_cfg_data_table.4747:
 523 0028 83       		.byte	-125
 524 0029 6F       		.byte	111
 525 002a 05       		.byte	5
 526 002b 19       		.byte	25
 527 002c 07       		.byte	7
 528 002d 66       		.byte	102
 529 002e 09       		.byte	9
 530 002f 7F       		.byte	127
 531 0030 0A       		.byte	10
 532 0031 02       		.byte	2
 533 0032 0B       		.byte	11
 534 0033 80       		.byte	-128
 535 0034 0D       		.byte	13
 536 0035 4B       		.byte	75
 537 0036 0F       		.byte	15
 538 0037 34       		.byte	52
 539 0038 13       		.byte	19
 540 0039 FF       		.byte	-1
 541 003a 1D       		.byte	29
 542 003b 80       		.byte	-128
 543 003c 1E       		.byte	30
 544 003d 04       		.byte	4
 545 003e 22       		.byte	34
 546 003f 01       		.byte	1
 547 0040 23       		.byte	35
 548 0041 80       		.byte	-128
 549 0042 29       		.byte	41
 550 0043 07       		.byte	7
 551 0044 2B       		.byte	43
 552 0045 78       		.byte	120
 553 0046 2D       		.byte	45
 554 0047 2A       		.byte	42
 555 0048 2F       		.byte	47
 556 0049 55       		.byte	85
 557 004a 30       		.byte	48
 558 004b 01       		.byte	1
 559 004c 34       		.byte	52
 560 004d 02       		.byte	2
 561 004e 35       		.byte	53
 562 004f FF       		.byte	-1
 563 0050 36       		.byte	54
 564 0051 04       		.byte	4
 565 0052 3B       		.byte	59
 566 0053 03       		.byte	3
 567 0054 3F       		.byte	63
 568 0055 10       		.byte	16
 569 0056 58       		.byte	88
ARM GAS  C:\Users\g\AppData\Local\Temp\ccplq7Se.s 			page 25


 570 0057 04       		.byte	4
 571 0058 59       		.byte	89
 572 0059 04       		.byte	4
 573 005a 5C       		.byte	92
 574 005b 13       		.byte	19
 575 005c 5F       		.byte	95
 576 005d 01       		.byte	1
 577 005e 81       		.byte	-127
 578 005f 10       		.byte	16
 579 0060 82       		.byte	-126
 580 0061 02       		.byte	2
 581 0062 83       		.byte	-125
 582 0063 0A       		.byte	10
 583 0064 87       		.byte	-121
 584 0065 20       		.byte	32
 585 0066 89       		.byte	-119
 586 0067 1A       		.byte	26
 587 0068 8B       		.byte	-117
 588 0069 20       		.byte	32
 589 006a 8F       		.byte	-113
 590 006b 01       		.byte	1
 591 006c 92       		.byte	-110
 592 006d 01       		.byte	1
 593 006e 93       		.byte	-109
 594 006f 02       		.byte	2
 595 0070 95       		.byte	-107
 596 0071 02       		.byte	2
 597 0072 9B       		.byte	-101
 598 0073 04       		.byte	4
 599 0074 9C       		.byte	-100
 600 0075 04       		.byte	4
 601 0076 9F       		.byte	-97
 602 0077 01       		.byte	1
 603 0078 A1       		.byte	-95
 604 0079 02       		.byte	2
 605 007a A2       		.byte	-94
 606 007b 04       		.byte	4
 607 007c A5       		.byte	-91
 608 007d 01       		.byte	1
 609 007e A9       		.byte	-87
 610 007f 0A       		.byte	10
 611 0080 AB       		.byte	-85
 612 0081 10       		.byte	16
 613 0082 B0       		.byte	-80
 614 0083 04       		.byte	4
 615 0084 B1       		.byte	-79
 616 0085 06       		.byte	6
 617 0086 B2       		.byte	-78
 618 0087 01       		.byte	1
 619 0088 B3       		.byte	-77
 620 0089 38       		.byte	56
 621 008a B4       		.byte	-76
 622 008b 02       		.byte	2
 623 008c B7       		.byte	-73
 624 008d 01       		.byte	1
 625 008e BA       		.byte	-70
 626 008f 08       		.byte	8
ARM GAS  C:\Users\g\AppData\Local\Temp\ccplq7Se.s 			page 26


 627 0090 BE       		.byte	-66
 628 0091 01       		.byte	1
 629 0092 BF       		.byte	-65
 630 0093 40       		.byte	64
 631 0094 D6       		.byte	-42
 632 0095 08       		.byte	8
 633 0096 D8       		.byte	-40
 634 0097 04       		.byte	4
 635 0098 D9       		.byte	-39
 636 0099 04       		.byte	4
 637 009a DB       		.byte	-37
 638 009b 04       		.byte	4
 639 009c DC       		.byte	-36
 640 009d 11       		.byte	17
 641 009e DD       		.byte	-35
 642 009f 30       		.byte	48
 643 00a0 DF       		.byte	-33
 644 00a1 01       		.byte	1
 645 00a2 02       		.byte	2
 646 00a3 04       		.byte	4
 647 00a4 07       		.byte	7
 648 00a5 40       		.byte	64
 649 00a6 0B       		.byte	11
 650 00a7 01       		.byte	1
 651 00a8 0D       		.byte	13
 652 00a9 02       		.byte	2
 653 00aa 0F       		.byte	15
 654 00ab 02       		.byte	2
 655 00ac 10       		.byte	16
 656 00ad 40       		.byte	64
 657 00ae 14       		.byte	20
 658 00af 40       		.byte	64
 659 00b0 19       		.byte	25
 660 00b1 60       		.byte	96
 661 00b2 1A       		.byte	26
 662 00b3 80       		.byte	-128
 663 00b4 1B       		.byte	27
 664 00b5 81       		.byte	-127
 665 00b6 1C       		.byte	28
 666 00b7 10       		.byte	16
 667 00b8 1E       		.byte	30
 668 00b9 40       		.byte	64
 669 00ba 1F       		.byte	31
 670 00bb 10       		.byte	16
 671 00bc 21       		.byte	33
 672 00bd 02       		.byte	2
 673 00be 22       		.byte	34
 674 00bf 22       		.byte	34
 675 00c0 26       		.byte	38
 676 00c1 08       		.byte	8
 677 00c2 27       		.byte	39
 678 00c3 41       		.byte	65
 679 00c4 28       		.byte	40
 680 00c5 40       		.byte	64
 681 00c6 29       		.byte	41
 682 00c7 60       		.byte	96
 683 00c8 2D       		.byte	45
ARM GAS  C:\Users\g\AppData\Local\Temp\ccplq7Se.s 			page 27


 684 00c9 20       		.byte	32
 685 00ca 2F       		.byte	47
 686 00cb 90       		.byte	-112
 687 00cc 31       		.byte	49
 688 00cd 02       		.byte	2
 689 00ce 32       		.byte	50
 690 00cf 40       		.byte	64
 691 00d0 35       		.byte	53
 692 00d1 04       		.byte	4
 693 00d2 36       		.byte	54
 694 00d3 22       		.byte	34
 695 00d4 37       		.byte	55
 696 00d5 40       		.byte	64
 697 00d6 38       		.byte	56
 698 00d7 10       		.byte	16
 699 00d8 3A       		.byte	58
 700 00d9 44       		.byte	68
 701 00da 3C       		.byte	60
 702 00db 10       		.byte	16
 703 00dc 3F       		.byte	63
 704 00dd 45       		.byte	69
 705 00de 5C       		.byte	92
 706 00df 48       		.byte	72
 707 00e0 5E       		.byte	94
 708 00e1 01       		.byte	1
 709 00e2 5F       		.byte	95
 710 00e3 20       		.byte	32
 711 00e4 64       		.byte	100
 712 00e5 40       		.byte	64
 713 00e6 65       		.byte	101
 714 00e7 04       		.byte	4
 715 00e8 66       		.byte	102
 716 00e9 44       		.byte	68
 717 00ea 67       		.byte	103
 718 00eb 05       		.byte	5
 719 00ec 8A       		.byte	-118
 720 00ed 01       		.byte	1
 721 00ee C0       		.byte	-64
 722 00ef 12       		.byte	18
 723 00f0 C2       		.byte	-62
 724 00f1 91       		.byte	-111
 725 00f2 C4       		.byte	-60
 726 00f3 18       		.byte	24
 727 00f4 CA       		.byte	-54
 728 00f5 ED       		.byte	-19
 729 00f6 CC       		.byte	-52
 730 00f7 F9       		.byte	-7
 731 00f8 CE       		.byte	-50
 732 00f9 FE       		.byte	-2
 733 00fa D6       		.byte	-42
 734 00fb F0       		.byte	-16
 735 00fc D8       		.byte	-40
 736 00fd F0       		.byte	-16
 737 00fe E4       		.byte	-28
 738 00ff 80       		.byte	-128
 739 0100 03       		.byte	3
 740 0101 01       		.byte	1
ARM GAS  C:\Users\g\AppData\Local\Temp\ccplq7Se.s 			page 28


 741 0102 1E       		.byte	30
 742 0103 01       		.byte	1
 743 0104 2C       		.byte	44
 744 0105 01       		.byte	1
 745 0106 31       		.byte	49
 746 0107 01       		.byte	1
 747 0108 36       		.byte	54
 748 0109 01       		.byte	1
 749 010a 3E       		.byte	62
 750 010b 40       		.byte	64
 751 010c 40       		.byte	64
 752 010d 40       		.byte	64
 753 010e 41       		.byte	65
 754 010f 06       		.byte	6
 755 0110 49       		.byte	73
 756 0111 FF       		.byte	-1
 757 0112 4A       		.byte	74
 758 0113 FF       		.byte	-1
 759 0114 4B       		.byte	75
 760 0115 FF       		.byte	-1
 761 0116 4D       		.byte	77
 762 0117 A0       		.byte	-96
 763 0118 4F       		.byte	79
 764 0119 01       		.byte	1
 765 011a 50       		.byte	80
 766 011b 18       		.byte	24
 767 011c 54       		.byte	84
 768 011d 01       		.byte	1
 769 011e 58       		.byte	88
 770 011f 04       		.byte	4
 771 0120 59       		.byte	89
 772 0121 04       		.byte	4
 773 0122 5A       		.byte	90
 774 0123 04       		.byte	4
 775 0124 5B       		.byte	91
 776 0125 04       		.byte	4
 777 0126 5C       		.byte	92
 778 0127 10       		.byte	16
 779 0128 5D       		.byte	93
 780 0129 11       		.byte	17
 781 012a 5F       		.byte	95
 782 012b 01       		.byte	1
 783 012c 60       		.byte	96
 784 012d 40       		.byte	64
 785 012e 62       		.byte	98
 786 012f 80       		.byte	-128
 787 0130 64       		.byte	100
 788 0131 40       		.byte	64
 789 0132 65       		.byte	101
 790 0133 40       		.byte	64
 791 0134 66       		.byte	102
 792 0135 80       		.byte	-128
 793 0136 68       		.byte	104
 794 0137 40       		.byte	64
 795 0138 6A       		.byte	106
 796 0139 80       		.byte	-128
 797 013a 6C       		.byte	108
ARM GAS  C:\Users\g\AppData\Local\Temp\ccplq7Se.s 			page 29


 798 013b 40       		.byte	64
 799 013c 6D       		.byte	109
 800 013d 20       		.byte	32
 801 013e 6E       		.byte	110
 802 013f 80       		.byte	-128
 803 0140 80       		.byte	-128
 804 0141 06       		.byte	6
 805 0142 82       		.byte	-126
 806 0143 11       		.byte	17
 807 0144 84       		.byte	-124
 808 0145 1F       		.byte	31
 809 0146 85       		.byte	-123
 810 0147 07       		.byte	7
 811 0148 87       		.byte	-121
 812 0149 08       		.byte	8
 813 014a 88       		.byte	-120
 814 014b 18       		.byte	24
 815 014c 89       		.byte	-119
 816 014d 01       		.byte	1
 817 014e 8A       		.byte	-118
 818 014f 03       		.byte	3
 819 0150 8B       		.byte	-117
 820 0151 12       		.byte	18
 821 0152 8D       		.byte	-115
 822 0153 06       		.byte	6
 823 0154 8E       		.byte	-114
 824 0155 20       		.byte	32
 825 0156 8F       		.byte	-113
 826 0157 11       		.byte	17
 827 0158 95       		.byte	-107
 828 0159 18       		.byte	24
 829 015a 97       		.byte	-105
 830 015b 03       		.byte	3
 831 015c 9D       		.byte	-99
 832 015d 10       		.byte	16
 833 015e 9F       		.byte	-97
 834 015f 04       		.byte	4
 835 0160 A0       		.byte	-96
 836 0161 10       		.byte	16
 837 0162 A2       		.byte	-94
 838 0163 04       		.byte	4
 839 0164 A3       		.byte	-93
 840 0165 20       		.byte	32
 841 0166 A4       		.byte	-92
 842 0167 07       		.byte	7
 843 0168 A5       		.byte	-91
 844 0169 20       		.byte	32
 845 016a A6       		.byte	-90
 846 016b 08       		.byte	8
 847 016c A8       		.byte	-88
 848 016d 01       		.byte	1
 849 016e AA       		.byte	-86
 850 016f 12       		.byte	18
 851 0170 B2       		.byte	-78
 852 0171 20       		.byte	32
 853 0172 B3       		.byte	-77
 854 0173 20       		.byte	32
ARM GAS  C:\Users\g\AppData\Local\Temp\ccplq7Se.s 			page 30


 855 0174 B5       		.byte	-75
 856 0175 1F       		.byte	31
 857 0176 B6       		.byte	-74
 858 0177 1F       		.byte	31
 859 0178 BE       		.byte	-66
 860 0179 40       		.byte	64
 861 017a BF       		.byte	-65
 862 017b 04       		.byte	4
 863 017c C0       		.byte	-64
 864 017d 40       		.byte	64
 865 017e C1       		.byte	-63
 866 017f 06       		.byte	6
 867 0180 C5       		.byte	-59
 868 0181 25       		.byte	37
 869 0182 C6       		.byte	-58
 870 0183 C4       		.byte	-60
 871 0184 C7       		.byte	-57
 872 0185 3E       		.byte	62
 873 0186 C8       		.byte	-56
 874 0187 3F       		.byte	63
 875 0188 C9       		.byte	-55
 876 0189 FF       		.byte	-1
 877 018a CA       		.byte	-54
 878 018b FF       		.byte	-1
 879 018c CB       		.byte	-53
 880 018d FF       		.byte	-1
 881 018e CD       		.byte	-51
 882 018f AF       		.byte	-81
 883 0190 CE       		.byte	-50
 884 0191 07       		.byte	7
 885 0192 CF       		.byte	-49
 886 0193 01       		.byte	1
 887 0194 D0       		.byte	-48
 888 0195 18       		.byte	24
 889 0196 D2       		.byte	-46
 890 0197 87       		.byte	-121
 891 0198 D4       		.byte	-44
 892 0199 0F       		.byte	15
 893 019a D8       		.byte	-40
 894 019b 04       		.byte	4
 895 019c D9       		.byte	-39
 896 019d 04       		.byte	4
 897 019e DA       		.byte	-38
 898 019f 04       		.byte	4
 899 01a0 DB       		.byte	-37
 900 01a1 04       		.byte	4
 901 01a2 DC       		.byte	-36
 902 01a3 11       		.byte	17
 903 01a4 DD       		.byte	-35
 904 01a5 11       		.byte	17
 905 01a6 DF       		.byte	-33
 906 01a7 01       		.byte	1
 907 01a8 E0       		.byte	-32
 908 01a9 40       		.byte	64
 909 01aa E2       		.byte	-30
 910 01ab 80       		.byte	-128
 911 01ac E4       		.byte	-28
ARM GAS  C:\Users\g\AppData\Local\Temp\ccplq7Se.s 			page 31


 912 01ad 40       		.byte	64
 913 01ae E5       		.byte	-27
 914 01af 40       		.byte	64
 915 01b0 E6       		.byte	-26
 916 01b1 80       		.byte	-128
 917 01b2 E8       		.byte	-24
 918 01b3 40       		.byte	64
 919 01b4 EA       		.byte	-22
 920 01b5 80       		.byte	-128
 921 01b6 EC       		.byte	-20
 922 01b7 40       		.byte	64
 923 01b8 ED       		.byte	-19
 924 01b9 20       		.byte	32
 925 01ba EE       		.byte	-18
 926 01bb 80       		.byte	-128
 927 01bc 00       		.byte	0
 928 01bd 26       		.byte	38
 929 01be 02       		.byte	2
 930 01bf 01       		.byte	1
 931 01c0 0F       		.byte	15
 932 01c1 01       		.byte	1
 933 01c2 10       		.byte	16
 934 01c3 A8       		.byte	-88
 935 01c4 17       		.byte	23
 936 01c5 80       		.byte	-128
 937 01c6 19       		.byte	25
 938 01c7 48       		.byte	72
 939 01c8 1E       		.byte	30
 940 01c9 01       		.byte	1
 941 01ca 20       		.byte	32
 942 01cb 04       		.byte	4
 943 01cc 22       		.byte	34
 944 01cd 04       		.byte	4
 945 01ce 27       		.byte	39
 946 01cf 80       		.byte	-128
 947 01d0 29       		.byte	41
 948 01d1 08       		.byte	8
 949 01d2 2A       		.byte	42
 950 01d3 01       		.byte	1
 951 01d4 30       		.byte	48
 952 01d5 80       		.byte	-128
 953 01d6 31       		.byte	49
 954 01d7 04       		.byte	4
 955 01d8 39       		.byte	57
 956 01d9 54       		.byte	84
 957 01da 3F       		.byte	63
 958 01db 01       		.byte	1
 959 01dc 43       		.byte	67
 960 01dd 01       		.byte	1
 961 01de 47       		.byte	71
 962 01df 01       		.byte	1
 963 01e0 48       		.byte	72
 964 01e1 10       		.byte	16
 965 01e2 49       		.byte	73
 966 01e3 04       		.byte	4
 967 01e4 4A       		.byte	74
 968 01e5 08       		.byte	8
ARM GAS  C:\Users\g\AppData\Local\Temp\ccplq7Se.s 			page 32


 969 01e6 4B       		.byte	75
 970 01e7 01       		.byte	1
 971 01e8 4E       		.byte	78
 972 01e9 08       		.byte	8
 973 01ea 50       		.byte	80
 974 01eb 80       		.byte	-128
 975 01ec 51       		.byte	81
 976 01ed 08       		.byte	8
 977 01ee 52       		.byte	82
 978 01ef 11       		.byte	17
 979 01f0 59       		.byte	89
 980 01f1 40       		.byte	64
 981 01f2 5A       		.byte	90
 982 01f3 09       		.byte	9
 983 01f4 5B       		.byte	91
 984 01f5 20       		.byte	32
 985 01f6 5E       		.byte	94
 986 01f7 40       		.byte	64
 987 01f8 61       		.byte	97
 988 01f9 08       		.byte	8
 989 01fa 62       		.byte	98
 990 01fb 10       		.byte	16
 991 01fc 68       		.byte	104
 992 01fd 29       		.byte	41
 993 01fe 69       		.byte	105
 994 01ff 54       		.byte	84
 995 0200 73       		.byte	115
 996 0201 40       		.byte	64
 997 0202 83       		.byte	-125
 998 0203 21       		.byte	33
 999 0204 92       		.byte	-110
 1000 0205 40       		.byte	64
 1001 0206 97       		.byte	-105
 1002 0207 40       		.byte	64
 1003 0208 9B       		.byte	-101
 1004 0209 01       		.byte	1
 1005 020a A2       		.byte	-94
 1006 020b 08       		.byte	8
 1007 020c AF       		.byte	-81
 1008 020d 20       		.byte	32
 1009 020e B0       		.byte	-80
 1010 020f 08       		.byte	8
 1011 0210 B4       		.byte	-76
 1012 0211 40       		.byte	64
 1013 0212 C0       		.byte	-64
 1014 0213 0F       		.byte	15
 1015 0214 C2       		.byte	-62
 1016 0215 80       		.byte	-128
 1017 0216 C4       		.byte	-60
 1018 0217 8E       		.byte	-114
 1019 0218 CA       		.byte	-54
 1020 0219 03       		.byte	3
 1021 021a CC       		.byte	-52
 1022 021b 0A       		.byte	10
 1023 021c CE       		.byte	-50
 1024 021d 8E       		.byte	-114
 1025 021e D0       		.byte	-48
ARM GAS  C:\Users\g\AppData\Local\Temp\ccplq7Se.s 			page 33


 1026 021f 81       		.byte	-127
 1027 0220 D2       		.byte	-46
 1028 0221 24       		.byte	36
 1029 0222 D6       		.byte	-42
 1030 0223 1F       		.byte	31
 1031 0224 D8       		.byte	-40
 1032 0225 06       		.byte	6
 1033 0226 E0       		.byte	-32
 1034 0227 04       		.byte	4
 1035 0228 E2       		.byte	-30
 1036 0229 80       		.byte	-128
 1037 022a E8       		.byte	-24
 1038 022b C0       		.byte	-64
 1039 022c 03       		.byte	3
 1040 022d 80       		.byte	-128
 1041 022e 05       		.byte	5
 1042 022f 08       		.byte	8
 1043 0230 09       		.byte	9
 1044 0231 20       		.byte	32
 1045 0232 0F       		.byte	15
 1046 0233 04       		.byte	4
 1047 0234 6F       		.byte	111
 1048 0235 04       		.byte	4
 1049 0236 89       		.byte	-119
 1050 0237 20       		.byte	32
 1051 0238 C0       		.byte	-64
 1052 0239 30       		.byte	48
 1053 023a C2       		.byte	-62
 1054 023b C0       		.byte	-64
 1055 023c DA       		.byte	-38
 1056 023d 80       		.byte	-128
 1057 023e 1B       		.byte	27
 1058 023f 02       		.byte	2
 1059 0240 27       		.byte	39
 1060 0241 04       		.byte	4
 1061 0242 5E       		.byte	94
 1062 0243 20       		.byte	32
 1063 0244 83       		.byte	-125
 1064 0245 02       		.byte	2
 1065 0246 8A       		.byte	-118
 1066 0247 10       		.byte	16
 1067 0248 9F       		.byte	-97
 1068 0249 04       		.byte	4
 1069 024a AF       		.byte	-81
 1070 024b 04       		.byte	4
 1071 024c B1       		.byte	-79
 1072 024d 08       		.byte	8
 1073 024e B7       		.byte	-73
 1074 024f 80       		.byte	-128
 1075 0250 C6       		.byte	-58
 1076 0251 10       		.byte	16
 1077 0252 C8       		.byte	-56
 1078 0253 20       		.byte	32
 1079 0254 D6       		.byte	-42
 1080 0255 20       		.byte	32
 1081 0256 E0       		.byte	-32
 1082 0257 20       		.byte	32
ARM GAS  C:\Users\g\AppData\Local\Temp\ccplq7Se.s 			page 34


 1083 0258 E8       		.byte	-24
 1084 0259 40       		.byte	64
 1085 025a 6A       		.byte	106
 1086 025b 40       		.byte	64
 1087 025c DA       		.byte	-38
 1088 025d 02       		.byte	2
 1089 025e 20       		.byte	32
 1090 025f 02       		.byte	2
 1091 0260 82       		.byte	-126
 1092 0261 40       		.byte	64
 1093 0262 88       		.byte	-120
 1094 0263 01       		.byte	1
 1095 0264 96       		.byte	-106
 1096 0265 40       		.byte	64
 1097 0266 C8       		.byte	-56
 1098 0267 08       		.byte	8
 1099 0268 E2       		.byte	-30
 1100 0269 01       		.byte	1
 1101 026a 01       		.byte	1
 1102 026b 0A       		.byte	10
 1103 026c 10       		.byte	16
 1104 026d 0A       		.byte	10
 1105 026e 0000     		.text
 1106              	.Letext0:
 1107              		.file 2 "c:\\program files (x86)\\cypress\\psoc creator\\4.0\\psoc creator\\import\\gnu\\arm\\4.9.
 1108              		.file 3 "Generated_Source\\PSoC4\\cytypes.h"
 1109              		.file 4 "Generated_Source\\PSoC4\\CyLib.h"