ARM GAS  C:\Users\g\AppData\Local\Temp\ccEc1lZE.s 			page 1


   1              		.cpu cortex-m0
   2              		.fpu softvfp
   3              		.eabi_attribute 20, 1
   4              		.eabi_attribute 21, 1
   5              		.eabi_attribute 23, 3
   6              		.eabi_attribute 24, 1
   7              		.eabi_attribute 25, 1
   8              		.eabi_attribute 26, 1
   9              		.eabi_attribute 30, 2
  10              		.eabi_attribute 34, 0
  11              		.eabi_attribute 18, 4
  12              		.code	16
  13              		.file	"CyFlash.c"
  14              		.text
  15              	.Ltext0:
  16              		.cfi_sections	.debug_frame
  17              		.section	.text.CySysFlashWriteRow,"ax",%progbits
  18              		.align	2
  19              		.global	CySysFlashWriteRow
  20              		.code	16
  21              		.thumb_func
  22              		.type	CySysFlashWriteRow, %function
  23              	CySysFlashWriteRow:
  24              	.LFB0:
  25              		.file 1 "Generated_Source\\PSoC4\\CyFlash.c"
   1:Generated_Source\PSoC4/CyFlash.c **** /***************************************************************************//**
   2:Generated_Source\PSoC4/CyFlash.c **** * \file CyFlash.c
   3:Generated_Source\PSoC4/CyFlash.c **** * \version 5.40
   4:Generated_Source\PSoC4/CyFlash.c **** *
   5:Generated_Source\PSoC4/CyFlash.c **** * \brief Provides an API for the FLASH.
   6:Generated_Source\PSoC4/CyFlash.c **** *
   7:Generated_Source\PSoC4/CyFlash.c **** * \note This code is endian agnostic.
   8:Generated_Source\PSoC4/CyFlash.c **** *
   9:Generated_Source\PSoC4/CyFlash.c **** * \note Documentation of the API's in this file is located in the System
  10:Generated_Source\PSoC4/CyFlash.c **** * Reference Guide provided with PSoC Creator.
  11:Generated_Source\PSoC4/CyFlash.c **** *
  12:Generated_Source\PSoC4/CyFlash.c **** ********************************************************************************
  13:Generated_Source\PSoC4/CyFlash.c **** * \copyright
  14:Generated_Source\PSoC4/CyFlash.c **** * Copyright 2010-2016, Cypress Semiconductor Corporation.  All rights reserved.
  15:Generated_Source\PSoC4/CyFlash.c **** * You may use this file only in accordance with the license, terms, conditions,
  16:Generated_Source\PSoC4/CyFlash.c **** * disclaimers, and limitations in the end user license agreement accompanying
  17:Generated_Source\PSoC4/CyFlash.c **** * the software package with which this file was provided.
  18:Generated_Source\PSoC4/CyFlash.c **** *******************************************************************************/
  19:Generated_Source\PSoC4/CyFlash.c **** 
  20:Generated_Source\PSoC4/CyFlash.c **** #include "CyFlash.h"
  21:Generated_Source\PSoC4/CyFlash.c **** 
  22:Generated_Source\PSoC4/CyFlash.c **** 
  23:Generated_Source\PSoC4/CyFlash.c **** /*******************************************************************************
  24:Generated_Source\PSoC4/CyFlash.c **** * Cypress identified a defect with the Flash write functionality of the
  25:Generated_Source\PSoC4/CyFlash.c **** * PSoC 4000, PSoC 4100, and PSoC 4200 devices. The CySysFlashWriteRow() function
  26:Generated_Source\PSoC4/CyFlash.c **** * now checks the data to be written and, if necessary, modifies it to have a
  27:Generated_Source\PSoC4/CyFlash.c **** * non-zero checksum. After writing to Flash, the modified data is replaced
  28:Generated_Source\PSoC4/CyFlash.c **** * (Flash program) with the correct (original) data.
  29:Generated_Source\PSoC4/CyFlash.c **** *******************************************************************************/
  30:Generated_Source\PSoC4/CyFlash.c **** #define CY_FLASH_CHECKSUM_WORKAROUND    (CY_PSOC4_4000 || CY_PSOC4_4100 || CY_PSOC4_4200)
  31:Generated_Source\PSoC4/CyFlash.c **** 
  32:Generated_Source\PSoC4/CyFlash.c **** #if (CY_IP_FM || ((!CY_PSOC4_4000) && CY_IP_SPCIF_SYNCHRONOUS) || (!CY_IP_FM) && CY_PSOC4_4000)
ARM GAS  C:\Users\g\AppData\Local\Temp\ccEc1lZE.s 			page 2


  33:Generated_Source\PSoC4/CyFlash.c ****     static CY_SYS_FLASH_CLOCK_BACKUP_STRUCT cySysFlashBackup;
  34:Generated_Source\PSoC4/CyFlash.c **** #endif /* (CY_IP_FM || ((!CY_PSOC4_4000) && CY_IP_SPCIF_SYNCHRONOUS) || (!CY_IP_FM) && CY_PSOC4_400
  35:Generated_Source\PSoC4/CyFlash.c **** 
  36:Generated_Source\PSoC4/CyFlash.c **** static cystatus CySysFlashClockBackup(void);
  37:Generated_Source\PSoC4/CyFlash.c **** static cystatus CySysFlashClockRestore(void);
  38:Generated_Source\PSoC4/CyFlash.c **** #if(CY_IP_SPCIF_SYNCHRONOUS)
  39:Generated_Source\PSoC4/CyFlash.c ****     static cystatus CySysFlashClockConfig(void);
  40:Generated_Source\PSoC4/CyFlash.c **** #endif  /* (CY_IP_SPCIF_SYNCHRONOUS) */
  41:Generated_Source\PSoC4/CyFlash.c **** 
  42:Generated_Source\PSoC4/CyFlash.c **** 
  43:Generated_Source\PSoC4/CyFlash.c **** /*******************************************************************************
  44:Generated_Source\PSoC4/CyFlash.c **** * Function Name: CySysFlashWriteRow
  45:Generated_Source\PSoC4/CyFlash.c **** ****************************************************************************//**
  46:Generated_Source\PSoC4/CyFlash.c **** *
  47:Generated_Source\PSoC4/CyFlash.c **** * Erases a row of Flash and programs it with the new data.
  48:Generated_Source\PSoC4/CyFlash.c **** *
  49:Generated_Source\PSoC4/CyFlash.c **** * The IMO must be enabled before calling this function. The operation of the
  50:Generated_Source\PSoC4/CyFlash.c **** * flash writing hardware is dependent on the IMO.
  51:Generated_Source\PSoC4/CyFlash.c **** *
  52:Generated_Source\PSoC4/CyFlash.c **** * For PSoC 4000, PSoC 4100 BLE and PSoC 4200 BLE devices (PSoC 4100 BLE and
  53:Generated_Source\PSoC4/CyFlash.c **** * PSoC 4200 BLE devices with 256K of Flash memory are not affected), this API
  54:Generated_Source\PSoC4/CyFlash.c **** * will automatically modify the clock settings for the device. Writing to
  55:Generated_Source\PSoC4/CyFlash.c **** * flash requires that changes be made to the IMO and HFCLK settings. The
  56:Generated_Source\PSoC4/CyFlash.c **** * configuration is restored before returning. This will impact the operation
  57:Generated_Source\PSoC4/CyFlash.c **** * of most of the hardware in the device.
  58:Generated_Source\PSoC4/CyFlash.c **** *
  59:Generated_Source\PSoC4/CyFlash.c **** * For PSoC 4000 devices this API will automatically modify the clock settings
  60:Generated_Source\PSoC4/CyFlash.c **** * for the device. Writing to flash requires that changes be made to the IMO
  61:Generated_Source\PSoC4/CyFlash.c **** * and HFCLK settings. The configuration is restored before returning. HFCLK
  62:Generated_Source\PSoC4/CyFlash.c **** * will have several frequency changes during the operation of this API between
  63:Generated_Source\PSoC4/CyFlash.c **** * a minimum frequency of the current IMO frequency divided by 8 and a maximum
  64:Generated_Source\PSoC4/CyFlash.c **** * frequency of 12 MHz. This will impact the operation of most of the hardware
  65:Generated_Source\PSoC4/CyFlash.c **** * in the device.
  66:Generated_Source\PSoC4/CyFlash.c **** *
  67:Generated_Source\PSoC4/CyFlash.c **** * \param rowNum The flash row number. The number of the flash rows is defined by
  68:Generated_Source\PSoC4/CyFlash.c **** * the \ref CY_FLASH_NUMBER_ROWS macro for the selected device. Refer to the
  69:Generated_Source\PSoC4/CyFlash.c **** * device datasheet for the details.
  70:Generated_Source\PSoC4/CyFlash.c **** * \note The target flash array is calculated based on the specified flash row.
  71:Generated_Source\PSoC4/CyFlash.c **** *
  72:Generated_Source\PSoC4/CyFlash.c **** * \param rowData Array of bytes to write. The size of the array must be equal to
  73:Generated_Source\PSoC4/CyFlash.c **** * the flash row size. The flash row size for the selected device is defined by
  74:Generated_Source\PSoC4/CyFlash.c **** * the \ref CY_FLASH_SIZEOF_ROW macro. Refer to the device datasheet for the
  75:Generated_Source\PSoC4/CyFlash.c **** * details.
  76:Generated_Source\PSoC4/CyFlash.c **** *
  77:Generated_Source\PSoC4/CyFlash.c **** * \return \ref group_flash_status_codes
  78:Generated_Source\PSoC4/CyFlash.c **** *
  79:Generated_Source\PSoC4/CyFlash.c **** *******************************************************************************/
  80:Generated_Source\PSoC4/CyFlash.c **** uint32 CySysFlashWriteRow(uint32 rowNum, const uint8 rowData[])
  81:Generated_Source\PSoC4/CyFlash.c **** {
  26              		.loc 1 81 0
  27              		.cfi_startproc
  28              	.LVL0:
  29 0000 F0B5     		push	{r4, r5, r6, r7, lr}
  30              		.cfi_def_cfa_offset 20
  31              		.cfi_offset 4, -20
  32              		.cfi_offset 5, -16
  33              		.cfi_offset 6, -12
ARM GAS  C:\Users\g\AppData\Local\Temp\ccEc1lZE.s 			page 3


  34              		.cfi_offset 7, -8
  35              		.cfi_offset 14, -4
  36 0002 5F46     		mov	r7, fp
  37 0004 5646     		mov	r6, r10
  38 0006 4D46     		mov	r5, r9
  39 0008 4446     		mov	r4, r8
  82:Generated_Source\PSoC4/CyFlash.c ****     volatile uint32 retValue = CY_SYS_FLASH_SUCCESS;
  40              		.loc 1 82 0
  41 000a 0023     		mov	r3, #0
  81:Generated_Source\PSoC4/CyFlash.c ****     volatile uint32 retValue = CY_SYS_FLASH_SUCCESS;
  42              		.loc 1 81 0
  43 000c F0B4     		push	{r4, r5, r6, r7}
  44              		.cfi_def_cfa_offset 36
  45              		.cfi_offset 8, -36
  46              		.cfi_offset 9, -32
  47              		.cfi_offset 10, -28
  48              		.cfi_offset 11, -24
  49 000e A5B0     		sub	sp, sp, #148
  50              		.cfi_def_cfa_offset 184
  51              		.loc 1 82 0
  52 0010 0093     		str	r3, [sp]
  83:Generated_Source\PSoC4/CyFlash.c ****     volatile uint32 clkCnfRetValue = CY_SYS_FLASH_SUCCESS;
  53              		.loc 1 83 0
  54 0012 0193     		str	r3, [sp, #4]
  55              	.LVL1:
  84:Generated_Source\PSoC4/CyFlash.c ****     volatile uint32 parameters[(CY_FLASH_SIZEOF_ROW + CY_FLASH_SRAM_ROM_DATA) / sizeof(uint32)];
  85:Generated_Source\PSoC4/CyFlash.c ****     uint8  interruptState;
  86:Generated_Source\PSoC4/CyFlash.c **** 
  87:Generated_Source\PSoC4/CyFlash.c ****     #if (CY_FLASH_CHECKSUM_WORKAROUND)
  88:Generated_Source\PSoC4/CyFlash.c ****         uint32 needChecksumWorkaround = 0u;
  89:Generated_Source\PSoC4/CyFlash.c ****         uint32 savedIndex = 0u;
  90:Generated_Source\PSoC4/CyFlash.c ****         uint32 savedValue = 0u;
  91:Generated_Source\PSoC4/CyFlash.c ****         uint32 checksum = 0u;
  92:Generated_Source\PSoC4/CyFlash.c ****         uint32 bits = 0u;
  93:Generated_Source\PSoC4/CyFlash.c ****         uint32 i;
  94:Generated_Source\PSoC4/CyFlash.c ****     #endif  /* (CY_FLASH_CHECKSUM_WORKAROUND) */
  95:Generated_Source\PSoC4/CyFlash.c **** 
  96:Generated_Source\PSoC4/CyFlash.c ****     if ((rowNum < CY_FLASH_NUMBER_ROWS) && (rowData != 0u))
  56              		.loc 1 96 0
  57 0014 FF28     		cmp	r0, #255
  58 0016 65D8     		bhi	.L2
  59              		.loc 1 96 0 is_stmt 0 discriminator 1
  60 0018 0029     		cmp	r1, #0
  61 001a 63D0     		beq	.L2
  62 001c 071C     		mov	r7, r0
  97:Generated_Source\PSoC4/CyFlash.c ****     {
  98:Generated_Source\PSoC4/CyFlash.c ****         /* Copy data to be written into internal variable */
  99:Generated_Source\PSoC4/CyFlash.c ****         (void)memcpy((void *)&parameters[2u], rowData, CY_FLASH_SIZEOF_ROW);
  63              		.loc 1 99 0 is_stmt 1
  64 001e 8022     		mov	r2, #128
  65 0020 04A8     		add	r0, sp, #16
  66              	.LVL2:
  67 0022 FFF7FEFF 		bl	memcpy
  68              	.LVL3:
  92:Generated_Source\PSoC4/CyFlash.c ****         uint32 i;
  69              		.loc 1 92 0
  70 0026 0025     		mov	r5, #0
ARM GAS  C:\Users\g\AppData\Local\Temp\ccEc1lZE.s 			page 4


 100:Generated_Source\PSoC4/CyFlash.c **** 
 101:Generated_Source\PSoC4/CyFlash.c ****         #if (CY_FLASH_CHECKSUM_WORKAROUND)
 102:Generated_Source\PSoC4/CyFlash.c **** 
 103:Generated_Source\PSoC4/CyFlash.c ****             for (i = 2u; i < ((CY_FLASH_SIZEOF_ROW / sizeof(uint32)) + 2u); i++)
  71              		.loc 1 103 0
  72 0028 0223     		mov	r3, #2
  91:Generated_Source\PSoC4/CyFlash.c ****         uint32 bits = 0u;
  73              		.loc 1 91 0
  74 002a 0021     		mov	r1, #0
  89:Generated_Source\PSoC4/CyFlash.c ****         uint32 savedValue = 0u;
  75              		.loc 1 89 0
  76 002c 0026     		mov	r6, #0
  77 002e 02AC     		add	r4, sp, #8
  78              	.LVL4:
  79              	.L4:
  80              	.LBB7:
 104:Generated_Source\PSoC4/CyFlash.c ****             {
 105:Generated_Source\PSoC4/CyFlash.c ****                 uint32 tmp = parameters[i];
  81              		.loc 1 105 0
  82 0030 9A00     		lsl	r2, r3, #2
  83 0032 A258     		ldr	r2, [r4, r2]
  84              	.LVL5:
 106:Generated_Source\PSoC4/CyFlash.c ****                 if (tmp != 0u)
  85              		.loc 1 106 0
  86 0034 002A     		cmp	r2, #0
  87 0036 02D0     		beq	.L3
 107:Generated_Source\PSoC4/CyFlash.c ****                 {
 108:Generated_Source\PSoC4/CyFlash.c ****                     checksum += tmp;
 109:Generated_Source\PSoC4/CyFlash.c ****                     bits |= tmp;
  88              		.loc 1 109 0
  89 0038 1E1C     		mov	r6, r3
  90              	.LVL6:
 108:Generated_Source\PSoC4/CyFlash.c ****                     bits |= tmp;
  91              		.loc 1 108 0
  92 003a 8918     		add	r1, r1, r2
  93              	.LVL7:
  94              		.loc 1 109 0
  95 003c 1543     		orr	r5, r2
  96              	.LVL8:
  97              	.L3:
  98              	.LBE7:
 103:Generated_Source\PSoC4/CyFlash.c ****             {
  99              		.loc 1 103 0 discriminator 2
 100 003e 0133     		add	r3, r3, #1
 101              	.LVL9:
 102 0040 222B     		cmp	r3, #34
 103 0042 F5D1     		bne	.L4
 110:Generated_Source\PSoC4/CyFlash.c ****                     savedIndex = i;
 111:Generated_Source\PSoC4/CyFlash.c ****                 }
 112:Generated_Source\PSoC4/CyFlash.c ****             }
 113:Generated_Source\PSoC4/CyFlash.c **** 
 114:Generated_Source\PSoC4/CyFlash.c ****             needChecksumWorkaround = ((checksum == 0u) && (bits != 0u)) ? 1u : 0u;
 104              		.loc 1 114 0
 105 0044 0029     		cmp	r1, #0
 106 0046 57D0     		beq	.L38
 107              	.L21:
 108 0048 0023     		mov	r3, #0
ARM GAS  C:\Users\g\AppData\Local\Temp\ccEc1lZE.s 			page 5


 109              	.LVL10:
 110 004a 9846     		mov	r8, r3
  90:Generated_Source\PSoC4/CyFlash.c ****         uint32 checksum = 0u;
 111              		.loc 1 90 0
 112 004c 9946     		mov	r9, r3
 113              	.LVL11:
 114              	.L5:
 115:Generated_Source\PSoC4/CyFlash.c ****             if (needChecksumWorkaround != 0u)
 116:Generated_Source\PSoC4/CyFlash.c ****             {
 117:Generated_Source\PSoC4/CyFlash.c ****                 savedValue = parameters[savedIndex];
 118:Generated_Source\PSoC4/CyFlash.c ****                 parameters[savedIndex] = 0u;
 119:Generated_Source\PSoC4/CyFlash.c ****             }
 120:Generated_Source\PSoC4/CyFlash.c ****         #endif  /* (CY_FLASH_CHECKSUM_WORKAROUND) */
 121:Generated_Source\PSoC4/CyFlash.c **** 
 122:Generated_Source\PSoC4/CyFlash.c ****         /* Load Flash Bytes */
 123:Generated_Source\PSoC4/CyFlash.c ****         parameters[0u] = (uint32) (CY_FLASH_GET_MACRO_FROM_ROW(rowNum)        << CY_FLASH_PARAM_MAC
 115              		.loc 1 123 0
 116 004e 584B     		ldr	r3, .L44
 124:Generated_Source\PSoC4/CyFlash.c ****                          (uint32) (CY_FLASH_PAGE_LATCH_START_ADDR             << CY_FLASH_PARAM_ADD
 125:Generated_Source\PSoC4/CyFlash.c ****                          (uint32) (CY_FLASH_KEY_TWO(CY_FLASH_API_OPCODE_LOAD) << CY_FLASH_PARAM_KEY
 126:Generated_Source\PSoC4/CyFlash.c ****                          CY_FLASH_KEY_ONE;
 127:Generated_Source\PSoC4/CyFlash.c ****         parameters[1u] = CY_FLASH_SIZEOF_ROW - 1u;
 128:Generated_Source\PSoC4/CyFlash.c **** 
 129:Generated_Source\PSoC4/CyFlash.c ****         CY_FLASH_CPUSS_SYSARG_REG = (uint32) &parameters[0u];
 130:Generated_Source\PSoC4/CyFlash.c ****         CY_FLASH_CPUSS_SYSREQ_REG = CY_FLASH_CPUSS_REQ_START | CY_FLASH_API_OPCODE_LOAD;
 117              		.loc 1 130 0
 118 0050 5849     		ldr	r1, .L44+4
 119              	.LVL12:
 123:Generated_Source\PSoC4/CyFlash.c ****                          (uint32) (CY_FLASH_PAGE_LATCH_START_ADDR             << CY_FLASH_PARAM_ADD
 120              		.loc 1 123 0
 121 0052 0293     		str	r3, [sp, #8]
 127:Generated_Source\PSoC4/CyFlash.c **** 
 122              		.loc 1 127 0
 123 0054 7F23     		mov	r3, #127
 124              		.loc 1 130 0
 125 0056 584A     		ldr	r2, .L44+8
 127:Generated_Source\PSoC4/CyFlash.c **** 
 126              		.loc 1 127 0
 127 0058 6360     		str	r3, [r4, #4]
 129:Generated_Source\PSoC4/CyFlash.c ****         CY_FLASH_CPUSS_SYSREQ_REG = CY_FLASH_CPUSS_REQ_START | CY_FLASH_API_OPCODE_LOAD;
 128              		.loc 1 129 0
 129 005a 584B     		ldr	r3, .L44+12
 130 005c 1C60     		str	r4, [r3]
 131              		.loc 1 130 0
 132 005e 1160     		str	r1, [r2]
 131:Generated_Source\PSoC4/CyFlash.c ****         CY_NOP;
 133              		.loc 1 131 0
 134              	@ 131 "Generated_Source\PSoC4\CyFlash.c" 1
 135 0060 C046     		NOP
 136              	
 137              	@ 0 "" 2
 132:Generated_Source\PSoC4/CyFlash.c ****         retValue = CY_FLASH_API_RETURN;
 138              		.loc 1 132 0
 139              		.code	16
 140 0062 1A68     		ldr	r2, [r3]
 141 0064 120F     		lsr	r2, r2, #28
 142 0066 0F2A     		cmp	r2, #15
ARM GAS  C:\Users\g\AppData\Local\Temp\ccEc1lZE.s 			page 6


 143 0068 51D0     		beq	.L39
 144              		.loc 1 132 0 is_stmt 0 discriminator 2
 145 006a 1A68     		ldr	r2, [r3]
 146 006c 120F     		lsr	r2, r2, #28
 147 006e 0A2A     		cmp	r2, #10
 148 0070 4BD0     		beq	.L22
 149              		.loc 1 132 0 discriminator 4
 150 0072 1B68     		ldr	r3, [r3]
 151              	.L8:
 152              		.loc 1 132 0 discriminator 8
 153 0074 0093     		str	r3, [sp]
 133:Generated_Source\PSoC4/CyFlash.c **** 
 134:Generated_Source\PSoC4/CyFlash.c ****         if(retValue == CY_SYS_FLASH_SUCCESS)
 154              		.loc 1 134 0 is_stmt 1 discriminator 8
 155 0076 009D     		ldr	r5, [sp]
 156              	.LVL13:
 157 0078 002D     		cmp	r5, #0
 158 007a 35D1     		bne	.L9
 135:Generated_Source\PSoC4/CyFlash.c ****         {
 136:Generated_Source\PSoC4/CyFlash.c ****             /***************************************************************
 137:Generated_Source\PSoC4/CyFlash.c ****             * Mask all the exceptions to guarantee that Flash write will
 138:Generated_Source\PSoC4/CyFlash.c ****             * occur in the atomic way. It will not affect system call
 139:Generated_Source\PSoC4/CyFlash.c ****             * execution (flash row write) since it is executed in the NMI
 140:Generated_Source\PSoC4/CyFlash.c ****             * context.
 141:Generated_Source\PSoC4/CyFlash.c ****             ***************************************************************/
 142:Generated_Source\PSoC4/CyFlash.c ****             interruptState = CyEnterCriticalSection();
 159              		.loc 1 142 0
 160 007c FFF7FEFF 		bl	CyEnterCriticalSection
 161              	.LVL14:
 162              	.LBB8:
 163              	.LBB9:
 143:Generated_Source\PSoC4/CyFlash.c **** 
 144:Generated_Source\PSoC4/CyFlash.c ****             clkCnfRetValue = CySysFlashClockBackup();
 145:Generated_Source\PSoC4/CyFlash.c **** 
 146:Generated_Source\PSoC4/CyFlash.c ****         #if(CY_IP_SPCIF_SYNCHRONOUS)
 147:Generated_Source\PSoC4/CyFlash.c ****             if(clkCnfRetValue == CY_SYS_FLASH_SUCCESS)
 148:Generated_Source\PSoC4/CyFlash.c ****             {
 149:Generated_Source\PSoC4/CyFlash.c ****                 retValue = CySysFlashClockConfig();
 150:Generated_Source\PSoC4/CyFlash.c ****             }
 151:Generated_Source\PSoC4/CyFlash.c ****         #endif  /* (CY_IP_SPCIF_SYNCHRONOUS) */
 152:Generated_Source\PSoC4/CyFlash.c **** 
 153:Generated_Source\PSoC4/CyFlash.c ****             if(retValue == CY_SYS_FLASH_SUCCESS)
 154:Generated_Source\PSoC4/CyFlash.c ****             {
 155:Generated_Source\PSoC4/CyFlash.c ****                 /* Write Row */
 156:Generated_Source\PSoC4/CyFlash.c ****                 parameters[0u]  = (uint32) (((uint32) CY_FLASH_KEY_TWO(CY_FLASH_API_OPCODE_WRITE_RO
 157:Generated_Source\PSoC4/CyFlash.c ****                 parameters[0u] |= (uint32)(rowNum << 16u);
 158:Generated_Source\PSoC4/CyFlash.c **** 
 159:Generated_Source\PSoC4/CyFlash.c ****                 CY_FLASH_CPUSS_SYSARG_REG = (uint32) &parameters[0u];
 160:Generated_Source\PSoC4/CyFlash.c ****                 CY_FLASH_CPUSS_SYSREQ_REG = CY_FLASH_CPUSS_REQ_START | CY_FLASH_API_OPCODE_WRITE_RO
 161:Generated_Source\PSoC4/CyFlash.c ****                 CY_NOP;
 162:Generated_Source\PSoC4/CyFlash.c ****                 retValue = CY_FLASH_API_RETURN;
 163:Generated_Source\PSoC4/CyFlash.c ****             }
 164:Generated_Source\PSoC4/CyFlash.c **** 
 165:Generated_Source\PSoC4/CyFlash.c ****             #if (CY_FLASH_CHECKSUM_WORKAROUND)
 166:Generated_Source\PSoC4/CyFlash.c **** 
 167:Generated_Source\PSoC4/CyFlash.c ****                 if ((retValue == CYRET_SUCCESS) && (needChecksumWorkaround != 0u))
 168:Generated_Source\PSoC4/CyFlash.c ****                 {
ARM GAS  C:\Users\g\AppData\Local\Temp\ccEc1lZE.s 			page 7


 169:Generated_Source\PSoC4/CyFlash.c ****                     (void)memset((void *)&parameters[2u], 0, CY_FLASH_SIZEOF_ROW);
 170:Generated_Source\PSoC4/CyFlash.c ****                     parameters[savedIndex] = savedValue;
 171:Generated_Source\PSoC4/CyFlash.c **** 
 172:Generated_Source\PSoC4/CyFlash.c ****                     /* Load Flash Bytes */
 173:Generated_Source\PSoC4/CyFlash.c ****                     parameters[0u] = (uint32) (CY_FLASH_GET_MACRO_FROM_ROW(rowNum)        << CY_FLA
 174:Generated_Source\PSoC4/CyFlash.c ****                                      (uint32) (CY_FLASH_PAGE_LATCH_START_ADDR             << CY_FLA
 175:Generated_Source\PSoC4/CyFlash.c ****                                      (uint32) (CY_FLASH_KEY_TWO(CY_FLASH_API_OPCODE_LOAD) << CY_FLA
 176:Generated_Source\PSoC4/CyFlash.c ****                                      CY_FLASH_KEY_ONE;
 177:Generated_Source\PSoC4/CyFlash.c ****                     parameters[1u] = CY_FLASH_SIZEOF_ROW - 1u;
 178:Generated_Source\PSoC4/CyFlash.c **** 
 179:Generated_Source\PSoC4/CyFlash.c ****                     CY_FLASH_CPUSS_SYSARG_REG = (uint32) &parameters[0u];
 180:Generated_Source\PSoC4/CyFlash.c ****                     CY_FLASH_CPUSS_SYSREQ_REG = CY_FLASH_CPUSS_REQ_START | CY_FLASH_API_OPCODE_LOAD
 181:Generated_Source\PSoC4/CyFlash.c ****                     CY_NOP;
 182:Generated_Source\PSoC4/CyFlash.c ****                     retValue = CY_FLASH_API_RETURN;
 183:Generated_Source\PSoC4/CyFlash.c **** 
 184:Generated_Source\PSoC4/CyFlash.c **** 
 185:Generated_Source\PSoC4/CyFlash.c ****                     if(retValue == CY_SYS_FLASH_SUCCESS)
 186:Generated_Source\PSoC4/CyFlash.c ****                     {
 187:Generated_Source\PSoC4/CyFlash.c ****                         /* Program Row */
 188:Generated_Source\PSoC4/CyFlash.c ****                         parameters[0u]  =
 189:Generated_Source\PSoC4/CyFlash.c ****                             (uint32) (((uint32) CY_FLASH_KEY_TWO(CY_FLASH_API_OPCODE_PROGRAM_ROW) <
 190:Generated_Source\PSoC4/CyFlash.c ****                                                     CY_FLASH_PARAM_KEY_TWO_OFFSET) | CY_FLASH_KEY_O
 191:Generated_Source\PSoC4/CyFlash.c ****                         parameters[0u] |= (uint32)(rowNum << 16u);
 192:Generated_Source\PSoC4/CyFlash.c **** 
 193:Generated_Source\PSoC4/CyFlash.c ****                         CY_FLASH_CPUSS_SYSARG_REG = (uint32) &parameters[0u];
 194:Generated_Source\PSoC4/CyFlash.c ****                         CY_FLASH_CPUSS_SYSREQ_REG = CY_FLASH_CPUSS_REQ_START | CY_FLASH_API_OPCODE_
 195:Generated_Source\PSoC4/CyFlash.c ****                         CY_NOP;
 196:Generated_Source\PSoC4/CyFlash.c ****                         retValue = CY_FLASH_API_RETURN;
 197:Generated_Source\PSoC4/CyFlash.c ****                     }
 198:Generated_Source\PSoC4/CyFlash.c ****                 }
 199:Generated_Source\PSoC4/CyFlash.c ****             #endif  /* (CY_FLASH_CHECKSUM_WORKAROUND) */
 200:Generated_Source\PSoC4/CyFlash.c **** 
 201:Generated_Source\PSoC4/CyFlash.c ****             if(clkCnfRetValue == CY_SYS_FLASH_SUCCESS)
 202:Generated_Source\PSoC4/CyFlash.c ****             {
 203:Generated_Source\PSoC4/CyFlash.c ****                 clkCnfRetValue = CySysFlashClockRestore();
 204:Generated_Source\PSoC4/CyFlash.c ****             }
 205:Generated_Source\PSoC4/CyFlash.c **** 
 206:Generated_Source\PSoC4/CyFlash.c ****             CyExitCriticalSection(interruptState);
 207:Generated_Source\PSoC4/CyFlash.c ****         }
 208:Generated_Source\PSoC4/CyFlash.c ****     }
 209:Generated_Source\PSoC4/CyFlash.c ****     else
 210:Generated_Source\PSoC4/CyFlash.c ****     {
 211:Generated_Source\PSoC4/CyFlash.c ****         retValue = CY_SYS_FLASH_INVALID_ADDR;
 212:Generated_Source\PSoC4/CyFlash.c ****     }
 213:Generated_Source\PSoC4/CyFlash.c **** 
 214:Generated_Source\PSoC4/CyFlash.c ****     return (retValue);
 215:Generated_Source\PSoC4/CyFlash.c **** }
 216:Generated_Source\PSoC4/CyFlash.c **** 
 217:Generated_Source\PSoC4/CyFlash.c **** 
 218:Generated_Source\PSoC4/CyFlash.c **** 
 219:Generated_Source\PSoC4/CyFlash.c **** #if (CY_IP_FLASH_PARALLEL_PGM_EN && (CY_IP_FLASH_MACROS > 1u))
 220:Generated_Source\PSoC4/CyFlash.c **** /*******************************************************************************
 221:Generated_Source\PSoC4/CyFlash.c **** * Function Name: CySysFlashStartWriteRow
 222:Generated_Source\PSoC4/CyFlash.c **** ****************************************************************************//**
 223:Generated_Source\PSoC4/CyFlash.c **** *
 224:Generated_Source\PSoC4/CyFlash.c **** * Initiates a write to a row of Flash. A call to this API is non-blocking. 
 225:Generated_Source\PSoC4/CyFlash.c **** * Use CySysFlashResumeWriteRow() to resume flash writes and 
ARM GAS  C:\Users\g\AppData\Local\Temp\ccEc1lZE.s 			page 8


 226:Generated_Source\PSoC4/CyFlash.c **** * CySysFlashGetWriteRowStatus() to ascertain status of the write operation.
 227:Generated_Source\PSoC4/CyFlash.c **** *
 228:Generated_Source\PSoC4/CyFlash.c **** * This API is applicable only for CCG3 device families.
 229:Generated_Source\PSoC4/CyFlash.c **** *
 230:Generated_Source\PSoC4/CyFlash.c **** * For CCG3 devices, parallel code execution and programming of flash is
 231:Generated_Source\PSoC4/CyFlash.c **** * supported since 128k flash is available as two banks of 64k. Please refer to
 232:Generated_Source\PSoC4/CyFlash.c **** * the device TRM for more details.
 233:Generated_Source\PSoC4/CyFlash.c **** *
 234:Generated_Source\PSoC4/CyFlash.c **** * CCG3 devices require HFCLK to be sourced by 48 MHz IMO during flash write.
 235:Generated_Source\PSoC4/CyFlash.c **** * This API will modify IMO configuration; it can be later restored to original
 236:Generated_Source\PSoC4/CyFlash.c **** * configuration by calling \ref CySysFlashGetWriteRowStatus().
 237:Generated_Source\PSoC4/CyFlash.c **** *
 238:Generated_Source\PSoC4/CyFlash.c **** * \param rowNum The flash row number. The number of the flash rows is defined by
 239:Generated_Source\PSoC4/CyFlash.c **** * the \ref CY_FLASH_NUMBER_ROWS macro for the selected device. Refer to the
 240:Generated_Source\PSoC4/CyFlash.c **** * device datasheet for the details.
 241:Generated_Source\PSoC4/CyFlash.c **** * \note The target flash array is calculated based on the specified flash row.
 242:Generated_Source\PSoC4/CyFlash.c **** *
 243:Generated_Source\PSoC4/CyFlash.c **** * \param rowData Array of bytes to write. The size of the array must be equal to
 244:Generated_Source\PSoC4/CyFlash.c **** * the flash row size. The flash row size for the selected device is defined by
 245:Generated_Source\PSoC4/CyFlash.c **** * the \ref CY_FLASH_SIZEOF_ROW macro. Refer to the device datasheet for the
 246:Generated_Source\PSoC4/CyFlash.c **** * details.
 247:Generated_Source\PSoC4/CyFlash.c **** *
 248:Generated_Source\PSoC4/CyFlash.c **** * \return \ref group_flash_status_codes
 249:Generated_Source\PSoC4/CyFlash.c **** *
 250:Generated_Source\PSoC4/CyFlash.c **** *******************************************************************************/
 251:Generated_Source\PSoC4/CyFlash.c **** uint32 CySysFlashStartWriteRow(uint32 rowNum, const uint8 rowData[])
 252:Generated_Source\PSoC4/CyFlash.c **** {
 253:Generated_Source\PSoC4/CyFlash.c ****     volatile uint32 retValue = CY_SYS_FLASH_SUCCESS;
 254:Generated_Source\PSoC4/CyFlash.c ****     volatile uint32 parameters[(CY_FLASH_SIZEOF_ROW + CY_FLASH_SRAM_ROM_DATA) / sizeof(uint32)];
 255:Generated_Source\PSoC4/CyFlash.c ****     uint8  interruptState;
 256:Generated_Source\PSoC4/CyFlash.c **** 
 257:Generated_Source\PSoC4/CyFlash.c **** #if(CY_IP_SPCIF_SYNCHRONOUS)
 258:Generated_Source\PSoC4/CyFlash.c ****     volatile uint32 clkCnfRetValue = CY_SYS_FLASH_SUCCESS;
 259:Generated_Source\PSoC4/CyFlash.c **** #endif  /* (CY_IP_SPCIF_SYNCHRONOUS) */    
 260:Generated_Source\PSoC4/CyFlash.c **** 
 261:Generated_Source\PSoC4/CyFlash.c ****     if ((rowNum < CY_FLASH_NUMBER_ROWS) && (rowData != 0u))
 262:Generated_Source\PSoC4/CyFlash.c ****     {
 263:Generated_Source\PSoC4/CyFlash.c ****         /* Copy data to be written into internal variable */
 264:Generated_Source\PSoC4/CyFlash.c ****         (void)memcpy((void *)&parameters[2u], rowData, CY_FLASH_SIZEOF_ROW);
 265:Generated_Source\PSoC4/CyFlash.c **** 
 266:Generated_Source\PSoC4/CyFlash.c ****         /* Load Flash Bytes */
 267:Generated_Source\PSoC4/CyFlash.c ****         parameters[0u] = (uint32) (CY_FLASH_GET_MACRO_FROM_ROW(rowNum)        << CY_FLASH_PARAM_MAC
 268:Generated_Source\PSoC4/CyFlash.c ****                          (uint32) (CY_FLASH_PAGE_LATCH_START_ADDR             << CY_FLASH_PARAM_ADD
 269:Generated_Source\PSoC4/CyFlash.c ****                          (uint32) (CY_FLASH_KEY_TWO(CY_FLASH_API_OPCODE_LOAD) << CY_FLASH_PARAM_KEY
 270:Generated_Source\PSoC4/CyFlash.c ****                          CY_FLASH_KEY_ONE;
 271:Generated_Source\PSoC4/CyFlash.c ****         parameters[1u] = CY_FLASH_SIZEOF_ROW - 1u;
 272:Generated_Source\PSoC4/CyFlash.c **** 
 273:Generated_Source\PSoC4/CyFlash.c ****         CY_FLASH_CPUSS_SYSARG_REG = (uint32) &parameters[0u];
 274:Generated_Source\PSoC4/CyFlash.c ****         CY_FLASH_CPUSS_SYSREQ_REG = CY_FLASH_CPUSS_REQ_START | CY_FLASH_API_OPCODE_LOAD;
 275:Generated_Source\PSoC4/CyFlash.c ****         CY_NOP;
 276:Generated_Source\PSoC4/CyFlash.c ****         retValue = CY_FLASH_API_RETURN;
 277:Generated_Source\PSoC4/CyFlash.c **** 
 278:Generated_Source\PSoC4/CyFlash.c ****         if(retValue == CY_SYS_FLASH_SUCCESS)
 279:Generated_Source\PSoC4/CyFlash.c ****         {
 280:Generated_Source\PSoC4/CyFlash.c ****             /***************************************************************
 281:Generated_Source\PSoC4/CyFlash.c ****             * Mask all the exceptions to guarantee that Flash write will
 282:Generated_Source\PSoC4/CyFlash.c ****             * occur in the atomic way. It will not affect system call
ARM GAS  C:\Users\g\AppData\Local\Temp\ccEc1lZE.s 			page 9


 283:Generated_Source\PSoC4/CyFlash.c ****             * execution (flash row write) since it is executed in the NMI
 284:Generated_Source\PSoC4/CyFlash.c ****             * context.
 285:Generated_Source\PSoC4/CyFlash.c ****             ***************************************************************/
 286:Generated_Source\PSoC4/CyFlash.c ****             interruptState = CyEnterCriticalSection();
 287:Generated_Source\PSoC4/CyFlash.c **** 
 288:Generated_Source\PSoC4/CyFlash.c ****         #if(CY_IP_SPCIF_SYNCHRONOUS)
 289:Generated_Source\PSoC4/CyFlash.c ****             clkCnfRetValue = CySysFlashClockBackup();
 290:Generated_Source\PSoC4/CyFlash.c ****             
 291:Generated_Source\PSoC4/CyFlash.c ****             if(clkCnfRetValue == CY_SYS_FLASH_SUCCESS)
 292:Generated_Source\PSoC4/CyFlash.c ****             {
 293:Generated_Source\PSoC4/CyFlash.c ****                 retValue = CySysFlashClockConfig();
 294:Generated_Source\PSoC4/CyFlash.c ****             }
 295:Generated_Source\PSoC4/CyFlash.c ****         #else
 296:Generated_Source\PSoC4/CyFlash.c ****             CySysFlashClockBackup();
 297:Generated_Source\PSoC4/CyFlash.c ****         #endif  /* (CY_IP_SPCIF_SYNCHRONOUS) */
 298:Generated_Source\PSoC4/CyFlash.c **** 
 299:Generated_Source\PSoC4/CyFlash.c ****             if(retValue == CY_SYS_FLASH_SUCCESS)
 300:Generated_Source\PSoC4/CyFlash.c ****             {
 301:Generated_Source\PSoC4/CyFlash.c ****                 /* Non-blocking Write Row */
 302:Generated_Source\PSoC4/CyFlash.c ****                 parameters[0u]  = (uint32) (((uint32) CY_FLASH_KEY_TWO(CY_FLASH_API_OPCODE_NON_BLOC
 303:Generated_Source\PSoC4/CyFlash.c ****                                                         CY_FLASH_PARAM_KEY_TWO_OFFSET) | CY_FLASH_K
 304:Generated_Source\PSoC4/CyFlash.c ****                 parameters[0u] |= (uint32)(rowNum << 16u);
 305:Generated_Source\PSoC4/CyFlash.c **** 
 306:Generated_Source\PSoC4/CyFlash.c ****                 CY_FLASH_CPUSS_SYSARG_REG = (uint32) &parameters[0u];
 307:Generated_Source\PSoC4/CyFlash.c ****                 CY_FLASH_CPUSS_SYSREQ_REG = CY_FLASH_CPUSS_REQ_START | CY_FLASH_API_OPCODE_NON_BLOC
 308:Generated_Source\PSoC4/CyFlash.c ****                 CY_NOP;
 309:Generated_Source\PSoC4/CyFlash.c ****                 retValue = CY_FLASH_API_RETURN;
 310:Generated_Source\PSoC4/CyFlash.c ****             }
 311:Generated_Source\PSoC4/CyFlash.c **** 
 312:Generated_Source\PSoC4/CyFlash.c ****             CyExitCriticalSection(interruptState);
 313:Generated_Source\PSoC4/CyFlash.c ****         }
 314:Generated_Source\PSoC4/CyFlash.c ****     }
 315:Generated_Source\PSoC4/CyFlash.c ****     else
 316:Generated_Source\PSoC4/CyFlash.c ****     {
 317:Generated_Source\PSoC4/CyFlash.c ****         retValue = CY_SYS_FLASH_INVALID_ADDR;
 318:Generated_Source\PSoC4/CyFlash.c ****     }
 319:Generated_Source\PSoC4/CyFlash.c **** 
 320:Generated_Source\PSoC4/CyFlash.c ****     return (retValue);
 321:Generated_Source\PSoC4/CyFlash.c **** }
 322:Generated_Source\PSoC4/CyFlash.c **** 
 323:Generated_Source\PSoC4/CyFlash.c **** 
 324:Generated_Source\PSoC4/CyFlash.c **** /*******************************************************************************
 325:Generated_Source\PSoC4/CyFlash.c **** * Function Name: CySysFlashGetWriteRowStatus
 326:Generated_Source\PSoC4/CyFlash.c **** ****************************************************************************//**
 327:Generated_Source\PSoC4/CyFlash.c **** *
 328:Generated_Source\PSoC4/CyFlash.c **** * Returns the current status of the flash write operation.
 329:Generated_Source\PSoC4/CyFlash.c **** *
 330:Generated_Source\PSoC4/CyFlash.c **** * This API is applicable only for CCG3 device families.
 331:Generated_Source\PSoC4/CyFlash.c **** *
 332:Generated_Source\PSoC4/CyFlash.c **** * For CCG3 devices, parallel code execution and programming of flash is
 333:Generated_Source\PSoC4/CyFlash.c **** * supported since 128k flash is available as two banks of 64k. Please refer to
 334:Generated_Source\PSoC4/CyFlash.c **** * the device TRM for more details.
 335:Generated_Source\PSoC4/CyFlash.c **** *
 336:Generated_Source\PSoC4/CyFlash.c **** * CCG3 devices require HFCLK to be sourced by 48 MHz IMO during flash write.
 337:Generated_Source\PSoC4/CyFlash.c **** * This API will restore original IMO configuration; that has been earlier
 338:Generated_Source\PSoC4/CyFlash.c **** * modified by \ref CySysFlashStartWriteRow().
 339:Generated_Source\PSoC4/CyFlash.c **** *
ARM GAS  C:\Users\g\AppData\Local\Temp\ccEc1lZE.s 			page 10


 340:Generated_Source\PSoC4/CyFlash.c **** * \return \ref group_flash_status_codes
 341:Generated_Source\PSoC4/CyFlash.c **** *
 342:Generated_Source\PSoC4/CyFlash.c **** *******************************************************************************/
 343:Generated_Source\PSoC4/CyFlash.c **** uint32 CySysFlashGetWriteRowStatus(void)
 344:Generated_Source\PSoC4/CyFlash.c **** {
 345:Generated_Source\PSoC4/CyFlash.c ****     volatile uint32 retValue = CY_SYS_FLASH_SUCCESS;
 346:Generated_Source\PSoC4/CyFlash.c **** 
 347:Generated_Source\PSoC4/CyFlash.c ****     CY_NOP;
 348:Generated_Source\PSoC4/CyFlash.c ****     retValue = CY_FLASH_API_RETURN;
 349:Generated_Source\PSoC4/CyFlash.c **** 
 350:Generated_Source\PSoC4/CyFlash.c ****     (void) CySysFlashClockRestore();
 351:Generated_Source\PSoC4/CyFlash.c **** 
 352:Generated_Source\PSoC4/CyFlash.c ****     return (retValue);
 353:Generated_Source\PSoC4/CyFlash.c **** }
 354:Generated_Source\PSoC4/CyFlash.c **** 
 355:Generated_Source\PSoC4/CyFlash.c **** 
 356:Generated_Source\PSoC4/CyFlash.c **** 
 357:Generated_Source\PSoC4/CyFlash.c **** /*******************************************************************************
 358:Generated_Source\PSoC4/CyFlash.c **** * Function Name: CySysFlashResumeWriteRow
 359:Generated_Source\PSoC4/CyFlash.c **** ****************************************************************************//**
 360:Generated_Source\PSoC4/CyFlash.c **** *
 361:Generated_Source\PSoC4/CyFlash.c **** * This API must be called, once the SPC interrupt is triggered to complete the
 362:Generated_Source\PSoC4/CyFlash.c **** * non-blocking operation. It is advised not to prolong calling this API for
 363:Generated_Source\PSoC4/CyFlash.c **** * more than 25 ms.
 364:Generated_Source\PSoC4/CyFlash.c **** *
 365:Generated_Source\PSoC4/CyFlash.c **** * The non-blocking write row API \ref CySysFlashStartWriteRow() requires that
 366:Generated_Source\PSoC4/CyFlash.c **** * this API be called 3 times to complete the write. This can be done by
 367:Generated_Source\PSoC4/CyFlash.c **** * configuring SPCIF interrupt and placing a call to this API.
 368:Generated_Source\PSoC4/CyFlash.c **** *
 369:Generated_Source\PSoC4/CyFlash.c **** * For CM0 based device, a non-blocking call to program a row of macro 0
 370:Generated_Source\PSoC4/CyFlash.c **** * requires the user to set the CPUSS_CONFIG.VECS_IN_RAM bit so that the
 371:Generated_Source\PSoC4/CyFlash.c **** * interrupt vector for the SPC is fetched from the SRAM rather than the FLASH.
 372:Generated_Source\PSoC4/CyFlash.c **** *
 373:Generated_Source\PSoC4/CyFlash.c **** * For CM0+ based device, if the user wants to keep the vector table in flash
 374:Generated_Source\PSoC4/CyFlash.c **** * when performing non-blocking flash write then they need to make sure the
 375:Generated_Source\PSoC4/CyFlash.c **** * vector table is placed in the flash macro which is not getting programmed by
 376:Generated_Source\PSoC4/CyFlash.c **** * configuring the VTOR register.
 377:Generated_Source\PSoC4/CyFlash.c **** *
 378:Generated_Source\PSoC4/CyFlash.c **** * This API is applicable only for CCG3 device families.
 379:Generated_Source\PSoC4/CyFlash.c **** *
 380:Generated_Source\PSoC4/CyFlash.c **** * \return \ref group_flash_status_codes
 381:Generated_Source\PSoC4/CyFlash.c **** *
 382:Generated_Source\PSoC4/CyFlash.c **** * \note Please consult the example project NonBlockingFlashWrite_Example for an
 383:Generated_Source\PSoC4/CyFlash.c **** * implementation.
 384:Generated_Source\PSoC4/CyFlash.c **** *
 385:Generated_Source\PSoC4/CyFlash.c **** *******************************************************************************/
 386:Generated_Source\PSoC4/CyFlash.c **** uint32 CySysFlashResumeWriteRow(void)
 387:Generated_Source\PSoC4/CyFlash.c **** {
 388:Generated_Source\PSoC4/CyFlash.c ****     volatile uint32 retValue = CY_SYS_FLASH_SUCCESS;
 389:Generated_Source\PSoC4/CyFlash.c ****     static volatile uint32 parameters[1u];
 390:Generated_Source\PSoC4/CyFlash.c **** 
 391:Generated_Source\PSoC4/CyFlash.c ****     /* Resume */
 392:Generated_Source\PSoC4/CyFlash.c ****     parameters[0u] = (uint32) (((uint32) CY_FLASH_KEY_TWO(CY_FLASH_API_OPCODE_RESUME_NON_BLOCKING) 
 393:Generated_Source\PSoC4/CyFlash.c ****                                          CY_FLASH_PARAM_KEY_TWO_OFFSET) | CY_FLASH_KEY_ONE);
 394:Generated_Source\PSoC4/CyFlash.c ****     CY_FLASH_CPUSS_SYSARG_REG = (uint32) &parameters[0u];
 395:Generated_Source\PSoC4/CyFlash.c ****     CY_FLASH_CPUSS_SYSREQ_REG = CY_FLASH_CPUSS_REQ_START | CY_FLASH_API_OPCODE_RESUME_NON_BLOCKING;
 396:Generated_Source\PSoC4/CyFlash.c ****     
ARM GAS  C:\Users\g\AppData\Local\Temp\ccEc1lZE.s 			page 11


 397:Generated_Source\PSoC4/CyFlash.c ****     CY_NOP;
 398:Generated_Source\PSoC4/CyFlash.c ****     retValue = CY_FLASH_API_RETURN;
 399:Generated_Source\PSoC4/CyFlash.c ****     
 400:Generated_Source\PSoC4/CyFlash.c ****     return (retValue);
 401:Generated_Source\PSoC4/CyFlash.c **** }
 402:Generated_Source\PSoC4/CyFlash.c **** 
 403:Generated_Source\PSoC4/CyFlash.c **** #endif /* (CY_IP_FLASH_PARALLEL_PGM_EN && (CY_IP_FLASH_MACROS > 1u)) */
 404:Generated_Source\PSoC4/CyFlash.c **** 
 405:Generated_Source\PSoC4/CyFlash.c **** 
 406:Generated_Source\PSoC4/CyFlash.c **** /*******************************************************************************
 407:Generated_Source\PSoC4/CyFlash.c **** * Function Name: CySysFlashSetWaitCycles
 408:Generated_Source\PSoC4/CyFlash.c **** ****************************************************************************//**
 409:Generated_Source\PSoC4/CyFlash.c **** *
 410:Generated_Source\PSoC4/CyFlash.c **** * Sets the number of clock cycles the cache will wait before it samples data
 411:Generated_Source\PSoC4/CyFlash.c **** * coming back from Flash. This function must be called before increasing the
 412:Generated_Source\PSoC4/CyFlash.c **** * SYSCLK clock frequency. It can optionally be called after lowering SYSCLK
 413:Generated_Source\PSoC4/CyFlash.c **** * clock frequency in order to improve the CPU performance.
 414:Generated_Source\PSoC4/CyFlash.c **** *
 415:Generated_Source\PSoC4/CyFlash.c **** * \param freq The System clock frequency in MHz.
 416:Generated_Source\PSoC4/CyFlash.c **** *
 417:Generated_Source\PSoC4/CyFlash.c **** * \note Invalid frequency will be ignored in Release mode and the CPU will be
 418:Generated_Source\PSoC4/CyFlash.c **** * halted if project is compiled in Debug mode.
 419:Generated_Source\PSoC4/CyFlash.c **** *
 420:Generated_Source\PSoC4/CyFlash.c **** *******************************************************************************/
 421:Generated_Source\PSoC4/CyFlash.c **** void CySysFlashSetWaitCycles(uint32 freq)
 422:Generated_Source\PSoC4/CyFlash.c **** {
 423:Generated_Source\PSoC4/CyFlash.c ****     uint8  interruptState;
 424:Generated_Source\PSoC4/CyFlash.c **** 
 425:Generated_Source\PSoC4/CyFlash.c ****     interruptState = CyEnterCriticalSection();
 426:Generated_Source\PSoC4/CyFlash.c **** 
 427:Generated_Source\PSoC4/CyFlash.c ****     #if (CY_IP_CPUSS)
 428:Generated_Source\PSoC4/CyFlash.c **** 
 429:Generated_Source\PSoC4/CyFlash.c ****         if ( freq <= CY_FLASH_SYSCLK_BOUNDARY_MHZ )
 430:Generated_Source\PSoC4/CyFlash.c ****         {
 431:Generated_Source\PSoC4/CyFlash.c ****             CY_SYS_CLK_SELECT_REG &= (uint32)(~CY_FLASH_WAIT_STATE_EN);
 432:Generated_Source\PSoC4/CyFlash.c ****         }
 433:Generated_Source\PSoC4/CyFlash.c ****         else
 434:Generated_Source\PSoC4/CyFlash.c ****         {
 435:Generated_Source\PSoC4/CyFlash.c ****             CY_SYS_CLK_SELECT_REG |= CY_FLASH_WAIT_STATE_EN;
 436:Generated_Source\PSoC4/CyFlash.c ****         }
 437:Generated_Source\PSoC4/CyFlash.c ****     #else
 438:Generated_Source\PSoC4/CyFlash.c ****         #if (CY_IP_CPUSS_FLASHC_PRESENT)
 439:Generated_Source\PSoC4/CyFlash.c ****             /* CY_IP_FM and CY_IP_FS */
 440:Generated_Source\PSoC4/CyFlash.c ****             if (freq <= CY_FLASH_CTL_WS_0_FREQ_MAX)
 441:Generated_Source\PSoC4/CyFlash.c ****             {
 442:Generated_Source\PSoC4/CyFlash.c ****                 CY_FLASH_CTL_REG = (CY_FLASH_CTL_REG & ~CY_FLASH_CTL_WS_MASK) | CY_FLASH_CTL_WS_0_V
 443:Generated_Source\PSoC4/CyFlash.c ****             } else
 444:Generated_Source\PSoC4/CyFlash.c ****             if (freq <= CY_FLASH_CTL_WS_1_FREQ_MAX)
 445:Generated_Source\PSoC4/CyFlash.c ****             {
 446:Generated_Source\PSoC4/CyFlash.c ****                 CY_FLASH_CTL_REG = (CY_FLASH_CTL_REG & ~CY_FLASH_CTL_WS_MASK) | CY_FLASH_CTL_WS_1_V
 447:Generated_Source\PSoC4/CyFlash.c ****             } else
 448:Generated_Source\PSoC4/CyFlash.c ****             #if (CY_IP_FMLT || CY_IP_FSLT)
 449:Generated_Source\PSoC4/CyFlash.c ****                 if (freq <= CY_FLASH_CTL_WS_2_FREQ_MAX)
 450:Generated_Source\PSoC4/CyFlash.c ****                 {
 451:Generated_Source\PSoC4/CyFlash.c ****                     CY_FLASH_CTL_REG = (CY_FLASH_CTL_REG & ~CY_FLASH_CTL_WS_MASK) | CY_FLASH_CTL_WS
 452:Generated_Source\PSoC4/CyFlash.c ****                 }
 453:Generated_Source\PSoC4/CyFlash.c ****                 else
ARM GAS  C:\Users\g\AppData\Local\Temp\ccEc1lZE.s 			page 12


 454:Generated_Source\PSoC4/CyFlash.c ****             #endif  /* (CY_IP_FMLT || CY_IP_FSLT) */
 455:Generated_Source\PSoC4/CyFlash.c ****         #endif /* (CY_IP_CPUSS_FLASHC_PRESENT) */
 456:Generated_Source\PSoC4/CyFlash.c ****         {
 457:Generated_Source\PSoC4/CyFlash.c ****             /* Halt CPU in debug mode if frequency is invalid */
 458:Generated_Source\PSoC4/CyFlash.c ****             CYASSERT(0u != 0u);
 459:Generated_Source\PSoC4/CyFlash.c ****         }
 460:Generated_Source\PSoC4/CyFlash.c **** 
 461:Generated_Source\PSoC4/CyFlash.c ****     #endif  /* (CY_IP_CPUSS) */
 462:Generated_Source\PSoC4/CyFlash.c **** 
 463:Generated_Source\PSoC4/CyFlash.c ****     CyExitCriticalSection(interruptState);
 464:Generated_Source\PSoC4/CyFlash.c **** }
 465:Generated_Source\PSoC4/CyFlash.c **** 
 466:Generated_Source\PSoC4/CyFlash.c **** 
 467:Generated_Source\PSoC4/CyFlash.c **** #if (CY_SFLASH_XTRA_ROWS)
 468:Generated_Source\PSoC4/CyFlash.c **** /*******************************************************************************
 469:Generated_Source\PSoC4/CyFlash.c **** * Function Name: CySysSFlashWriteUserRow
 470:Generated_Source\PSoC4/CyFlash.c **** ****************************************************************************//**
 471:Generated_Source\PSoC4/CyFlash.c **** *
 472:Generated_Source\PSoC4/CyFlash.c **** * Writes data to a row of SFlash user configurable area.
 473:Generated_Source\PSoC4/CyFlash.c **** *
 474:Generated_Source\PSoC4/CyFlash.c **** * This API is applicable for PSoC 4100 BLE, PSoC 4200 BLE, PSoC 4100M,
 475:Generated_Source\PSoC4/CyFlash.c **** * PSoC 4200M, and PSoC 4200L family of devices.
 476:Generated_Source\PSoC4/CyFlash.c **** *
 477:Generated_Source\PSoC4/CyFlash.c **** * \param rowNum The flash row number. The flash row number. The number of the
 478:Generated_Source\PSoC4/CyFlash.c **** * flash rows is defined by the CY_SFLASH_NUMBER_USERROWS macro for the selected
 479:Generated_Source\PSoC4/CyFlash.c **** * device. Valid range is 0-3. Refer to the device TRM for details.
 480:Generated_Source\PSoC4/CyFlash.c **** *
 481:Generated_Source\PSoC4/CyFlash.c **** * \param rowData Array of bytes to write. The size of the array must be equal to
 482:Generated_Source\PSoC4/CyFlash.c **** * the flash row size. The flash row size for the selected device is defined by
 483:Generated_Source\PSoC4/CyFlash.c **** * the \ref CY_SFLASH_SIZEOF_USERROW macro. Refer to the device TRM for the
 484:Generated_Source\PSoC4/CyFlash.c **** * details.
 485:Generated_Source\PSoC4/CyFlash.c **** *
 486:Generated_Source\PSoC4/CyFlash.c **** * \return \ref group_flash_status_codes
 487:Generated_Source\PSoC4/CyFlash.c **** *
 488:Generated_Source\PSoC4/CyFlash.c **** *******************************************************************************/
 489:Generated_Source\PSoC4/CyFlash.c **** uint32 CySysSFlashWriteUserRow(uint32 rowNum, const uint8 rowData[])
 490:Generated_Source\PSoC4/CyFlash.c **** {
 491:Generated_Source\PSoC4/CyFlash.c ****     volatile uint32 retValue = CY_SYS_FLASH_SUCCESS;
 492:Generated_Source\PSoC4/CyFlash.c ****     volatile uint32 clkCnfRetValue = CY_SYS_FLASH_SUCCESS;
 493:Generated_Source\PSoC4/CyFlash.c ****     volatile uint32 parameters[(CY_FLASH_SIZEOF_ROW + CY_FLASH_SRAM_ROM_DATA)/4u];
 494:Generated_Source\PSoC4/CyFlash.c ****     uint8  interruptState;
 495:Generated_Source\PSoC4/CyFlash.c **** 
 496:Generated_Source\PSoC4/CyFlash.c **** 
 497:Generated_Source\PSoC4/CyFlash.c ****     if ((rowNum < CY_SFLASH_NUMBER_USERROWS) && (rowData != 0u))
 498:Generated_Source\PSoC4/CyFlash.c ****     {
 499:Generated_Source\PSoC4/CyFlash.c ****         /* Load Flash Bytes */
 500:Generated_Source\PSoC4/CyFlash.c ****         parameters[0u] = (uint32) (CY_FLASH_GET_MACRO_FROM_ROW(rowNum)        << CY_FLASH_PARAM_MAC
 501:Generated_Source\PSoC4/CyFlash.c ****                          (uint32) (CY_FLASH_PAGE_LATCH_START_ADDR             << CY_FLASH_PARAM_ADD
 502:Generated_Source\PSoC4/CyFlash.c ****                          (uint32) (CY_FLASH_KEY_TWO(CY_FLASH_API_OPCODE_LOAD) << CY_FLASH_PARAM_KEY
 503:Generated_Source\PSoC4/CyFlash.c ****                          CY_FLASH_KEY_ONE;
 504:Generated_Source\PSoC4/CyFlash.c ****         parameters[1u] = CY_FLASH_SIZEOF_ROW - 1u;
 505:Generated_Source\PSoC4/CyFlash.c **** 
 506:Generated_Source\PSoC4/CyFlash.c ****         (void)memcpy((void *)&parameters[2u], rowData, CY_FLASH_SIZEOF_ROW);
 507:Generated_Source\PSoC4/CyFlash.c ****         CY_FLASH_CPUSS_SYSARG_REG = (uint32) &parameters[0u];
 508:Generated_Source\PSoC4/CyFlash.c ****         CY_FLASH_CPUSS_SYSREQ_REG = CY_FLASH_CPUSS_REQ_START | CY_FLASH_API_OPCODE_LOAD;
 509:Generated_Source\PSoC4/CyFlash.c ****         CY_NOP;
 510:Generated_Source\PSoC4/CyFlash.c ****         retValue = CY_FLASH_API_RETURN;
ARM GAS  C:\Users\g\AppData\Local\Temp\ccEc1lZE.s 			page 13


 511:Generated_Source\PSoC4/CyFlash.c **** 
 512:Generated_Source\PSoC4/CyFlash.c ****         if(retValue == CY_SYS_FLASH_SUCCESS)
 513:Generated_Source\PSoC4/CyFlash.c ****         {
 514:Generated_Source\PSoC4/CyFlash.c ****             /***************************************************************
 515:Generated_Source\PSoC4/CyFlash.c ****             * Mask all the exceptions to guarantee that Flash write will
 516:Generated_Source\PSoC4/CyFlash.c ****             * occur in the atomic way. It will not affect system call
 517:Generated_Source\PSoC4/CyFlash.c ****             * execution (flash row write) since it is executed in the NMI
 518:Generated_Source\PSoC4/CyFlash.c ****             * context.
 519:Generated_Source\PSoC4/CyFlash.c ****             ***************************************************************/
 520:Generated_Source\PSoC4/CyFlash.c ****             interruptState = CyEnterCriticalSection();
 521:Generated_Source\PSoC4/CyFlash.c **** 
 522:Generated_Source\PSoC4/CyFlash.c ****             clkCnfRetValue = CySysFlashClockBackup();
 523:Generated_Source\PSoC4/CyFlash.c **** 
 524:Generated_Source\PSoC4/CyFlash.c ****         #if(CY_IP_SPCIF_SYNCHRONOUS)
 525:Generated_Source\PSoC4/CyFlash.c ****             if(clkCnfRetValue == CY_SYS_FLASH_SUCCESS)
 526:Generated_Source\PSoC4/CyFlash.c ****             {
 527:Generated_Source\PSoC4/CyFlash.c ****                 retValue = CySysFlashClockConfig();
 528:Generated_Source\PSoC4/CyFlash.c ****             }
 529:Generated_Source\PSoC4/CyFlash.c ****         #endif  /* (CY_IP_SPCIF_SYNCHRONOUS) */
 530:Generated_Source\PSoC4/CyFlash.c **** 
 531:Generated_Source\PSoC4/CyFlash.c ****             if(retValue == CY_SYS_FLASH_SUCCESS)
 532:Generated_Source\PSoC4/CyFlash.c ****             {
 533:Generated_Source\PSoC4/CyFlash.c ****                 /* Write User Sflash Row */
 534:Generated_Source\PSoC4/CyFlash.c ****                 parameters[0u]  = (uint32) (((uint32) CY_FLASH_KEY_TWO(CY_FLASH_API_OPCODE_WRITE_SF
 535:Generated_Source\PSoC4/CyFlash.c ****                 parameters[1u] = (uint32) rowNum;
 536:Generated_Source\PSoC4/CyFlash.c **** 
 537:Generated_Source\PSoC4/CyFlash.c ****                 CY_FLASH_CPUSS_SYSARG_REG = (uint32) &parameters[0u];
 538:Generated_Source\PSoC4/CyFlash.c ****                 CY_FLASH_CPUSS_SYSREQ_REG = CY_FLASH_CPUSS_REQ_START | CY_FLASH_API_OPCODE_WRITE_SF
 539:Generated_Source\PSoC4/CyFlash.c ****                 CY_NOP;
 540:Generated_Source\PSoC4/CyFlash.c ****                 retValue = CY_FLASH_API_RETURN;
 541:Generated_Source\PSoC4/CyFlash.c ****             }
 542:Generated_Source\PSoC4/CyFlash.c **** 
 543:Generated_Source\PSoC4/CyFlash.c ****             if(clkCnfRetValue == CY_SYS_FLASH_SUCCESS)
 544:Generated_Source\PSoC4/CyFlash.c ****             {
 545:Generated_Source\PSoC4/CyFlash.c ****                 clkCnfRetValue = CySysFlashClockRestore();
 546:Generated_Source\PSoC4/CyFlash.c ****             }
 547:Generated_Source\PSoC4/CyFlash.c ****             CyExitCriticalSection(interruptState);
 548:Generated_Source\PSoC4/CyFlash.c ****         }
 549:Generated_Source\PSoC4/CyFlash.c ****     }
 550:Generated_Source\PSoC4/CyFlash.c ****     else
 551:Generated_Source\PSoC4/CyFlash.c ****     {
 552:Generated_Source\PSoC4/CyFlash.c ****         retValue = CY_SYS_FLASH_INVALID_ADDR;
 553:Generated_Source\PSoC4/CyFlash.c ****     }
 554:Generated_Source\PSoC4/CyFlash.c **** 
 555:Generated_Source\PSoC4/CyFlash.c ****     return (retValue);
 556:Generated_Source\PSoC4/CyFlash.c **** }
 557:Generated_Source\PSoC4/CyFlash.c **** #endif /* (CY_SFLASH_XTRA_ROWS) */
 558:Generated_Source\PSoC4/CyFlash.c **** 
 559:Generated_Source\PSoC4/CyFlash.c **** 
 560:Generated_Source\PSoC4/CyFlash.c **** /*******************************************************************************
 561:Generated_Source\PSoC4/CyFlash.c **** * Function Name: CySysFlashClockBackup
 562:Generated_Source\PSoC4/CyFlash.c **** ****************************************************************************//**
 563:Generated_Source\PSoC4/CyFlash.c **** *
 564:Generated_Source\PSoC4/CyFlash.c **** * Backups the device clock configuration.
 565:Generated_Source\PSoC4/CyFlash.c **** *
 566:Generated_Source\PSoC4/CyFlash.c **** * \return The same as \ref CySysFlashWriteRow().
 567:Generated_Source\PSoC4/CyFlash.c **** *
ARM GAS  C:\Users\g\AppData\Local\Temp\ccEc1lZE.s 			page 14


 568:Generated_Source\PSoC4/CyFlash.c **** *******************************************************************************/
 569:Generated_Source\PSoC4/CyFlash.c **** static cystatus CySysFlashClockBackup(void)
 570:Generated_Source\PSoC4/CyFlash.c **** {
 571:Generated_Source\PSoC4/CyFlash.c ****     cystatus retValue = CY_SYS_FLASH_SUCCESS;
 572:Generated_Source\PSoC4/CyFlash.c **** #if(!CY_IP_FM)
 573:Generated_Source\PSoC4/CyFlash.c ****     #if !(CY_PSOC4_4000)
 574:Generated_Source\PSoC4/CyFlash.c ****         #if (CY_IP_SPCIF_SYNCHRONOUS)
 575:Generated_Source\PSoC4/CyFlash.c ****             volatile uint32   parameters[2u];
 576:Generated_Source\PSoC4/CyFlash.c ****         #endif /* (CY_IP_SPCIF_SYNCHRONOUS) */
 577:Generated_Source\PSoC4/CyFlash.c ****     #endif  /* !(CY_PSOC4_4000) */
 578:Generated_Source\PSoC4/CyFlash.c **** #endif  /* (!CY_IP_FM) */
 579:Generated_Source\PSoC4/CyFlash.c **** 
 580:Generated_Source\PSoC4/CyFlash.c **** #if(CY_IP_FM)
 581:Generated_Source\PSoC4/CyFlash.c **** 
 582:Generated_Source\PSoC4/CyFlash.c ****     /***************************************************************
 583:Generated_Source\PSoC4/CyFlash.c ****     * Preserve IMO configuration that could be changed during
 584:Generated_Source\PSoC4/CyFlash.c ****     * system call execution (Cypress ID #150448).
 585:Generated_Source\PSoC4/CyFlash.c ****     ***************************************************************/
 586:Generated_Source\PSoC4/CyFlash.c ****     cySysFlashBackup.imoConfigReg = CY_SYS_CLK_IMO_CONFIG_REG;
 164              		.loc 1 586 0
 165 0080 4F4B     		ldr	r3, .L44+16
 166 0082 504A     		ldr	r2, .L44+20
 167 0084 1B68     		ldr	r3, [r3]
 168              	.LBE9:
 169              	.LBE8:
 144:Generated_Source\PSoC4/CyFlash.c **** 
 170              		.loc 1 144 0
 171 0086 0195     		str	r5, [sp, #4]
 172              	.LBB12:
 173              	.LBB10:
 174              		.loc 1 586 0
 175 0088 1360     		str	r3, [r2]
 176              	.LBE10:
 177              	.LBE12:
 153:Generated_Source\PSoC4/CyFlash.c ****             {
 178              		.loc 1 153 0
 179 008a 009B     		ldr	r3, [sp]
 142:Generated_Source\PSoC4/CyFlash.c **** 
 180              		.loc 1 142 0
 181 008c 8346     		mov	fp, r0
 182              	.LVL15:
 183              	.LBB13:
 184              	.LBB11:
 185              		.loc 1 586 0
 186 008e 9246     		mov	r10, r2
 187              	.LBE11:
 188              	.LBE13:
 153:Generated_Source\PSoC4/CyFlash.c ****             {
 189              		.loc 1 153 0
 190 0090 002B     		cmp	r3, #0
 191 0092 15D1     		bne	.L10
 156:Generated_Source\PSoC4/CyFlash.c ****                 parameters[0u] |= (uint32)(rowNum << 16u);
 192              		.loc 1 156 0
 193 0094 4C4B     		ldr	r3, .L44+24
 157:Generated_Source\PSoC4/CyFlash.c **** 
 194              		.loc 1 157 0
 195 0096 3A04     		lsl	r2, r7, #16
ARM GAS  C:\Users\g\AppData\Local\Temp\ccEc1lZE.s 			page 15


 156:Generated_Source\PSoC4/CyFlash.c ****                 parameters[0u] |= (uint32)(rowNum << 16u);
 196              		.loc 1 156 0
 197 0098 0293     		str	r3, [sp, #8]
 157:Generated_Source\PSoC4/CyFlash.c **** 
 198              		.loc 1 157 0
 199 009a 029B     		ldr	r3, [sp, #8]
 160:Generated_Source\PSoC4/CyFlash.c ****                 CY_NOP;
 200              		.loc 1 160 0
 201 009c 4B49     		ldr	r1, .L44+28
 157:Generated_Source\PSoC4/CyFlash.c **** 
 202              		.loc 1 157 0
 203 009e 1343     		orr	r3, r2
 204 00a0 0293     		str	r3, [sp, #8]
 160:Generated_Source\PSoC4/CyFlash.c ****                 CY_NOP;
 205              		.loc 1 160 0
 206 00a2 454A     		ldr	r2, .L44+8
 159:Generated_Source\PSoC4/CyFlash.c ****                 CY_FLASH_CPUSS_SYSREQ_REG = CY_FLASH_CPUSS_REQ_START | CY_FLASH_API_OPCODE_WRITE_RO
 207              		.loc 1 159 0
 208 00a4 454B     		ldr	r3, .L44+12
 209 00a6 1C60     		str	r4, [r3]
 160:Generated_Source\PSoC4/CyFlash.c ****                 CY_NOP;
 210              		.loc 1 160 0
 211 00a8 1160     		str	r1, [r2]
 161:Generated_Source\PSoC4/CyFlash.c ****                 retValue = CY_FLASH_API_RETURN;
 212              		.loc 1 161 0
 213              	@ 161 "Generated_Source\PSoC4\CyFlash.c" 1
 214 00aa C046     		NOP
 215              	
 216              	@ 0 "" 2
 162:Generated_Source\PSoC4/CyFlash.c ****             }
 217              		.loc 1 162 0
 218              		.code	16
 219 00ac 1A68     		ldr	r2, [r3]
 220 00ae 120F     		lsr	r2, r2, #28
 221 00b0 0F2A     		cmp	r2, #15
 222 00b2 30D0     		beq	.L40
 162:Generated_Source\PSoC4/CyFlash.c ****             }
 223              		.loc 1 162 0 is_stmt 0 discriminator 2
 224 00b4 1A68     		ldr	r2, [r3]
 225 00b6 120F     		lsr	r2, r2, #28
 226 00b8 0A2A     		cmp	r2, #10
 227 00ba 67D0     		beq	.L23
 162:Generated_Source\PSoC4/CyFlash.c ****             }
 228              		.loc 1 162 0 discriminator 4
 229 00bc 1B68     		ldr	r3, [r3]
 230 00be 0093     		str	r3, [sp]
 231              	.L10:
 167:Generated_Source\PSoC4/CyFlash.c ****                 {
 232              		.loc 1 167 0 is_stmt 1
 233 00c0 009B     		ldr	r3, [sp]
 234 00c2 002B     		cmp	r3, #0
 235 00c4 02D1     		bne	.L14
 167:Generated_Source\PSoC4/CyFlash.c ****                 {
 236              		.loc 1 167 0 is_stmt 0 discriminator 1
 237 00c6 4346     		mov	r3, r8
 238 00c8 002B     		cmp	r3, #0
 239 00ca 29D1     		bne	.L41
ARM GAS  C:\Users\g\AppData\Local\Temp\ccEc1lZE.s 			page 16


 240              	.LVL16:
 241              	.L14:
 201:Generated_Source\PSoC4/CyFlash.c ****             {
 242              		.loc 1 201 0 is_stmt 1
 243 00cc 019B     		ldr	r3, [sp, #4]
 244 00ce 002B     		cmp	r3, #0
 245 00d0 04D1     		bne	.L20
 246              	.LVL17:
 247              	.LBB14:
 248              	.LBB15:
 587:Generated_Source\PSoC4/CyFlash.c **** 
 588:Generated_Source\PSoC4/CyFlash.c **** #else   /* (CY_IP_FMLT) */
 589:Generated_Source\PSoC4/CyFlash.c **** 
 590:Generated_Source\PSoC4/CyFlash.c ****     #if (CY_PSOC4_4000)
 591:Generated_Source\PSoC4/CyFlash.c **** 
 592:Generated_Source\PSoC4/CyFlash.c ****         /***************************************************************************
 593:Generated_Source\PSoC4/CyFlash.c ****         * Perform firmware clock settings backup for the PSOC4 4000 devices (the
 594:Generated_Source\PSoC4/CyFlash.c ****         * corresponding system call is not available).
 595:Generated_Source\PSoC4/CyFlash.c ****         ***************************************************************************/
 596:Generated_Source\PSoC4/CyFlash.c **** 
 597:Generated_Source\PSoC4/CyFlash.c ****         /***************************************************************************
 598:Generated_Source\PSoC4/CyFlash.c ****         * The registers listed below are modified by CySysFlashClockConfig().
 599:Generated_Source\PSoC4/CyFlash.c ****         *
 600:Generated_Source\PSoC4/CyFlash.c ****         * The registers to be saved:
 601:Generated_Source\PSoC4/CyFlash.c ****         * - CY_SYS_CLK_IMO_CONFIG_REG - IMO enable state.
 602:Generated_Source\PSoC4/CyFlash.c ****         * - CY_SYS_CLK_SELECT_REG     - HFCLK source, divider, pump source. Save
 603:Generated_Source\PSoC4/CyFlash.c ****         *                               entire register as it can be directly
 604:Generated_Source\PSoC4/CyFlash.c ****         *                               written on restore (no special
 605:Generated_Source\PSoC4/CyFlash.c ****         *                               requirements).
 606:Generated_Source\PSoC4/CyFlash.c ****         * - CY_SYS_CLK_IMO_SELECT_REG - Save IMO frequency.
 607:Generated_Source\PSoC4/CyFlash.c ****         *
 608:Generated_Source\PSoC4/CyFlash.c ****         * The registers not to be saved:
 609:Generated_Source\PSoC4/CyFlash.c ****         * - CY_SYS_CLK_IMO_TRIM1_REG  - No need to save. Function of frequency.
 610:Generated_Source\PSoC4/CyFlash.c ****         *                               Restored by CySysClkWriteImoFreq().
 611:Generated_Source\PSoC4/CyFlash.c ****         * - CY_SYS_CLK_IMO_TRIM3_REG  - No need to save. Function of frequency.
 612:Generated_Source\PSoC4/CyFlash.c ****         *                               Restored by CySysClkWriteImoFreq().
 613:Generated_Source\PSoC4/CyFlash.c ****         * - REG_CPUSS_FLASH_CTL       - Flash wait cycles. Unmodified due to system
 614:Generated_Source\PSoC4/CyFlash.c ****         *                               clock 16 MHz limit.
 615:Generated_Source\PSoC4/CyFlash.c ****         ***************************************************************************/
 616:Generated_Source\PSoC4/CyFlash.c **** 
 617:Generated_Source\PSoC4/CyFlash.c ****         cySysFlashBackup.clkSelectReg = CY_SYS_CLK_SELECT_REG;
 618:Generated_Source\PSoC4/CyFlash.c ****         cySysFlashBackup.clkImoEna    = CY_SYS_CLK_IMO_CONFIG_REG & CY_SYS_CLK_IMO_CONFIG_ENABLE;
 619:Generated_Source\PSoC4/CyFlash.c ****         cySysFlashBackup.clkImoFreq   = CY_SYS_CLK_IMO_MIN_FREQ_MHZ + (CY_SYS_CLK_IMO_SELECT_REG <<
 620:Generated_Source\PSoC4/CyFlash.c **** 
 621:Generated_Source\PSoC4/CyFlash.c ****     #else
 622:Generated_Source\PSoC4/CyFlash.c **** 
 623:Generated_Source\PSoC4/CyFlash.c ****         #if (CY_IP_SPCIF_SYNCHRONOUS)
 624:Generated_Source\PSoC4/CyFlash.c ****             /* FM-Lite Clock Backup System Call */
 625:Generated_Source\PSoC4/CyFlash.c ****             parameters[0u] =
 626:Generated_Source\PSoC4/CyFlash.c ****                 (uint32) ((CY_FLASH_KEY_TWO(CY_FLASH_API_OPCODE_CLK_BACKUP) <<  CY_FLASH_PARAM_KEY_
 627:Generated_Source\PSoC4/CyFlash.c ****                             CY_FLASH_KEY_ONE);
 628:Generated_Source\PSoC4/CyFlash.c ****             parameters[1u] = (uint32) &cySysFlashBackup.clockSettings[0u];
 629:Generated_Source\PSoC4/CyFlash.c ****             CY_FLASH_CPUSS_SYSARG_REG = (uint32) &parameters[0u];
 630:Generated_Source\PSoC4/CyFlash.c ****             CY_FLASH_CPUSS_SYSREQ_REG = CY_FLASH_CPUSS_REQ_START | CY_FLASH_API_OPCODE_CLK_BACKUP;
 631:Generated_Source\PSoC4/CyFlash.c ****             CY_NOP;
 632:Generated_Source\PSoC4/CyFlash.c ****             retValue = CY_FLASH_API_RETURN;
 633:Generated_Source\PSoC4/CyFlash.c ****         #endif /* (CY_IP_SPCIF_SYNCHRONOUS) */
ARM GAS  C:\Users\g\AppData\Local\Temp\ccEc1lZE.s 			page 17


 634:Generated_Source\PSoC4/CyFlash.c **** 
 635:Generated_Source\PSoC4/CyFlash.c ****     #endif  /* (CY_PSOC4_4000) */
 636:Generated_Source\PSoC4/CyFlash.c **** 
 637:Generated_Source\PSoC4/CyFlash.c **** #endif  /* (CY_IP_FM) */
 638:Generated_Source\PSoC4/CyFlash.c **** 
 639:Generated_Source\PSoC4/CyFlash.c ****     return (retValue);
 640:Generated_Source\PSoC4/CyFlash.c **** }
 641:Generated_Source\PSoC4/CyFlash.c **** 
 642:Generated_Source\PSoC4/CyFlash.c **** 
 643:Generated_Source\PSoC4/CyFlash.c **** #if(CY_IP_SPCIF_SYNCHRONOUS)
 644:Generated_Source\PSoC4/CyFlash.c **** /*******************************************************************************
 645:Generated_Source\PSoC4/CyFlash.c **** * Function Name: CySysFlashClockConfig
 646:Generated_Source\PSoC4/CyFlash.c **** ****************************************************************************//**
 647:Generated_Source\PSoC4/CyFlash.c **** *
 648:Generated_Source\PSoC4/CyFlash.c **** * Configures the device clocks for the flash writing.
 649:Generated_Source\PSoC4/CyFlash.c **** *
 650:Generated_Source\PSoC4/CyFlash.c **** * \return The same as \ref CySysFlashWriteRow().
 651:Generated_Source\PSoC4/CyFlash.c **** *
 652:Generated_Source\PSoC4/CyFlash.c **** *******************************************************************************/
 653:Generated_Source\PSoC4/CyFlash.c **** static cystatus CySysFlashClockConfig(void)
 654:Generated_Source\PSoC4/CyFlash.c **** {
 655:Generated_Source\PSoC4/CyFlash.c ****     cystatus retValue = CY_SYS_FLASH_SUCCESS;
 656:Generated_Source\PSoC4/CyFlash.c **** 
 657:Generated_Source\PSoC4/CyFlash.c ****     /***************************************************************************
 658:Generated_Source\PSoC4/CyFlash.c ****     * The FM-Lite IP uses the IMO at 48MHz for the pump clock and SPC timer
 659:Generated_Source\PSoC4/CyFlash.c ****     * clock. The PUMP_SEL and HF clock must be set to IMO before calling Flash
 660:Generated_Source\PSoC4/CyFlash.c ****     * write or erase operation.
 661:Generated_Source\PSoC4/CyFlash.c ****     ***************************************************************************/
 662:Generated_Source\PSoC4/CyFlash.c **** #if (CY_PSOC4_4000)
 663:Generated_Source\PSoC4/CyFlash.c **** 
 664:Generated_Source\PSoC4/CyFlash.c ****     /***************************************************************************
 665:Generated_Source\PSoC4/CyFlash.c ****     * Perform firmware clock settings setup for the PSOC4 4000 devices (the
 666:Generated_Source\PSoC4/CyFlash.c ****     * corresponding system call is not reliable):
 667:Generated_Source\PSoC4/CyFlash.c ****     * - The IMO frequency should be 48 MHz
 668:Generated_Source\PSoC4/CyFlash.c ****     * - The IMO should be source for the HFCLK
 669:Generated_Source\PSoC4/CyFlash.c ****     * - The IMO should be the source for the charge pump clock
 670:Generated_Source\PSoC4/CyFlash.c ****     *
 671:Generated_Source\PSoC4/CyFlash.c ****     * Note The structure members used below are initialized by
 672:Generated_Source\PSoC4/CyFlash.c ****     * the CySysFlashClockBackup() function.
 673:Generated_Source\PSoC4/CyFlash.c ****     ***************************************************************************/
 674:Generated_Source\PSoC4/CyFlash.c ****     if ((cySysFlashBackup.clkImoFreq != 48u) ||
 675:Generated_Source\PSoC4/CyFlash.c ****         ((cySysFlashBackup.clkSelectReg & CY_SYS_CLK_SELECT_DIRECT_SEL_MASK) != CY_SYS_CLK_HFCLK_IM
 676:Generated_Source\PSoC4/CyFlash.c ****         (((cySysFlashBackup.clkSelectReg >> CY_SYS_CLK_SELECT_PUMP_SEL_SHIFT) & CY_SYS_CLK_SELECT_P
 677:Generated_Source\PSoC4/CyFlash.c ****             CY_SYS_CLK_SELECT_PUMP_SEL_IMO))
 678:Generated_Source\PSoC4/CyFlash.c ****     {
 679:Generated_Source\PSoC4/CyFlash.c ****         /***********************************************************************
 680:Generated_Source\PSoC4/CyFlash.c ****          Set HFCLK divider to divide-by-4 to ensure that System clock frequency
 681:Generated_Source\PSoC4/CyFlash.c ****         * is within the valid limit (16 MHz for the PSoC4 4000).
 682:Generated_Source\PSoC4/CyFlash.c ****         ***********************************************************************/
 683:Generated_Source\PSoC4/CyFlash.c ****         CySysClkWriteHfclkDiv(CY_SYS_CLK_HFCLK_DIV_4);
 684:Generated_Source\PSoC4/CyFlash.c **** 
 685:Generated_Source\PSoC4/CyFlash.c ****         /* The IMO frequency should be 48 MHz */
 686:Generated_Source\PSoC4/CyFlash.c ****         if (cySysFlashBackup.clkImoFreq != 48u)
 687:Generated_Source\PSoC4/CyFlash.c ****         {
 688:Generated_Source\PSoC4/CyFlash.c ****             CySysClkWriteImoFreq(48u);
 689:Generated_Source\PSoC4/CyFlash.c ****         }
 690:Generated_Source\PSoC4/CyFlash.c ****         CySysClkImoStart();
ARM GAS  C:\Users\g\AppData\Local\Temp\ccEc1lZE.s 			page 18


 691:Generated_Source\PSoC4/CyFlash.c **** 
 692:Generated_Source\PSoC4/CyFlash.c ****         /* The IMO should be source for the HFCLK */
 693:Generated_Source\PSoC4/CyFlash.c ****         CySysClkWriteHfclkDirect(CY_SYS_CLK_HFCLK_IMO);
 694:Generated_Source\PSoC4/CyFlash.c **** 
 695:Generated_Source\PSoC4/CyFlash.c ****         /* The IMO should be the source for the charge pump clock */
 696:Generated_Source\PSoC4/CyFlash.c ****         CY_SYS_CLK_SELECT_REG =  (CY_SYS_CLK_SELECT_REG &
 697:Generated_Source\PSoC4/CyFlash.c ****             ((uint32)~(uint32)(CY_SYS_CLK_SELECT_PUMP_SEL_MASK << CY_SYS_CLK_SELECT_PUMP_SEL_SHIFT)
 698:Generated_Source\PSoC4/CyFlash.c ****             ((uint32)((uint32)1u << CY_SYS_CLK_SELECT_PUMP_SEL_SHIFT));
 699:Generated_Source\PSoC4/CyFlash.c ****     }
 700:Generated_Source\PSoC4/CyFlash.c **** 
 701:Generated_Source\PSoC4/CyFlash.c **** #else
 702:Generated_Source\PSoC4/CyFlash.c **** 
 703:Generated_Source\PSoC4/CyFlash.c ****     /* FM-Lite Clock Configuration */
 704:Generated_Source\PSoC4/CyFlash.c ****     CY_FLASH_CPUSS_SYSARG_REG =
 705:Generated_Source\PSoC4/CyFlash.c ****         (uint32) ((CY_FLASH_KEY_TWO(CY_FLASH_API_OPCODE_CLK_CONFIG) <<  CY_FLASH_PARAM_KEY_TWO_OFFS
 706:Generated_Source\PSoC4/CyFlash.c ****                     CY_FLASH_KEY_ONE);
 707:Generated_Source\PSoC4/CyFlash.c ****     CY_FLASH_CPUSS_SYSREQ_REG = CY_FLASH_CPUSS_REQ_START | CY_FLASH_API_OPCODE_CLK_CONFIG;
 708:Generated_Source\PSoC4/CyFlash.c ****     CY_NOP;
 709:Generated_Source\PSoC4/CyFlash.c ****     retValue = CY_FLASH_API_RETURN;
 710:Generated_Source\PSoC4/CyFlash.c **** 
 711:Generated_Source\PSoC4/CyFlash.c **** #endif  /* (CY_PSOC4_4000) */
 712:Generated_Source\PSoC4/CyFlash.c **** 
 713:Generated_Source\PSoC4/CyFlash.c ****     return (retValue);
 714:Generated_Source\PSoC4/CyFlash.c **** }
 715:Generated_Source\PSoC4/CyFlash.c **** #endif  /* (CY_IP_SPCIF_SYNCHRONOUS) */
 716:Generated_Source\PSoC4/CyFlash.c **** 
 717:Generated_Source\PSoC4/CyFlash.c **** 
 718:Generated_Source\PSoC4/CyFlash.c **** /*******************************************************************************
 719:Generated_Source\PSoC4/CyFlash.c **** * Function Name: CySysFlashClockRestore
 720:Generated_Source\PSoC4/CyFlash.c **** ****************************************************************************//**
 721:Generated_Source\PSoC4/CyFlash.c **** *
 722:Generated_Source\PSoC4/CyFlash.c **** * Restores the device clock configuration.
 723:Generated_Source\PSoC4/CyFlash.c **** *
 724:Generated_Source\PSoC4/CyFlash.c **** * \return The same as \ref CySysFlashWriteRow().
 725:Generated_Source\PSoC4/CyFlash.c **** *
 726:Generated_Source\PSoC4/CyFlash.c **** *******************************************************************************/
 727:Generated_Source\PSoC4/CyFlash.c **** static cystatus CySysFlashClockRestore(void)
 728:Generated_Source\PSoC4/CyFlash.c **** {
 729:Generated_Source\PSoC4/CyFlash.c ****     cystatus retValue = CY_SYS_FLASH_SUCCESS;
 730:Generated_Source\PSoC4/CyFlash.c **** #if(!CY_IP_FM)
 731:Generated_Source\PSoC4/CyFlash.c ****     #if !(CY_PSOC4_4000)
 732:Generated_Source\PSoC4/CyFlash.c ****         #if (CY_IP_SPCIF_SYNCHRONOUS)
 733:Generated_Source\PSoC4/CyFlash.c ****             volatile uint32   parameters[2u];
 734:Generated_Source\PSoC4/CyFlash.c ****         #endif /* (CY_IP_SPCIF_SYNCHRONOUS) */
 735:Generated_Source\PSoC4/CyFlash.c ****     #endif  /* !(CY_PSOC4_4000) */
 736:Generated_Source\PSoC4/CyFlash.c **** #endif  /* (!CY_IP_FM) */
 737:Generated_Source\PSoC4/CyFlash.c **** 
 738:Generated_Source\PSoC4/CyFlash.c **** #if(CY_IP_FM)
 739:Generated_Source\PSoC4/CyFlash.c **** 
 740:Generated_Source\PSoC4/CyFlash.c ****     /***************************************************************
 741:Generated_Source\PSoC4/CyFlash.c ****     * Restore IMO configuration that could be changed during
 742:Generated_Source\PSoC4/CyFlash.c ****     * system call execution (Cypress ID #150448).
 743:Generated_Source\PSoC4/CyFlash.c ****     ***************************************************************/
 744:Generated_Source\PSoC4/CyFlash.c ****     CY_SYS_CLK_IMO_CONFIG_REG = cySysFlashBackup.imoConfigReg;
 249              		.loc 1 744 0
 250 00d2 5246     		mov	r2, r10
 251 00d4 1168     		ldr	r1, [r2]
ARM GAS  C:\Users\g\AppData\Local\Temp\ccEc1lZE.s 			page 19


 252 00d6 3A4A     		ldr	r2, .L44+16
 253 00d8 1160     		str	r1, [r2]
 254              	.LBE15:
 255              	.LBE14:
 203:Generated_Source\PSoC4/CyFlash.c ****             }
 256              		.loc 1 203 0
 257 00da 0193     		str	r3, [sp, #4]
 258              	.LVL18:
 259              	.L20:
 206:Generated_Source\PSoC4/CyFlash.c ****         }
 260              		.loc 1 206 0
 261 00dc 5846     		mov	r0, fp
 262 00de FFF7FEFF 		bl	CyExitCriticalSection
 263              	.LVL19:
 264 00e2 01E0     		b	.L9
 265              	.LVL20:
 266              	.L2:
 211:Generated_Source\PSoC4/CyFlash.c ****     }
 267              		.loc 1 211 0
 268 00e4 0423     		mov	r3, #4
 269 00e6 0093     		str	r3, [sp]
 270              	.LVL21:
 271              	.L9:
 214:Generated_Source\PSoC4/CyFlash.c **** }
 272              		.loc 1 214 0
 273 00e8 0098     		ldr	r0, [sp]
 215:Generated_Source\PSoC4/CyFlash.c **** 
 274              		.loc 1 215 0
 275 00ea 25B0     		add	sp, sp, #148
 276              		@ sp needed
 277 00ec 3CBC     		pop	{r2, r3, r4, r5}
 278 00ee 9046     		mov	r8, r2
 279 00f0 9946     		mov	r9, r3
 280 00f2 A246     		mov	r10, r4
 281 00f4 AB46     		mov	fp, r5
 282 00f6 F0BD     		pop	{r4, r5, r6, r7, pc}
 283              	.LVL22:
 284              	.L38:
 114:Generated_Source\PSoC4/CyFlash.c ****             if (needChecksumWorkaround != 0u)
 285              		.loc 1 114 0 discriminator 1
 286 00f8 002D     		cmp	r5, #0
 287 00fa A5D0     		beq	.L21
 288              	.LVL23:
 117:Generated_Source\PSoC4/CyFlash.c ****                 parameters[savedIndex] = 0u;
 289              		.loc 1 117 0
 290 00fc B300     		lsl	r3, r6, #2
 291              	.LVL24:
 292 00fe E258     		ldr	r2, [r4, r3]
 293              	.LVL25:
 118:Generated_Source\PSoC4/CyFlash.c ****             }
 294              		.loc 1 118 0
 295 0100 E150     		str	r1, [r4, r3]
 114:Generated_Source\PSoC4/CyFlash.c ****             if (needChecksumWorkaround != 0u)
 296              		.loc 1 114 0
 297 0102 0123     		mov	r3, #1
 117:Generated_Source\PSoC4/CyFlash.c ****                 parameters[savedIndex] = 0u;
 298              		.loc 1 117 0
ARM GAS  C:\Users\g\AppData\Local\Temp\ccEc1lZE.s 			page 20


 299 0104 9146     		mov	r9, r2
 300              	.LVL26:
 114:Generated_Source\PSoC4/CyFlash.c ****             if (needChecksumWorkaround != 0u)
 301              		.loc 1 114 0
 302 0106 9846     		mov	r8, r3
 303 0108 A1E7     		b	.L5
 304              	.LVL27:
 305              	.L22:
 132:Generated_Source\PSoC4/CyFlash.c **** 
 306              		.loc 1 132 0
 307 010a 0023     		mov	r3, #0
 308 010c B2E7     		b	.L8
 309              	.L39:
 132:Generated_Source\PSoC4/CyFlash.c **** 
 310              		.loc 1 132 0 is_stmt 0 discriminator 1
 311 010e 1B68     		ldr	r3, [r3]
 312 0110 F032     		add	r2, r2, #240
 313 0112 1340     		and	r3, r2
 314 0114 AEE7     		b	.L8
 315              	.LVL28:
 316              	.L40:
 162:Generated_Source\PSoC4/CyFlash.c ****             }
 317              		.loc 1 162 0 is_stmt 1 discriminator 1
 318 0116 1B68     		ldr	r3, [r3]
 319 0118 F032     		add	r2, r2, #240
 320 011a 1340     		and	r3, r2
 321 011c 0093     		str	r3, [sp]
 322 011e CFE7     		b	.L10
 323              	.L41:
 169:Generated_Source\PSoC4/CyFlash.c ****                     parameters[savedIndex] = savedValue;
 324              		.loc 1 169 0
 325 0120 04A8     		add	r0, sp, #16
 326 0122 0021     		mov	r1, #0
 327 0124 8022     		mov	r2, #128
 328 0126 FFF7FEFF 		bl	memset
 329              	.LVL29:
 170:Generated_Source\PSoC4/CyFlash.c **** 
 330              		.loc 1 170 0
 331 012a 4B46     		mov	r3, r9
 332 012c B600     		lsl	r6, r6, #2
 333              	.LVL30:
 334 012e A351     		str	r3, [r4, r6]
 173:Generated_Source\PSoC4/CyFlash.c ****                                      (uint32) (CY_FLASH_PAGE_LATCH_START_ADDR             << CY_FLA
 335              		.loc 1 173 0
 336 0130 1F4B     		ldr	r3, .L44
 180:Generated_Source\PSoC4/CyFlash.c ****                     CY_NOP;
 337              		.loc 1 180 0
 338 0132 2049     		ldr	r1, .L44+4
 173:Generated_Source\PSoC4/CyFlash.c ****                                      (uint32) (CY_FLASH_PAGE_LATCH_START_ADDR             << CY_FLA
 339              		.loc 1 173 0
 340 0134 0293     		str	r3, [sp, #8]
 177:Generated_Source\PSoC4/CyFlash.c **** 
 341              		.loc 1 177 0
 342 0136 7F23     		mov	r3, #127
 180:Generated_Source\PSoC4/CyFlash.c ****                     CY_NOP;
 343              		.loc 1 180 0
 344 0138 1F4A     		ldr	r2, .L44+8
ARM GAS  C:\Users\g\AppData\Local\Temp\ccEc1lZE.s 			page 21


 177:Generated_Source\PSoC4/CyFlash.c **** 
 345              		.loc 1 177 0
 346 013a 6360     		str	r3, [r4, #4]
 179:Generated_Source\PSoC4/CyFlash.c ****                     CY_FLASH_CPUSS_SYSREQ_REG = CY_FLASH_CPUSS_REQ_START | CY_FLASH_API_OPCODE_LOAD
 347              		.loc 1 179 0
 348 013c 1F4B     		ldr	r3, .L44+12
 349 013e 1C60     		str	r4, [r3]
 180:Generated_Source\PSoC4/CyFlash.c ****                     CY_NOP;
 350              		.loc 1 180 0
 351 0140 1160     		str	r1, [r2]
 181:Generated_Source\PSoC4/CyFlash.c ****                     retValue = CY_FLASH_API_RETURN;
 352              		.loc 1 181 0
 353              	@ 181 "Generated_Source\PSoC4\CyFlash.c" 1
 354 0142 C046     		NOP
 355              	
 356              	@ 0 "" 2
 182:Generated_Source\PSoC4/CyFlash.c **** 
 357              		.loc 1 182 0
 358              		.code	16
 359 0144 1A68     		ldr	r2, [r3]
 360 0146 120F     		lsr	r2, r2, #28
 361 0148 0F2A     		cmp	r2, #15
 362 014a 22D0     		beq	.L42
 182:Generated_Source\PSoC4/CyFlash.c **** 
 363              		.loc 1 182 0 is_stmt 0 discriminator 2
 364 014c 1A68     		ldr	r2, [r3]
 365 014e 120F     		lsr	r2, r2, #28
 366 0150 0A2A     		cmp	r2, #10
 367 0152 22D0     		beq	.L24
 182:Generated_Source\PSoC4/CyFlash.c **** 
 368              		.loc 1 182 0 discriminator 4
 369 0154 1B68     		ldr	r3, [r3]
 370              	.L17:
 182:Generated_Source\PSoC4/CyFlash.c **** 
 371              		.loc 1 182 0 discriminator 8
 372 0156 0093     		str	r3, [sp]
 185:Generated_Source\PSoC4/CyFlash.c ****                     {
 373              		.loc 1 185 0 is_stmt 1 discriminator 8
 374 0158 009B     		ldr	r3, [sp]
 375 015a 002B     		cmp	r3, #0
 376 015c B6D1     		bne	.L14
 188:Generated_Source\PSoC4/CyFlash.c ****                             (uint32) (((uint32) CY_FLASH_KEY_TWO(CY_FLASH_API_OPCODE_PROGRAM_ROW) <
 377              		.loc 1 188 0
 378 015e 1C4B     		ldr	r3, .L44+32
 191:Generated_Source\PSoC4/CyFlash.c **** 
 379              		.loc 1 191 0
 380 0160 3F04     		lsl	r7, r7, #16
 381              	.LVL31:
 188:Generated_Source\PSoC4/CyFlash.c ****                             (uint32) (((uint32) CY_FLASH_KEY_TWO(CY_FLASH_API_OPCODE_PROGRAM_ROW) <
 382              		.loc 1 188 0
 383 0162 0293     		str	r3, [sp, #8]
 191:Generated_Source\PSoC4/CyFlash.c **** 
 384              		.loc 1 191 0
 385 0164 029B     		ldr	r3, [sp, #8]
 194:Generated_Source\PSoC4/CyFlash.c ****                         CY_NOP;
 386              		.loc 1 194 0
 387 0166 1B49     		ldr	r1, .L44+36
ARM GAS  C:\Users\g\AppData\Local\Temp\ccEc1lZE.s 			page 22


 191:Generated_Source\PSoC4/CyFlash.c **** 
 388              		.loc 1 191 0
 389 0168 1F43     		orr	r7, r3
 194:Generated_Source\PSoC4/CyFlash.c ****                         CY_NOP;
 390              		.loc 1 194 0
 391 016a 134A     		ldr	r2, .L44+8
 193:Generated_Source\PSoC4/CyFlash.c ****                         CY_FLASH_CPUSS_SYSREQ_REG = CY_FLASH_CPUSS_REQ_START | CY_FLASH_API_OPCODE_
 392              		.loc 1 193 0
 393 016c 134B     		ldr	r3, .L44+12
 191:Generated_Source\PSoC4/CyFlash.c **** 
 394              		.loc 1 191 0
 395 016e 0297     		str	r7, [sp, #8]
 193:Generated_Source\PSoC4/CyFlash.c ****                         CY_FLASH_CPUSS_SYSREQ_REG = CY_FLASH_CPUSS_REQ_START | CY_FLASH_API_OPCODE_
 396              		.loc 1 193 0
 397 0170 1C60     		str	r4, [r3]
 194:Generated_Source\PSoC4/CyFlash.c ****                         CY_NOP;
 398              		.loc 1 194 0
 399 0172 1160     		str	r1, [r2]
 195:Generated_Source\PSoC4/CyFlash.c ****                         retValue = CY_FLASH_API_RETURN;
 400              		.loc 1 195 0
 401              	@ 195 "Generated_Source\PSoC4\CyFlash.c" 1
 402 0174 C046     		NOP
 403              	
 404              	@ 0 "" 2
 196:Generated_Source\PSoC4/CyFlash.c ****                     }
 405              		.loc 1 196 0
 406              		.code	16
 407 0176 1A68     		ldr	r2, [r3]
 408 0178 120F     		lsr	r2, r2, #28
 409 017a 0F2A     		cmp	r2, #15
 410 017c 12D0     		beq	.L43
 196:Generated_Source\PSoC4/CyFlash.c ****                     }
 411              		.loc 1 196 0 is_stmt 0 discriminator 2
 412 017e 1A68     		ldr	r2, [r3]
 413 0180 120F     		lsr	r2, r2, #28
 414 0182 0A2A     		cmp	r2, #10
 415 0184 0BD0     		beq	.L25
 196:Generated_Source\PSoC4/CyFlash.c ****                     }
 416              		.loc 1 196 0 discriminator 4
 417 0186 1B68     		ldr	r3, [r3]
 418 0188 0093     		str	r3, [sp]
 419 018a 9FE7     		b	.L14
 420              	.LVL32:
 421              	.L23:
 162:Generated_Source\PSoC4/CyFlash.c ****             }
 422              		.loc 1 162 0 is_stmt 1
 423 018c 0023     		mov	r3, #0
 424 018e 0093     		str	r3, [sp]
 425 0190 96E7     		b	.L10
 426              	.LVL33:
 427              	.L42:
 182:Generated_Source\PSoC4/CyFlash.c **** 
 428              		.loc 1 182 0 discriminator 1
 429 0192 1B68     		ldr	r3, [r3]
 430 0194 F032     		add	r2, r2, #240
 431 0196 1340     		and	r3, r2
 432 0198 DDE7     		b	.L17
ARM GAS  C:\Users\g\AppData\Local\Temp\ccEc1lZE.s 			page 23


 433              	.L24:
 182:Generated_Source\PSoC4/CyFlash.c **** 
 434              		.loc 1 182 0 is_stmt 0
 435 019a 0023     		mov	r3, #0
 436 019c DBE7     		b	.L17
 437              	.LVL34:
 438              	.L25:
 196:Generated_Source\PSoC4/CyFlash.c ****                     }
 439              		.loc 1 196 0 is_stmt 1
 440 019e 0023     		mov	r3, #0
 441 01a0 0093     		str	r3, [sp]
 442 01a2 93E7     		b	.L14
 443              	.L43:
 196:Generated_Source\PSoC4/CyFlash.c ****                     }
 444              		.loc 1 196 0 is_stmt 0 discriminator 1
 445 01a4 1B68     		ldr	r3, [r3]
 446 01a6 F032     		add	r2, r2, #240
 447 01a8 1340     		and	r3, r2
 448 01aa 0093     		str	r3, [sp]
 449 01ac 8EE7     		b	.L14
 450              	.L45:
 451 01ae C046     		.align	2
 452              	.L44:
 453 01b0 B6D70000 		.word	55222
 454 01b4 04000080 		.word	-2147483644
 455 01b8 04000040 		.word	1073741828
 456 01bc 08000040 		.word	1073741832
 457 01c0 08010B40 		.word	1074462984
 458 01c4 00000000 		.word	.LANCHOR0
 459 01c8 B6D80000 		.word	55478
 460 01cc 05000080 		.word	-2147483643
 461 01d0 B6D90000 		.word	55734
 462 01d4 06000080 		.word	-2147483642
 463              		.cfi_endproc
 464              	.LFE0:
 465              		.size	CySysFlashWriteRow, .-CySysFlashWriteRow
 466              		.section	.text.CySysFlashSetWaitCycles,"ax",%progbits
 467              		.align	2
 468              		.global	CySysFlashSetWaitCycles
 469              		.code	16
 470              		.thumb_func
 471              		.type	CySysFlashSetWaitCycles, %function
 472              	CySysFlashSetWaitCycles:
 473              	.LFB1:
 422:Generated_Source\PSoC4/CyFlash.c ****     uint8  interruptState;
 474              		.loc 1 422 0 is_stmt 1
 475              		.cfi_startproc
 476              	.LVL35:
 477 0000 10B5     		push	{r4, lr}
 478              		.cfi_def_cfa_offset 8
 479              		.cfi_offset 4, -8
 480              		.cfi_offset 14, -4
 422:Generated_Source\PSoC4/CyFlash.c ****     uint8  interruptState;
 481              		.loc 1 422 0
 482 0002 041C     		mov	r4, r0
 425:Generated_Source\PSoC4/CyFlash.c **** 
 483              		.loc 1 425 0
ARM GAS  C:\Users\g\AppData\Local\Temp\ccEc1lZE.s 			page 24


 484 0004 FFF7FEFF 		bl	CyEnterCriticalSection
 485              	.LVL36:
 431:Generated_Source\PSoC4/CyFlash.c ****         }
 486              		.loc 1 431 0
 487 0008 074A     		ldr	r2, .L50
 429:Generated_Source\PSoC4/CyFlash.c ****         {
 488              		.loc 1 429 0
 489 000a 182C     		cmp	r4, #24
 490 000c 07D9     		bls	.L49
 435:Generated_Source\PSoC4/CyFlash.c ****         }
 491              		.loc 1 435 0
 492 000e 8021     		mov	r1, #128
 493 0010 1368     		ldr	r3, [r2]
 494 0012 C902     		lsl	r1, r1, #11
 495 0014 0B43     		orr	r3, r1
 496 0016 1360     		str	r3, [r2]
 497              	.L48:
 463:Generated_Source\PSoC4/CyFlash.c **** }
 498              		.loc 1 463 0
 499 0018 FFF7FEFF 		bl	CyExitCriticalSection
 500              	.LVL37:
 464:Generated_Source\PSoC4/CyFlash.c **** 
 501              		.loc 1 464 0
 502              		@ sp needed
 503              	.LVL38:
 504 001c 10BD     		pop	{r4, pc}
 505              	.LVL39:
 506              	.L49:
 431:Generated_Source\PSoC4/CyFlash.c ****         }
 507              		.loc 1 431 0
 508 001e 1168     		ldr	r1, [r2]
 509 0020 024B     		ldr	r3, .L50+4
 510 0022 0B40     		and	r3, r1
 511 0024 1360     		str	r3, [r2]
 512 0026 F7E7     		b	.L48
 513              	.L51:
 514              		.align	2
 515              	.L50:
 516 0028 00010B40 		.word	1074462976
 517 002c FFFFFBFF 		.word	-262145
 518              		.cfi_endproc
 519              	.LFE1:
 520              		.size	CySysFlashSetWaitCycles, .-CySysFlashSetWaitCycles
 521              		.bss
 522              		.align	2
 523              		.set	.LANCHOR0,. + 0
 524              		.type	cySysFlashBackup, %object
 525              		.size	cySysFlashBackup, 4
 526              	cySysFlashBackup:
 527 0000 00000000 		.space	4
 528              		.text
 529              	.Letext0:
 530              		.file 2 "Generated_Source\\PSoC4\\cytypes.h"
 531              		.file 3 "Generated_Source\\PSoC4\\CyFlash.h"
 532              		.file 4 "Generated_Source\\PSoC4\\CyLib.h"