ARM GAS  C:\Users\g\AppData\Local\Temp\ccrBoTzc.s 			page 1


   1              		.cpu cortex-m0
   2              		.fpu softvfp
   3              		.eabi_attribute 20, 1
   4              		.eabi_attribute 21, 1
   5              		.eabi_attribute 23, 3
   6              		.eabi_attribute 24, 1
   7              		.eabi_attribute 25, 1
   8              		.eabi_attribute 26, 1
   9              		.eabi_attribute 30, 2
  10              		.eabi_attribute 34, 0
  11              		.eabi_attribute 18, 4
  12              		.code	16
  13              		.file	"CyLFClk.c"
  14              		.text
  15              	.Ltext0:
  16              		.cfi_sections	.debug_frame
  17              		.section	.text.CySysClkIloStart,"ax",%progbits
  18              		.align	2
  19              		.global	CySysClkIloStart
  20              		.code	16
  21              		.thumb_func
  22              		.type	CySysClkIloStart, %function
  23              	CySysClkIloStart:
  24              	.LFB0:
  25              		.file 1 "Generated_Source\\PSoC4\\CyLFClk.c"
   1:Generated_Source\PSoC4/CyLFClk.c **** /***************************************************************************//**
   2:Generated_Source\PSoC4/CyLFClk.c **** * \file .c
   3:Generated_Source\PSoC4/CyLFClk.c **** * \version 1.10
   4:Generated_Source\PSoC4/CyLFClk.c **** *
   5:Generated_Source\PSoC4/CyLFClk.c **** * \brief
   6:Generated_Source\PSoC4/CyLFClk.c **** *  This file provides the source code for configuring watchdog timers WDTs, 
   7:Generated_Source\PSoC4/CyLFClk.c **** *  low frequency clocks (LFCLK) and the Real-time Clock (RTC) component in
   8:Generated_Source\PSoC4/CyLFClk.c **** *  PSoC Creator for the PSoC 4 families.
   9:Generated_Source\PSoC4/CyLFClk.c **** *
  10:Generated_Source\PSoC4/CyLFClk.c **** ********************************************************************************
  11:Generated_Source\PSoC4/CyLFClk.c **** * \copyright
  12:Generated_Source\PSoC4/CyLFClk.c **** * Copyright 2008-2016, Cypress Semiconductor Corporation.  All rights reserved.
  13:Generated_Source\PSoC4/CyLFClk.c **** * You may use this file only in accordance with the license, terms, conditions,
  14:Generated_Source\PSoC4/CyLFClk.c **** * disclaimers, and limitations in the end user license agreement accompanying
  15:Generated_Source\PSoC4/CyLFClk.c **** * the software package with which this file was provided.
  16:Generated_Source\PSoC4/CyLFClk.c **** *******************************************************************************/
  17:Generated_Source\PSoC4/CyLFClk.c **** 
  18:Generated_Source\PSoC4/CyLFClk.c **** 
  19:Generated_Source\PSoC4/CyLFClk.c **** #include "CyLFClk.h"
  20:Generated_Source\PSoC4/CyLFClk.c **** #include "CyLib.h"
  21:Generated_Source\PSoC4/CyLFClk.c **** 
  22:Generated_Source\PSoC4/CyLFClk.c **** #if (CY_IP_WCO && CY_IP_SRSSV2)
  23:Generated_Source\PSoC4/CyLFClk.c ****     static uint32 CySysClkGetLfclkSource(void);
  24:Generated_Source\PSoC4/CyLFClk.c **** #endif /* (CY_IP_WCO && CY_IP_SRSSV2) */
  25:Generated_Source\PSoC4/CyLFClk.c **** 
  26:Generated_Source\PSoC4/CyLFClk.c **** 
  27:Generated_Source\PSoC4/CyLFClk.c **** #if(CY_IP_SRSSV2 && (!(CY_PSOC4_4100 || CY_PSOC4_4200)))
  28:Generated_Source\PSoC4/CyLFClk.c ****     /* Default Ilo Trim Register value for ILO trimming*/
  29:Generated_Source\PSoC4/CyLFClk.c ****     static volatile uint16 defaultIloTrimRegValue = CY_SYS_CLK_ILO_TRIM_DEFAULT_VALUE;
  30:Generated_Source\PSoC4/CyLFClk.c **** #endif /* (CY_IP_SRSSV2 && (!(CY_PSOC4_4100 || CY_PSOC4_4200))) */
  31:Generated_Source\PSoC4/CyLFClk.c **** 
  32:Generated_Source\PSoC4/CyLFClk.c **** #if(CY_IP_SRSSV2)
ARM GAS  C:\Users\g\AppData\Local\Temp\ccrBoTzc.s 			page 2


  33:Generated_Source\PSoC4/CyLFClk.c ****     /* CySysClkLfclkPosedgeCatch() / CySysClkLfclkPosedgeRestore() */
  34:Generated_Source\PSoC4/CyLFClk.c ****     static uint32 lfclkPosedgeWdtCounter0Enabled = 0u;
  35:Generated_Source\PSoC4/CyLFClk.c ****     static uint32 lfclkPosedgeWdtCounter0Mode    = CY_SYS_WDT_MODE_NONE;
  36:Generated_Source\PSoC4/CyLFClk.c **** 
  37:Generated_Source\PSoC4/CyLFClk.c ****     static volatile uint32 disableServicedIsr = 0uL;
  38:Generated_Source\PSoC4/CyLFClk.c ****     static volatile uint32 wdtIsrMask = CY_SYS_WDT_COUNTER0_INT |\
  39:Generated_Source\PSoC4/CyLFClk.c ****                                         CY_SYS_WDT_COUNTER1_INT |\
  40:Generated_Source\PSoC4/CyLFClk.c ****                                         CY_SYS_WDT_COUNTER2_INT;
  41:Generated_Source\PSoC4/CyLFClk.c **** 
  42:Generated_Source\PSoC4/CyLFClk.c ****     static const uint32 counterIntMaskTbl[CY_WDT_NUM_OF_WDT] = {CY_SYS_WDT_COUNTER0_INT,
  43:Generated_Source\PSoC4/CyLFClk.c ****                                                                 CY_SYS_WDT_COUNTER1_INT,
  44:Generated_Source\PSoC4/CyLFClk.c ****                                                                 CY_SYS_WDT_COUNTER2_INT};
  45:Generated_Source\PSoC4/CyLFClk.c **** 
  46:Generated_Source\PSoC4/CyLFClk.c ****     static void CySysClkLfclkPosedgeCatch(void);
  47:Generated_Source\PSoC4/CyLFClk.c ****     static void CySysClkLfclkPosedgeRestore(void);
  48:Generated_Source\PSoC4/CyLFClk.c **** 
  49:Generated_Source\PSoC4/CyLFClk.c ****     static uint32 CySysWdtLocked(void);
  50:Generated_Source\PSoC4/CyLFClk.c ****     static uint32 CySysClkIloEnabled(void);
  51:Generated_Source\PSoC4/CyLFClk.c **** #endif /* (CY_IP_SRSSV2) */
  52:Generated_Source\PSoC4/CyLFClk.c **** 
  53:Generated_Source\PSoC4/CyLFClk.c **** #if (CY_IP_SRSSLT && CY_IP_WCO && CY_IP_WCO_WDT_EN)
  54:Generated_Source\PSoC4/CyLFClk.c ****     static uint32 CySysClkGetTimerSource(void);
  55:Generated_Source\PSoC4/CyLFClk.c ****     static volatile uint32 disableTimerServicedIsr = 0uL;
  56:Generated_Source\PSoC4/CyLFClk.c ****     static volatile uint32 timerIsrMask = CY_SYS_TIMER0_INT |\
  57:Generated_Source\PSoC4/CyLFClk.c ****                                           CY_SYS_TIMER1_INT |\
  58:Generated_Source\PSoC4/CyLFClk.c ****                                           CY_SYS_TIMER2_INT;
  59:Generated_Source\PSoC4/CyLFClk.c **** 
  60:Generated_Source\PSoC4/CyLFClk.c ****     static const uint32 counterTimerIntMaskTbl[CY_SYS_NUM_OF_TIMERS] = {CY_SYS_TIMER0_INT,
  61:Generated_Source\PSoC4/CyLFClk.c ****                                                                         CY_SYS_TIMER1_INT,
  62:Generated_Source\PSoC4/CyLFClk.c ****                                                                         CY_SYS_TIMER2_INT};
  63:Generated_Source\PSoC4/CyLFClk.c **** 
  64:Generated_Source\PSoC4/CyLFClk.c ****     static cyTimerCallback cySysTimerCallback[CY_SYS_NUM_OF_TIMERS] = {(void *)0, (void *)0, (void 
  65:Generated_Source\PSoC4/CyLFClk.c **** #endif /* (CY_IP_SRSSLT && CY_IP_WCO && CY_IP_WCO_DWT_EN) */
  66:Generated_Source\PSoC4/CyLFClk.c **** 
  67:Generated_Source\PSoC4/CyLFClk.c **** #if(CY_IP_SRSSV2)
  68:Generated_Source\PSoC4/CyLFClk.c ****     static cyWdtCallback cySysWdtCallback[CY_WDT_NUM_OF_WDT] = {(void *)0, (void *)0, (void *)0};
  69:Generated_Source\PSoC4/CyLFClk.c **** #else
  70:Generated_Source\PSoC4/CyLFClk.c ****     static cyWdtCallback cySysWdtCallback = (void *)0;
  71:Generated_Source\PSoC4/CyLFClk.c **** #endif /* (CY_IP_SRSSV2) */
  72:Generated_Source\PSoC4/CyLFClk.c **** 
  73:Generated_Source\PSoC4/CyLFClk.c **** 
  74:Generated_Source\PSoC4/CyLFClk.c **** /*******************************************************************************
  75:Generated_Source\PSoC4/CyLFClk.c **** * Function Name: CySysClkIloStart
  76:Generated_Source\PSoC4/CyLFClk.c **** ****************************************************************************//**
  77:Generated_Source\PSoC4/CyLFClk.c **** * \brief
  78:Generated_Source\PSoC4/CyLFClk.c **** *  Enables ILO.
  79:Generated_Source\PSoC4/CyLFClk.c **** *
  80:Generated_Source\PSoC4/CyLFClk.c **** *  Refer to the device datasheet for the ILO startup time.
  81:Generated_Source\PSoC4/CyLFClk.c **** *
  82:Generated_Source\PSoC4/CyLFClk.c **** *******************************************************************************/
  83:Generated_Source\PSoC4/CyLFClk.c **** void CySysClkIloStart(void)
  84:Generated_Source\PSoC4/CyLFClk.c **** {
  26              		.loc 1 84 0
  27              		.cfi_startproc
  85:Generated_Source\PSoC4/CyLFClk.c ****     CY_SYS_CLK_ILO_CONFIG_REG |= CY_SYS_CLK_ILO_CONFIG_ENABLE;
  28              		.loc 1 85 0
  29 0000 8021     		mov	r1, #128
ARM GAS  C:\Users\g\AppData\Local\Temp\ccrBoTzc.s 			page 3


  30 0002 034A     		ldr	r2, .L2
  31 0004 0906     		lsl	r1, r1, #24
  32 0006 1368     		ldr	r3, [r2]
  86:Generated_Source\PSoC4/CyLFClk.c **** }
  33              		.loc 1 86 0
  34              		@ sp needed
  85:Generated_Source\PSoC4/CyLFClk.c ****     CY_SYS_CLK_ILO_CONFIG_REG |= CY_SYS_CLK_ILO_CONFIG_ENABLE;
  35              		.loc 1 85 0
  36 0008 0B43     		orr	r3, r1
  37 000a 1360     		str	r3, [r2]
  38              		.loc 1 86 0
  39 000c 7047     		bx	lr
  40              	.L3:
  41 000e C046     		.align	2
  42              	.L2:
  43 0010 04010B40 		.word	1074462980
  44              		.cfi_endproc
  45              	.LFE0:
  46              		.size	CySysClkIloStart, .-CySysClkIloStart
  47              		.section	.text.CySysClkIloStartMeasurement,"ax",%progbits
  48              		.align	2
  49              		.global	CySysClkIloStartMeasurement
  50              		.code	16
  51              		.thumb_func
  52              		.type	CySysClkIloStartMeasurement, %function
  53              	CySysClkIloStartMeasurement:
  54              	.LFB2:
  87:Generated_Source\PSoC4/CyLFClk.c **** 
  88:Generated_Source\PSoC4/CyLFClk.c **** 
  89:Generated_Source\PSoC4/CyLFClk.c **** /*******************************************************************************
  90:Generated_Source\PSoC4/CyLFClk.c **** * Function Name: CySysClkIloStop
  91:Generated_Source\PSoC4/CyLFClk.c **** ****************************************************************************//**
  92:Generated_Source\PSoC4/CyLFClk.c **** * \brief
  93:Generated_Source\PSoC4/CyLFClk.c **** *  Disables the ILO.
  94:Generated_Source\PSoC4/CyLFClk.c **** *
  95:Generated_Source\PSoC4/CyLFClk.c **** *  This function has no effect if WDT is locked (CySysWdtLock() is
  96:Generated_Source\PSoC4/CyLFClk.c **** *  called). Call CySysWdtUnlock() to unlock WDT and stop ILO.
  97:Generated_Source\PSoC4/CyLFClk.c **** *
  98:Generated_Source\PSoC4/CyLFClk.c **** *  PSoC 4100 / PSoC 4200: Note that ILO is required for WDT's operation.
  99:Generated_Source\PSoC4/CyLFClk.c **** *
 100:Generated_Source\PSoC4/CyLFClk.c **** *  PSoC 4100 BLE / PSoC 4200 BLE / PSoC 4200L / PSoC 4100M / 
 101:Generated_Source\PSoC4/CyLFClk.c **** *  PSoC 4200M:
 102:Generated_Source\PSoC4/CyLFClk.c **** *  Stopping ILO affects the peripheral clocked by LFCLK, if
 103:Generated_Source\PSoC4/CyLFClk.c **** *  LFCLK is configured to be sourced by ILO.
 104:Generated_Source\PSoC4/CyLFClk.c **** *
 105:Generated_Source\PSoC4/CyLFClk.c **** *  If the ILO is disabled, all blocks run by ILO will stop functioning.
 106:Generated_Source\PSoC4/CyLFClk.c **** *
 107:Generated_Source\PSoC4/CyLFClk.c **** *******************************************************************************/
 108:Generated_Source\PSoC4/CyLFClk.c **** void CySysClkIloStop(void)
 109:Generated_Source\PSoC4/CyLFClk.c **** {
 110:Generated_Source\PSoC4/CyLFClk.c ****     #if(CY_IP_SRSSV2)
 111:Generated_Source\PSoC4/CyLFClk.c ****         uint8  interruptState;
 112:Generated_Source\PSoC4/CyLFClk.c **** 
 113:Generated_Source\PSoC4/CyLFClk.c ****         /* Do nothing if WDT is locked or ILO is disabled */
 114:Generated_Source\PSoC4/CyLFClk.c ****         if (0u == CySysWdtLocked())
 115:Generated_Source\PSoC4/CyLFClk.c ****         {
 116:Generated_Source\PSoC4/CyLFClk.c ****             if (0u != CySysClkIloEnabled())
ARM GAS  C:\Users\g\AppData\Local\Temp\ccrBoTzc.s 			page 4


 117:Generated_Source\PSoC4/CyLFClk.c ****             {
 118:Generated_Source\PSoC4/CyLFClk.c **** 
 119:Generated_Source\PSoC4/CyLFClk.c ****             #if (CY_IP_WCO)
 120:Generated_Source\PSoC4/CyLFClk.c ****                 if (CY_SYS_CLK_LFCLK_SRC_ILO == CySysClkGetLfclkSource())
 121:Generated_Source\PSoC4/CyLFClk.c ****                 {
 122:Generated_Source\PSoC4/CyLFClk.c ****             #endif /* (CY_IP_WCO) */
 123:Generated_Source\PSoC4/CyLFClk.c **** 
 124:Generated_Source\PSoC4/CyLFClk.c ****                 interruptState = CyEnterCriticalSection();
 125:Generated_Source\PSoC4/CyLFClk.c ****                 CySysClkLfclkPosedgeCatch();
 126:Generated_Source\PSoC4/CyLFClk.c ****                 CY_SYS_CLK_ILO_CONFIG_REG &= (uint32) ( ~(uint32)CY_SYS_CLK_ILO_CONFIG_ENABLE);
 127:Generated_Source\PSoC4/CyLFClk.c ****                 CySysClkLfclkPosedgeRestore();
 128:Generated_Source\PSoC4/CyLFClk.c ****                 CyExitCriticalSection(interruptState);
 129:Generated_Source\PSoC4/CyLFClk.c **** 
 130:Generated_Source\PSoC4/CyLFClk.c ****             #if (CY_IP_WCO)
 131:Generated_Source\PSoC4/CyLFClk.c ****                 }
 132:Generated_Source\PSoC4/CyLFClk.c ****                 else /* Safe to disable - shortened pulse does not impact peripheral */
 133:Generated_Source\PSoC4/CyLFClk.c ****                 {
 134:Generated_Source\PSoC4/CyLFClk.c ****                     CY_SYS_CLK_ILO_CONFIG_REG &= (uint32) ( ~(uint32)CY_SYS_CLK_ILO_CONFIG_ENABLE);
 135:Generated_Source\PSoC4/CyLFClk.c ****                 }
 136:Generated_Source\PSoC4/CyLFClk.c ****             #endif /* (CY_IP_WCO) */
 137:Generated_Source\PSoC4/CyLFClk.c **** 
 138:Generated_Source\PSoC4/CyLFClk.c ****             }
 139:Generated_Source\PSoC4/CyLFClk.c ****         }
 140:Generated_Source\PSoC4/CyLFClk.c ****     #else
 141:Generated_Source\PSoC4/CyLFClk.c ****         CY_SYS_CLK_ILO_CONFIG_REG &= ( uint32 ) ( ~( uint32 )CY_SYS_CLK_ILO_CONFIG_ENABLE);
 142:Generated_Source\PSoC4/CyLFClk.c ****     #endif /* (CY_IP_SRSSV2) */
 143:Generated_Source\PSoC4/CyLFClk.c **** }
 144:Generated_Source\PSoC4/CyLFClk.c **** 
 145:Generated_Source\PSoC4/CyLFClk.c **** 
 146:Generated_Source\PSoC4/CyLFClk.c **** /******************************************************************************
 147:Generated_Source\PSoC4/CyLFClk.c **** * Function Name: CySysClkIloStartMeasurement
 148:Generated_Source\PSoC4/CyLFClk.c **** ***************************************************************************//**
 149:Generated_Source\PSoC4/CyLFClk.c **** * \brief
 150:Generated_Source\PSoC4/CyLFClk.c **** * Starts the ILO accuracy measurement.
 151:Generated_Source\PSoC4/CyLFClk.c **** *
 152:Generated_Source\PSoC4/CyLFClk.c **** * This function is non-blocking and needs to be called before using the 
 153:Generated_Source\PSoC4/CyLFClk.c **** * CySysClkIloTrim() and CySysClkIloCompensate() API.
 154:Generated_Source\PSoC4/CyLFClk.c **** *
 155:Generated_Source\PSoC4/CyLFClk.c **** * This API configures measurement counters to be sourced by SysClk (Counter 1)
 156:Generated_Source\PSoC4/CyLFClk.c **** * and ILO (Counter 2). 
 157:Generated_Source\PSoC4/CyLFClk.c **** *
 158:Generated_Source\PSoC4/CyLFClk.c **** * \note SysClk should be sourced by IMO. Otherwise CySysClkIloTrim() and 
 159:Generated_Source\PSoC4/CyLFClk.c **** * CySysClkIloCompensate() API can give incorrect results.
 160:Generated_Source\PSoC4/CyLFClk.c **** *
 161:Generated_Source\PSoC4/CyLFClk.c **** * In addition, this API stores the factory ILO trim settings on the first call 
 162:Generated_Source\PSoC4/CyLFClk.c **** * after reset. This stored factory setting is used by the 
 163:Generated_Source\PSoC4/CyLFClk.c **** * CySysClkIloRestoreFactoryTrim() API to restore the ILO factory trim. 
 164:Generated_Source\PSoC4/CyLFClk.c **** * Hence, it is important to call this API before restoring the ILO 
 165:Generated_Source\PSoC4/CyLFClk.c **** * factory trim settings.
 166:Generated_Source\PSoC4/CyLFClk.c **** *
 167:Generated_Source\PSoC4/CyLFClk.c **** ******************************************************************************/
 168:Generated_Source\PSoC4/CyLFClk.c **** void CySysClkIloStartMeasurement(void)
 169:Generated_Source\PSoC4/CyLFClk.c **** {
  55              		.loc 1 169 0
  56              		.cfi_startproc
 170:Generated_Source\PSoC4/CyLFClk.c **** #if(CY_IP_SRSSV2 && (!(CY_PSOC4_4100 || CY_PSOC4_4200)))
 171:Generated_Source\PSoC4/CyLFClk.c ****     static uint8 iloTrimTrig = 0u;
ARM GAS  C:\Users\g\AppData\Local\Temp\ccrBoTzc.s 			page 5


 172:Generated_Source\PSoC4/CyLFClk.c **** 
 173:Generated_Source\PSoC4/CyLFClk.c ****     /* Write default ILO trim value while ILO starting ( Cypress ID 225244 )*/
 174:Generated_Source\PSoC4/CyLFClk.c ****     if (0u == iloTrimTrig)
 175:Generated_Source\PSoC4/CyLFClk.c ****     {
 176:Generated_Source\PSoC4/CyLFClk.c ****         defaultIloTrimRegValue = ((uint8)(CY_SYS_CLK_ILO_TRIM_REG & CY_SYS_CLK_ILO_TRIM_MASK));
 177:Generated_Source\PSoC4/CyLFClk.c ****         iloTrimTrig = 1u;
 178:Generated_Source\PSoC4/CyLFClk.c ****     }
 179:Generated_Source\PSoC4/CyLFClk.c **** #endif /* (CY_IP_SRSSV2 && (!(CY_PSOC4_4100 || CY_PSOC4_4200))) */
 180:Generated_Source\PSoC4/CyLFClk.c **** 
 181:Generated_Source\PSoC4/CyLFClk.c ****     /* Configure measurement counters to source by SysClk (Counter 1) and ILO (Counter 2)*/
 182:Generated_Source\PSoC4/CyLFClk.c ****     CY_SYS_CLK_DFT_REG = (CY_SYS_CLK_DFT_REG & (uint32) ~CY_SYS_CLK_DFT_SELECT_DEFAULT_MASK) |
  57              		.loc 1 182 0
  58 0000 074A     		ldr	r2, .L5
  59 0002 084B     		ldr	r3, .L5+4
  60 0004 1168     		ldr	r1, [r2]
 183:Generated_Source\PSoC4/CyLFClk.c ****                             CY_SYS_CLK_SEL_ILO_DFT_SOURCE; 
 184:Generated_Source\PSoC4/CyLFClk.c **** 
 185:Generated_Source\PSoC4/CyLFClk.c ****     CY_SYS_TST_DDFT_CTRL_REG = (CY_SYS_TST_DDFT_CTRL_REG & (uint32) ~ CY_SYS_TST_DDFT_CTRL_REG_DEFA
 186:Generated_Source\PSoC4/CyLFClk.c ****                             CY_SYS_TST_DDFT_CTRL_REG_SEL2_CLK1;
 187:Generated_Source\PSoC4/CyLFClk.c **** }
  61              		.loc 1 187 0
  62              		@ sp needed
 182:Generated_Source\PSoC4/CyLFClk.c ****                             CY_SYS_CLK_SEL_ILO_DFT_SOURCE; 
  63              		.loc 1 182 0
  64 0006 0B40     		and	r3, r1
  65 0008 8021     		mov	r1, #128
  66 000a 4900     		lsl	r1, r1, #1
  67 000c 0B43     		orr	r3, r1
  68 000e 1360     		str	r3, [r2]
 185:Generated_Source\PSoC4/CyLFClk.c ****                             CY_SYS_TST_DDFT_CTRL_REG_SEL2_CLK1;
  69              		.loc 1 185 0
  70 0010 054A     		ldr	r2, .L5+8
  71 0012 064B     		ldr	r3, .L5+12
  72 0014 1168     		ldr	r1, [r2]
  73 0016 0B40     		and	r3, r1
  74 0018 0549     		ldr	r1, .L5+16
  75 001a 0B43     		orr	r3, r1
  76 001c 1360     		str	r3, [r2]
  77              		.loc 1 187 0
  78 001e 7047     		bx	lr
  79              	.L6:
  80              		.align	2
  81              	.L5:
  82 0020 10010B40 		.word	1074462992
  83 0024 FFF0FFFF 		.word	-3841
  84 0028 08000340 		.word	1073938440
  85 002c C0C0FFFF 		.word	-16192
  86 0030 01020000 		.word	513
  87              		.cfi_endproc
  88              	.LFE2:
  89              		.size	CySysClkIloStartMeasurement, .-CySysClkIloStartMeasurement
  90              		.section	.text.CySysClkIloStopMeasurement,"ax",%progbits
  91              		.align	2
  92              		.global	CySysClkIloStopMeasurement
  93              		.code	16
  94              		.thumb_func
  95              		.type	CySysClkIloStopMeasurement, %function
ARM GAS  C:\Users\g\AppData\Local\Temp\ccrBoTzc.s 			page 6


  96              	CySysClkIloStopMeasurement:
  97              	.LFB3:
 188:Generated_Source\PSoC4/CyLFClk.c **** 
 189:Generated_Source\PSoC4/CyLFClk.c **** 
 190:Generated_Source\PSoC4/CyLFClk.c **** /******************************************************************************
 191:Generated_Source\PSoC4/CyLFClk.c **** * Function Name: CySysClkIloStopMeasurement
 192:Generated_Source\PSoC4/CyLFClk.c **** ***************************************************************************//**
 193:Generated_Source\PSoC4/CyLFClk.c **** * \brief
 194:Generated_Source\PSoC4/CyLFClk.c **** * Stops the ILO accuracy measurement.
 195:Generated_Source\PSoC4/CyLFClk.c **** *
 196:Generated_Source\PSoC4/CyLFClk.c **** * Calling this function immediately stops the the ILO frequency measurement.
 197:Generated_Source\PSoC4/CyLFClk.c **** * This function should be called before placing the device to deepsleep, if 
 198:Generated_Source\PSoC4/CyLFClk.c **** * CySysClkIloStartMeasurement() API was called before. 
 199:Generated_Source\PSoC4/CyLFClk.c **** *
 200:Generated_Source\PSoC4/CyLFClk.c **** ******************************************************************************/
 201:Generated_Source\PSoC4/CyLFClk.c **** void CySysClkIloStopMeasurement(void)
 202:Generated_Source\PSoC4/CyLFClk.c **** {
  98              		.loc 1 202 0
  99              		.cfi_startproc
 203:Generated_Source\PSoC4/CyLFClk.c ****     /* Set default configurations in 11...8 DFT register bits to zero */
 204:Generated_Source\PSoC4/CyLFClk.c ****     CY_SYS_CLK_DFT_REG &= ~CY_SYS_CLK_DFT_SELECT_DEFAULT_MASK;
 100              		.loc 1 204 0
 101 0000 024A     		ldr	r2, .L8
 102 0002 034B     		ldr	r3, .L8+4
 103 0004 1168     		ldr	r1, [r2]
 205:Generated_Source\PSoC4/CyLFClk.c ****     #if(CY_IP_SRSSLT)
 206:Generated_Source\PSoC4/CyLFClk.c ****         CY_SYS_TST_DDFT_CTRL_REG &= ((uint32) CY_SYS_TST_DDFT_CTRL_REG_DEFAULT_MASK);
 207:Generated_Source\PSoC4/CyLFClk.c ****     #endif /* (CY_IP_SRSSLT) */
 208:Generated_Source\PSoC4/CyLFClk.c **** }
 104              		.loc 1 208 0
 105              		@ sp needed
 204:Generated_Source\PSoC4/CyLFClk.c ****     #if(CY_IP_SRSSLT)
 106              		.loc 1 204 0
 107 0006 0B40     		and	r3, r1
 108 0008 1360     		str	r3, [r2]
 109              		.loc 1 208 0
 110 000a 7047     		bx	lr
 111              	.L9:
 112              		.align	2
 113              	.L8:
 114 000c 10010B40 		.word	1074462992
 115 0010 FFF0FFFF 		.word	-3841
 116              		.cfi_endproc
 117              	.LFE3:
 118              		.size	CySysClkIloStopMeasurement, .-CySysClkIloStopMeasurement
 119              		.global	__aeabi_uidiv
 120              		.section	.text.CySysClkIloCompensate,"ax",%progbits
 121              		.align	2
 122              		.global	CySysClkIloCompensate
 123              		.code	16
 124              		.thumb_func
 125              		.type	CySysClkIloCompensate, %function
 126              	CySysClkIloCompensate:
 127              	.LFB4:
 209:Generated_Source\PSoC4/CyLFClk.c **** 
 210:Generated_Source\PSoC4/CyLFClk.c **** 
 211:Generated_Source\PSoC4/CyLFClk.c **** /******************************************************************************
ARM GAS  C:\Users\g\AppData\Local\Temp\ccrBoTzc.s 			page 7


 212:Generated_Source\PSoC4/CyLFClk.c **** * Function Name: CySysClkIloCompensate
 213:Generated_Source\PSoC4/CyLFClk.c **** ***************************************************************************//**
 214:Generated_Source\PSoC4/CyLFClk.c **** * \brief
 215:Generated_Source\PSoC4/CyLFClk.c **** * This API measures the current ILO accuracy.
 216:Generated_Source\PSoC4/CyLFClk.c **** *
 217:Generated_Source\PSoC4/CyLFClk.c **** * Basing on the measured frequency the required number of ILO cycles for a 
 218:Generated_Source\PSoC4/CyLFClk.c **** * given delay (in microseconds) is obtained. The desired delay that needs to 
 219:Generated_Source\PSoC4/CyLFClk.c **** * be compensated is passed through the desiredDelay parameter. The compensated 
 220:Generated_Source\PSoC4/CyLFClk.c **** * cycle count is returned through the compesatedCycles pointer.
 221:Generated_Source\PSoC4/CyLFClk.c **** * The compensated ILO cycles can then be used to define the WDT period value, 
 222:Generated_Source\PSoC4/CyLFClk.c **** * effectively compensating for the ILO inaccuracy and allowing a more 
 223:Generated_Source\PSoC4/CyLFClk.c **** * accurate WDT interrupt generation.
 224:Generated_Source\PSoC4/CyLFClk.c **** *
 225:Generated_Source\PSoC4/CyLFClk.c **** * CySysClkIloStartMeasurement() API should be called prior to calling this API. 
 226:Generated_Source\PSoC4/CyLFClk.c **** *
 227:Generated_Source\PSoC4/CyLFClk.c **** * \note SysClk should be sourced by IMO. Otherwise CySysClkIloTrim() and 
 228:Generated_Source\PSoC4/CyLFClk.c **** * CySysClkIloCompensate() API can give incorrect results.
 229:Generated_Source\PSoC4/CyLFClk.c **** *
 230:Generated_Source\PSoC4/CyLFClk.c **** * \note If the System clock frequency is changed in runtime, the CyDelayFreq() 
 231:Generated_Source\PSoC4/CyLFClk.c **** * with the appropriate parameter (Frequency of bus clock in Hertz) should be 
 232:Generated_Source\PSoC4/CyLFClk.c **** * called before calling a next CySysClkIloCompensate().
 233:Generated_Source\PSoC4/CyLFClk.c **** *
 234:Generated_Source\PSoC4/CyLFClk.c **** * \warning Do not enter deep sleep mode until the function returns CYRET_SUCCESS.
 235:Generated_Source\PSoC4/CyLFClk.c **** *
 236:Generated_Source\PSoC4/CyLFClk.c **** * \param desiredDelay Required delay in microseconds.
 237:Generated_Source\PSoC4/CyLFClk.c **** *
 238:Generated_Source\PSoC4/CyLFClk.c **** * \param *compensatedCycles The pointer to the variable in which the required
 239:Generated_Source\PSoC4/CyLFClk.c **** * number of ILO cycles for the given delay will be returned.
 240:Generated_Source\PSoC4/CyLFClk.c **** *
 241:Generated_Source\PSoC4/CyLFClk.c **** * \details
 242:Generated_Source\PSoC4/CyLFClk.c **** * The value returned in *compensatedCycles pointer is not valid until the 
 243:Generated_Source\PSoC4/CyLFClk.c **** * function returns CYRET_SUCCESS.
 244:Generated_Source\PSoC4/CyLFClk.c **** *
 245:Generated_Source\PSoC4/CyLFClk.c **** * The desiredDelay parameter value should be in next range: <br>From 100 to 
 246:Generated_Source\PSoC4/CyLFClk.c **** * 2 000 000 microseconds for PSoC 4000 / PSoC 4000S / PSoC 4100S / PSoC Analog 
 247:Generated_Source\PSoC4/CyLFClk.c **** * Coprocessor devices.<br>From 100 to 4 000 000 000 microseconds for 
 248:Generated_Source\PSoC4/CyLFClk.c **** * PSoC 4100 / PSoC 4200 / PSoC 4100 BLE / PSoC 4200 BLE / PRoC BLE /
 249:Generated_Source\PSoC4/CyLFClk.c **** * PSoC 4200L / PSoC 4100M /PSoC 4200M devices.
 250:Generated_Source\PSoC4/CyLFClk.c **** *
 251:Generated_Source\PSoC4/CyLFClk.c **** * \return CYRET_SUCCESS - The compensation process is complete and the 
 252:Generated_Source\PSoC4/CyLFClk.c **** * compensated cycles value is returned in the compensatedCycles pointer.
 253:Generated_Source\PSoC4/CyLFClk.c **** *
 254:Generated_Source\PSoC4/CyLFClk.c **** * \return CYRET_STARTED - Indicates measurement is in progress. It is 
 255:Generated_Source\PSoC4/CyLFClk.c **** * strongly recommended to do not make pauses between API calling. The 
 256:Generated_Source\PSoC4/CyLFClk.c **** * function should be called repeatedly until the API returns CYRET_SUCCESS.
 257:Generated_Source\PSoC4/CyLFClk.c **** *
 258:Generated_Source\PSoC4/CyLFClk.c **** * \return CYRET_INVALID_STATE - Indicates that measurement not started. 
 259:Generated_Source\PSoC4/CyLFClk.c **** * The user should call CySysClkIloStartMeasurement() API before calling 
 260:Generated_Source\PSoC4/CyLFClk.c **** * this API.
 261:Generated_Source\PSoC4/CyLFClk.c **** *
 262:Generated_Source\PSoC4/CyLFClk.c **** * \note For a correct WDT or DeepSleep Timers functioning with ILO compensating 
 263:Generated_Source\PSoC4/CyLFClk.c **** * the CySysClkIloCompensate() should be called before WDT or DeepSleep Timers 
 264:Generated_Source\PSoC4/CyLFClk.c **** * enabling.
 265:Generated_Source\PSoC4/CyLFClk.c **** *
 266:Generated_Source\PSoC4/CyLFClk.c **** *******************************************************************************/
 267:Generated_Source\PSoC4/CyLFClk.c **** cystatus CySysClkIloCompensate(uint32 desiredDelay , uint32* compensatedCycles)
 268:Generated_Source\PSoC4/CyLFClk.c **** {
ARM GAS  C:\Users\g\AppData\Local\Temp\ccrBoTzc.s 			page 8


 128              		.loc 1 268 0
 129              		.cfi_startproc
 130              	.LVL0:
 131 0000 F0B5     		push	{r4, r5, r6, r7, lr}
 132              		.cfi_def_cfa_offset 20
 133              		.cfi_offset 4, -20
 134              		.cfi_offset 5, -16
 135              		.cfi_offset 6, -12
 136              		.cfi_offset 7, -8
 137              		.cfi_offset 14, -4
 138 0002 4746     		mov	r7, r8
 269:Generated_Source\PSoC4/CyLFClk.c ****     uint32 iloCompensatedCycles;
 270:Generated_Source\PSoC4/CyLFClk.c ****     uint32 desiredDelayInCounts;
 271:Generated_Source\PSoC4/CyLFClk.c ****     static uint32 compensateRunningStatus = CY_SYS_CLK_TRIM_OR_COMP_FINISHED;
 272:Generated_Source\PSoC4/CyLFClk.c ****     uint32 checkStatus;
 273:Generated_Source\PSoC4/CyLFClk.c ****     cystatus returnStatus;
 274:Generated_Source\PSoC4/CyLFClk.c **** 
 275:Generated_Source\PSoC4/CyLFClk.c ****     checkStatus = (uint32) (CY_SYS_CLK_DFT_REG & (uint32) CY_SYS_TST_DDFT_CTRL_REG_DEFAULT_MASK);
 276:Generated_Source\PSoC4/CyLFClk.c **** 
 277:Generated_Source\PSoC4/CyLFClk.c ****     /* Check if CySysStartMeasurement was called before */
 278:Generated_Source\PSoC4/CyLFClk.c ****     if((checkStatus == CY_SYS_CLK_SEL_ILO_DFT_SOURCE) && 
 139              		.loc 1 278 0
 140 0004 8024     		mov	r4, #128
 275:Generated_Source\PSoC4/CyLFClk.c **** 
 141              		.loc 1 275 0
 142 0006 304B     		ldr	r3, .L25
 268:Generated_Source\PSoC4/CyLFClk.c ****     uint32 iloCompensatedCycles;
 143              		.loc 1 268 0
 144 0008 80B4     		push	{r7}
 145              		.cfi_def_cfa_offset 24
 146              		.cfi_offset 8, -24
 275:Generated_Source\PSoC4/CyLFClk.c **** 
 147              		.loc 1 275 0
 148 000a 1A68     		ldr	r2, [r3]
 149              	.LVL1:
 150 000c 2F4B     		ldr	r3, .L25+4
 151              		.loc 1 278 0
 152 000e 6400     		lsl	r4, r4, #1
 275:Generated_Source\PSoC4/CyLFClk.c **** 
 153              		.loc 1 275 0
 154 0010 1340     		and	r3, r2
 155              	.LVL2:
 279:Generated_Source\PSoC4/CyLFClk.c ****        (CY_SYS_TST_DDFT_CTRL_REG == CY_SYS_TST_DDFT_CTRL_REG_SEL2_CLK1) &&
 280:Generated_Source\PSoC4/CyLFClk.c ****        (CY_SYS_CLK_MAX_DELAY_US >= desiredDelay) &&
 281:Generated_Source\PSoC4/CyLFClk.c ****        (CY_SYS_CLK_MIN_DELAY_US <= desiredDelay) &&
 282:Generated_Source\PSoC4/CyLFClk.c ****        (compensatedCycles !=  NULL))
 283:Generated_Source\PSoC4/CyLFClk.c ****     {
 284:Generated_Source\PSoC4/CyLFClk.c ****         if(CY_SYS_CLK_TRIM_OR_COMP_FINISHED != compensateRunningStatus)
 285:Generated_Source\PSoC4/CyLFClk.c ****         {
 286:Generated_Source\PSoC4/CyLFClk.c ****             /* Wait until counter 1 stopped counting and after it calculate compensated cycles */
 287:Generated_Source\PSoC4/CyLFClk.c ****             if(0u != (CY_SYS_CNT_REG1_REG & CY_SYS_CLK_ILO_CALIBR_COMPLETE_MASK))
 288:Generated_Source\PSoC4/CyLFClk.c ****             {
 289:Generated_Source\PSoC4/CyLFClk.c ****                 if (0u != CY_SYS_CNT_REG2_REG)
 290:Generated_Source\PSoC4/CyLFClk.c ****                 {
 291:Generated_Source\PSoC4/CyLFClk.c ****                     /* Calculate required number of ILO cycles for given delay */
 292:Generated_Source\PSoC4/CyLFClk.c ****                     #if(CY_IP_SRSSV2)
 293:Generated_Source\PSoC4/CyLFClk.c ****                         if (CY_SYS_CLK_DELAY_COUNTS_LIMIT < desiredDelay)
ARM GAS  C:\Users\g\AppData\Local\Temp\ccrBoTzc.s 			page 9


 294:Generated_Source\PSoC4/CyLFClk.c ****                         {
 295:Generated_Source\PSoC4/CyLFClk.c ****                             desiredDelayInCounts = (desiredDelay / CY_SYS_CLK_ILO_PERIOD);
 296:Generated_Source\PSoC4/CyLFClk.c ****                             iloCompensatedCycles = 
 297:Generated_Source\PSoC4/CyLFClk.c ****                             (((CY_SYS_CNT_REG2_REG * cydelayFreqHz) / (cydelayFreqHz >> CY_SYS_CLK_
 298:Generated_Source\PSoC4/CyLFClk.c ****                                 CY_SYS_CLK_ILO_FREQ_2MSB) * (desiredDelayInCounts / CY_SYS_CLK_ILO_
 299:Generated_Source\PSoC4/CyLFClk.c ****                         }
 300:Generated_Source\PSoC4/CyLFClk.c ****                         else
 301:Generated_Source\PSoC4/CyLFClk.c ****                         {
 302:Generated_Source\PSoC4/CyLFClk.c ****                             desiredDelayInCounts = ((desiredDelay * CY_SYS_CLK_COEF_PHUNDRED) + 
 303:Generated_Source\PSoC4/CyLFClk.c ****                                                      CY_SYS_CLK_HALF_OF_CLOCK) / CY_SYS_CLK_ILO_PER
 304:Generated_Source\PSoC4/CyLFClk.c **** 
 305:Generated_Source\PSoC4/CyLFClk.c ****                             iloCompensatedCycles = (((CY_SYS_CNT_REG2_REG * cydelayFreqHz) / 
 306:Generated_Source\PSoC4/CyLFClk.c ****                                                      (cydelayFreqHz >> CY_SYS_CLK_SYS_CLK_DEVIDER))
 307:Generated_Source\PSoC4/CyLFClk.c ****                                                      desiredDelayInCounts) / CY_SYS_CLK_ILO_DESIRED
 308:Generated_Source\PSoC4/CyLFClk.c ****                         }
 309:Generated_Source\PSoC4/CyLFClk.c ****                     #else /* (CY_IP_SRSSLT) */
 310:Generated_Source\PSoC4/CyLFClk.c ****                         desiredDelayInCounts = ((desiredDelay * CY_SYS_CLK_COEF_PHUNDRED) + CY_SYS_
 311:Generated_Source\PSoC4/CyLFClk.c ****                                                                                            CY_SYS_C
 312:Generated_Source\PSoC4/CyLFClk.c ****                         if(CY_SYS_CLK_MAX_LITE_NUMBER < desiredDelayInCounts)
 313:Generated_Source\PSoC4/CyLFClk.c ****                         {
 314:Generated_Source\PSoC4/CyLFClk.c ****                             iloCompensatedCycles = (((CY_SYS_CNT_REG2_REG * cydelayFreqHz) / (cydel
 315:Generated_Source\PSoC4/CyLFClk.c ****                                                    CY_SYS_CLK_SYS_CLK_DEVIDER)) / CY_SYS_CLK_ILO_FR
 316:Generated_Source\PSoC4/CyLFClk.c ****                                                    (desiredDelayInCounts / CY_SYS_CLK_ILO_FREQ_3LSB
 317:Generated_Source\PSoC4/CyLFClk.c ****                         }
 318:Generated_Source\PSoC4/CyLFClk.c ****                         else
 319:Generated_Source\PSoC4/CyLFClk.c ****                         {
 320:Generated_Source\PSoC4/CyLFClk.c ****                             iloCompensatedCycles = (((CY_SYS_CNT_REG2_REG * cydelayFreqHz) / 
 321:Generated_Source\PSoC4/CyLFClk.c ****                                                      (cydelayFreqHz >> CY_SYS_CLK_SYS_CLK_DEVIDER))
 322:Generated_Source\PSoC4/CyLFClk.c ****                                                      desiredDelayInCounts) / CY_SYS_CLK_ILO_DESIRED
 323:Generated_Source\PSoC4/CyLFClk.c ****                         }
 324:Generated_Source\PSoC4/CyLFClk.c ****                     #endif /* (CY_IP_SRSSV2) */
 325:Generated_Source\PSoC4/CyLFClk.c **** 
 326:Generated_Source\PSoC4/CyLFClk.c ****                     *compensatedCycles = iloCompensatedCycles;
 327:Generated_Source\PSoC4/CyLFClk.c ****                     compensateRunningStatus = CY_SYS_CLK_TRIM_OR_COMP_FINISHED;
 328:Generated_Source\PSoC4/CyLFClk.c ****                     returnStatus = CYRET_SUCCESS;
 329:Generated_Source\PSoC4/CyLFClk.c ****                 }
 330:Generated_Source\PSoC4/CyLFClk.c ****                 else
 331:Generated_Source\PSoC4/CyLFClk.c ****                 {
 332:Generated_Source\PSoC4/CyLFClk.c ****                     returnStatus  = CYRET_INVALID_STATE;
 333:Generated_Source\PSoC4/CyLFClk.c ****                 }
 334:Generated_Source\PSoC4/CyLFClk.c ****             }
 335:Generated_Source\PSoC4/CyLFClk.c ****             else
 336:Generated_Source\PSoC4/CyLFClk.c ****             {
 337:Generated_Source\PSoC4/CyLFClk.c ****                 returnStatus = CYRET_STARTED;
 338:Generated_Source\PSoC4/CyLFClk.c ****             }
 339:Generated_Source\PSoC4/CyLFClk.c ****         }
 340:Generated_Source\PSoC4/CyLFClk.c ****         else
 341:Generated_Source\PSoC4/CyLFClk.c ****         {
 342:Generated_Source\PSoC4/CyLFClk.c ****             /* Reload CNTR 1 count value for next measurement cycle*/
 343:Generated_Source\PSoC4/CyLFClk.c ****             CY_SYS_CNT_REG1_REG = (cydelayFreqHz >> CY_SYS_CLK_SYS_CLK_DEVIDER);
 344:Generated_Source\PSoC4/CyLFClk.c ****             compensateRunningStatus = CY_SYS_CLK_TRIM_OR_COMP_STARTED;
 345:Generated_Source\PSoC4/CyLFClk.c ****             returnStatus = CYRET_STARTED;
 346:Generated_Source\PSoC4/CyLFClk.c ****         }
 347:Generated_Source\PSoC4/CyLFClk.c ****     }
 348:Generated_Source\PSoC4/CyLFClk.c ****     else
 349:Generated_Source\PSoC4/CyLFClk.c ****     {
 350:Generated_Source\PSoC4/CyLFClk.c ****         returnStatus = CYRET_INVALID_STATE;
ARM GAS  C:\Users\g\AppData\Local\Temp\ccrBoTzc.s 			page 10


 156              		.loc 1 350 0
 157 0012 1122     		mov	r2, #17
 278:Generated_Source\PSoC4/CyLFClk.c ****        (CY_SYS_TST_DDFT_CTRL_REG == CY_SYS_TST_DDFT_CTRL_REG_SEL2_CLK1) &&
 158              		.loc 1 278 0
 159 0014 A342     		cmp	r3, r4
 160 0016 03D0     		beq	.L23
 161              	.LVL3:
 162              	.L11:
 351:Generated_Source\PSoC4/CyLFClk.c ****     }
 352:Generated_Source\PSoC4/CyLFClk.c **** 
 353:Generated_Source\PSoC4/CyLFClk.c ****     return (returnStatus);
 354:Generated_Source\PSoC4/CyLFClk.c **** }
 163              		.loc 1 354 0
 164 0018 101C     		mov	r0, r2
 165              		@ sp needed
 166 001a 04BC     		pop	{r2}
 167 001c 9046     		mov	r8, r2
 168 001e F0BD     		pop	{r4, r5, r6, r7, pc}
 169              	.LVL4:
 170              	.L23:
 279:Generated_Source\PSoC4/CyLFClk.c ****        (CY_SYS_CLK_MAX_DELAY_US >= desiredDelay) &&
 171              		.loc 1 279 0 discriminator 1
 172 0020 2B4B     		ldr	r3, .L25+8
 173              	.LVL5:
 174 0022 1C68     		ldr	r4, [r3]
 278:Generated_Source\PSoC4/CyLFClk.c ****        (CY_SYS_TST_DDFT_CTRL_REG == CY_SYS_TST_DDFT_CTRL_REG_SEL2_CLK1) &&
 175              		.loc 1 278 0 discriminator 1
 176 0024 2B4B     		ldr	r3, .L25+12
 177 0026 9C42     		cmp	r4, r3
 178 0028 F6D1     		bne	.L11
 280:Generated_Source\PSoC4/CyLFClk.c ****        (CY_SYS_CLK_MIN_DELAY_US <= desiredDelay) &&
 179              		.loc 1 280 0
 180 002a 041C     		mov	r4, r0
 181 002c 2A4B     		ldr	r3, .L25+16
 182 002e 643C     		sub	r4, r4, #100
 183 0030 9C42     		cmp	r4, r3
 184 0032 F1D8     		bhi	.L11
 281:Generated_Source\PSoC4/CyLFClk.c ****        (compensatedCycles !=  NULL))
 185              		.loc 1 281 0
 186 0034 0029     		cmp	r1, #0
 187 0036 EFD0     		beq	.L11
 284:Generated_Source\PSoC4/CyLFClk.c ****         {
 188              		.loc 1 284 0
 189 0038 284C     		ldr	r4, .L25+20
 190 003a 2368     		ldr	r3, [r4]
 191 003c 002B     		cmp	r3, #0
 192 003e 08D1     		bne	.L24
 343:Generated_Source\PSoC4/CyLFClk.c ****             compensateRunningStatus = CY_SYS_CLK_TRIM_OR_COMP_STARTED;
 193              		.loc 1 343 0
 194 0040 274B     		ldr	r3, .L25+24
 195 0042 284A     		ldr	r2, .L25+28
 196 0044 1B68     		ldr	r3, [r3]
 197 0046 9B0A     		lsr	r3, r3, #10
 198 0048 1360     		str	r3, [r2]
 344:Generated_Source\PSoC4/CyLFClk.c ****             returnStatus = CYRET_STARTED;
 199              		.loc 1 344 0
 200 004a 0123     		mov	r3, #1
ARM GAS  C:\Users\g\AppData\Local\Temp\ccrBoTzc.s 			page 11


 345:Generated_Source\PSoC4/CyLFClk.c ****         }
 201              		.loc 1 345 0
 202 004c 0722     		mov	r2, #7
 344:Generated_Source\PSoC4/CyLFClk.c ****             returnStatus = CYRET_STARTED;
 203              		.loc 1 344 0
 204 004e 2360     		str	r3, [r4]
 205              	.LVL6:
 206 0050 E2E7     		b	.L11
 207              	.LVL7:
 208              	.L24:
 287:Generated_Source\PSoC4/CyLFClk.c ****             {
 209              		.loc 1 287 0
 210 0052 244B     		ldr	r3, .L25+28
 337:Generated_Source\PSoC4/CyLFClk.c ****             }
 211              		.loc 1 337 0
 212 0054 0A3A     		sub	r2, r2, #10
 287:Generated_Source\PSoC4/CyLFClk.c ****             {
 213              		.loc 1 287 0
 214 0056 1B68     		ldr	r3, [r3]
 215 0058 002B     		cmp	r3, #0
 216 005a DDDA     		bge	.L11
 289:Generated_Source\PSoC4/CyLFClk.c ****                 {
 217              		.loc 1 289 0
 218 005c 224B     		ldr	r3, .L25+32
 350:Generated_Source\PSoC4/CyLFClk.c ****     }
 219              		.loc 1 350 0
 220 005e 0A32     		add	r2, r2, #10
 289:Generated_Source\PSoC4/CyLFClk.c ****                 {
 221              		.loc 1 289 0
 222 0060 1D68     		ldr	r5, [r3]
 223 0062 002D     		cmp	r5, #0
 224 0064 D8D0     		beq	.L11
 297:Generated_Source\PSoC4/CyLFClk.c ****                                 CY_SYS_CLK_ILO_FREQ_2MSB) * (desiredDelayInCounts / CY_SYS_CLK_ILO_
 225              		.loc 1 297 0
 226 0066 1F68     		ldr	r7, [r3]
 293:Generated_Source\PSoC4/CyLFClk.c ****                         {
 227              		.loc 1 293 0
 228 0068 204A     		ldr	r2, .L25+36
 297:Generated_Source\PSoC4/CyLFClk.c ****                                 CY_SYS_CLK_ILO_FREQ_2MSB) * (desiredDelayInCounts / CY_SYS_CLK_ILO_
 229              		.loc 1 297 0
 230 006a 1D4B     		ldr	r3, .L25+24
 231 006c 0D1C     		mov	r5, r1
 232 006e 1E68     		ldr	r6, [r3]
 293:Generated_Source\PSoC4/CyLFClk.c ****                         {
 233              		.loc 1 293 0
 234 0070 9042     		cmp	r0, r2
 235 0072 13D9     		bls	.L13
 236              	.LVL8:
 295:Generated_Source\PSoC4/CyLFClk.c ****                             iloCompensatedCycles = 
 237              		.loc 1 295 0
 238 0074 1F21     		mov	r1, #31
 239              	.LVL9:
 240 0076 FFF7FEFF 		bl	__aeabi_uidiv
 241              	.LVL10:
 298:Generated_Source\PSoC4/CyLFClk.c ****                         }
 242              		.loc 1 298 0
 243 007a FA21     		mov	r1, #250
ARM GAS  C:\Users\g\AppData\Local\Temp\ccrBoTzc.s 			page 12


 244 007c 8900     		lsl	r1, r1, #2
 245 007e FFF7FEFF 		bl	__aeabi_uidiv
 246              	.LVL11:
 247 0082 8046     		mov	r8, r0
 297:Generated_Source\PSoC4/CyLFClk.c ****                                 CY_SYS_CLK_ILO_FREQ_2MSB) * (desiredDelayInCounts / CY_SYS_CLK_ILO_
 248              		.loc 1 297 0
 249 0084 381C     		mov	r0, r7
 250 0086 B10A     		lsr	r1, r6, #10
 251 0088 7043     		mul	r0, r6
 252 008a FFF7FEFF 		bl	__aeabi_uidiv
 253              	.LVL12:
 296:Generated_Source\PSoC4/CyLFClk.c ****                             (((CY_SYS_CNT_REG2_REG * cydelayFreqHz) / (cydelayFreqHz >> CY_SYS_CLK_
 254              		.loc 1 296 0
 255 008e 4346     		mov	r3, r8
 297:Generated_Source\PSoC4/CyLFClk.c ****                                 CY_SYS_CLK_ILO_FREQ_2MSB) * (desiredDelayInCounts / CY_SYS_CLK_ILO_
 256              		.loc 1 297 0
 257 0090 4009     		lsr	r0, r0, #5
 296:Generated_Source\PSoC4/CyLFClk.c ****                             (((CY_SYS_CNT_REG2_REG * cydelayFreqHz) / (cydelayFreqHz >> CY_SYS_CLK_
 258              		.loc 1 296 0
 259 0092 5843     		mul	r0, r3
 260              	.LVL13:
 261              	.L14:
 327:Generated_Source\PSoC4/CyLFClk.c ****                     returnStatus = CYRET_SUCCESS;
 262              		.loc 1 327 0
 263 0094 0022     		mov	r2, #0
 326:Generated_Source\PSoC4/CyLFClk.c ****                     compensateRunningStatus = CY_SYS_CLK_TRIM_OR_COMP_FINISHED;
 264              		.loc 1 326 0
 265 0096 2860     		str	r0, [r5]
 327:Generated_Source\PSoC4/CyLFClk.c ****                     returnStatus = CYRET_SUCCESS;
 266              		.loc 1 327 0
 267 0098 2260     		str	r2, [r4]
 268              	.LVL14:
 269 009a BDE7     		b	.L11
 270              	.LVL15:
 271              	.L13:
 302:Generated_Source\PSoC4/CyLFClk.c ****                                                      CY_SYS_CLK_HALF_OF_CLOCK) / CY_SYS_CLK_ILO_PER
 272              		.loc 1 302 0
 273 009c 6423     		mov	r3, #100
 274 009e 5843     		mul	r0, r3
 275              	.LVL16:
 276 00a0 134B     		ldr	r3, .L25+40
 277 00a2 1449     		ldr	r1, .L25+44
 278              	.LVL17:
 279 00a4 9C46     		mov	ip, r3
 280 00a6 6044     		add	r0, r0, ip
 281 00a8 FFF7FEFF 		bl	__aeabi_uidiv
 282              	.LVL18:
 283 00ac 8046     		mov	r8, r0
 305:Generated_Source\PSoC4/CyLFClk.c ****                                                      (cydelayFreqHz >> CY_SYS_CLK_SYS_CLK_DEVIDER))
 284              		.loc 1 305 0
 285 00ae 381C     		mov	r0, r7
 306:Generated_Source\PSoC4/CyLFClk.c ****                                                      desiredDelayInCounts) / CY_SYS_CLK_ILO_DESIRED
 286              		.loc 1 306 0
 287 00b0 B10A     		lsr	r1, r6, #10
 305:Generated_Source\PSoC4/CyLFClk.c ****                                                      (cydelayFreqHz >> CY_SYS_CLK_SYS_CLK_DEVIDER))
 288              		.loc 1 305 0
 289 00b2 7043     		mul	r0, r6
ARM GAS  C:\Users\g\AppData\Local\Temp\ccrBoTzc.s 			page 13


 290 00b4 FFF7FEFF 		bl	__aeabi_uidiv
 291              	.LVL19:
 306:Generated_Source\PSoC4/CyLFClk.c ****                                                      desiredDelayInCounts) / CY_SYS_CLK_ILO_DESIRED
 292              		.loc 1 306 0
 293 00b8 4346     		mov	r3, r8
 305:Generated_Source\PSoC4/CyLFClk.c ****                                                      (cydelayFreqHz >> CY_SYS_CLK_SYS_CLK_DEVIDER))
 294              		.loc 1 305 0
 295 00ba FA21     		mov	r1, #250
 306:Generated_Source\PSoC4/CyLFClk.c ****                                                      desiredDelayInCounts) / CY_SYS_CLK_ILO_DESIRED
 296              		.loc 1 306 0
 297 00bc 5843     		mul	r0, r3
 305:Generated_Source\PSoC4/CyLFClk.c ****                                                      (cydelayFreqHz >> CY_SYS_CLK_SYS_CLK_DEVIDER))
 298              		.loc 1 305 0
 299 00be C901     		lsl	r1, r1, #7
 300 00c0 FFF7FEFF 		bl	__aeabi_uidiv
 301              	.LVL20:
 302 00c4 E6E7     		b	.L14
 303              	.L26:
 304 00c6 C046     		.align	2
 305              	.L25:
 306 00c8 10010B40 		.word	1074462992
 307 00cc 3F3F0000 		.word	16191
 308 00d0 08000340 		.word	1073938440
 309 00d4 01020000 		.word	513
 310 00d8 9C276BEE 		.word	-294967396
 311 00dc 00000000 		.word	.LANCHOR0
 312 00e0 00000000 		.word	cydelayFreqHz
 313 00e4 18000340 		.word	1073938456
 314 00e8 1C000340 		.word	1073938460
 315 00ec 60D10000 		.word	53600
 316 00f0 0D030000 		.word	781
 317 00f4 350C0000 		.word	3125
 318              		.cfi_endproc
 319              	.LFE4:
 320              		.size	CySysClkIloCompensate, .-CySysClkIloCompensate
 321              		.section	.text.CySysWdtLock,"ax",%progbits
 322              		.align	2
 323              		.global	CySysWdtLock
 324              		.code	16
 325              		.thumb_func
 326              		.type	CySysWdtLock, %function
 327              	CySysWdtLock:
 328              	.LFB6:
 355:Generated_Source\PSoC4/CyLFClk.c **** 
 356:Generated_Source\PSoC4/CyLFClk.c **** 
 357:Generated_Source\PSoC4/CyLFClk.c **** #if(CY_IP_SRSSV2)
 358:Generated_Source\PSoC4/CyLFClk.c ****     /*******************************************************************************
 359:Generated_Source\PSoC4/CyLFClk.c ****     * Function Name: CySysClkIloEnabled
 360:Generated_Source\PSoC4/CyLFClk.c ****     ****************************************************************************//**
 361:Generated_Source\PSoC4/CyLFClk.c ****     *
 362:Generated_Source\PSoC4/CyLFClk.c ****     * \internal
 363:Generated_Source\PSoC4/CyLFClk.c ****     * Reports the ILO enable state.
 364:Generated_Source\PSoC4/CyLFClk.c ****     *
 365:Generated_Source\PSoC4/CyLFClk.c ****     * \return
 366:Generated_Source\PSoC4/CyLFClk.c ****     * 1 if ILO is enabled, and 0 if ILO is disabled.
 367:Generated_Source\PSoC4/CyLFClk.c ****     *
 368:Generated_Source\PSoC4/CyLFClk.c ****     * \endinternal
ARM GAS  C:\Users\g\AppData\Local\Temp\ccrBoTzc.s 			page 14


 369:Generated_Source\PSoC4/CyLFClk.c ****     ********************************************************************************/
 370:Generated_Source\PSoC4/CyLFClk.c ****     static uint32 CySysClkIloEnabled(void)
 371:Generated_Source\PSoC4/CyLFClk.c ****     {
 372:Generated_Source\PSoC4/CyLFClk.c ****         /* Prohibits writing to WDT registers and ILO/WCO registers when not equal to 0 */
 373:Generated_Source\PSoC4/CyLFClk.c ****         return ((0u != (CY_SYS_CLK_ILO_CONFIG_REG & (uint32)(CY_SYS_CLK_ILO_CONFIG_ENABLE))) ?
 374:Generated_Source\PSoC4/CyLFClk.c ****             (uint32) 1u :
 375:Generated_Source\PSoC4/CyLFClk.c ****             (uint32) 0u);
 376:Generated_Source\PSoC4/CyLFClk.c ****     }
 377:Generated_Source\PSoC4/CyLFClk.c **** #endif /* (CY_IP_SRSSV2) */
 378:Generated_Source\PSoC4/CyLFClk.c **** 
 379:Generated_Source\PSoC4/CyLFClk.c **** 
 380:Generated_Source\PSoC4/CyLFClk.c **** #if(CY_IP_SRSSV2 && (!(CY_PSOC4_4100 || CY_PSOC4_4200)))
 381:Generated_Source\PSoC4/CyLFClk.c **** /********************************************************************************
 382:Generated_Source\PSoC4/CyLFClk.c **** * Function Name: CySysClkIloTrim
 383:Generated_Source\PSoC4/CyLFClk.c **** *****************************************************************************//**
 384:Generated_Source\PSoC4/CyLFClk.c **** * \brief
 385:Generated_Source\PSoC4/CyLFClk.c **** * The API trims the ILO frequency to +/- 10% accuracy range using accurate 
 386:Generated_Source\PSoC4/CyLFClk.c **** * SysClk.
 387:Generated_Source\PSoC4/CyLFClk.c **** *
 388:Generated_Source\PSoC4/CyLFClk.c **** * The API can be blocking or non-blocking depending on the value of the mode 
 389:Generated_Source\PSoC4/CyLFClk.c **** * parameter passed. The accuracy of ILO after trimming in parts per thousand 
 390:Generated_Source\PSoC4/CyLFClk.c **** * is returned through the iloAccuracyInPPT pointer. A positive number indicates 
 391:Generated_Source\PSoC4/CyLFClk.c **** * that the ILO is running fast and a negative number indicates that the ILO is 
 392:Generated_Source\PSoC4/CyLFClk.c **** * running slowly. This error is relative to the error in the reference clock 
 393:Generated_Source\PSoC4/CyLFClk.c **** * (SysClk), so the absolute error will be higher and depends on the accuracy 
 394:Generated_Source\PSoC4/CyLFClk.c **** * of the reference.
 395:Generated_Source\PSoC4/CyLFClk.c **** *
 396:Generated_Source\PSoC4/CyLFClk.c **** * The CySysClkIloStartMeasurement() API should be called prior to calling this 
 397:Generated_Source\PSoC4/CyLFClk.c **** * API. Otherwise it will return CYRET_INVALID_STATE as the measurement was not 
 398:Generated_Source\PSoC4/CyLFClk.c **** * started.
 399:Generated_Source\PSoC4/CyLFClk.c **** *
 400:Generated_Source\PSoC4/CyLFClk.c **** * \note SysClk should be sourced by IMO. Otherwise CySysClkIloTrim() and 
 401:Generated_Source\PSoC4/CyLFClk.c **** * CySysClkIloCompensate() API can give incorrect results.
 402:Generated_Source\PSoC4/CyLFClk.c **** *
 403:Generated_Source\PSoC4/CyLFClk.c **** * \note If System clock frequency is changed in runtime, the CyDelayFreq() 
 404:Generated_Source\PSoC4/CyLFClk.c **** * with the appropriate parameter (Frequency of bus clock in Hertz) should be 
 405:Generated_Source\PSoC4/CyLFClk.c **** * called before next CySysClkIloCompensate() usage.
 406:Generated_Source\PSoC4/CyLFClk.c **** *
 407:Generated_Source\PSoC4/CyLFClk.c **** * \warning Do not enter deep sleep mode until the function returns CYRET_SUCCESS
 408:Generated_Source\PSoC4/CyLFClk.c **** * or CYRET_TIMEOUT.
 409:Generated_Source\PSoC4/CyLFClk.c **** *
 410:Generated_Source\PSoC4/CyLFClk.c **** * Available for all PSoC 4 devices with ILO trim capability. This excludes 
 411:Generated_Source\PSoC4/CyLFClk.c **** * PSoC 4000 / PSoC 4100 / PSoC 4200 / PSoC 4000S / PSoC 4100S / PSoC
 412:Generated_Source\PSoC4/CyLFClk.c **** * Analog Coprocessor devices.
 413:Generated_Source\PSoC4/CyLFClk.c **** *
 414:Generated_Source\PSoC4/CyLFClk.c **** * \param mode
 415:Generated_Source\PSoC4/CyLFClk.c **** *  CY_SYS_CLK_BLOCKING -  The function does not return until the ILO is 
 416:Generated_Source\PSoC4/CyLFClk.c **** * within +/-10% accuracy range or time out has occurred.<br>
 417:Generated_Source\PSoC4/CyLFClk.c **** * CY_SYS_CLK_NON_BLOCKING - The function returns immediately after 
 418:Generated_Source\PSoC4/CyLFClk.c **** * performing a single iteration of the trim process. The function should be 
 419:Generated_Source\PSoC4/CyLFClk.c **** * called repeatedly until the trimming is completed successfully.
 420:Generated_Source\PSoC4/CyLFClk.c **** *
 421:Generated_Source\PSoC4/CyLFClk.c **** * \param *iloAccuracyInPPT Pointer to an integer in which the trimmed ILO 
 422:Generated_Source\PSoC4/CyLFClk.c **** * accuracy will be returned.
 423:Generated_Source\PSoC4/CyLFClk.c **** *
 424:Generated_Source\PSoC4/CyLFClk.c **** * \details The value returned in *iloAccuracyInPPT pointer is not valid 
 425:Generated_Source\PSoC4/CyLFClk.c **** * until the function returns CYRET_SUCCESS. ILO accuracy in PPT is given by:
ARM GAS  C:\Users\g\AppData\Local\Temp\ccrBoTzc.s 			page 15


 426:Generated_Source\PSoC4/CyLFClk.c **** *
 427:Generated_Source\PSoC4/CyLFClk.c **** * IloAccuracyInPPT = ((MeasuredIloFreq - DesiredIloFreq) * 
 428:Generated_Source\PSoC4/CyLFClk.c **** * CY_SYS_CLK_PERTHOUSAND) / DesiredIloFreq);
 429:Generated_Source\PSoC4/CyLFClk.c **** *
 430:Generated_Source\PSoC4/CyLFClk.c **** * DesiredIloFreq  = 32000, CY_SYS_CLK_PERTHOUSAND = 1000;
 431:Generated_Source\PSoC4/CyLFClk.c **** *
 432:Generated_Source\PSoC4/CyLFClk.c **** * \return CYRET_SUCCESS - Indicates trimming is complete. This value indicates 
 433:Generated_Source\PSoC4/CyLFClk.c **** * trimming is successful and iloAccuracyInPPT is within +/- 10%.
 434:Generated_Source\PSoC4/CyLFClk.c **** *
 435:Generated_Source\PSoC4/CyLFClk.c **** * \return CYRET_STARTED - Indicates measurement is in progress. This is applicable 
 436:Generated_Source\PSoC4/CyLFClk.c **** * only for non-blocking mode.
 437:Generated_Source\PSoC4/CyLFClk.c **** *
 438:Generated_Source\PSoC4/CyLFClk.c **** * \return CYRET_INVALID_STATE - Indicates trimming was unsuccessful. You should 
 439:Generated_Source\PSoC4/CyLFClk.c **** * call CySysClkIloStartMeasurement() before calling this API.
 440:Generated_Source\PSoC4/CyLFClk.c **** *
 441:Generated_Source\PSoC4/CyLFClk.c **** * \return CYRET_TIMEOUT - Indicates trimming was unsuccessful. This is applicable 
 442:Generated_Source\PSoC4/CyLFClk.c **** * only for blocking mode. Timeout means the trimming was tried 5 times without 
 443:Generated_Source\PSoC4/CyLFClk.c **** * success (i.e. ILO accuracy > +/- 10%). The user can call the API again for 
 444:Generated_Source\PSoC4/CyLFClk.c **** * another try or wait for some time before calling it again (to let the system 
 445:Generated_Source\PSoC4/CyLFClk.c **** * to settle to another operating point change in temperature etc.) and continue 
 446:Generated_Source\PSoC4/CyLFClk.c **** * using the previous trim value till the next call.
 447:Generated_Source\PSoC4/CyLFClk.c **** *
 448:Generated_Source\PSoC4/CyLFClk.c **** **********************************************************************************/
 449:Generated_Source\PSoC4/CyLFClk.c **** cystatus CySysClkIloTrim(uint32 mode, int32* iloAccuracyInPPT)
 450:Generated_Source\PSoC4/CyLFClk.c **** {
 451:Generated_Source\PSoC4/CyLFClk.c ****     uint32 timeOutClocks = CY_SYS_CLK_TIMEOUT;
 452:Generated_Source\PSoC4/CyLFClk.c ****     uint32 waitUntilCntr1Stops;
 453:Generated_Source\PSoC4/CyLFClk.c ****     static uint32 trimRunningStatus = CY_SYS_CLK_TRIM_OR_COMP_FINISHED;
 454:Generated_Source\PSoC4/CyLFClk.c ****     uint32 checkStatus;
 455:Generated_Source\PSoC4/CyLFClk.c ****     cystatus returnStatus;
 456:Generated_Source\PSoC4/CyLFClk.c **** 
 457:Generated_Source\PSoC4/CyLFClk.c ****     checkStatus = (uint32) (CY_SYS_CLK_DFT_REG & (uint32) CY_SYS_TST_DDFT_CTRL_REG_DEFAULT_MASK);
 458:Generated_Source\PSoC4/CyLFClk.c **** 
 459:Generated_Source\PSoC4/CyLFClk.c ****     /* Check if DFT and CTRL registers were configures in CySysStartMeasurement*/
 460:Generated_Source\PSoC4/CyLFClk.c ****     if((checkStatus == CY_SYS_CLK_SEL_ILO_DFT_SOURCE) &&
 461:Generated_Source\PSoC4/CyLFClk.c ****        (CY_SYS_TST_DDFT_CTRL_REG == CY_SYS_TST_DDFT_CTRL_REG_SEL2_CLK1) &&
 462:Generated_Source\PSoC4/CyLFClk.c ****        (iloAccuracyInPPT != NULL))
 463:Generated_Source\PSoC4/CyLFClk.c ****     {
 464:Generated_Source\PSoC4/CyLFClk.c ****         if(CY_SYS_CLK_BLOCKING == mode)
 465:Generated_Source\PSoC4/CyLFClk.c ****         {
 466:Generated_Source\PSoC4/CyLFClk.c ****             waitUntilCntr1Stops = cydelayFreqHz >> CY_SYS_CLK_SYS_CLK_DEVIDER;
 467:Generated_Source\PSoC4/CyLFClk.c ****             do
 468:Generated_Source\PSoC4/CyLFClk.c ****             {
 469:Generated_Source\PSoC4/CyLFClk.c ****                 /* Reload CNTR 1 count value for measuring cycle*/
 470:Generated_Source\PSoC4/CyLFClk.c ****                 CY_SYS_CNT_REG1_REG = cydelayFreqHz >> CY_SYS_CLK_SYS_CLK_DEVIDER; 
 471:Generated_Source\PSoC4/CyLFClk.c **** 
 472:Generated_Source\PSoC4/CyLFClk.c ****                 /* Wait until counter CNTR 1 will finish down-counting */
 473:Generated_Source\PSoC4/CyLFClk.c ****                 while (0u == (CY_SYS_CNT_REG1_REG & CY_SYS_CLK_ILO_CALIBR_COMPLETE_MASK))
 474:Generated_Source\PSoC4/CyLFClk.c ****                 {
 475:Generated_Source\PSoC4/CyLFClk.c ****                     waitUntilCntr1Stops--;
 476:Generated_Source\PSoC4/CyLFClk.c ****                     if (0u == waitUntilCntr1Stops)
 477:Generated_Source\PSoC4/CyLFClk.c ****                     {
 478:Generated_Source\PSoC4/CyLFClk.c ****                         break;
 479:Generated_Source\PSoC4/CyLFClk.c ****                     }
 480:Generated_Source\PSoC4/CyLFClk.c ****                 }
 481:Generated_Source\PSoC4/CyLFClk.c ****                 trimRunningStatus = CySysClkIloUpdateTrimReg(iloAccuracyInPPT);
 482:Generated_Source\PSoC4/CyLFClk.c ****                 timeOutClocks--;
ARM GAS  C:\Users\g\AppData\Local\Temp\ccrBoTzc.s 			page 16


 483:Generated_Source\PSoC4/CyLFClk.c **** 
 484:Generated_Source\PSoC4/CyLFClk.c ****             /* Untill ILO accuracy will be in range less than +/- 10% or timeout occurs*/
 485:Generated_Source\PSoC4/CyLFClk.c ****             } while((CYRET_SUCCESS != trimRunningStatus) && 
 486:Generated_Source\PSoC4/CyLFClk.c ****               (CYRET_INVALID_STATE != trimRunningStatus) && 
 487:Generated_Source\PSoC4/CyLFClk.c ****                                (0u != timeOutClocks));
 488:Generated_Source\PSoC4/CyLFClk.c **** 
 489:Generated_Source\PSoC4/CyLFClk.c ****             if (CYRET_SUCCESS == trimRunningStatus)
 490:Generated_Source\PSoC4/CyLFClk.c ****             {
 491:Generated_Source\PSoC4/CyLFClk.c ****                 returnStatus = CYRET_SUCCESS;
 492:Generated_Source\PSoC4/CyLFClk.c ****             }
 493:Generated_Source\PSoC4/CyLFClk.c ****             else
 494:Generated_Source\PSoC4/CyLFClk.c ****             {
 495:Generated_Source\PSoC4/CyLFClk.c ****                 if(0u == timeOutClocks)
 496:Generated_Source\PSoC4/CyLFClk.c ****                 {
 497:Generated_Source\PSoC4/CyLFClk.c ****                     trimRunningStatus = CY_SYS_CLK_TRIM_OR_COMP_FINISHED;
 498:Generated_Source\PSoC4/CyLFClk.c ****                     returnStatus = CYRET_TIMEOUT;
 499:Generated_Source\PSoC4/CyLFClk.c ****                 }
 500:Generated_Source\PSoC4/CyLFClk.c ****                 else
 501:Generated_Source\PSoC4/CyLFClk.c ****                 {
 502:Generated_Source\PSoC4/CyLFClk.c ****                     returnStatus = CYRET_INVALID_STATE;
 503:Generated_Source\PSoC4/CyLFClk.c ****                 }
 504:Generated_Source\PSoC4/CyLFClk.c ****             }
 505:Generated_Source\PSoC4/CyLFClk.c ****         }
 506:Generated_Source\PSoC4/CyLFClk.c ****         /* Non - blocking mode */
 507:Generated_Source\PSoC4/CyLFClk.c ****         else
 508:Generated_Source\PSoC4/CyLFClk.c ****         {
 509:Generated_Source\PSoC4/CyLFClk.c ****             if (CY_SYS_CLK_TRIM_OR_COMP_FINISHED != trimRunningStatus)
 510:Generated_Source\PSoC4/CyLFClk.c ****             {
 511:Generated_Source\PSoC4/CyLFClk.c ****                 /* Checking if the counter CNTR 1 finished down-counting */
 512:Generated_Source\PSoC4/CyLFClk.c ****                 if(0u != (CY_SYS_CNT_REG1_REG & CY_SYS_CLK_ILO_CALIBR_COMPLETE_MASK))
 513:Generated_Source\PSoC4/CyLFClk.c ****                 {
 514:Generated_Source\PSoC4/CyLFClk.c ****                     returnStatus = CySysClkIloUpdateTrimReg(iloAccuracyInPPT);
 515:Generated_Source\PSoC4/CyLFClk.c ****                     trimRunningStatus = CY_SYS_CLK_TRIM_OR_COMP_FINISHED;
 516:Generated_Source\PSoC4/CyLFClk.c ****                 }
 517:Generated_Source\PSoC4/CyLFClk.c ****                 else
 518:Generated_Source\PSoC4/CyLFClk.c ****                 {
 519:Generated_Source\PSoC4/CyLFClk.c ****                     returnStatus = CYRET_STARTED;
 520:Generated_Source\PSoC4/CyLFClk.c ****                 }
 521:Generated_Source\PSoC4/CyLFClk.c ****             }
 522:Generated_Source\PSoC4/CyLFClk.c ****             else
 523:Generated_Source\PSoC4/CyLFClk.c ****             {
 524:Generated_Source\PSoC4/CyLFClk.c ****                 /* Reload CNTR 1 count value for next measuring */
 525:Generated_Source\PSoC4/CyLFClk.c ****                 CY_SYS_CNT_REG1_REG = cydelayFreqHz >> CY_SYS_CLK_SYS_CLK_DEVIDER;
 526:Generated_Source\PSoC4/CyLFClk.c ****                 trimRunningStatus = CY_SYS_CLK_TRIM_OR_COMP_STARTED;
 527:Generated_Source\PSoC4/CyLFClk.c ****                 returnStatus = CYRET_STARTED;
 528:Generated_Source\PSoC4/CyLFClk.c ****             }
 529:Generated_Source\PSoC4/CyLFClk.c ****         }
 530:Generated_Source\PSoC4/CyLFClk.c ****     }
 531:Generated_Source\PSoC4/CyLFClk.c ****     else
 532:Generated_Source\PSoC4/CyLFClk.c ****     {
 533:Generated_Source\PSoC4/CyLFClk.c ****         returnStatus = CYRET_INVALID_STATE;
 534:Generated_Source\PSoC4/CyLFClk.c ****     }
 535:Generated_Source\PSoC4/CyLFClk.c **** 
 536:Generated_Source\PSoC4/CyLFClk.c ****     return (returnStatus);
 537:Generated_Source\PSoC4/CyLFClk.c **** }
 538:Generated_Source\PSoC4/CyLFClk.c **** 
 539:Generated_Source\PSoC4/CyLFClk.c **** 
ARM GAS  C:\Users\g\AppData\Local\Temp\ccrBoTzc.s 			page 17


 540:Generated_Source\PSoC4/CyLFClk.c **** /********************************************************************************
 541:Generated_Source\PSoC4/CyLFClk.c **** * Function Name: CySysClkIloUpdateTrimReg
 542:Generated_Source\PSoC4/CyLFClk.c **** *********************************************************************************
 543:Generated_Source\PSoC4/CyLFClk.c **** *
 544:Generated_Source\PSoC4/CyLFClk.c **** * \internal
 545:Generated_Source\PSoC4/CyLFClk.c **** * Function calculates ILO accuracy and check is error range is higher than 
 546:Generated_Source\PSoC4/CyLFClk.c **** * +/- 10%. If Measured frequency is higher than +/- 10% function updates 
 547:Generated_Source\PSoC4/CyLFClk.c **** * ILO Trim register.
 548:Generated_Source\PSoC4/CyLFClk.c **** *
 549:Generated_Source\PSoC4/CyLFClk.c **** * \param
 550:Generated_Source\PSoC4/CyLFClk.c **** * iloAccuracyInPPT Pointer to an integer in which the trimmed ILO 
 551:Generated_Source\PSoC4/CyLFClk.c **** * accuracy will be returned. The value returned in this pointer is not valid 
 552:Generated_Source\PSoC4/CyLFClk.c **** * until the function returns CYRET_SUCCESS. If ILO frequency error is lower 
 553:Generated_Source\PSoC4/CyLFClk.c **** * than +/- 10% then the value returned in this pointer will be updated.
 554:Generated_Source\PSoC4/CyLFClk.c **** *
 555:Generated_Source\PSoC4/CyLFClk.c **** * \return CYRET_SUCCESS - Indicates that ILO frequency error is lower than 
 556:Generated_Source\PSoC4/CyLFClk.c **** * +/- 10% and no actions are required.
 557:Generated_Source\PSoC4/CyLFClk.c **** *
 558:Generated_Source\PSoC4/CyLFClk.c **** * \return  CYRET_STARTED - Indicates that ILO frequency error is higher than 
 559:Generated_Source\PSoC4/CyLFClk.c **** * +/- 10% and ILO Trim register was updated.
 560:Generated_Source\PSoC4/CyLFClk.c **** *
 561:Generated_Source\PSoC4/CyLFClk.c **** * \return CYRET_INVALID_STATE - Indicates trimming was unsuccessful.
 562:Generated_Source\PSoC4/CyLFClk.c **** *
 563:Generated_Source\PSoC4/CyLFClk.c **** * Post #1 - To obtain 10% ILO accuracy the calculated accuracy should be equal 
 564:Generated_Source\PSoC4/CyLFClk.c **** * CY_SYS_CLK_ERROR_RANGE = 5.6%. Error value should take to account IMO error of 
 565:Generated_Source\PSoC4/CyLFClk.c **** * +/-2% (+/-0.64kHz), trim step of 2.36kHz (+/-1.18kHz) and error while ILO 
 566:Generated_Source\PSoC4/CyLFClk.c **** * frequency measuring.
 567:Generated_Source\PSoC4/CyLFClk.c **** *
 568:Generated_Source\PSoC4/CyLFClk.c **** * \endinternal
 569:Generated_Source\PSoC4/CyLFClk.c **** *
 570:Generated_Source\PSoC4/CyLFClk.c **** **********************************************************************************/
 571:Generated_Source\PSoC4/CyLFClk.c **** cystatus CySysClkIloUpdateTrimReg(int32* iloAccuracyInPPT)
 572:Generated_Source\PSoC4/CyLFClk.c **** {
 573:Generated_Source\PSoC4/CyLFClk.c ****     uint32 measuredIloFreq;
 574:Generated_Source\PSoC4/CyLFClk.c ****     uint32 currentIloTrimValue;
 575:Generated_Source\PSoC4/CyLFClk.c ****     int32 iloAccuracyValue;
 576:Generated_Source\PSoC4/CyLFClk.c ****     int32 trimStep;
 577:Generated_Source\PSoC4/CyLFClk.c ****     cystatus errorRangeStatus;
 578:Generated_Source\PSoC4/CyLFClk.c **** 
 579:Generated_Source\PSoC4/CyLFClk.c ****     if(0u != CY_SYS_CNT_REG2_REG)
 580:Generated_Source\PSoC4/CyLFClk.c ****     {
 581:Generated_Source\PSoC4/CyLFClk.c ****         measuredIloFreq = (CY_SYS_CNT_REG2_REG * cydelayFreqHz) / (cydelayFreqHz >> CY_SYS_CLK_SYS_
 582:Generated_Source\PSoC4/CyLFClk.c **** 
 583:Generated_Source\PSoC4/CyLFClk.c ****         /* Calculate value of error in PPT according to formula - 
 584:Generated_Source\PSoC4/CyLFClk.c ****         *       ((measuredIlofrequency - iloDesired freaquency) * 1000 / iloDesired freaquency) */
 585:Generated_Source\PSoC4/CyLFClk.c ****         iloAccuracyValue = (((int32) measuredIloFreq - (int32) CY_SYS_CLK_ILO_DESIRED_FREQ_HZ) * \
 586:Generated_Source\PSoC4/CyLFClk.c ****                             ((int32) CY_SYS_CLK_PERTHOUSAND)) / ((int32) CY_SYS_CLK_ILO_DESIRED_FRE
 587:Generated_Source\PSoC4/CyLFClk.c **** 
 588:Generated_Source\PSoC4/CyLFClk.c ****         /* Check if ILO accuracy is more than +/- CY_SYS_CLK_ERROR_RANGE. See post #1 of API descri
 589:Generated_Source\PSoC4/CyLFClk.c ****         if(CY_SYS_CLK_ERROR_RANGE < (uint32) (CY_SYS_CLK_ABS_MACRO(iloAccuracyValue)))
 590:Generated_Source\PSoC4/CyLFClk.c ****         {
 591:Generated_Source\PSoC4/CyLFClk.c ****             if (0 < iloAccuracyValue)
 592:Generated_Source\PSoC4/CyLFClk.c ****             {
 593:Generated_Source\PSoC4/CyLFClk.c ****                 trimStep = (int32) (((iloAccuracyValue * (int32) CY_SYS_CLK_ERROR_COEF) + 
 594:Generated_Source\PSoC4/CyLFClk.c ****                 CY_SYS_CLK_HALF_OF_STEP) / CY_SYS_CLK_ERROR_STEP);
 595:Generated_Source\PSoC4/CyLFClk.c ****             }
 596:Generated_Source\PSoC4/CyLFClk.c ****             else
ARM GAS  C:\Users\g\AppData\Local\Temp\ccrBoTzc.s 			page 18


 597:Generated_Source\PSoC4/CyLFClk.c ****             {
 598:Generated_Source\PSoC4/CyLFClk.c ****                 trimStep = (int32) (((iloAccuracyValue * (int32) CY_SYS_CLK_ERROR_COEF) - 
 599:Generated_Source\PSoC4/CyLFClk.c ****                 CY_SYS_CLK_HALF_OF_STEP) / CY_SYS_CLK_ERROR_STEP);
 600:Generated_Source\PSoC4/CyLFClk.c ****             }
 601:Generated_Source\PSoC4/CyLFClk.c ****             currentIloTrimValue = (CY_SYS_CLK_ILO_TRIM_REG & CY_SYS_CLK_ILO_TRIM_MASK);
 602:Generated_Source\PSoC4/CyLFClk.c ****             trimStep = (int32) currentIloTrimValue - trimStep;
 603:Generated_Source\PSoC4/CyLFClk.c **** 
 604:Generated_Source\PSoC4/CyLFClk.c ****             if(trimStep > CY_SYS_CLK_FOURBITS_MAX)
 605:Generated_Source\PSoC4/CyLFClk.c ****             {
 606:Generated_Source\PSoC4/CyLFClk.c ****                 trimStep = CY_SYS_CLK_FOURBITS_MAX;
 607:Generated_Source\PSoC4/CyLFClk.c ****             }
 608:Generated_Source\PSoC4/CyLFClk.c ****             if(trimStep < 0)
 609:Generated_Source\PSoC4/CyLFClk.c ****             {
 610:Generated_Source\PSoC4/CyLFClk.c ****                 trimStep = 0;
 611:Generated_Source\PSoC4/CyLFClk.c ****             }
 612:Generated_Source\PSoC4/CyLFClk.c ****             CY_SYS_CLK_ILO_TRIM_REG = (CY_SYS_CLK_ILO_TRIM_REG & (uint32)(~CY_SYS_CLK_ILO_TRIM_MASK
 613:Generated_Source\PSoC4/CyLFClk.c ****                                                                  ((uint32) trimStep);
 614:Generated_Source\PSoC4/CyLFClk.c ****             errorRangeStatus = CYRET_STARTED;
 615:Generated_Source\PSoC4/CyLFClk.c ****         } /* Else return success because error is in +/- 10% range*/
 616:Generated_Source\PSoC4/CyLFClk.c ****         else
 617:Generated_Source\PSoC4/CyLFClk.c ****         {
 618:Generated_Source\PSoC4/CyLFClk.c ****             /* Write trimmed ILO accuracy through pointer. */
 619:Generated_Source\PSoC4/CyLFClk.c ****             *iloAccuracyInPPT = iloAccuracyValue;
 620:Generated_Source\PSoC4/CyLFClk.c ****             errorRangeStatus = CYRET_SUCCESS;
 621:Generated_Source\PSoC4/CyLFClk.c ****         }
 622:Generated_Source\PSoC4/CyLFClk.c ****     }
 623:Generated_Source\PSoC4/CyLFClk.c ****     else
 624:Generated_Source\PSoC4/CyLFClk.c ****     {
 625:Generated_Source\PSoC4/CyLFClk.c ****         errorRangeStatus = CYRET_INVALID_STATE;
 626:Generated_Source\PSoC4/CyLFClk.c ****     }
 627:Generated_Source\PSoC4/CyLFClk.c **** return (errorRangeStatus);
 628:Generated_Source\PSoC4/CyLFClk.c **** }
 629:Generated_Source\PSoC4/CyLFClk.c **** 
 630:Generated_Source\PSoC4/CyLFClk.c **** 
 631:Generated_Source\PSoC4/CyLFClk.c **** /*******************************************************************************
 632:Generated_Source\PSoC4/CyLFClk.c **** * Function Name: CySysClkIloRestoreFactoryTrim
 633:Generated_Source\PSoC4/CyLFClk.c **** ****************************************************************************//**
 634:Generated_Source\PSoC4/CyLFClk.c **** * \brief
 635:Generated_Source\PSoC4/CyLFClk.c **** * Restores the ILO Trim Register to factory value.
 636:Generated_Source\PSoC4/CyLFClk.c **** *
 637:Generated_Source\PSoC4/CyLFClk.c **** * The CySysClkIloStartMeasurement() API should be called prior to 
 638:Generated_Source\PSoC4/CyLFClk.c **** * calling this API. Otherwise CYRET_UNKNOWN will be returned.
 639:Generated_Source\PSoC4/CyLFClk.c **** *
 640:Generated_Source\PSoC4/CyLFClk.c **** * Available for all PSoC 4 devices except for PSoC 4000 / PSoC 4100 / PSoC 4200 
 641:Generated_Source\PSoC4/CyLFClk.c **** * / PSoC 4000S / PSoC 4100S / PSoC Analog Coprocessor devices.
 642:Generated_Source\PSoC4/CyLFClk.c **** *
 643:Generated_Source\PSoC4/CyLFClk.c **** * \return CYRET_SUCCESS - Operation was successful. 
 644:Generated_Source\PSoC4/CyLFClk.c **** * \return CYRET_UNKNOWN - CySysClkIloStartMeasurement() was not called 
 645:Generated_Source\PSoC4/CyLFClk.c **** * before this API. Hence the trim value cannot be updated.
 646:Generated_Source\PSoC4/CyLFClk.c **** *
 647:Generated_Source\PSoC4/CyLFClk.c **** ******************************************************************************/
 648:Generated_Source\PSoC4/CyLFClk.c **** cystatus CySysClkIloRestoreFactoryTrim(void)
 649:Generated_Source\PSoC4/CyLFClk.c **** {
 650:Generated_Source\PSoC4/CyLFClk.c ****     cystatus returnStatus = CYRET_SUCCESS;
 651:Generated_Source\PSoC4/CyLFClk.c **** 
 652:Generated_Source\PSoC4/CyLFClk.c ****     /* Check was defaultIloTrimRegValue modified in CySysClkIloStartMeasurement */
 653:Generated_Source\PSoC4/CyLFClk.c ****     if(CY_SYS_CLK_ILO_TRIM_DEFAULT_VALUE != defaultIloTrimRegValue)
ARM GAS  C:\Users\g\AppData\Local\Temp\ccrBoTzc.s 			page 19


 654:Generated_Source\PSoC4/CyLFClk.c ****         {
 655:Generated_Source\PSoC4/CyLFClk.c ****             CY_SYS_CLK_ILO_TRIM_REG = ((CY_SYS_CLK_ILO_TRIM_REG & (uint32)(~CY_SYS_CLK_ILO_TRIM_MAS
 656:Generated_Source\PSoC4/CyLFClk.c ****                                        (defaultIloTrimRegValue & CY_SYS_CLK_ILO_TRIM_MASK));
 657:Generated_Source\PSoC4/CyLFClk.c ****         }
 658:Generated_Source\PSoC4/CyLFClk.c ****         else
 659:Generated_Source\PSoC4/CyLFClk.c ****         {
 660:Generated_Source\PSoC4/CyLFClk.c ****             returnStatus = CYRET_UNKNOWN;
 661:Generated_Source\PSoC4/CyLFClk.c ****         }
 662:Generated_Source\PSoC4/CyLFClk.c **** 
 663:Generated_Source\PSoC4/CyLFClk.c ****         return (returnStatus);
 664:Generated_Source\PSoC4/CyLFClk.c **** }
 665:Generated_Source\PSoC4/CyLFClk.c **** #endif /* (CY_IP_SRSSV2 && (!(CY_PSOC4_4100 || CY_PSOC4_4200))) */
 666:Generated_Source\PSoC4/CyLFClk.c **** 
 667:Generated_Source\PSoC4/CyLFClk.c **** 
 668:Generated_Source\PSoC4/CyLFClk.c **** #if (CY_IP_WCO && CY_IP_SRSSV2)
 669:Generated_Source\PSoC4/CyLFClk.c **** /*******************************************************************************
 670:Generated_Source\PSoC4/CyLFClk.c **** * Function Name: CySysClkGetLfclkSource
 671:Generated_Source\PSoC4/CyLFClk.c **** ********************************************************************************
 672:Generated_Source\PSoC4/CyLFClk.c **** *
 673:Generated_Source\PSoC4/CyLFClk.c **** * \internal
 674:Generated_Source\PSoC4/CyLFClk.c **** *  Gets the clock source for the LFCLK clock.
 675:Generated_Source\PSoC4/CyLFClk.c **** *  The function is applicable only for PSoC 4100 BLE / PSoC 4200 BLE / PSoC 4100M /
 676:Generated_Source\PSoC4/CyLFClk.c **** *  PSoC 4200M / PSoC 4200L.
 677:Generated_Source\PSoC4/CyLFClk.c **** *
 678:Generated_Source\PSoC4/CyLFClk.c **** * \return The LFCLK source:
 679:Generated_Source\PSoC4/CyLFClk.c **** * CY_SYS_CLK_LFCLK_SRC_ILO Internal Low Frequency (32 kHz) Oscillator (ILO)
 680:Generated_Source\PSoC4/CyLFClk.c **** * CY_SYS_CLK_LFCLK_SRC_WCO Low Frequency Watch Crystal Oscillator (WCO)
 681:Generated_Source\PSoC4/CyLFClk.c **** *
 682:Generated_Source\PSoC4/CyLFClk.c **** * \endinternal
 683:Generated_Source\PSoC4/CyLFClk.c **** *
 684:Generated_Source\PSoC4/CyLFClk.c **** *******************************************************************************/
 685:Generated_Source\PSoC4/CyLFClk.c ****     static uint32 CySysClkGetLfclkSource(void)
 686:Generated_Source\PSoC4/CyLFClk.c ****     {
 687:Generated_Source\PSoC4/CyLFClk.c ****         uint32 lfclkSource;
 688:Generated_Source\PSoC4/CyLFClk.c ****         lfclkSource = CY_SYS_WDT_CONFIG_REG & CY_SYS_CLK_LFCLK_SEL_MASK;
 689:Generated_Source\PSoC4/CyLFClk.c ****         return (lfclkSource);
 690:Generated_Source\PSoC4/CyLFClk.c ****     }
 691:Generated_Source\PSoC4/CyLFClk.c **** 
 692:Generated_Source\PSoC4/CyLFClk.c ****     
 693:Generated_Source\PSoC4/CyLFClk.c **** /*******************************************************************************
 694:Generated_Source\PSoC4/CyLFClk.c **** * Function Name: CySysClkSetLfclkSource
 695:Generated_Source\PSoC4/CyLFClk.c **** ****************************************************************************//**
 696:Generated_Source\PSoC4/CyLFClk.c **** * \brief
 697:Generated_Source\PSoC4/CyLFClk.c **** *  Sets the clock source for the LFCLK clock.
 698:Generated_Source\PSoC4/CyLFClk.c **** *
 699:Generated_Source\PSoC4/CyLFClk.c **** * The switch between LFCLK sources must be done between the positive edges of
 700:Generated_Source\PSoC4/CyLFClk.c **** * LFCLK, because the glitch risk is around the LFCLK positive edge. To ensure
 701:Generated_Source\PSoC4/CyLFClk.c **** * that the switch can be done safely, the WDT counter value is read until it
 702:Generated_Source\PSoC4/CyLFClk.c **** * changes.
 703:Generated_Source\PSoC4/CyLFClk.c **** *
 704:Generated_Source\PSoC4/CyLFClk.c **** * That means that the positive edge just finished and the switch is performed.
 705:Generated_Source\PSoC4/CyLFClk.c **** * The enabled WDT counter is used for that purpose. If no counters are enabled,
 706:Generated_Source\PSoC4/CyLFClk.c **** * counter 0 is enabled. And after the LFCLK source is switched, counter 0
 707:Generated_Source\PSoC4/CyLFClk.c **** * configuration is restored.
 708:Generated_Source\PSoC4/CyLFClk.c **** *
 709:Generated_Source\PSoC4/CyLFClk.c **** *  The function is applicable only for devices with more than one source for 
 710:Generated_Source\PSoC4/CyLFClk.c **** * LFCLK - PSoC 4100 BLE / PSoC 4200 BLE / PRoC BLE / PSoC 4100M / PSoC 4200M / 
ARM GAS  C:\Users\g\AppData\Local\Temp\ccrBoTzc.s 			page 20


 711:Generated_Source\PSoC4/CyLFClk.c **** * PSoC 4200L.
 712:Generated_Source\PSoC4/CyLFClk.c **** *
 713:Generated_Source\PSoC4/CyLFClk.c **** * \note For PSoC 4000S / PSoC 4100S / PSoC Analog Coprocessor devices LFCLK can
 714:Generated_Source\PSoC4/CyLFClk.c **** * only be sourced from ILO even though WCO is available.
 715:Generated_Source\PSoC4/CyLFClk.c **** *
 716:Generated_Source\PSoC4/CyLFClk.c **** * \param
 717:Generated_Source\PSoC4/CyLFClk.c **** * source
 718:Generated_Source\PSoC4/CyLFClk.c **** * CY_SYS_CLK_LFCLK_SRC_ILO - Internal Low Frequency (32 kHz) 
 719:Generated_Source\PSoC4/CyLFClk.c **** * Oscillator (ILO).<br>
 720:Generated_Source\PSoC4/CyLFClk.c **** * CY_SYS_CLK_LFCLK_SRC_WCO - Low Frequency Watch Crystal Oscillator (WCO).
 721:Generated_Source\PSoC4/CyLFClk.c **** *
 722:Generated_Source\PSoC4/CyLFClk.c **** * \details
 723:Generated_Source\PSoC4/CyLFClk.c **** * This function has no effect if WDT is locked (CySysWdtLock() is called). 
 724:Generated_Source\PSoC4/CyLFClk.c **** * Call CySysWdtUnlock() to unlock WDT.
 725:Generated_Source\PSoC4/CyLFClk.c **** *
 726:Generated_Source\PSoC4/CyLFClk.c **** * Both the current source and the new source must be running and stable before
 727:Generated_Source\PSoC4/CyLFClk.c **** * calling this function.
 728:Generated_Source\PSoC4/CyLFClk.c **** *
 729:Generated_Source\PSoC4/CyLFClk.c **** * Changing the LFCLK clock source may change the LFCLK clock frequency and
 730:Generated_Source\PSoC4/CyLFClk.c **** * affect the functionality that uses this clock. For example, watchdog timer
 731:Generated_Source\PSoC4/CyLFClk.c **** * "uses this clock" or "this clock uses" (WDT) is clocked by LFCLK.
 732:Generated_Source\PSoC4/CyLFClk.c **** *
 733:Generated_Source\PSoC4/CyLFClk.c **** *******************************************************************************/
 734:Generated_Source\PSoC4/CyLFClk.c ****     void CySysClkSetLfclkSource(uint32 source)
 735:Generated_Source\PSoC4/CyLFClk.c ****     {
 736:Generated_Source\PSoC4/CyLFClk.c ****         uint8  interruptState;
 737:Generated_Source\PSoC4/CyLFClk.c **** 
 738:Generated_Source\PSoC4/CyLFClk.c ****         if (CySysClkGetLfclkSource() != source)
 739:Generated_Source\PSoC4/CyLFClk.c ****         {
 740:Generated_Source\PSoC4/CyLFClk.c ****             interruptState = CyEnterCriticalSection();
 741:Generated_Source\PSoC4/CyLFClk.c ****             CySysClkLfclkPosedgeCatch();
 742:Generated_Source\PSoC4/CyLFClk.c ****             CY_SYS_WDT_CONFIG_REG = (CY_SYS_WDT_CONFIG_REG & (uint32)(~CY_SYS_CLK_LFCLK_SEL_MASK)) 
 743:Generated_Source\PSoC4/CyLFClk.c ****                                     (source & CY_SYS_CLK_LFCLK_SEL_MASK);
 744:Generated_Source\PSoC4/CyLFClk.c ****             CySysClkLfclkPosedgeRestore();
 745:Generated_Source\PSoC4/CyLFClk.c ****             CyExitCriticalSection(interruptState);
 746:Generated_Source\PSoC4/CyLFClk.c ****         }
 747:Generated_Source\PSoC4/CyLFClk.c ****     }
 748:Generated_Source\PSoC4/CyLFClk.c **** #endif /* (CY_IP_WCO && CY_IP_SRSSV2) */
 749:Generated_Source\PSoC4/CyLFClk.c **** 
 750:Generated_Source\PSoC4/CyLFClk.c **** 
 751:Generated_Source\PSoC4/CyLFClk.c **** #if (CY_IP_WCO)
 752:Generated_Source\PSoC4/CyLFClk.c ****     /*******************************************************************************
 753:Generated_Source\PSoC4/CyLFClk.c ****     * Function Name: CySysClkWcoStart
 754:Generated_Source\PSoC4/CyLFClk.c ****     ****************************************************************************//**
 755:Generated_Source\PSoC4/CyLFClk.c ****     * \brief
 756:Generated_Source\PSoC4/CyLFClk.c ****     *  Enables Watch Crystal Oscillator (WCO).
 757:Generated_Source\PSoC4/CyLFClk.c ****     * 
 758:Generated_Source\PSoC4/CyLFClk.c ****     * This API enables WCO which is used as a source for LFCLK. Similar to ILO, 
 759:Generated_Source\PSoC4/CyLFClk.c ****     * WCO is also available in all modes except Hibernate and Stop modes.
 760:Generated_Source\PSoC4/CyLFClk.c ****     * \note In PSoC 4000S / PSoC 4100S / PSoC Analog Coprocessor devices
 761:Generated_Source\PSoC4/CyLFClk.c ****     * WCO cannot be a source for the LFCLK. 
 762:Generated_Source\PSoC4/CyLFClk.c ****     *
 763:Generated_Source\PSoC4/CyLFClk.c ****     *  WCO is always enabled in High Power Mode (HPM). Refer to the device
 764:Generated_Source\PSoC4/CyLFClk.c ****     *  datasheet for the  WCO startup time. Once WCO becomes stable it can be
 765:Generated_Source\PSoC4/CyLFClk.c ****     *  switched to Low Power Mode (LPM). Note that oscillator can be unstable
 766:Generated_Source\PSoC4/CyLFClk.c ****     *  during a switch and hence its output should not be used at that moment.
 767:Generated_Source\PSoC4/CyLFClk.c ****     *
ARM GAS  C:\Users\g\AppData\Local\Temp\ccrBoTzc.s 			page 21


 768:Generated_Source\PSoC4/CyLFClk.c ****     *  The CySysClkWcoSetPowerMode() function configures the WCO power mode.
 769:Generated_Source\PSoC4/CyLFClk.c ****     *
 770:Generated_Source\PSoC4/CyLFClk.c ****     *******************************************************************************/
 771:Generated_Source\PSoC4/CyLFClk.c ****     void CySysClkWcoStart(void)
 772:Generated_Source\PSoC4/CyLFClk.c ****     {
 773:Generated_Source\PSoC4/CyLFClk.c ****         CySysClkWcoSetHighPowerMode();
 774:Generated_Source\PSoC4/CyLFClk.c ****         CY_SYS_CLK_WCO_CONFIG_REG |= CY_SYS_CLK_WCO_CONFIG_LPM_ENABLE;
 775:Generated_Source\PSoC4/CyLFClk.c ****     }
 776:Generated_Source\PSoC4/CyLFClk.c **** 
 777:Generated_Source\PSoC4/CyLFClk.c **** 
 778:Generated_Source\PSoC4/CyLFClk.c ****     /*******************************************************************************
 779:Generated_Source\PSoC4/CyLFClk.c ****     * Function Name: CySysClkWcoStop
 780:Generated_Source\PSoC4/CyLFClk.c ****     ****************************************************************************//**
 781:Generated_Source\PSoC4/CyLFClk.c ****     * \brief
 782:Generated_Source\PSoC4/CyLFClk.c ****     * Disables the 32 KHz Crystal Oscillator.
 783:Generated_Source\PSoC4/CyLFClk.c ****     *
 784:Generated_Source\PSoC4/CyLFClk.c ****     * API switch of WCO.
 785:Generated_Source\PSoC4/CyLFClk.c ****     * \note PSoC 4100S / PSoC Analog Coprocessor: WCO is required for DeepSleep 
 786:Generated_Source\PSoC4/CyLFClk.c ****     * Timer's operation.
 787:Generated_Source\PSoC4/CyLFClk.c ****     *
 788:Generated_Source\PSoC4/CyLFClk.c ****     *******************************************************************************/
 789:Generated_Source\PSoC4/CyLFClk.c ****     void  CySysClkWcoStop(void)
 790:Generated_Source\PSoC4/CyLFClk.c ****     {
 791:Generated_Source\PSoC4/CyLFClk.c ****         #if (CY_IP_SRSSV2)
 792:Generated_Source\PSoC4/CyLFClk.c ****             uint8  interruptState;
 793:Generated_Source\PSoC4/CyLFClk.c ****         #endif /* (CY_IP_SRSSV2) */
 794:Generated_Source\PSoC4/CyLFClk.c **** 
 795:Generated_Source\PSoC4/CyLFClk.c ****         if (0u != CySysClkWcoEnabled())
 796:Generated_Source\PSoC4/CyLFClk.c ****         {
 797:Generated_Source\PSoC4/CyLFClk.c ****             #if (CY_IP_SRSSV2)
 798:Generated_Source\PSoC4/CyLFClk.c ****                 if (CY_SYS_CLK_LFCLK_SRC_WCO == CySysClkGetLfclkSource())
 799:Generated_Source\PSoC4/CyLFClk.c ****                 {
 800:Generated_Source\PSoC4/CyLFClk.c ****                     interruptState = CyEnterCriticalSection();
 801:Generated_Source\PSoC4/CyLFClk.c ****                     CySysClkLfclkPosedgeCatch();
 802:Generated_Source\PSoC4/CyLFClk.c ****                     CY_SYS_CLK_WCO_CONFIG_REG &= (uint32) ~CY_SYS_CLK_WCO_CONFIG_LPM_ENABLE;
 803:Generated_Source\PSoC4/CyLFClk.c ****                     CySysClkLfclkPosedgeRestore();
 804:Generated_Source\PSoC4/CyLFClk.c ****                     CyExitCriticalSection(interruptState);
 805:Generated_Source\PSoC4/CyLFClk.c ****                 }
 806:Generated_Source\PSoC4/CyLFClk.c ****                 else /* Safe to disable - shortened pulse does not impact peripheral */
 807:Generated_Source\PSoC4/CyLFClk.c ****             #endif /* (CY_IP_SRSSV2) */
 808:Generated_Source\PSoC4/CyLFClk.c ****             {
 809:Generated_Source\PSoC4/CyLFClk.c ****                 CY_SYS_CLK_WCO_CONFIG_REG &= (uint32) ~CY_SYS_CLK_WCO_CONFIG_LPM_ENABLE;
 810:Generated_Source\PSoC4/CyLFClk.c ****             }
 811:Generated_Source\PSoC4/CyLFClk.c ****         } /* Otherwise do nothing. WCO configuration cannot be changed. */
 812:Generated_Source\PSoC4/CyLFClk.c ****     }
 813:Generated_Source\PSoC4/CyLFClk.c **** 
 814:Generated_Source\PSoC4/CyLFClk.c **** 
 815:Generated_Source\PSoC4/CyLFClk.c ****     /*******************************************************************************
 816:Generated_Source\PSoC4/CyLFClk.c ****     * Function Name: CySysClkWcoEnabled
 817:Generated_Source\PSoC4/CyLFClk.c ****     ****************************************************************************//**
 818:Generated_Source\PSoC4/CyLFClk.c ****     * \internal Reports the WCO enable state.
 819:Generated_Source\PSoC4/CyLFClk.c ****     *
 820:Generated_Source\PSoC4/CyLFClk.c ****     * \return 1 if WCO is enabled
 821:Generated_Source\PSoC4/CyLFClk.c ****     * \return 0 if WCO is disabled.
 822:Generated_Source\PSoC4/CyLFClk.c ****     * \endinternal
 823:Generated_Source\PSoC4/CyLFClk.c ****     *******************************************************************************/
 824:Generated_Source\PSoC4/CyLFClk.c ****     uint32 CySysClkWcoEnabled(void)
ARM GAS  C:\Users\g\AppData\Local\Temp\ccrBoTzc.s 			page 22


 825:Generated_Source\PSoC4/CyLFClk.c ****     {
 826:Generated_Source\PSoC4/CyLFClk.c ****         return ((0u != (CY_SYS_CLK_WCO_CONFIG_REG & (uint32)(CY_SYS_CLK_WCO_CONFIG_LPM_ENABLE))) ?
 827:Generated_Source\PSoC4/CyLFClk.c ****                 (uint32) 1u :
 828:Generated_Source\PSoC4/CyLFClk.c ****                 (uint32) 0u);
 829:Generated_Source\PSoC4/CyLFClk.c ****     }
 830:Generated_Source\PSoC4/CyLFClk.c **** 
 831:Generated_Source\PSoC4/CyLFClk.c **** 
 832:Generated_Source\PSoC4/CyLFClk.c ****     /*******************************************************************************
 833:Generated_Source\PSoC4/CyLFClk.c ****     * Function Name: CySysClkWcoSetPowerMode
 834:Generated_Source\PSoC4/CyLFClk.c ****     ****************************************************************************//**
 835:Generated_Source\PSoC4/CyLFClk.c ****     * \brief
 836:Generated_Source\PSoC4/CyLFClk.c ****     * Sets the power mode for the 32 KHz WCO.
 837:Generated_Source\PSoC4/CyLFClk.c ****     *
 838:Generated_Source\PSoC4/CyLFClk.c ****     * By default (if this function is not called), the WCO is in High power mode 
 839:Generated_Source\PSoC4/CyLFClk.c ****     * during Active and device's low power modes
 840:Generated_Source\PSoC4/CyLFClk.c ****     *
 841:Generated_Source\PSoC4/CyLFClk.c ****     * \param mode
 842:Generated_Source\PSoC4/CyLFClk.c ****     * CY_SYS_CLK_WCO_HPM - The High Power mode.<br>
 843:Generated_Source\PSoC4/CyLFClk.c ****     * CY_SYS_CLK_WCO_LPM - The Low Power mode.
 844:Generated_Source\PSoC4/CyLFClk.c ****     *
 845:Generated_Source\PSoC4/CyLFClk.c ****     * \return A previous power mode. The same as the parameters.
 846:Generated_Source\PSoC4/CyLFClk.c ****     *
 847:Generated_Source\PSoC4/CyLFClk.c ****     * \note
 848:Generated_Source\PSoC4/CyLFClk.c ****     * The WCO Low Power mode is applicable for PSoC 4100 BLE / PSoC 4200 BLE devices.
 849:Generated_Source\PSoC4/CyLFClk.c ****     *
 850:Generated_Source\PSoC4/CyLFClk.c ****     *******************************************************************************/
 851:Generated_Source\PSoC4/CyLFClk.c ****     uint32 CySysClkWcoSetPowerMode(uint32 mode)
 852:Generated_Source\PSoC4/CyLFClk.c ****     {
 853:Generated_Source\PSoC4/CyLFClk.c ****         uint32 powerModeStatus;
 854:Generated_Source\PSoC4/CyLFClk.c **** 
 855:Generated_Source\PSoC4/CyLFClk.c ****         powerModeStatus = CY_SYS_CLK_WCO_CONFIG_REG & CY_SYS_CLK_WCO_CONFIG_LPM_EN;
 856:Generated_Source\PSoC4/CyLFClk.c **** 
 857:Generated_Source\PSoC4/CyLFClk.c ****         switch(mode)
 858:Generated_Source\PSoC4/CyLFClk.c ****         {
 859:Generated_Source\PSoC4/CyLFClk.c ****         case CY_SYS_CLK_WCO_HPM:
 860:Generated_Source\PSoC4/CyLFClk.c ****                 CySysClkWcoSetHighPowerMode();
 861:Generated_Source\PSoC4/CyLFClk.c ****             break;
 862:Generated_Source\PSoC4/CyLFClk.c **** 
 863:Generated_Source\PSoC4/CyLFClk.c ****         #if(CY_PSOC4_4100BL || CY_PSOC4_4200BL)
 864:Generated_Source\PSoC4/CyLFClk.c ****             case CY_SYS_CLK_WCO_LPM:
 865:Generated_Source\PSoC4/CyLFClk.c ****                     CySysClkWcoSetLowPowerMode();
 866:Generated_Source\PSoC4/CyLFClk.c ****                 break;
 867:Generated_Source\PSoC4/CyLFClk.c ****         #endif /* (CY_PSOC4_4100BL || CY_PSOC4_4200BL) */
 868:Generated_Source\PSoC4/CyLFClk.c **** 
 869:Generated_Source\PSoC4/CyLFClk.c ****         default:
 870:Generated_Source\PSoC4/CyLFClk.c ****             CYASSERT(0u != 0u);
 871:Generated_Source\PSoC4/CyLFClk.c ****             break;
 872:Generated_Source\PSoC4/CyLFClk.c ****         }
 873:Generated_Source\PSoC4/CyLFClk.c **** 
 874:Generated_Source\PSoC4/CyLFClk.c ****         return (powerModeStatus);
 875:Generated_Source\PSoC4/CyLFClk.c ****     }
 876:Generated_Source\PSoC4/CyLFClk.c **** 
 877:Generated_Source\PSoC4/CyLFClk.c **** 
 878:Generated_Source\PSoC4/CyLFClk.c **** /*******************************************************************************
 879:Generated_Source\PSoC4/CyLFClk.c **** * Function Name: CySysClkWcoClockOutSelect
 880:Generated_Source\PSoC4/CyLFClk.c **** ****************************************************************************//**
 881:Generated_Source\PSoC4/CyLFClk.c **** * \brief
ARM GAS  C:\Users\g\AppData\Local\Temp\ccrBoTzc.s 			page 23


 882:Generated_Source\PSoC4/CyLFClk.c **** * Selects the WCO block output source.
 883:Generated_Source\PSoC4/CyLFClk.c **** *
 884:Generated_Source\PSoC4/CyLFClk.c **** * In addition to generating 32.768 kHz clock from external crystals, WCO 
 885:Generated_Source\PSoC4/CyLFClk.c **** * can be sourced by external clock source using wco_out pin. The API help to
 886:Generated_Source\PSoC4/CyLFClk.c **** * lets you select between the sources: External crystal or external pin.
 887:Generated_Source\PSoC4/CyLFClk.c **** *
 888:Generated_Source\PSoC4/CyLFClk.c **** * If you want to use external pin to drive WCO the next procedure is required:
 889:Generated_Source\PSoC4/CyLFClk.c **** * <br> 1) Disable the WCO.
 890:Generated_Source\PSoC4/CyLFClk.c **** * <br> 2) Drive the wco_out pin to an external signal source.
 891:Generated_Source\PSoC4/CyLFClk.c **** * <br> 3) Call CySysClkWcoClockOutSelect(CY_SYS_CLK_WCO_SEL_PIN).
 892:Generated_Source\PSoC4/CyLFClk.c **** * <br> 4) Enable the WCO and wait for 15 us before clocking the XO pad at the high 
 893:Generated_Source\PSoC4/CyLFClk.c **** * potential. Let's assume you are using the 1.6v clock amplitude, then the
 894:Generated_Source\PSoC4/CyLFClk.c **** * sequence would start at 1.6v, then 0v, then 1.6v etc at a chosen frequency.
 895:Generated_Source\PSoC4/CyLFClk.c **** *
 896:Generated_Source\PSoC4/CyLFClk.c **** * If you want to use WCO after using an external pin source:
 897:Generated_Source\PSoC4/CyLFClk.c **** * <br> 1) Disable the WCO.
 898:Generated_Source\PSoC4/CyLFClk.c **** * <br> 2) Drive off wco_out pin with external signal source.
 899:Generated_Source\PSoC4/CyLFClk.c **** * <br> 3) Call CySysClkWcoClockOutSelect(CY_SYS_CLK_WCO_SEL_CRYSTAL).
 900:Generated_Source\PSoC4/CyLFClk.c **** * <br> 4) Enable the WCO.
 901:Generated_Source\PSoC4/CyLFClk.c **** *
 902:Generated_Source\PSoC4/CyLFClk.c **** * \warning 
 903:Generated_Source\PSoC4/CyLFClk.c **** * Do not use the oscillator output clock prior to a 15uS delay in your system.
 904:Generated_Source\PSoC4/CyLFClk.c **** * There are no limitations on the external clock frequency.
 905:Generated_Source\PSoC4/CyLFClk.c **** * \warning 
 906:Generated_Source\PSoC4/CyLFClk.c **** * When external clock source was selected to drive WCO block the IMO can be 
 907:Generated_Source\PSoC4/CyLFClk.c **** * trimmed only when external clock source period is equal to WCO external
 908:Generated_Source\PSoC4/CyLFClk.c **** * crystal period. Also external clock source accuracy should be higher 
 909:Generated_Source\PSoC4/CyLFClk.c **** * or equal to WCO external crystal accuracy.
 910:Generated_Source\PSoC4/CyLFClk.c **** *
 911:Generated_Source\PSoC4/CyLFClk.c **** * \param clockSel
 912:Generated_Source\PSoC4/CyLFClk.c **** * CY_SYS_CLK_WCO_SEL_CRYSTAL - Selects External crystal as clock 
 913:Generated_Source\PSoC4/CyLFClk.c **** * source of WCO.<br>
 914:Generated_Source\PSoC4/CyLFClk.c **** * CY_SYS_CLK_WCO_SEL_PIN - Selects External clock input on wco_in pin as 
 915:Generated_Source\PSoC4/CyLFClk.c **** * clock source of WCO.
 916:Generated_Source\PSoC4/CyLFClk.c **** *
 917:Generated_Source\PSoC4/CyLFClk.c **** *******************************************************************************/
 918:Generated_Source\PSoC4/CyLFClk.c **** void CySysClkWcoClockOutSelect(uint32 clockSel)
 919:Generated_Source\PSoC4/CyLFClk.c ****     {
 920:Generated_Source\PSoC4/CyLFClk.c ****         if (0u != CySysClkWcoEnabled())
 921:Generated_Source\PSoC4/CyLFClk.c ****         {
 922:Generated_Source\PSoC4/CyLFClk.c ****             if (1u >= clockSel)
 923:Generated_Source\PSoC4/CyLFClk.c ****             {
 924:Generated_Source\PSoC4/CyLFClk.c ****                 CY_SYS_CLK_WCO_CONFIG_REG = (CY_SYS_CLK_WCO_CONFIG_REG & (uint32)(~CY_SYS_CLK_WCO_S
 925:Generated_Source\PSoC4/CyLFClk.c ****                                         (clockSel << CY_SYS_CLK_WCO_SELECT_PIN_OFFSET);
 926:Generated_Source\PSoC4/CyLFClk.c ****             }
 927:Generated_Source\PSoC4/CyLFClk.c ****             else
 928:Generated_Source\PSoC4/CyLFClk.c ****             {
 929:Generated_Source\PSoC4/CyLFClk.c ****                 CYASSERT(0u != 0u);
 930:Generated_Source\PSoC4/CyLFClk.c ****             }
 931:Generated_Source\PSoC4/CyLFClk.c ****         }
 932:Generated_Source\PSoC4/CyLFClk.c ****     }
 933:Generated_Source\PSoC4/CyLFClk.c **** #endif  /* (CY_IP_WCO) */
 934:Generated_Source\PSoC4/CyLFClk.c **** 
 935:Generated_Source\PSoC4/CyLFClk.c **** 
 936:Generated_Source\PSoC4/CyLFClk.c **** #if(CY_IP_SRSSV2)
 937:Generated_Source\PSoC4/CyLFClk.c ****     /*******************************************************************************
 938:Generated_Source\PSoC4/CyLFClk.c ****     * Function Name: CySysWdtLock
ARM GAS  C:\Users\g\AppData\Local\Temp\ccrBoTzc.s 			page 24


 939:Generated_Source\PSoC4/CyLFClk.c ****     ****************************************************************************//**
 940:Generated_Source\PSoC4/CyLFClk.c ****     * \brief
 941:Generated_Source\PSoC4/CyLFClk.c ****     * Locks out configuration changes to the Watchdog timer registers and ILO
 942:Generated_Source\PSoC4/CyLFClk.c ****     * configuration register.
 943:Generated_Source\PSoC4/CyLFClk.c ****     *
 944:Generated_Source\PSoC4/CyLFClk.c ****     * After this function is called, ILO clock can't be disabled until
 945:Generated_Source\PSoC4/CyLFClk.c ****     * CySysWdtUnlock() is called.
 946:Generated_Source\PSoC4/CyLFClk.c ****     *
 947:Generated_Source\PSoC4/CyLFClk.c ****     *******************************************************************************/
 948:Generated_Source\PSoC4/CyLFClk.c ****     void CySysWdtLock(void)
 949:Generated_Source\PSoC4/CyLFClk.c ****     {
 329              		.loc 1 949 0
 330              		.cfi_startproc
 331 0000 08B5     		push	{r3, lr}
 332              		.cfi_def_cfa_offset 8
 333              		.cfi_offset 3, -8
 334              		.cfi_offset 14, -4
 950:Generated_Source\PSoC4/CyLFClk.c ****         uint8 interruptState;
 951:Generated_Source\PSoC4/CyLFClk.c ****         interruptState = CyEnterCriticalSection();
 335              		.loc 1 951 0
 336 0002 FFF7FEFF 		bl	CyEnterCriticalSection
 337              	.LVL21:
 952:Generated_Source\PSoC4/CyLFClk.c **** 
 953:Generated_Source\PSoC4/CyLFClk.c ****         CY_SYS_CLK_SELECT_REG = (CY_SYS_CLK_SELECT_REG & (uint32)(~CY_SYS_WDT_CLK_LOCK_BITS_MASK)) 
 338              		.loc 1 953 0
 339 0006 C021     		mov	r1, #192
 340 0008 034A     		ldr	r2, .L28
 341 000a 0902     		lsl	r1, r1, #8
 342 000c 1368     		ldr	r3, [r2]
 954:Generated_Source\PSoC4/CyLFClk.c ****                  CY_SYS_WDT_CLK_LOCK_BITS_MASK;
 955:Generated_Source\PSoC4/CyLFClk.c **** 
 956:Generated_Source\PSoC4/CyLFClk.c ****         CyExitCriticalSection(interruptState);
 957:Generated_Source\PSoC4/CyLFClk.c ****     }
 343              		.loc 1 957 0
 344              		@ sp needed
 953:Generated_Source\PSoC4/CyLFClk.c ****                  CY_SYS_WDT_CLK_LOCK_BITS_MASK;
 345              		.loc 1 953 0
 346 000e 0B43     		orr	r3, r1
 347 0010 1360     		str	r3, [r2]
 956:Generated_Source\PSoC4/CyLFClk.c ****     }
 348              		.loc 1 956 0
 349 0012 FFF7FEFF 		bl	CyExitCriticalSection
 350              	.LVL22:
 351              		.loc 1 957 0
 352 0016 08BD     		pop	{r3, pc}
 353              	.L29:
 354              		.align	2
 355              	.L28:
 356 0018 00010B40 		.word	1074462976
 357              		.cfi_endproc
 358              	.LFE6:
 359              		.size	CySysWdtLock, .-CySysWdtLock
 360              		.section	.text.CySysWdtUnlock,"ax",%progbits
 361              		.align	2
 362              		.global	CySysWdtUnlock
 363              		.code	16
 364              		.thumb_func
ARM GAS  C:\Users\g\AppData\Local\Temp\ccrBoTzc.s 			page 25


 365              		.type	CySysWdtUnlock, %function
 366              	CySysWdtUnlock:
 367              	.LFB8:
 958:Generated_Source\PSoC4/CyLFClk.c **** 
 959:Generated_Source\PSoC4/CyLFClk.c **** 
 960:Generated_Source\PSoC4/CyLFClk.c ****     /*******************************************************************************
 961:Generated_Source\PSoC4/CyLFClk.c ****     * Function Name: CySysWdtLocked
 962:Generated_Source\PSoC4/CyLFClk.c ****     ****************************************************************************//**
 963:Generated_Source\PSoC4/CyLFClk.c ****     * \internal
 964:Generated_Source\PSoC4/CyLFClk.c ****     * Reports the WDT lock state.
 965:Generated_Source\PSoC4/CyLFClk.c ****     *
 966:Generated_Source\PSoC4/CyLFClk.c ****     * \return 1 - WDT is locked, and 0 - WDT is unlocked.
 967:Generated_Source\PSoC4/CyLFClk.c ****     * \endinternal
 968:Generated_Source\PSoC4/CyLFClk.c ****     *******************************************************************************/
 969:Generated_Source\PSoC4/CyLFClk.c ****     static uint32 CySysWdtLocked(void)
 970:Generated_Source\PSoC4/CyLFClk.c ****     {
 971:Generated_Source\PSoC4/CyLFClk.c ****         /* Prohibits writing to WDT registers and ILO/WCO registers when not equal 0 */
 972:Generated_Source\PSoC4/CyLFClk.c ****         return ((0u != (CY_SYS_CLK_SELECT_REG & (uint32)(CY_SYS_WDT_CLK_LOCK_BITS_MASK))) ? (uint32
 973:Generated_Source\PSoC4/CyLFClk.c ****     }
 974:Generated_Source\PSoC4/CyLFClk.c **** 
 975:Generated_Source\PSoC4/CyLFClk.c **** 
 976:Generated_Source\PSoC4/CyLFClk.c ****     /*******************************************************************************
 977:Generated_Source\PSoC4/CyLFClk.c ****     * Function Name: CySysWdtUnlock
 978:Generated_Source\PSoC4/CyLFClk.c ****     ****************************************************************************//**
 979:Generated_Source\PSoC4/CyLFClk.c ****     * \brief
 980:Generated_Source\PSoC4/CyLFClk.c ****     *  Unlocks the Watchdog Timer configuration register.
 981:Generated_Source\PSoC4/CyLFClk.c ****     *
 982:Generated_Source\PSoC4/CyLFClk.c ****     *******************************************************************************/
 983:Generated_Source\PSoC4/CyLFClk.c ****     void CySysWdtUnlock(void)
 984:Generated_Source\PSoC4/CyLFClk.c ****     {
 368              		.loc 1 984 0
 369              		.cfi_startproc
 370 0000 10B5     		push	{r4, lr}
 371              		.cfi_def_cfa_offset 8
 372              		.cfi_offset 4, -8
 373              		.cfi_offset 14, -4
 985:Generated_Source\PSoC4/CyLFClk.c ****         uint8 interruptState;
 986:Generated_Source\PSoC4/CyLFClk.c ****         interruptState = CyEnterCriticalSection();
 987:Generated_Source\PSoC4/CyLFClk.c **** 
 988:Generated_Source\PSoC4/CyLFClk.c ****         /* Removing WDT lock requires two writes */
 989:Generated_Source\PSoC4/CyLFClk.c ****         CY_SYS_CLK_SELECT_REG = ((CY_SYS_CLK_SELECT_REG & (uint32)(~CY_SYS_WDT_CLK_LOCK_BITS_MASK))
 374              		.loc 1 989 0
 375 0002 8024     		mov	r4, #128
 986:Generated_Source\PSoC4/CyLFClk.c **** 
 376              		.loc 1 986 0
 377 0004 FFF7FEFF 		bl	CyEnterCriticalSection
 378              	.LVL23:
 379              		.loc 1 989 0
 380 0008 0749     		ldr	r1, .L31
 381 000a 084B     		ldr	r3, .L31+4
 382 000c 0A68     		ldr	r2, [r1]
 383 000e E401     		lsl	r4, r4, #7
 384 0010 1A40     		and	r2, r3
 385 0012 2243     		orr	r2, r4
 386 0014 0A60     		str	r2, [r1]
 990:Generated_Source\PSoC4/CyLFClk.c ****                 CY_SYS_WDT_CLK_LOCK_BIT0);
 991:Generated_Source\PSoC4/CyLFClk.c **** 
ARM GAS  C:\Users\g\AppData\Local\Temp\ccrBoTzc.s 			page 26


 992:Generated_Source\PSoC4/CyLFClk.c ****         CY_SYS_CLK_SELECT_REG = ((CY_SYS_CLK_SELECT_REG & (uint32)(~CY_SYS_WDT_CLK_LOCK_BITS_MASK))
 387              		.loc 1 992 0
 388 0016 0A68     		ldr	r2, [r1]
 993:Generated_Source\PSoC4/CyLFClk.c ****                 CY_SYS_WDT_CLK_LOCK_BIT1);
 994:Generated_Source\PSoC4/CyLFClk.c **** 
 995:Generated_Source\PSoC4/CyLFClk.c ****         CyExitCriticalSection(interruptState);
 996:Generated_Source\PSoC4/CyLFClk.c ****     }
 389              		.loc 1 996 0
 390              		@ sp needed
 992:Generated_Source\PSoC4/CyLFClk.c ****                 CY_SYS_WDT_CLK_LOCK_BIT1);
 391              		.loc 1 992 0
 392 0018 1340     		and	r3, r2
 393 001a 8022     		mov	r2, #128
 394 001c 1202     		lsl	r2, r2, #8
 395 001e 1343     		orr	r3, r2
 396 0020 0B60     		str	r3, [r1]
 995:Generated_Source\PSoC4/CyLFClk.c ****     }
 397              		.loc 1 995 0
 398 0022 FFF7FEFF 		bl	CyExitCriticalSection
 399              	.LVL24:
 400              		.loc 1 996 0
 401 0026 10BD     		pop	{r4, pc}
 402              	.L32:
 403              		.align	2
 404              	.L31:
 405 0028 00010B40 		.word	1074462976
 406 002c FF3FFFFF 		.word	-49153
 407              		.cfi_endproc
 408              	.LFE8:
 409              		.size	CySysWdtUnlock, .-CySysWdtUnlock
 410              		.section	.text.CySysWdtGetEnabledStatus,"ax",%progbits
 411              		.align	2
 412              		.global	CySysWdtGetEnabledStatus
 413              		.code	16
 414              		.thumb_func
 415              		.type	CySysWdtGetEnabledStatus, %function
 416              	CySysWdtGetEnabledStatus:
 417              	.LFB9:
 997:Generated_Source\PSoC4/CyLFClk.c **** 
 998:Generated_Source\PSoC4/CyLFClk.c **** 
 999:Generated_Source\PSoC4/CyLFClk.c ****     /*******************************************************************************
1000:Generated_Source\PSoC4/CyLFClk.c ****     * Function Name: CySysWdtGetEnabledStatus
1001:Generated_Source\PSoC4/CyLFClk.c ****     ****************************************************************************//**
1002:Generated_Source\PSoC4/CyLFClk.c ****     * \brief
1003:Generated_Source\PSoC4/CyLFClk.c ****     *  Reads the enabled status of one of the three WDT counters.
1004:Generated_Source\PSoC4/CyLFClk.c ****     *
1005:Generated_Source\PSoC4/CyLFClk.c ****     * \param counterNum: Valid range [0-2].  The number of the WDT counter.
1006:Generated_Source\PSoC4/CyLFClk.c ****     *
1007:Generated_Source\PSoC4/CyLFClk.c ****     * \return The status of the WDT counter:
1008:Generated_Source\PSoC4/CyLFClk.c ****     * \return 0 - If the counter is disabled.
1009:Generated_Source\PSoC4/CyLFClk.c ****     * \return 1 - If the counter is enabled.
1010:Generated_Source\PSoC4/CyLFClk.c ****     *
1011:Generated_Source\PSoC4/CyLFClk.c ****     * \details
1012:Generated_Source\PSoC4/CyLFClk.c ****     * This function returns an actual WDT counter status from the status register. It may
1013:Generated_Source\PSoC4/CyLFClk.c ****     * take up to 3 LFCLK cycles for the WDT status register to contain actual data
1014:Generated_Source\PSoC4/CyLFClk.c ****     * after the WDT counter is enabled.
1015:Generated_Source\PSoC4/CyLFClk.c ****     *
ARM GAS  C:\Users\g\AppData\Local\Temp\ccrBoTzc.s 			page 27


1016:Generated_Source\PSoC4/CyLFClk.c ****     *******************************************************************************/
1017:Generated_Source\PSoC4/CyLFClk.c ****     uint32 CySysWdtGetEnabledStatus(uint32 counterNum)
1018:Generated_Source\PSoC4/CyLFClk.c ****     {
 418              		.loc 1 1018 0
 419              		.cfi_startproc
 420              	.LVL25:
 421 0000 10B5     		push	{r4, lr}
 422              		.cfi_def_cfa_offset 8
 423              		.cfi_offset 4, -8
 424              		.cfi_offset 14, -4
 425              		.loc 1 1018 0
 426 0002 041E     		sub	r4, r0, #0
1019:Generated_Source\PSoC4/CyLFClk.c ****         CYASSERT(counterNum < CY_SYS_WDT_COUNTERS_MAX);
 427              		.loc 1 1019 0
 428 0004 022C     		cmp	r4, #2
 429 0006 02D9     		bls	.L34
 430              		.loc 1 1019 0 is_stmt 0 discriminator 1
 431 0008 0020     		mov	r0, #0
 432              	.LVL26:
 433 000a FFF7FEFF 		bl	CyHalt
 434              	.LVL27:
 435              	.L34:
1020:Generated_Source\PSoC4/CyLFClk.c ****         return ((CY_SYS_WDT_CONTROL_REG >> ((CY_SYS_WDT_CNT_SHIFT * counterNum) + CY_SYS_WDT_CNT_ST
 436              		.loc 1 1020 0 is_stmt 1
 437 000e 044B     		ldr	r3, .L35
 438 0010 E400     		lsl	r4, r4, #3
 439              	.LVL28:
 440 0012 1868     		ldr	r0, [r3]
 441 0014 0134     		add	r4, r4, #1
 442 0016 E040     		lsr	r0, r0, r4
 443 0018 041C     		mov	r4, r0
 444 001a 0120     		mov	r0, #1
1021:Generated_Source\PSoC4/CyLFClk.c ****     }
 445              		.loc 1 1021 0
 446              		@ sp needed
1020:Generated_Source\PSoC4/CyLFClk.c ****         return ((CY_SYS_WDT_CONTROL_REG >> ((CY_SYS_WDT_CNT_SHIFT * counterNum) + CY_SYS_WDT_CNT_ST
 447              		.loc 1 1020 0
 448 001c 2040     		and	r0, r4
 449              		.loc 1 1021 0
 450 001e 10BD     		pop	{r4, pc}
 451              	.L36:
 452              		.align	2
 453              	.L35:
 454 0020 10020B40 		.word	1074463248
 455              		.cfi_endproc
 456              	.LFE9:
 457              		.size	CySysWdtGetEnabledStatus, .-CySysWdtGetEnabledStatus
 458              		.section	.text.CySysWdtSetMode,"ax",%progbits
 459              		.align	2
 460              		.global	CySysWdtSetMode
 461              		.code	16
 462              		.thumb_func
 463              		.type	CySysWdtSetMode, %function
 464              	CySysWdtSetMode:
 465              	.LFB10:
1022:Generated_Source\PSoC4/CyLFClk.c **** 
1023:Generated_Source\PSoC4/CyLFClk.c **** 
ARM GAS  C:\Users\g\AppData\Local\Temp\ccrBoTzc.s 			page 28


1024:Generated_Source\PSoC4/CyLFClk.c ****     /*******************************************************************************
1025:Generated_Source\PSoC4/CyLFClk.c ****     * Function Name: CySysWdtSetMode
1026:Generated_Source\PSoC4/CyLFClk.c ****     ****************************************************************************//**
1027:Generated_Source\PSoC4/CyLFClk.c ****     * \brief
1028:Generated_Source\PSoC4/CyLFClk.c ****     * Writes the mode of one of the three WDT counters.
1029:Generated_Source\PSoC4/CyLFClk.c ****     *
1030:Generated_Source\PSoC4/CyLFClk.c ****     * \param counterNum: Valid range [0-2].  The number of the WDT counter.
1031:Generated_Source\PSoC4/CyLFClk.c ****     *
1032:Generated_Source\PSoC4/CyLFClk.c ****     * \param mode
1033:Generated_Source\PSoC4/CyLFClk.c ****     *  CY_SYS_WDT_MODE_NONE - Free running.<br>
1034:Generated_Source\PSoC4/CyLFClk.c ****     * CY_SYS_WDT_MODE_INT - The interrupt generated on match for counter 0
1035:Generated_Source\PSoC4/CyLFClk.c ****     * and 1, and on bit toggle for counter 2.<br>
1036:Generated_Source\PSoC4/CyLFClk.c ****     * CY_SYS_WDT_MODE_RESET - Reset on match (valid for counter 0 and 1 only).<br>
1037:Generated_Source\PSoC4/CyLFClk.c ****     * CY_SYS_WDT_MODE_INT_RESET - Generate an interrupt.  Generate a reset on
1038:Generated_Source\PSoC4/CyLFClk.c ****     * the 3rd non-handled interrupt (valid for counter 0 and counter 1 only).
1039:Generated_Source\PSoC4/CyLFClk.c ****     *
1040:Generated_Source\PSoC4/CyLFClk.c ****     * \details
1041:Generated_Source\PSoC4/CyLFClk.c ****     * WDT counter counterNum should be disabled to set a mode. Otherwise, this
1042:Generated_Source\PSoC4/CyLFClk.c ****     * function call has no effect. If the specified counter is enabled,
1043:Generated_Source\PSoC4/CyLFClk.c ****     * call the CySysWdtDisable() function with the corresponding parameter to
1044:Generated_Source\PSoC4/CyLFClk.c ****     * disable the specified counter and wait for it to stop.
1045:Generated_Source\PSoC4/CyLFClk.c ****     *
1046:Generated_Source\PSoC4/CyLFClk.c ****     *******************************************************************************/
1047:Generated_Source\PSoC4/CyLFClk.c ****     void CySysWdtSetMode(uint32 counterNum, uint32 mode)
1048:Generated_Source\PSoC4/CyLFClk.c ****     {
 466              		.loc 1 1048 0
 467              		.cfi_startproc
 468              	.LVL29:
 469 0000 38B5     		push	{r3, r4, r5, lr}
 470              		.cfi_def_cfa_offset 16
 471              		.cfi_offset 3, -16
 472              		.cfi_offset 4, -12
 473              		.cfi_offset 5, -8
 474              		.cfi_offset 14, -4
 475              		.loc 1 1048 0
 476 0002 041C     		mov	r4, r0
 477 0004 0D1C     		mov	r5, r1
1049:Generated_Source\PSoC4/CyLFClk.c ****         uint32 configRegValue;
1050:Generated_Source\PSoC4/CyLFClk.c **** 
1051:Generated_Source\PSoC4/CyLFClk.c ****         CYASSERT(counterNum < CY_SYS_WDT_COUNTERS_MAX);
 478              		.loc 1 1051 0
 479 0006 0228     		cmp	r0, #2
 480 0008 11D8     		bhi	.L40
 481              	.LVL30:
 482              	.L38:
1052:Generated_Source\PSoC4/CyLFClk.c **** 
1053:Generated_Source\PSoC4/CyLFClk.c ****         if(0u == CySysWdtGetEnabledStatus(counterNum))
 483              		.loc 1 1053 0
 484 000a 201C     		mov	r0, r4
 485 000c FFF7FEFF 		bl	CySysWdtGetEnabledStatus
 486              	.LVL31:
 487 0010 0028     		cmp	r0, #0
 488 0012 0BD1     		bne	.L37
 489              	.LVL32:
 490              	.LBB30:
 491              	.LBB31:
1054:Generated_Source\PSoC4/CyLFClk.c ****         {
ARM GAS  C:\Users\g\AppData\Local\Temp\ccrBoTzc.s 			page 29


1055:Generated_Source\PSoC4/CyLFClk.c ****             configRegValue = CY_SYS_WDT_CONFIG_REG &
1056:Generated_Source\PSoC4/CyLFClk.c ****                                 (uint32)~((uint32)(CY_SYS_WDT_MODE_MASK << (counterNum * CY_SYS_WDT
 492              		.loc 1 1056 0
 493 0014 0321     		mov	r1, #3
 494 0016 E400     		lsl	r4, r4, #3
 495              	.LVL33:
 496 0018 081C     		mov	r0, r1
1057:Generated_Source\PSoC4/CyLFClk.c ****             configRegValue |= (uint32)((mode & CY_SYS_WDT_MODE_MASK) << (counterNum * CY_SYS_WDT_CN
 497              		.loc 1 1057 0
 498 001a 0D40     		and	r5, r1
 499              	.LVL34:
 500 001c A540     		lsl	r5, r5, r4
1056:Generated_Source\PSoC4/CyLFClk.c ****             configRegValue |= (uint32)((mode & CY_SYS_WDT_MODE_MASK) << (counterNum * CY_SYS_WDT_CN
 501              		.loc 1 1056 0
 502 001e A040     		lsl	r0, r0, r4
 503              		.loc 1 1057 0
 504 0020 2C1C     		mov	r4, r5
1055:Generated_Source\PSoC4/CyLFClk.c ****                                 (uint32)~((uint32)(CY_SYS_WDT_MODE_MASK << (counterNum * CY_SYS_WDT
 505              		.loc 1 1055 0
 506 0022 054A     		ldr	r2, .L41
 507 0024 1368     		ldr	r3, [r2]
 508 0026 8343     		bic	r3, r0
 509              	.LVL35:
 510              		.loc 1 1057 0
 511 0028 1C43     		orr	r4, r3
 512              	.LVL36:
1058:Generated_Source\PSoC4/CyLFClk.c ****             CY_SYS_WDT_CONFIG_REG = configRegValue;
 513              		.loc 1 1058 0
 514 002a 1460     		str	r4, [r2]
 515              	.LVL37:
 516              	.L37:
 517              	.LBE31:
 518              	.LBE30:
1059:Generated_Source\PSoC4/CyLFClk.c ****         }
1060:Generated_Source\PSoC4/CyLFClk.c ****     }
 519              		.loc 1 1060 0
 520              		@ sp needed
 521 002c 38BD     		pop	{r3, r4, r5, pc}
 522              	.LVL38:
 523              	.L40:
1051:Generated_Source\PSoC4/CyLFClk.c **** 
 524              		.loc 1 1051 0 discriminator 1
 525 002e 0020     		mov	r0, #0
 526              	.LVL39:
 527 0030 FFF7FEFF 		bl	CyHalt
 528              	.LVL40:
 529 0034 E9E7     		b	.L38
 530              	.L42:
 531 0036 C046     		.align	2
 532              	.L41:
 533 0038 0C020B40 		.word	1074463244
 534              		.cfi_endproc
 535              	.LFE10:
 536              		.size	CySysWdtSetMode, .-CySysWdtSetMode
 537              		.section	.text.CySysWdtGetMode,"ax",%progbits
 538              		.align	2
 539              		.global	CySysWdtGetMode
ARM GAS  C:\Users\g\AppData\Local\Temp\ccrBoTzc.s 			page 30


 540              		.code	16
 541              		.thumb_func
 542              		.type	CySysWdtGetMode, %function
 543              	CySysWdtGetMode:
 544              	.LFB11:
1061:Generated_Source\PSoC4/CyLFClk.c **** 
1062:Generated_Source\PSoC4/CyLFClk.c **** 
1063:Generated_Source\PSoC4/CyLFClk.c ****     /*******************************************************************************
1064:Generated_Source\PSoC4/CyLFClk.c ****     * Function Name: CySysWdtGetMode
1065:Generated_Source\PSoC4/CyLFClk.c ****     ****************************************************************************//**
1066:Generated_Source\PSoC4/CyLFClk.c ****     * 
1067:Generated_Source\PSoC4/CyLFClk.c ****     * \brief Reads the mode of one of the three WDT counters.
1068:Generated_Source\PSoC4/CyLFClk.c ****     *
1069:Generated_Source\PSoC4/CyLFClk.c ****     * \param counterNum Valid range [0-2]. The number of the WDT counter.
1070:Generated_Source\PSoC4/CyLFClk.c ****     *
1071:Generated_Source\PSoC4/CyLFClk.c ****     * \return The mode of the counter. The same enumerated values as the mode 
1072:Generated_Source\PSoC4/CyLFClk.c ****     * parameter used in CySysWdtSetMode().
1073:Generated_Source\PSoC4/CyLFClk.c ****     *
1074:Generated_Source\PSoC4/CyLFClk.c ****     *******************************************************************************/
1075:Generated_Source\PSoC4/CyLFClk.c ****     uint32 CySysWdtGetMode(uint32 counterNum)
1076:Generated_Source\PSoC4/CyLFClk.c ****     {
 545              		.loc 1 1076 0
 546              		.cfi_startproc
 547              	.LVL41:
1077:Generated_Source\PSoC4/CyLFClk.c ****         return ((CY_SYS_WDT_CONFIG_REG >> (counterNum * CY_SYS_WDT_CNT_SHIFT)) & CY_SYS_WDT_MODE_MA
 548              		.loc 1 1077 0
 549 0000 034B     		ldr	r3, .L44
 550 0002 C000     		lsl	r0, r0, #3
 551              	.LVL42:
 552 0004 1B68     		ldr	r3, [r3]
1078:Generated_Source\PSoC4/CyLFClk.c ****     }
 553              		.loc 1 1078 0
 554              		@ sp needed
1077:Generated_Source\PSoC4/CyLFClk.c ****         return ((CY_SYS_WDT_CONFIG_REG >> (counterNum * CY_SYS_WDT_CNT_SHIFT)) & CY_SYS_WDT_MODE_MA
 555              		.loc 1 1077 0
 556 0006 C340     		lsr	r3, r3, r0
 557 0008 181C     		mov	r0, r3
 558 000a 0323     		mov	r3, #3
 559 000c 1840     		and	r0, r3
 560              		.loc 1 1078 0
 561 000e 7047     		bx	lr
 562              	.L45:
 563              		.align	2
 564              	.L44:
 565 0010 0C020B40 		.word	1074463244
 566              		.cfi_endproc
 567              	.LFE11:
 568              		.size	CySysWdtGetMode, .-CySysWdtGetMode
 569              		.section	.text.CySysWdtSetClearOnMatch,"ax",%progbits
 570              		.align	2
 571              		.global	CySysWdtSetClearOnMatch
 572              		.code	16
 573              		.thumb_func
 574              		.type	CySysWdtSetClearOnMatch, %function
 575              	CySysWdtSetClearOnMatch:
 576              	.LFB12:
1079:Generated_Source\PSoC4/CyLFClk.c **** 
ARM GAS  C:\Users\g\AppData\Local\Temp\ccrBoTzc.s 			page 31


1080:Generated_Source\PSoC4/CyLFClk.c **** 
1081:Generated_Source\PSoC4/CyLFClk.c ****     /*******************************************************************************
1082:Generated_Source\PSoC4/CyLFClk.c ****     * Function Name: CySysWdtSetClearOnMatch
1083:Generated_Source\PSoC4/CyLFClk.c ****     ****************************************************************************//**
1084:Generated_Source\PSoC4/CyLFClk.c ****     * 
1085:Generated_Source\PSoC4/CyLFClk.c ****     * \brief Configures the WDT counter "clear on match" setting.
1086:Generated_Source\PSoC4/CyLFClk.c ****     *
1087:Generated_Source\PSoC4/CyLFClk.c ****     * If configured to "clear on match", the counter counts from 0 to MatchValue
1088:Generated_Source\PSoC4/CyLFClk.c ****     * giving it a period of (MatchValue + 1).
1089:Generated_Source\PSoC4/CyLFClk.c ****     *
1090:Generated_Source\PSoC4/CyLFClk.c ****     * \param counterNum
1091:Generated_Source\PSoC4/CyLFClk.c ****     * Valid range [0-1]. The number of the WDT counter. The match values are not
1092:Generated_Source\PSoC4/CyLFClk.c ****     * supported by counter 2.
1093:Generated_Source\PSoC4/CyLFClk.c ****     *
1094:Generated_Source\PSoC4/CyLFClk.c ****     * \param enable 0 to disable appropriate counter <br>
1095:Generated_Source\PSoC4/CyLFClk.c ****     *  1 to enable appropriate counter
1096:Generated_Source\PSoC4/CyLFClk.c ****     *
1097:Generated_Source\PSoC4/CyLFClk.c ****     * \details
1098:Generated_Source\PSoC4/CyLFClk.c ****     * WDT counter counterNum should be disabled. Otherwise this function call
1099:Generated_Source\PSoC4/CyLFClk.c ****     * has no effect. If the specified counter is enabled, call the CySysWdtDisable()
1100:Generated_Source\PSoC4/CyLFClk.c ****     * function with the corresponding parameter to disable the specified counter and
1101:Generated_Source\PSoC4/CyLFClk.c ****     * wait for it to stop. This may take up to three LFCLK cycles.
1102:Generated_Source\PSoC4/CyLFClk.c ****     *
1103:Generated_Source\PSoC4/CyLFClk.c ****     *******************************************************************************/
1104:Generated_Source\PSoC4/CyLFClk.c ****     void CySysWdtSetClearOnMatch(uint32 counterNum, uint32 enable)
1105:Generated_Source\PSoC4/CyLFClk.c ****     {
 577              		.loc 1 1105 0
 578              		.cfi_startproc
 579              	.LVL43:
 580 0000 38B5     		push	{r3, r4, r5, lr}
 581              		.cfi_def_cfa_offset 16
 582              		.cfi_offset 3, -16
 583              		.cfi_offset 4, -12
 584              		.cfi_offset 5, -8
 585              		.cfi_offset 14, -4
 586              		.loc 1 1105 0
 587 0002 041C     		mov	r4, r0
 588 0004 0D1C     		mov	r5, r1
1106:Generated_Source\PSoC4/CyLFClk.c ****         uint32 configRegValue;
1107:Generated_Source\PSoC4/CyLFClk.c **** 
1108:Generated_Source\PSoC4/CyLFClk.c ****         CYASSERT((counterNum == CY_SYS_WDT_COUNTER0) ||
 589              		.loc 1 1108 0
 590 0006 0128     		cmp	r0, #1
 591 0008 02D9     		bls	.L47
 592              		.loc 1 1108 0 is_stmt 0 discriminator 1
 593 000a 0020     		mov	r0, #0
 594              	.LVL44:
 595 000c FFF7FEFF 		bl	CyHalt
 596              	.LVL45:
 597              	.L47:
1109:Generated_Source\PSoC4/CyLFClk.c ****                  (counterNum == CY_SYS_WDT_COUNTER1));
1110:Generated_Source\PSoC4/CyLFClk.c **** 
1111:Generated_Source\PSoC4/CyLFClk.c ****         if(0u == CySysWdtGetEnabledStatus(counterNum))
 598              		.loc 1 1111 0 is_stmt 1
 599 0010 201C     		mov	r0, r4
 600 0012 FFF7FEFF 		bl	CySysWdtGetEnabledStatus
 601              	.LVL46:
ARM GAS  C:\Users\g\AppData\Local\Temp\ccrBoTzc.s 			page 32


 602 0016 0028     		cmp	r0, #0
 603 0018 0AD1     		bne	.L46
1112:Generated_Source\PSoC4/CyLFClk.c ****         {
1113:Generated_Source\PSoC4/CyLFClk.c ****             configRegValue = CY_SYS_WDT_CONFIG_REG & (uint32)~((uint32)((uint32)1u << 
1114:Generated_Source\PSoC4/CyLFClk.c ****                                      ((counterNum * CY_SYS_WDT_CNT_SHIFT) + CY_SYS_WDT_CNT_MATCH_CL
 604              		.loc 1 1114 0
 605 001a E400     		lsl	r4, r4, #3
 606              	.LVL47:
 607 001c 0234     		add	r4, r4, #2
1113:Generated_Source\PSoC4/CyLFClk.c ****                                      ((counterNum * CY_SYS_WDT_CNT_SHIFT) + CY_SYS_WDT_CNT_MATCH_CL
 608              		.loc 1 1113 0
 609 001e 0122     		mov	r2, #1
1115:Generated_Source\PSoC4/CyLFClk.c **** 
1116:Generated_Source\PSoC4/CyLFClk.c ****             configRegValue
1117:Generated_Source\PSoC4/CyLFClk.c ****                 |= (uint32)(enable << ((counterNum * CY_SYS_WDT_CNT_SHIFT) + CY_SYS_WDT_CNT_MATCH_C
 610              		.loc 1 1117 0
 611 0020 A540     		lsl	r5, r5, r4
 612              	.LVL48:
1113:Generated_Source\PSoC4/CyLFClk.c ****                                      ((counterNum * CY_SYS_WDT_CNT_SHIFT) + CY_SYS_WDT_CNT_MATCH_CL
 613              		.loc 1 1113 0
 614 0022 A240     		lsl	r2, r2, r4
 615              		.loc 1 1117 0
 616 0024 2C1C     		mov	r4, r5
1113:Generated_Source\PSoC4/CyLFClk.c ****                                      ((counterNum * CY_SYS_WDT_CNT_SHIFT) + CY_SYS_WDT_CNT_MATCH_CL
 617              		.loc 1 1113 0
 618 0026 0349     		ldr	r1, .L49
 619 0028 0B68     		ldr	r3, [r1]
 620 002a 9343     		bic	r3, r2
 621              	.LVL49:
 622              		.loc 1 1117 0
 623 002c 1C43     		orr	r4, r3
 624              	.LVL50:
1118:Generated_Source\PSoC4/CyLFClk.c **** 
1119:Generated_Source\PSoC4/CyLFClk.c ****             CY_SYS_WDT_CONFIG_REG = configRegValue;
 625              		.loc 1 1119 0
 626 002e 0C60     		str	r4, [r1]
 627              	.LVL51:
 628              	.L46:
1120:Generated_Source\PSoC4/CyLFClk.c ****         }
1121:Generated_Source\PSoC4/CyLFClk.c ****     }
 629              		.loc 1 1121 0
 630              		@ sp needed
 631 0030 38BD     		pop	{r3, r4, r5, pc}
 632              	.L50:
 633 0032 C046     		.align	2
 634              	.L49:
 635 0034 0C020B40 		.word	1074463244
 636              		.cfi_endproc
 637              	.LFE12:
 638              		.size	CySysWdtSetClearOnMatch, .-CySysWdtSetClearOnMatch
 639              		.section	.text.CySysWdtGetClearOnMatch,"ax",%progbits
 640              		.align	2
 641              		.global	CySysWdtGetClearOnMatch
 642              		.code	16
 643              		.thumb_func
 644              		.type	CySysWdtGetClearOnMatch, %function
 645              	CySysWdtGetClearOnMatch:
ARM GAS  C:\Users\g\AppData\Local\Temp\ccrBoTzc.s 			page 33


 646              	.LFB13:
1122:Generated_Source\PSoC4/CyLFClk.c **** 
1123:Generated_Source\PSoC4/CyLFClk.c **** 
1124:Generated_Source\PSoC4/CyLFClk.c ****     /*******************************************************************************
1125:Generated_Source\PSoC4/CyLFClk.c ****     * Function Name: CySysWdtGetClearOnMatch
1126:Generated_Source\PSoC4/CyLFClk.c ****     ****************************************************************************//**
1127:Generated_Source\PSoC4/CyLFClk.c ****     * \brief
1128:Generated_Source\PSoC4/CyLFClk.c ****     * Reads the "clear on match" setting for the specified counter.
1129:Generated_Source\PSoC4/CyLFClk.c ****     *
1130:Generated_Source\PSoC4/CyLFClk.c ****     * \param
1131:Generated_Source\PSoC4/CyLFClk.c ****     * counterNum Valid range [0-1]. The number of the WDT counter. The match values
1132:Generated_Source\PSoC4/CyLFClk.c ****     * are not supported by counter 2.
1133:Generated_Source\PSoC4/CyLFClk.c ****     *
1134:Generated_Source\PSoC4/CyLFClk.c ****     * \return The "clear on match" status: <br>1 if enabled <br>0 if disabled
1135:Generated_Source\PSoC4/CyLFClk.c ****     *
1136:Generated_Source\PSoC4/CyLFClk.c ****     *******************************************************************************/
1137:Generated_Source\PSoC4/CyLFClk.c ****     uint32 CySysWdtGetClearOnMatch(uint32 counterNum)
1138:Generated_Source\PSoC4/CyLFClk.c ****     {
 647              		.loc 1 1138 0
 648              		.cfi_startproc
 649              	.LVL52:
 650 0000 10B5     		push	{r4, lr}
 651              		.cfi_def_cfa_offset 8
 652              		.cfi_offset 4, -8
 653              		.cfi_offset 14, -4
 654              		.loc 1 1138 0
 655 0002 041E     		sub	r4, r0, #0
1139:Generated_Source\PSoC4/CyLFClk.c ****         CYASSERT((counterNum == CY_SYS_WDT_COUNTER0) ||
 656              		.loc 1 1139 0
 657 0004 012C     		cmp	r4, #1
 658 0006 02D9     		bls	.L52
 659              		.loc 1 1139 0 is_stmt 0 discriminator 1
 660 0008 0020     		mov	r0, #0
 661              	.LVL53:
 662 000a FFF7FEFF 		bl	CyHalt
 663              	.LVL54:
 664              	.L52:
1140:Generated_Source\PSoC4/CyLFClk.c ****                  (counterNum == CY_SYS_WDT_COUNTER1));
1141:Generated_Source\PSoC4/CyLFClk.c **** 
1142:Generated_Source\PSoC4/CyLFClk.c ****         return (uint32)((CY_SYS_WDT_CONFIG_REG >>
 665              		.loc 1 1142 0 is_stmt 1
 666 000e 044B     		ldr	r3, .L53
1143:Generated_Source\PSoC4/CyLFClk.c ****                         ((counterNum * CY_SYS_WDT_CNT_SHIFT) + CY_SYS_WDT_CNT_MATCH_CLR_SHIFT)) & 0
 667              		.loc 1 1143 0
 668 0010 E400     		lsl	r4, r4, #3
 669              	.LVL55:
1142:Generated_Source\PSoC4/CyLFClk.c ****                         ((counterNum * CY_SYS_WDT_CNT_SHIFT) + CY_SYS_WDT_CNT_MATCH_CLR_SHIFT)) & 0
 670              		.loc 1 1142 0
 671 0012 1868     		ldr	r0, [r3]
 672              		.loc 1 1143 0
 673 0014 0234     		add	r4, r4, #2
1142:Generated_Source\PSoC4/CyLFClk.c ****                         ((counterNum * CY_SYS_WDT_CNT_SHIFT) + CY_SYS_WDT_CNT_MATCH_CLR_SHIFT)) & 0
 674              		.loc 1 1142 0
 675 0016 E040     		lsr	r0, r0, r4
 676 0018 041C     		mov	r4, r0
 677 001a 0120     		mov	r0, #1
1144:Generated_Source\PSoC4/CyLFClk.c ****     }
ARM GAS  C:\Users\g\AppData\Local\Temp\ccrBoTzc.s 			page 34


 678              		.loc 1 1144 0
 679              		@ sp needed
1142:Generated_Source\PSoC4/CyLFClk.c ****                         ((counterNum * CY_SYS_WDT_CNT_SHIFT) + CY_SYS_WDT_CNT_MATCH_CLR_SHIFT)) & 0
 680              		.loc 1 1142 0
 681 001c 2040     		and	r0, r4
 682              		.loc 1 1144 0
 683 001e 10BD     		pop	{r4, pc}
 684              	.L54:
 685              		.align	2
 686              	.L53:
 687 0020 0C020B40 		.word	1074463244
 688              		.cfi_endproc
 689              	.LFE13:
 690              		.size	CySysWdtGetClearOnMatch, .-CySysWdtGetClearOnMatch
 691              		.section	.text.CySysWdtEnable,"ax",%progbits
 692              		.align	2
 693              		.global	CySysWdtEnable
 694              		.code	16
 695              		.thumb_func
 696              		.type	CySysWdtEnable, %function
 697              	CySysWdtEnable:
 698              	.LFB14:
1145:Generated_Source\PSoC4/CyLFClk.c **** 
1146:Generated_Source\PSoC4/CyLFClk.c **** 
1147:Generated_Source\PSoC4/CyLFClk.c ****     /*******************************************************************************
1148:Generated_Source\PSoC4/CyLFClk.c ****     * Function Name: CySysWdtEnable
1149:Generated_Source\PSoC4/CyLFClk.c ****     ****************************************************************************//**
1150:Generated_Source\PSoC4/CyLFClk.c ****     *
1151:Generated_Source\PSoC4/CyLFClk.c ****     * \brief Enables the specified WDT counters.
1152:Generated_Source\PSoC4/CyLFClk.c ****     *
1153:Generated_Source\PSoC4/CyLFClk.c ****     * All the counters specified in the mask are enabled.
1154:Generated_Source\PSoC4/CyLFClk.c ****     *
1155:Generated_Source\PSoC4/CyLFClk.c ****     * \param counterMask
1156:Generated_Source\PSoC4/CyLFClk.c ****     *  CY_SYS_WDT_COUNTER0_MASK - The mask for counter 0 to enable.<br>
1157:Generated_Source\PSoC4/CyLFClk.c ****     * CY_SYS_WDT_COUNTER1_MASK - The mask for counter 1 to enable.<br>
1158:Generated_Source\PSoC4/CyLFClk.c ****     * CY_SYS_WDT_COUNTER2_MASK - The mask for counter 2 to enable.
1159:Generated_Source\PSoC4/CyLFClk.c ****     *
1160:Generated_Source\PSoC4/CyLFClk.c ****     * \details
1161:Generated_Source\PSoC4/CyLFClk.c ****     * Enabling or disabling WDT requires 3 LFCLK cycles to come into effect.
1162:Generated_Source\PSoC4/CyLFClk.c ****     * Therefore, the WDT enable state must not be changed more than once in
1163:Generated_Source\PSoC4/CyLFClk.c ****     * that period.
1164:Generated_Source\PSoC4/CyLFClk.c ****     *
1165:Generated_Source\PSoC4/CyLFClk.c ****     * After WDT is enabled, it is illegal to write WDT configuration (WDT_CONFIG)
1166:Generated_Source\PSoC4/CyLFClk.c ****     * and control (WDT_CONTROL) registers. This means that all WDT functions that
1167:Generated_Source\PSoC4/CyLFClk.c ****     * contain 'write' in the name (with the exception of CySysWdtSetMatch()
1168:Generated_Source\PSoC4/CyLFClk.c ****     * function) are illegal to call if WDT is enabled.
1169:Generated_Source\PSoC4/CyLFClk.c ****     *
1170:Generated_Source\PSoC4/CyLFClk.c ****     * PSoC 4100 / PSoC 4200: This function enables ILO.
1171:Generated_Source\PSoC4/CyLFClk.c ****     *
1172:Generated_Source\PSoC4/CyLFClk.c ****     * PSoC 4100 BLE / PSoC 4200 BLE / PSoC4200L / PSoC 4100M 
1173:Generated_Source\PSoC4/CyLFClk.c ****     * / PSoC 4200M:
1174:Generated_Source\PSoC4/CyLFClk.c ****     * LFLCK should be configured before calling this function. The desired
1175:Generated_Source\PSoC4/CyLFClk.c ****     * source should be enabled and configured to be the source for LFCLK.
1176:Generated_Source\PSoC4/CyLFClk.c ****     *
1177:Generated_Source\PSoC4/CyLFClk.c ****     *******************************************************************************/
1178:Generated_Source\PSoC4/CyLFClk.c ****     void CySysWdtEnable(uint32 counterMask)
1179:Generated_Source\PSoC4/CyLFClk.c ****     {
ARM GAS  C:\Users\g\AppData\Local\Temp\ccrBoTzc.s 			page 35


 699              		.loc 1 1179 0
 700              		.cfi_startproc
 701              	.LVL56:
 702              	.LBB44:
 703              	.LBB45:
  85:Generated_Source\PSoC4/CyLFClk.c **** }
 704              		.loc 1 85 0
 705 0000 8021     		mov	r1, #128
 706 0002 104A     		ldr	r2, .L80
 707 0004 0906     		lsl	r1, r1, #24
 708 0006 1368     		ldr	r3, [r2]
 709 0008 0B43     		orr	r3, r1
 710 000a 1360     		str	r3, [r2]
 711              	.LBE45:
 712              	.LBE44:
1180:Generated_Source\PSoC4/CyLFClk.c ****         #if (!CY_IP_WCO)
1181:Generated_Source\PSoC4/CyLFClk.c ****             CySysClkIloStart();
1182:Generated_Source\PSoC4/CyLFClk.c ****         #endif /* (!CY_IP_WCO) */
1183:Generated_Source\PSoC4/CyLFClk.c **** 
1184:Generated_Source\PSoC4/CyLFClk.c ****         CY_SYS_WDT_CONTROL_REG |= counterMask;
 713              		.loc 1 1184 0
 714 000c 0E4A     		ldr	r2, .L80+4
 715 000e 1368     		ldr	r3, [r2]
 716 0010 0343     		orr	r3, r0
 717 0012 1360     		str	r3, [r2]
1185:Generated_Source\PSoC4/CyLFClk.c **** 
1186:Generated_Source\PSoC4/CyLFClk.c ****         if(0u != (counterMask & CY_SYS_WDT_COUNTER0_MASK))
 718              		.loc 1 1186 0
 719 0014 C307     		lsl	r3, r0, #31
 720 0016 03D5     		bpl	.L56
 721 0018 0221     		mov	r1, #2
 722              	.L71:
 723              	.LVL57:
 724              	.LBB46:
 725              	.LBB47:
1020:Generated_Source\PSoC4/CyLFClk.c ****     }
 726              		.loc 1 1020 0 discriminator 1
 727 001a 1368     		ldr	r3, [r2]
 728              	.LBE47:
 729              	.LBE46:
1187:Generated_Source\PSoC4/CyLFClk.c ****         {
1188:Generated_Source\PSoC4/CyLFClk.c ****             while (0u == CySysWdtGetEnabledStatus(CY_SYS_WDT_COUNTER0))
 730              		.loc 1 1188 0 discriminator 1
 731 001c 1942     		tst	r1, r3
 732 001e FCD0     		beq	.L71
 733              	.LVL58:
 734              	.L56:
1189:Generated_Source\PSoC4/CyLFClk.c ****             {
1190:Generated_Source\PSoC4/CyLFClk.c ****                 /* Wait for changes to come into effect */
1191:Generated_Source\PSoC4/CyLFClk.c ****             }
1192:Generated_Source\PSoC4/CyLFClk.c ****         }
1193:Generated_Source\PSoC4/CyLFClk.c **** 
1194:Generated_Source\PSoC4/CyLFClk.c ****         if(0u != (counterMask & CY_SYS_WDT_COUNTER1_MASK))
 735              		.loc 1 1194 0
 736 0020 C305     		lsl	r3, r0, #23
 737 0022 05D5     		bpl	.L58
 738 0024 8022     		mov	r2, #128
ARM GAS  C:\Users\g\AppData\Local\Temp\ccrBoTzc.s 			page 36


 739              	.LBB48:
 740              	.LBB49:
1020:Generated_Source\PSoC4/CyLFClk.c ****     }
 741              		.loc 1 1020 0 discriminator 1
 742 0026 0849     		ldr	r1, .L80+4
 743 0028 9200     		lsl	r2, r2, #2
 744              	.L72:
 745              	.LVL59:
 746 002a 0B68     		ldr	r3, [r1]
 747              	.LBE49:
 748              	.LBE48:
1195:Generated_Source\PSoC4/CyLFClk.c ****         {
1196:Generated_Source\PSoC4/CyLFClk.c ****             while (0u == CySysWdtGetEnabledStatus(CY_SYS_WDT_COUNTER1))
 749              		.loc 1 1196 0 discriminator 1
 750 002c 1342     		tst	r3, r2
 751 002e FCD0     		beq	.L72
 752              	.LVL60:
 753              	.L58:
1197:Generated_Source\PSoC4/CyLFClk.c ****             {
1198:Generated_Source\PSoC4/CyLFClk.c ****                 /* Wait for changes to come into effect */
1199:Generated_Source\PSoC4/CyLFClk.c ****             }
1200:Generated_Source\PSoC4/CyLFClk.c ****         }
1201:Generated_Source\PSoC4/CyLFClk.c **** 
1202:Generated_Source\PSoC4/CyLFClk.c ****         if(0u != (counterMask & CY_SYS_WDT_COUNTER2_MASK))
 754              		.loc 1 1202 0
 755 0030 C303     		lsl	r3, r0, #15
 756 0032 05D5     		bpl	.L55
 757 0034 8022     		mov	r2, #128
 758              	.LBB50:
 759              	.LBB51:
 760              	.LBB52:
 761              	.LBB53:
1020:Generated_Source\PSoC4/CyLFClk.c ****     }
 762              		.loc 1 1020 0
 763 0036 0449     		ldr	r1, .L80+4
 764 0038 9202     		lsl	r2, r2, #10
 765              	.L73:
 766              	.LVL61:
 767 003a 0B68     		ldr	r3, [r1]
 768              	.LBE53:
 769              	.LBE52:
1203:Generated_Source\PSoC4/CyLFClk.c ****         {
1204:Generated_Source\PSoC4/CyLFClk.c ****             while (0u == CySysWdtGetEnabledStatus(CY_SYS_WDT_COUNTER2))
 770              		.loc 1 1204 0
 771 003c 1342     		tst	r3, r2
 772 003e FCD0     		beq	.L73
 773              	.LVL62:
 774              	.L55:
 775              	.LBE51:
 776              	.LBE50:
1205:Generated_Source\PSoC4/CyLFClk.c ****             {
1206:Generated_Source\PSoC4/CyLFClk.c ****                 /* Wait for changes to come into effect */
1207:Generated_Source\PSoC4/CyLFClk.c ****             }
1208:Generated_Source\PSoC4/CyLFClk.c ****         }
1209:Generated_Source\PSoC4/CyLFClk.c ****     }
 777              		.loc 1 1209 0
 778              		@ sp needed
ARM GAS  C:\Users\g\AppData\Local\Temp\ccrBoTzc.s 			page 37


 779 0040 7047     		bx	lr
 780              	.L81:
 781 0042 C046     		.align	2
 782              	.L80:
 783 0044 04010B40 		.word	1074462980
 784 0048 10020B40 		.word	1074463248
 785              		.cfi_endproc
 786              	.LFE14:
 787              		.size	CySysWdtEnable, .-CySysWdtEnable
 788              		.section	.text.CySysWdtDisable,"ax",%progbits
 789              		.align	2
 790              		.global	CySysWdtDisable
 791              		.code	16
 792              		.thumb_func
 793              		.type	CySysWdtDisable, %function
 794              	CySysWdtDisable:
 795              	.LFB15:
1210:Generated_Source\PSoC4/CyLFClk.c **** 
1211:Generated_Source\PSoC4/CyLFClk.c **** 
1212:Generated_Source\PSoC4/CyLFClk.c ****     /*******************************************************************************
1213:Generated_Source\PSoC4/CyLFClk.c ****     * Function Name: CySysWdtDisable
1214:Generated_Source\PSoC4/CyLFClk.c ****     ****************************************************************************//**
1215:Generated_Source\PSoC4/CyLFClk.c ****     *
1216:Generated_Source\PSoC4/CyLFClk.c ****     * \brief Disables the specified WDT counters.
1217:Generated_Source\PSoC4/CyLFClk.c ****     * All the counters specified in the mask are disabled. The function waits for 
1218:Generated_Source\PSoC4/CyLFClk.c ****     * the changes to come into effect.
1219:Generated_Source\PSoC4/CyLFClk.c ****     *
1220:Generated_Source\PSoC4/CyLFClk.c ****     * \param counterMask
1221:Generated_Source\PSoC4/CyLFClk.c ****     * CY_SYS_WDT_COUNTER0_MASK - The mask for counter 0 to disable. <br>
1222:Generated_Source\PSoC4/CyLFClk.c ****     * CY_SYS_WDT_COUNTER1_MASK - The mask for counter 1 to disable. <br>
1223:Generated_Source\PSoC4/CyLFClk.c ****     * CY_SYS_WDT_COUNTER2_MASK - The mask for counter 2 to disable.
1224:Generated_Source\PSoC4/CyLFClk.c ****     *
1225:Generated_Source\PSoC4/CyLFClk.c ****     *******************************************************************************/
1226:Generated_Source\PSoC4/CyLFClk.c ****     void CySysWdtDisable(uint32 counterMask)
1227:Generated_Source\PSoC4/CyLFClk.c ****     {
 796              		.loc 1 1227 0
 797              		.cfi_startproc
 798              	.LVL63:
 799              	.LBB62:
 800              	.LBB63:
 972:Generated_Source\PSoC4/CyLFClk.c ****     }
 801              		.loc 1 972 0
 802 0000 104B     		ldr	r3, .L102
 803 0002 1A68     		ldr	r2, [r3]
 804 0004 C023     		mov	r3, #192
 805 0006 1B02     		lsl	r3, r3, #8
 806 0008 1A42     		tst	r2, r3
 807 000a 19D1     		bne	.L82
 808              	.LBE63:
 809              	.LBE62:
1228:Generated_Source\PSoC4/CyLFClk.c ****         if (0uL == CySysWdtLocked())
1229:Generated_Source\PSoC4/CyLFClk.c ****         {
1230:Generated_Source\PSoC4/CyLFClk.c ****             CY_SYS_WDT_CONTROL_REG &= ~counterMask;
 810              		.loc 1 1230 0
 811 000c 0E4A     		ldr	r2, .L102+4
 812 000e 1368     		ldr	r3, [r2]
 813 0010 8343     		bic	r3, r0
ARM GAS  C:\Users\g\AppData\Local\Temp\ccrBoTzc.s 			page 38


 814 0012 1360     		str	r3, [r2]
1231:Generated_Source\PSoC4/CyLFClk.c **** 
1232:Generated_Source\PSoC4/CyLFClk.c ****             if(0u != (counterMask & CY_SYS_WDT_COUNTER0_MASK))
 815              		.loc 1 1232 0
 816 0014 C307     		lsl	r3, r0, #31
 817 0016 03D5     		bpl	.L89
 818 0018 0221     		mov	r1, #2
 819              	.L96:
 820              	.LVL64:
 821              	.LBB64:
 822              	.LBB65:
1020:Generated_Source\PSoC4/CyLFClk.c ****     }
 823              		.loc 1 1020 0 discriminator 1
 824 001a 1368     		ldr	r3, [r2]
 825              	.LBE65:
 826              	.LBE64:
1233:Generated_Source\PSoC4/CyLFClk.c ****             {
1234:Generated_Source\PSoC4/CyLFClk.c ****                 while (0u != CySysWdtGetEnabledStatus(CY_SYS_WDT_COUNTER0))
 827              		.loc 1 1234 0 discriminator 1
 828 001c 1942     		tst	r1, r3
 829 001e FCD1     		bne	.L96
 830              	.LVL65:
 831              	.L89:
1235:Generated_Source\PSoC4/CyLFClk.c ****                 {
1236:Generated_Source\PSoC4/CyLFClk.c ****                     /* Wait for changes to come into effect */
1237:Generated_Source\PSoC4/CyLFClk.c ****                 }
1238:Generated_Source\PSoC4/CyLFClk.c ****             }
1239:Generated_Source\PSoC4/CyLFClk.c **** 
1240:Generated_Source\PSoC4/CyLFClk.c ****             if(0u != (counterMask & CY_SYS_WDT_COUNTER1_MASK))
 832              		.loc 1 1240 0
 833 0020 C305     		lsl	r3, r0, #23
 834 0022 05D5     		bpl	.L85
 835 0024 8022     		mov	r2, #128
 836              	.LBB66:
 837              	.LBB67:
1020:Generated_Source\PSoC4/CyLFClk.c ****     }
 838              		.loc 1 1020 0 discriminator 1
 839 0026 0849     		ldr	r1, .L102+4
 840 0028 9200     		lsl	r2, r2, #2
 841              	.L95:
 842              	.LVL66:
 843 002a 0B68     		ldr	r3, [r1]
 844              	.LBE67:
 845              	.LBE66:
1241:Generated_Source\PSoC4/CyLFClk.c ****             {
1242:Generated_Source\PSoC4/CyLFClk.c ****                 while (0u != CySysWdtGetEnabledStatus(CY_SYS_WDT_COUNTER1))
 846              		.loc 1 1242 0 discriminator 1
 847 002c 1342     		tst	r3, r2
 848 002e FCD1     		bne	.L95
 849              	.LVL67:
 850              	.L85:
1243:Generated_Source\PSoC4/CyLFClk.c ****                 {
1244:Generated_Source\PSoC4/CyLFClk.c ****                     /* Wait for changes to come into effect */
1245:Generated_Source\PSoC4/CyLFClk.c ****                 }
1246:Generated_Source\PSoC4/CyLFClk.c ****             }
1247:Generated_Source\PSoC4/CyLFClk.c **** 
1248:Generated_Source\PSoC4/CyLFClk.c ****             if(0u != (counterMask & CY_SYS_WDT_COUNTER2_MASK))
ARM GAS  C:\Users\g\AppData\Local\Temp\ccrBoTzc.s 			page 39


 851              		.loc 1 1248 0
 852 0030 C303     		lsl	r3, r0, #15
 853 0032 05D5     		bpl	.L82
 854 0034 8022     		mov	r2, #128
 855              	.LBB68:
 856              	.LBB69:
1020:Generated_Source\PSoC4/CyLFClk.c ****     }
 857              		.loc 1 1020 0 discriminator 1
 858 0036 0449     		ldr	r1, .L102+4
 859 0038 9202     		lsl	r2, r2, #10
 860              	.L94:
 861              	.LVL68:
 862 003a 0B68     		ldr	r3, [r1]
 863              	.LBE69:
 864              	.LBE68:
1249:Generated_Source\PSoC4/CyLFClk.c ****             {
1250:Generated_Source\PSoC4/CyLFClk.c ****                 while (0u != CySysWdtGetEnabledStatus(CY_SYS_WDT_COUNTER2))
 865              		.loc 1 1250 0 discriminator 1
 866 003c 1342     		tst	r3, r2
 867 003e FCD1     		bne	.L94
 868              	.LVL69:
 869              	.L82:
1251:Generated_Source\PSoC4/CyLFClk.c ****                 {
1252:Generated_Source\PSoC4/CyLFClk.c ****                     /* Wait for changes to come into effect */
1253:Generated_Source\PSoC4/CyLFClk.c ****                 }
1254:Generated_Source\PSoC4/CyLFClk.c ****             }
1255:Generated_Source\PSoC4/CyLFClk.c ****         }
1256:Generated_Source\PSoC4/CyLFClk.c ****     }
 870              		.loc 1 1256 0
 871              		@ sp needed
 872 0040 7047     		bx	lr
 873              	.L103:
 874 0042 C046     		.align	2
 875              	.L102:
 876 0044 00010B40 		.word	1074462976
 877 0048 10020B40 		.word	1074463248
 878              		.cfi_endproc
 879              	.LFE15:
 880              		.size	CySysWdtDisable, .-CySysWdtDisable
 881              		.section	.text.CySysWdtSetCascade,"ax",%progbits
 882              		.align	2
 883              		.global	CySysWdtSetCascade
 884              		.code	16
 885              		.thumb_func
 886              		.type	CySysWdtSetCascade, %function
 887              	CySysWdtSetCascade:
 888              	.LFB16:
1257:Generated_Source\PSoC4/CyLFClk.c **** 
1258:Generated_Source\PSoC4/CyLFClk.c **** 
1259:Generated_Source\PSoC4/CyLFClk.c ****     /*******************************************************************************
1260:Generated_Source\PSoC4/CyLFClk.c ****     * Function Name: CySysWdtSetCascade
1261:Generated_Source\PSoC4/CyLFClk.c ****     ****************************************************************************//**
1262:Generated_Source\PSoC4/CyLFClk.c ****     * \brief
1263:Generated_Source\PSoC4/CyLFClk.c ****     * Writes the two WDT cascade values based on the combination of mask values
1264:Generated_Source\PSoC4/CyLFClk.c ****     * specified.
1265:Generated_Source\PSoC4/CyLFClk.c ****     *
1266:Generated_Source\PSoC4/CyLFClk.c ****     * \param cascadeMask The mask value used to set or clear the cascade values:
ARM GAS  C:\Users\g\AppData\Local\Temp\ccrBoTzc.s 			page 40


1267:Generated_Source\PSoC4/CyLFClk.c ****     * CY_SYS_WDT_CASCADE_NONE - Neither <br>
1268:Generated_Source\PSoC4/CyLFClk.c ****     * CY_SYS_WDT_CASCADE_01 - Cascade 01 <br>
1269:Generated_Source\PSoC4/CyLFClk.c ****     * CY_SYS_WDT_CASCADE_12 - Cascade 12
1270:Generated_Source\PSoC4/CyLFClk.c ****     *
1271:Generated_Source\PSoC4/CyLFClk.c ****     * If only one cascade mask is specified, the second cascade is disabled.
1272:Generated_Source\PSoC4/CyLFClk.c ****     * To set both cascade modes, two defines should be ORed:
1273:Generated_Source\PSoC4/CyLFClk.c ****     * (CY_SYS_TIMER_CASCADE_01 | CY_SYS_TIMER_CASCADE_12).
1274:Generated_Source\PSoC4/CyLFClk.c ****     * \note If CySysWdtSetCascade() was called with ORed defines it is necessary 
1275:Generated_Source\PSoC4/CyLFClk.c ****     * to call CySysWdtSetClearOnMatch(1,1). It is needed to make sure that 
1276:Generated_Source\PSoC4/CyLFClk.c ****     * Counter 2 will be updated in the expected way.
1277:Generated_Source\PSoC4/CyLFClk.c ****     *
1278:Generated_Source\PSoC4/CyLFClk.c ****     * WDT counters that are part of the specified cascade should be disabled.
1279:Generated_Source\PSoC4/CyLFClk.c ****     * Otherwise this function call has no effect. If the specified
1280:Generated_Source\PSoC4/CyLFClk.c ****     * counter is enabled, call CySysWdtDisable() function with the corresponding
1281:Generated_Source\PSoC4/CyLFClk.c ****     * parameter to disable the specified counter and wait for it to stop. This may
1282:Generated_Source\PSoC4/CyLFClk.c ****     * take up to 3 LFCLK cycles.
1283:Generated_Source\PSoC4/CyLFClk.c ****     *
1284:Generated_Source\PSoC4/CyLFClk.c ****     *******************************************************************************/
1285:Generated_Source\PSoC4/CyLFClk.c ****     void CySysWdtSetCascade(uint32 cascadeMask)
1286:Generated_Source\PSoC4/CyLFClk.c ****     {
 889              		.loc 1 1286 0
 890              		.cfi_startproc
 891              	.LVL70:
 892              	.LBB76:
 893              	.LBB77:
1020:Generated_Source\PSoC4/CyLFClk.c ****     }
 894              		.loc 1 1020 0
 895 0000 094A     		ldr	r2, .L106
 896              	.LBE77:
 897              	.LBE76:
 898              		.loc 1 1286 0
 899 0002 10B5     		push	{r4, lr}
 900              		.cfi_def_cfa_offset 8
 901              		.cfi_offset 4, -8
 902              		.cfi_offset 14, -4
 903              	.LBB80:
 904              	.LBB78:
1020:Generated_Source\PSoC4/CyLFClk.c ****     }
 905              		.loc 1 1020 0
 906 0004 1168     		ldr	r1, [r2]
 907              	.LVL71:
 908              	.LBE78:
 909              	.LBE80:
 910              	.LBB81:
 911              	.LBB82:
 912 0006 1368     		ldr	r3, [r2]
 913              	.LVL72:
 914              	.LBE82:
 915              	.LBE81:
 916              	.LBB84:
 917              	.LBB85:
 918 0008 1268     		ldr	r2, [r2]
 919              	.LVL73:
 920              	.LBE85:
 921              	.LBE84:
 922              	.LBB87:
 923              	.LBB83:
ARM GAS  C:\Users\g\AppData\Local\Temp\ccrBoTzc.s 			page 41


 924 000a 5C0A     		lsr	r4, r3, #9
 925              	.LBE83:
 926              	.LBE87:
 927              	.LBB88:
 928              	.LBB79:
 929 000c 4B08     		lsr	r3, r1, #1
 930              	.LVL74:
 931              	.LBE79:
 932              	.LBE88:
1287:Generated_Source\PSoC4/CyLFClk.c ****         uint32 configRegValue;
1288:Generated_Source\PSoC4/CyLFClk.c ****         uint32 countersEnableStatus;
1289:Generated_Source\PSoC4/CyLFClk.c **** 
1290:Generated_Source\PSoC4/CyLFClk.c ****         countersEnableStatus = CySysWdtGetEnabledStatus(CY_SYS_WDT_COUNTER0) |
 933              		.loc 1 1290 0
 934 000e 2343     		orr	r3, r4
 935              	.LBB89:
 936              	.LBB86:
1020:Generated_Source\PSoC4/CyLFClk.c ****     }
 937              		.loc 1 1020 0
 938 0010 520C     		lsr	r2, r2, #17
 939              	.LBE86:
 940              	.LBE89:
 941              		.loc 1 1290 0
 942 0012 1343     		orr	r3, r2
1291:Generated_Source\PSoC4/CyLFClk.c ****                             CySysWdtGetEnabledStatus(CY_SYS_WDT_COUNTER1) |
1292:Generated_Source\PSoC4/CyLFClk.c ****                             CySysWdtGetEnabledStatus(CY_SYS_WDT_COUNTER2);
1293:Generated_Source\PSoC4/CyLFClk.c **** 
1294:Generated_Source\PSoC4/CyLFClk.c ****         if (0u == countersEnableStatus)
 943              		.loc 1 1294 0
 944 0014 DB07     		lsl	r3, r3, #31
 945 0016 05D4     		bmi	.L104
1295:Generated_Source\PSoC4/CyLFClk.c ****         {
1296:Generated_Source\PSoC4/CyLFClk.c ****             configRegValue = CY_SYS_WDT_CONFIG_REG;
 946              		.loc 1 1296 0
 947 0018 044A     		ldr	r2, .L106+4
1297:Generated_Source\PSoC4/CyLFClk.c ****             configRegValue &= ((uint32)(~(CY_SYS_WDT_CASCADE_01|CY_SYS_WDT_CASCADE_12)));
 948              		.loc 1 1297 0
 949 001a 054B     		ldr	r3, .L106+8
1296:Generated_Source\PSoC4/CyLFClk.c ****             configRegValue &= ((uint32)(~(CY_SYS_WDT_CASCADE_01|CY_SYS_WDT_CASCADE_12)));
 950              		.loc 1 1296 0
 951 001c 1168     		ldr	r1, [r2]
 952              	.LVL75:
 953              		.loc 1 1297 0
 954 001e 0B40     		and	r3, r1
 955              	.LVL76:
1298:Generated_Source\PSoC4/CyLFClk.c ****             configRegValue |= cascadeMask;
 956              		.loc 1 1298 0
 957 0020 1843     		orr	r0, r3
 958              	.LVL77:
1299:Generated_Source\PSoC4/CyLFClk.c ****             CY_SYS_WDT_CONFIG_REG = configRegValue;
 959              		.loc 1 1299 0
 960 0022 1060     		str	r0, [r2]
 961              	.LVL78:
 962              	.L104:
1300:Generated_Source\PSoC4/CyLFClk.c ****         }
1301:Generated_Source\PSoC4/CyLFClk.c ****     }
 963              		.loc 1 1301 0
ARM GAS  C:\Users\g\AppData\Local\Temp\ccrBoTzc.s 			page 42


 964              		@ sp needed
 965 0024 10BD     		pop	{r4, pc}
 966              	.L107:
 967 0026 C046     		.align	2
 968              	.L106:
 969 0028 10020B40 		.word	1074463248
 970 002c 0C020B40 		.word	1074463244
 971 0030 F7F7FFFF 		.word	-2057
 972              		.cfi_endproc
 973              	.LFE16:
 974              		.size	CySysWdtSetCascade, .-CySysWdtSetCascade
 975              		.section	.text.CySysWdtGetCascade,"ax",%progbits
 976              		.align	2
 977              		.global	CySysWdtGetCascade
 978              		.code	16
 979              		.thumb_func
 980              		.type	CySysWdtGetCascade, %function
 981              	CySysWdtGetCascade:
 982              	.LFB17:
1302:Generated_Source\PSoC4/CyLFClk.c **** 
1303:Generated_Source\PSoC4/CyLFClk.c **** 
1304:Generated_Source\PSoC4/CyLFClk.c ****     /*******************************************************************************
1305:Generated_Source\PSoC4/CyLFClk.c ****     * Function Name: CySysWdtGetCascade
1306:Generated_Source\PSoC4/CyLFClk.c ****     ****************************************************************************//**
1307:Generated_Source\PSoC4/CyLFClk.c ****     *
1308:Generated_Source\PSoC4/CyLFClk.c ****     * \brief Reads the two WDT cascade values returning a mask of the bits set.
1309:Generated_Source\PSoC4/CyLFClk.c ****     *
1310:Generated_Source\PSoC4/CyLFClk.c ****     * \return The mask of the cascade values set.
1311:Generated_Source\PSoC4/CyLFClk.c ****     * \return CY_SYS_WDT_CASCADE_NONE - Neither
1312:Generated_Source\PSoC4/CyLFClk.c ****     * \return CY_SYS_WDT_CASCADE_01 - Cascade 01
1313:Generated_Source\PSoC4/CyLFClk.c ****     * \return CY_SYS_WDT_CASCADE_12 - Cascade 12
1314:Generated_Source\PSoC4/CyLFClk.c ****     *
1315:Generated_Source\PSoC4/CyLFClk.c ****     *******************************************************************************/
1316:Generated_Source\PSoC4/CyLFClk.c ****     uint32 CySysWdtGetCascade(void)
1317:Generated_Source\PSoC4/CyLFClk.c ****     {
 983              		.loc 1 1317 0
 984              		.cfi_startproc
1318:Generated_Source\PSoC4/CyLFClk.c ****         return (CY_SYS_WDT_CONFIG_REG & (CY_SYS_WDT_CASCADE_01 | CY_SYS_WDT_CASCADE_12));
 985              		.loc 1 1318 0
 986 0000 024B     		ldr	r3, .L109
1319:Generated_Source\PSoC4/CyLFClk.c ****     }
 987              		.loc 1 1319 0
 988              		@ sp needed
1318:Generated_Source\PSoC4/CyLFClk.c ****         return (CY_SYS_WDT_CONFIG_REG & (CY_SYS_WDT_CASCADE_01 | CY_SYS_WDT_CASCADE_12));
 989              		.loc 1 1318 0
 990 0002 1868     		ldr	r0, [r3]
 991 0004 024B     		ldr	r3, .L109+4
 992 0006 1840     		and	r0, r3
 993              		.loc 1 1319 0
 994 0008 7047     		bx	lr
 995              	.L110:
 996 000a C046     		.align	2
 997              	.L109:
 998 000c 0C020B40 		.word	1074463244
 999 0010 08080000 		.word	2056
 1000              		.cfi_endproc
 1001              	.LFE17:
ARM GAS  C:\Users\g\AppData\Local\Temp\ccrBoTzc.s 			page 43


 1002              		.size	CySysWdtGetCascade, .-CySysWdtGetCascade
 1003              		.section	.text.CySysWdtSetMatch,"ax",%progbits
 1004              		.align	2
 1005              		.global	CySysWdtSetMatch
 1006              		.code	16
 1007              		.thumb_func
 1008              		.type	CySysWdtSetMatch, %function
 1009              	CySysWdtSetMatch:
 1010              	.LFB18:
1320:Generated_Source\PSoC4/CyLFClk.c **** 
1321:Generated_Source\PSoC4/CyLFClk.c **** 
1322:Generated_Source\PSoC4/CyLFClk.c ****     /*******************************************************************************
1323:Generated_Source\PSoC4/CyLFClk.c ****     * Function Name: CySysWdtSetMatch
1324:Generated_Source\PSoC4/CyLFClk.c ****     ****************************************************************************//**
1325:Generated_Source\PSoC4/CyLFClk.c ****     *
1326:Generated_Source\PSoC4/CyLFClk.c ****     * \brief Configures the WDT counter match comparison value.
1327:Generated_Source\PSoC4/CyLFClk.c ****     *
1328:Generated_Source\PSoC4/CyLFClk.c ****     * \param counterNum
1329:Generated_Source\PSoC4/CyLFClk.c ****     * Valid range [0-1]. The number of the WDT counter. The match values are not
1330:Generated_Source\PSoC4/CyLFClk.c ****     * supported by counter 2.
1331:Generated_Source\PSoC4/CyLFClk.c ****     *
1332:Generated_Source\PSoC4/CyLFClk.c ****     * \param match
1333:Generated_Source\PSoC4/CyLFClk.c ****     * Valid range [0-65535]. The value to be used to match against the counter.
1334:Generated_Source\PSoC4/CyLFClk.c ****     *
1335:Generated_Source\PSoC4/CyLFClk.c ****     *******************************************************************************/
1336:Generated_Source\PSoC4/CyLFClk.c ****     void CySysWdtSetMatch(uint32 counterNum, uint32 match)
1337:Generated_Source\PSoC4/CyLFClk.c ****     {
 1011              		.loc 1 1337 0
 1012              		.cfi_startproc
 1013              	.LVL79:
 1014 0000 38B5     		push	{r3, r4, r5, lr}
 1015              		.cfi_def_cfa_offset 16
 1016              		.cfi_offset 3, -16
 1017              		.cfi_offset 4, -12
 1018              		.cfi_offset 5, -8
 1019              		.cfi_offset 14, -4
 1020              		.loc 1 1337 0
 1021 0002 051C     		mov	r5, r0
 1022 0004 0C1C     		mov	r4, r1
1338:Generated_Source\PSoC4/CyLFClk.c ****         uint32 regValue;
1339:Generated_Source\PSoC4/CyLFClk.c **** 
1340:Generated_Source\PSoC4/CyLFClk.c ****         CYASSERT((counterNum == CY_SYS_WDT_COUNTER0) ||
 1023              		.loc 1 1340 0
 1024 0006 0128     		cmp	r0, #1
 1025 0008 02D9     		bls	.L112
 1026              		.loc 1 1340 0 is_stmt 0 discriminator 1
 1027 000a 0020     		mov	r0, #0
 1028              	.LVL80:
 1029 000c FFF7FEFF 		bl	CyHalt
 1030              	.LVL81:
 1031              	.L112:
1341:Generated_Source\PSoC4/CyLFClk.c ****                  (counterNum == CY_SYS_WDT_COUNTER1));
1342:Generated_Source\PSoC4/CyLFClk.c **** 
1343:Generated_Source\PSoC4/CyLFClk.c ****         /* Wait for previous changes to come into effect */
1344:Generated_Source\PSoC4/CyLFClk.c ****         CyDelayUs(CY_SYS_WDT_3LFCLK_DELAY_US);
 1032              		.loc 1 1344 0 is_stmt 1
 1033 0010 C920     		mov	r0, #201
ARM GAS  C:\Users\g\AppData\Local\Temp\ccrBoTzc.s 			page 44


 1034 0012 FFF7FEFF 		bl	CyDelayUs
 1035              	.LVL82:
1345:Generated_Source\PSoC4/CyLFClk.c **** 
1346:Generated_Source\PSoC4/CyLFClk.c ****         regValue = CY_SYS_WDT_MATCH_REG;
1347:Generated_Source\PSoC4/CyLFClk.c ****         regValue &= (uint32)~((uint32)(CY_SYS_WDT_LOWER_16BITS_MASK << (counterNum * CY_SYS_WDT_CNT
1348:Generated_Source\PSoC4/CyLFClk.c ****         CY_SYS_WDT_MATCH_REG = (regValue | (match << (counterNum * CY_SYS_WDT_CNT_MATCH_SHIFT)));
 1036              		.loc 1 1348 0
 1037 0016 201C     		mov	r0, r4
1347:Generated_Source\PSoC4/CyLFClk.c ****         CY_SYS_WDT_MATCH_REG = (regValue | (match << (counterNum * CY_SYS_WDT_CNT_MATCH_SHIFT)));
 1038              		.loc 1 1347 0
 1039 0018 064A     		ldr	r2, .L113
 1040 001a 2D01     		lsl	r5, r5, #4
 1041              	.LVL83:
 1042 001c AA40     		lsl	r2, r2, r5
 1043              		.loc 1 1348 0
 1044 001e A840     		lsl	r0, r0, r5
1346:Generated_Source\PSoC4/CyLFClk.c ****         regValue &= (uint32)~((uint32)(CY_SYS_WDT_LOWER_16BITS_MASK << (counterNum * CY_SYS_WDT_CNT
 1045              		.loc 1 1346 0
 1046 0020 0549     		ldr	r1, .L113+4
1349:Generated_Source\PSoC4/CyLFClk.c **** 
1350:Generated_Source\PSoC4/CyLFClk.c ****         /* Make sure match synchronization has started */
1351:Generated_Source\PSoC4/CyLFClk.c ****         CyDelayUs(CY_SYS_WDT_1LFCLK_DELAY_US);
1352:Generated_Source\PSoC4/CyLFClk.c ****     }
 1047              		.loc 1 1352 0
 1048              		@ sp needed
1346:Generated_Source\PSoC4/CyLFClk.c ****         regValue &= (uint32)~((uint32)(CY_SYS_WDT_LOWER_16BITS_MASK << (counterNum * CY_SYS_WDT_CNT
 1049              		.loc 1 1346 0
 1050 0022 0B68     		ldr	r3, [r1]
 1051              	.LVL84:
1347:Generated_Source\PSoC4/CyLFClk.c ****         CY_SYS_WDT_MATCH_REG = (regValue | (match << (counterNum * CY_SYS_WDT_CNT_MATCH_SHIFT)));
 1052              		.loc 1 1347 0
 1053 0024 9343     		bic	r3, r2
 1054              	.LVL85:
1348:Generated_Source\PSoC4/CyLFClk.c **** 
 1055              		.loc 1 1348 0
 1056 0026 0343     		orr	r3, r0
 1057              	.LVL86:
 1058 0028 0B60     		str	r3, [r1]
1351:Generated_Source\PSoC4/CyLFClk.c ****     }
 1059              		.loc 1 1351 0
 1060 002a 4320     		mov	r0, #67
 1061 002c FFF7FEFF 		bl	CyDelayUs
 1062              	.LVL87:
 1063              	.LVL88:
 1064              		.loc 1 1352 0
 1065 0030 38BD     		pop	{r3, r4, r5, pc}
 1066              	.L114:
 1067 0032 C046     		.align	2
 1068              	.L113:
 1069 0034 FFFF0000 		.word	65535
 1070 0038 08020B40 		.word	1074463240
 1071              		.cfi_endproc
 1072              	.LFE18:
 1073              		.size	CySysWdtSetMatch, .-CySysWdtSetMatch
 1074              		.section	.text.CySysWdtSetToggleBit,"ax",%progbits
 1075              		.align	2
 1076              		.global	CySysWdtSetToggleBit
ARM GAS  C:\Users\g\AppData\Local\Temp\ccrBoTzc.s 			page 45


 1077              		.code	16
 1078              		.thumb_func
 1079              		.type	CySysWdtSetToggleBit, %function
 1080              	CySysWdtSetToggleBit:
 1081              	.LFB19:
1353:Generated_Source\PSoC4/CyLFClk.c **** 
1354:Generated_Source\PSoC4/CyLFClk.c **** 
1355:Generated_Source\PSoC4/CyLFClk.c ****     /*******************************************************************************
1356:Generated_Source\PSoC4/CyLFClk.c ****     * Function Name: CySysWdtSetToggleBit
1357:Generated_Source\PSoC4/CyLFClk.c ****     ****************************************************************************//**
1358:Generated_Source\PSoC4/CyLFClk.c ****     * \brief
1359:Generated_Source\PSoC4/CyLFClk.c ****     * Configures which bit in WDT counter 2 to monitor for a toggle.
1360:Generated_Source\PSoC4/CyLFClk.c ****     *
1361:Generated_Source\PSoC4/CyLFClk.c ****     * When that bit toggles, an interrupt is generated if the mode for counter 2 has
1362:Generated_Source\PSoC4/CyLFClk.c ****     * enabled interrupts.
1363:Generated_Source\PSoC4/CyLFClk.c ****     *
1364:Generated_Source\PSoC4/CyLFClk.c ****     * \param bits Valid range [0-31].  Counter 2 bit to monitor for a toggle.
1365:Generated_Source\PSoC4/CyLFClk.c ****     *
1366:Generated_Source\PSoC4/CyLFClk.c ****     * \details
1367:Generated_Source\PSoC4/CyLFClk.c ****     * WDT Counter 2 should be disabled. Otherwise this function call has no
1368:Generated_Source\PSoC4/CyLFClk.c ****     * effect.
1369:Generated_Source\PSoC4/CyLFClk.c ****     *
1370:Generated_Source\PSoC4/CyLFClk.c ****     * If the specified counter is enabled, call the CySysWdtDisable() function with
1371:Generated_Source\PSoC4/CyLFClk.c ****     * the corresponding parameter to disable the specified counter and wait for it to
1372:Generated_Source\PSoC4/CyLFClk.c ****     * stop. This may take up to 3 LFCLK cycles.
1373:Generated_Source\PSoC4/CyLFClk.c ****     *
1374:Generated_Source\PSoC4/CyLFClk.c ****     *******************************************************************************/
1375:Generated_Source\PSoC4/CyLFClk.c ****     void CySysWdtSetToggleBit(uint32 bits)
1376:Generated_Source\PSoC4/CyLFClk.c ****     {
 1082              		.loc 1 1376 0
 1083              		.cfi_startproc
 1084              	.LVL89:
 1085              	.LBB92:
 1086              	.LBB93:
1020:Generated_Source\PSoC4/CyLFClk.c ****     }
 1087              		.loc 1 1020 0
 1088 0000 064B     		ldr	r3, .L117
 1089 0002 1B68     		ldr	r3, [r3]
 1090              	.LBE93:
 1091              	.LBE92:
1377:Generated_Source\PSoC4/CyLFClk.c ****         uint32 configRegValue;
1378:Generated_Source\PSoC4/CyLFClk.c **** 
1379:Generated_Source\PSoC4/CyLFClk.c ****         if (0u == CySysWdtGetEnabledStatus(CY_SYS_WDT_COUNTER2))
 1092              		.loc 1 1379 0
 1093 0004 9B03     		lsl	r3, r3, #14
 1094 0006 08D4     		bmi	.L115
1380:Generated_Source\PSoC4/CyLFClk.c ****         {
1381:Generated_Source\PSoC4/CyLFClk.c ****             configRegValue = CY_SYS_WDT_CONFIG_REG;
 1095              		.loc 1 1381 0
 1096 0008 054A     		ldr	r2, .L117+4
1382:Generated_Source\PSoC4/CyLFClk.c ****             configRegValue &= (uint32)(~((uint32)(CY_SYS_WDT_CONFIG_BITS2_MASK << CY_SYS_WDT_CONFIG
 1097              		.loc 1 1382 0
 1098 000a 064B     		ldr	r3, .L117+8
1381:Generated_Source\PSoC4/CyLFClk.c ****             configRegValue &= (uint32)(~((uint32)(CY_SYS_WDT_CONFIG_BITS2_MASK << CY_SYS_WDT_CONFIG
 1099              		.loc 1 1381 0
 1100 000c 1168     		ldr	r1, [r2]
 1101              	.LVL90:
ARM GAS  C:\Users\g\AppData\Local\Temp\ccrBoTzc.s 			page 46


 1102              		.loc 1 1382 0
 1103 000e 0B40     		and	r3, r1
 1104              	.LVL91:
1383:Generated_Source\PSoC4/CyLFClk.c ****             configRegValue |= ((bits & CY_SYS_WDT_CONFIG_BITS2_MASK) << CY_SYS_WDT_CONFIG_BITS2_POS
 1105              		.loc 1 1383 0
 1106 0010 1F21     		mov	r1, #31
 1107 0012 0840     		and	r0, r1
 1108              	.LVL92:
 1109 0014 0006     		lsl	r0, r0, #24
 1110 0016 1843     		orr	r0, r3
 1111              	.LVL93:
1384:Generated_Source\PSoC4/CyLFClk.c ****             CY_SYS_WDT_CONFIG_REG = configRegValue;
 1112              		.loc 1 1384 0
 1113 0018 1060     		str	r0, [r2]
 1114              	.LVL94:
 1115              	.L115:
1385:Generated_Source\PSoC4/CyLFClk.c ****         }
1386:Generated_Source\PSoC4/CyLFClk.c ****     }
 1116              		.loc 1 1386 0
 1117              		@ sp needed
 1118 001a 7047     		bx	lr
 1119              	.L118:
 1120              		.align	2
 1121              	.L117:
 1122 001c 10020B40 		.word	1074463248
 1123 0020 0C020B40 		.word	1074463244
 1124 0024 FFFFFFE0 		.word	-520093697
 1125              		.cfi_endproc
 1126              	.LFE19:
 1127              		.size	CySysWdtSetToggleBit, .-CySysWdtSetToggleBit
 1128              		.section	.text.CySysWdtGetToggleBit,"ax",%progbits
 1129              		.align	2
 1130              		.global	CySysWdtGetToggleBit
 1131              		.code	16
 1132              		.thumb_func
 1133              		.type	CySysWdtGetToggleBit, %function
 1134              	CySysWdtGetToggleBit:
 1135              	.LFB20:
1387:Generated_Source\PSoC4/CyLFClk.c **** 
1388:Generated_Source\PSoC4/CyLFClk.c **** 
1389:Generated_Source\PSoC4/CyLFClk.c ****     /*******************************************************************************
1390:Generated_Source\PSoC4/CyLFClk.c ****     * Function Name: CySysWdtGetToggleBit
1391:Generated_Source\PSoC4/CyLFClk.c ****     ****************************************************************************//**
1392:Generated_Source\PSoC4/CyLFClk.c ****     * \brief
1393:Generated_Source\PSoC4/CyLFClk.c ****     * Reads which bit in WDT counter 2 is monitored for a toggle.
1394:Generated_Source\PSoC4/CyLFClk.c ****     *
1395:Generated_Source\PSoC4/CyLFClk.c ****     * \return The bit that is monitored (range of 0 to 31)
1396:Generated_Source\PSoC4/CyLFClk.c ****     *
1397:Generated_Source\PSoC4/CyLFClk.c ****     *******************************************************************************/
1398:Generated_Source\PSoC4/CyLFClk.c ****     uint32 CySysWdtGetToggleBit(void)
1399:Generated_Source\PSoC4/CyLFClk.c ****     {
 1136              		.loc 1 1399 0
 1137              		.cfi_startproc
1400:Generated_Source\PSoC4/CyLFClk.c ****         return ((CY_SYS_WDT_CONFIG_REG >> CY_SYS_WDT_CONFIG_BITS2_POS) & CY_SYS_WDT_CONFIG_BITS2_MA
 1138              		.loc 1 1400 0
 1139 0000 024B     		ldr	r3, .L120
1401:Generated_Source\PSoC4/CyLFClk.c ****     }
ARM GAS  C:\Users\g\AppData\Local\Temp\ccrBoTzc.s 			page 47


 1140              		.loc 1 1401 0
 1141              		@ sp needed
1400:Generated_Source\PSoC4/CyLFClk.c ****         return ((CY_SYS_WDT_CONFIG_REG >> CY_SYS_WDT_CONFIG_BITS2_POS) & CY_SYS_WDT_CONFIG_BITS2_MA
 1142              		.loc 1 1400 0
 1143 0002 1868     		ldr	r0, [r3]
 1144 0004 C000     		lsl	r0, r0, #3
 1145 0006 C00E     		lsr	r0, r0, #27
 1146              		.loc 1 1401 0
 1147 0008 7047     		bx	lr
 1148              	.L121:
 1149 000a C046     		.align	2
 1150              	.L120:
 1151 000c 0C020B40 		.word	1074463244
 1152              		.cfi_endproc
 1153              	.LFE20:
 1154              		.size	CySysWdtGetToggleBit, .-CySysWdtGetToggleBit
 1155              		.section	.text.CySysWdtGetMatch,"ax",%progbits
 1156              		.align	2
 1157              		.global	CySysWdtGetMatch
 1158              		.code	16
 1159              		.thumb_func
 1160              		.type	CySysWdtGetMatch, %function
 1161              	CySysWdtGetMatch:
 1162              	.LFB21:
1402:Generated_Source\PSoC4/CyLFClk.c **** 
1403:Generated_Source\PSoC4/CyLFClk.c **** 
1404:Generated_Source\PSoC4/CyLFClk.c ****     /*******************************************************************************
1405:Generated_Source\PSoC4/CyLFClk.c ****     * Function Name: CySysWdtGetMatch
1406:Generated_Source\PSoC4/CyLFClk.c ****     ****************************************************************************//**
1407:Generated_Source\PSoC4/CyLFClk.c ****     *
1408:Generated_Source\PSoC4/CyLFClk.c ****     * \brief Reads the WDT counter match comparison value.
1409:Generated_Source\PSoC4/CyLFClk.c ****     *
1410:Generated_Source\PSoC4/CyLFClk.c ****     * \param counterNum Valid range [0-1].  The number of the WDT counter. The match
1411:Generated_Source\PSoC4/CyLFClk.c ****     * values are not supported by counter 2.
1412:Generated_Source\PSoC4/CyLFClk.c ****     *
1413:Generated_Source\PSoC4/CyLFClk.c ****     * \return A 16-bit match value.
1414:Generated_Source\PSoC4/CyLFClk.c ****     *
1415:Generated_Source\PSoC4/CyLFClk.c ****     *******************************************************************************/
1416:Generated_Source\PSoC4/CyLFClk.c ****     uint32 CySysWdtGetMatch(uint32 counterNum)
1417:Generated_Source\PSoC4/CyLFClk.c ****     {
 1163              		.loc 1 1417 0
 1164              		.cfi_startproc
 1165              	.LVL95:
 1166 0000 10B5     		push	{r4, lr}
 1167              		.cfi_def_cfa_offset 8
 1168              		.cfi_offset 4, -8
 1169              		.cfi_offset 14, -4
 1170              		.loc 1 1417 0
 1171 0002 041E     		sub	r4, r0, #0
1418:Generated_Source\PSoC4/CyLFClk.c ****         CYASSERT((counterNum == CY_SYS_WDT_COUNTER0) ||
 1172              		.loc 1 1418 0
 1173 0004 012C     		cmp	r4, #1
 1174 0006 02D9     		bls	.L123
 1175              		.loc 1 1418 0 is_stmt 0 discriminator 1
 1176 0008 0020     		mov	r0, #0
 1177              	.LVL96:
 1178 000a FFF7FEFF 		bl	CyHalt
ARM GAS  C:\Users\g\AppData\Local\Temp\ccrBoTzc.s 			page 48


 1179              	.LVL97:
 1180              	.L123:
1419:Generated_Source\PSoC4/CyLFClk.c ****                  (counterNum == CY_SYS_WDT_COUNTER1));
1420:Generated_Source\PSoC4/CyLFClk.c **** 
1421:Generated_Source\PSoC4/CyLFClk.c ****         return ((uint32)(CY_SYS_WDT_MATCH_REG >> 
 1181              		.loc 1 1421 0 is_stmt 1
 1182 000e 034B     		ldr	r3, .L124
1422:Generated_Source\PSoC4/CyLFClk.c ****                                             (counterNum * CY_SYS_WDT_CNT_MATCH_SHIFT)) & CY_SYS_WDT
 1183              		.loc 1 1422 0
 1184 0010 2401     		lsl	r4, r4, #4
 1185              	.LVL98:
1421:Generated_Source\PSoC4/CyLFClk.c ****                                             (counterNum * CY_SYS_WDT_CNT_MATCH_SHIFT)) & CY_SYS_WDT
 1186              		.loc 1 1421 0
 1187 0012 1B68     		ldr	r3, [r3]
1423:Generated_Source\PSoC4/CyLFClk.c ****     }
 1188              		.loc 1 1423 0
 1189              		@ sp needed
1421:Generated_Source\PSoC4/CyLFClk.c ****                                             (counterNum * CY_SYS_WDT_CNT_MATCH_SHIFT)) & CY_SYS_WDT
 1190              		.loc 1 1421 0
 1191 0014 E340     		lsr	r3, r3, r4
 1192 0016 1804     		lsl	r0, r3, #16
 1193 0018 000C     		lsr	r0, r0, #16
 1194              		.loc 1 1423 0
 1195 001a 10BD     		pop	{r4, pc}
 1196              	.L125:
 1197              		.align	2
 1198              	.L124:
 1199 001c 08020B40 		.word	1074463240
 1200              		.cfi_endproc
 1201              	.LFE21:
 1202              		.size	CySysWdtGetMatch, .-CySysWdtGetMatch
 1203              		.section	.text.CySysWdtGetCount,"ax",%progbits
 1204              		.align	2
 1205              		.global	CySysWdtGetCount
 1206              		.code	16
 1207              		.thumb_func
 1208              		.type	CySysWdtGetCount, %function
 1209              	CySysWdtGetCount:
 1210              	.LFB22:
1424:Generated_Source\PSoC4/CyLFClk.c **** 
1425:Generated_Source\PSoC4/CyLFClk.c **** 
1426:Generated_Source\PSoC4/CyLFClk.c ****     /*******************************************************************************
1427:Generated_Source\PSoC4/CyLFClk.c ****     * Function Name: CySysWdtGetCount
1428:Generated_Source\PSoC4/CyLFClk.c ****     ****************************************************************************//**
1429:Generated_Source\PSoC4/CyLFClk.c ****     *
1430:Generated_Source\PSoC4/CyLFClk.c ****     * \brief Reads the current WDT counter value.
1431:Generated_Source\PSoC4/CyLFClk.c ****     *
1432:Generated_Source\PSoC4/CyLFClk.c ****     * \param counterNum: Valid range [0-2]. The number of the WDT counter.
1433:Generated_Source\PSoC4/CyLFClk.c ****     *
1434:Generated_Source\PSoC4/CyLFClk.c ****     * \return A live counter value.  Counter 0 and Counter 1 are 16 bit counters 
1435:Generated_Source\PSoC4/CyLFClk.c ****     * and counter 2 is a 32 bit counter.
1436:Generated_Source\PSoC4/CyLFClk.c ****     *
1437:Generated_Source\PSoC4/CyLFClk.c ****     *******************************************************************************/
1438:Generated_Source\PSoC4/CyLFClk.c ****     uint32 CySysWdtGetCount(uint32 counterNum)
1439:Generated_Source\PSoC4/CyLFClk.c ****     {
 1211              		.loc 1 1439 0
 1212              		.cfi_startproc
ARM GAS  C:\Users\g\AppData\Local\Temp\ccrBoTzc.s 			page 49


 1213              	.LVL99:
 1214 0000 08B5     		push	{r3, lr}
 1215              		.cfi_def_cfa_offset 8
 1216              		.cfi_offset 3, -8
 1217              		.cfi_offset 14, -4
1440:Generated_Source\PSoC4/CyLFClk.c ****         uint32 regValue = 0u;
1441:Generated_Source\PSoC4/CyLFClk.c **** 
1442:Generated_Source\PSoC4/CyLFClk.c ****         switch(counterNum)
 1218              		.loc 1 1442 0
 1219 0002 0128     		cmp	r0, #1
 1220 0004 10D0     		beq	.L128
 1221 0006 0028     		cmp	r0, #0
 1222 0008 09D0     		beq	.L129
 1223 000a 0228     		cmp	r0, #2
 1224 000c 04D0     		beq	.L130
1443:Generated_Source\PSoC4/CyLFClk.c ****         {
1444:Generated_Source\PSoC4/CyLFClk.c ****             /* WDT Counter 0 */
1445:Generated_Source\PSoC4/CyLFClk.c ****             case 0u:
1446:Generated_Source\PSoC4/CyLFClk.c ****                 regValue = CY_SYS_WDT_CTRLOW_REG & CY_SYS_WDT_LOWER_16BITS_MASK;
1447:Generated_Source\PSoC4/CyLFClk.c ****             break;
1448:Generated_Source\PSoC4/CyLFClk.c **** 
1449:Generated_Source\PSoC4/CyLFClk.c ****             /* WDT Counter 1 */
1450:Generated_Source\PSoC4/CyLFClk.c ****             case 1u:
1451:Generated_Source\PSoC4/CyLFClk.c ****                 regValue = (CY_SYS_WDT_CTRLOW_REG >> CY_SYS_WDT_CNT_MATCH_SHIFT) & CY_SYS_WDT_LOWER
1452:Generated_Source\PSoC4/CyLFClk.c ****             break;
1453:Generated_Source\PSoC4/CyLFClk.c **** 
1454:Generated_Source\PSoC4/CyLFClk.c ****             /* WDT Counter 2 */
1455:Generated_Source\PSoC4/CyLFClk.c ****             case 2u:
1456:Generated_Source\PSoC4/CyLFClk.c ****                 regValue = CY_SYS_WDT_CTRHIGH_REG;
1457:Generated_Source\PSoC4/CyLFClk.c ****             break;
1458:Generated_Source\PSoC4/CyLFClk.c **** 
1459:Generated_Source\PSoC4/CyLFClk.c ****             default:
1460:Generated_Source\PSoC4/CyLFClk.c ****                 CYASSERT(0u != 0u);
 1225              		.loc 1 1460 0 discriminator 1
 1226 000e 0020     		mov	r0, #0
 1227              	.LVL100:
 1228 0010 FFF7FEFF 		bl	CyHalt
 1229              	.LVL101:
1440:Generated_Source\PSoC4/CyLFClk.c ****         uint32 regValue = 0u;
 1230              		.loc 1 1440 0 discriminator 1
 1231 0014 0020     		mov	r0, #0
 1232              	.LVL102:
 1233              	.L131:
1461:Generated_Source\PSoC4/CyLFClk.c ****             break;
1462:Generated_Source\PSoC4/CyLFClk.c ****         }
1463:Generated_Source\PSoC4/CyLFClk.c **** 
1464:Generated_Source\PSoC4/CyLFClk.c ****         return (regValue);
1465:Generated_Source\PSoC4/CyLFClk.c ****     }
 1234              		.loc 1 1465 0
 1235              		@ sp needed
 1236 0016 08BD     		pop	{r3, pc}
 1237              	.LVL103:
 1238              	.L130:
1456:Generated_Source\PSoC4/CyLFClk.c ****             break;
 1239              		.loc 1 1456 0
 1240 0018 054B     		ldr	r3, .L134
 1241 001a 1868     		ldr	r0, [r3]
ARM GAS  C:\Users\g\AppData\Local\Temp\ccrBoTzc.s 			page 50


 1242              	.LVL104:
1457:Generated_Source\PSoC4/CyLFClk.c **** 
 1243              		.loc 1 1457 0
 1244 001c FBE7     		b	.L131
 1245              	.LVL105:
 1246              	.L129:
1446:Generated_Source\PSoC4/CyLFClk.c ****             break;
 1247              		.loc 1 1446 0
 1248 001e 054B     		ldr	r3, .L134+4
 1249 0020 1868     		ldr	r0, [r3]
 1250              	.LVL106:
 1251 0022 0004     		lsl	r0, r0, #16
 1252 0024 000C     		lsr	r0, r0, #16
 1253              	.LVL107:
1447:Generated_Source\PSoC4/CyLFClk.c **** 
 1254              		.loc 1 1447 0
 1255 0026 F6E7     		b	.L131
 1256              	.LVL108:
 1257              	.L128:
1451:Generated_Source\PSoC4/CyLFClk.c ****             break;
 1258              		.loc 1 1451 0
 1259 0028 024B     		ldr	r3, .L134+4
 1260 002a 1868     		ldr	r0, [r3]
 1261              	.LVL109:
 1262 002c 000C     		lsr	r0, r0, #16
 1263              	.LVL110:
1452:Generated_Source\PSoC4/CyLFClk.c **** 
 1264              		.loc 1 1452 0
 1265 002e F2E7     		b	.L131
 1266              	.L135:
 1267              		.align	2
 1268              	.L134:
 1269 0030 04020B40 		.word	1074463236
 1270 0034 00020B40 		.word	1074463232
 1271              		.cfi_endproc
 1272              	.LFE22:
 1273              		.size	CySysWdtGetCount, .-CySysWdtGetCount
 1274              		.section	.text.CySysClkIloStop,"ax",%progbits
 1275              		.align	2
 1276              		.global	CySysClkIloStop
 1277              		.code	16
 1278              		.thumb_func
 1279              		.type	CySysClkIloStop, %function
 1280              	CySysClkIloStop:
 1281              	.LFB1:
 109:Generated_Source\PSoC4/CyLFClk.c ****     #if(CY_IP_SRSSV2)
 1282              		.loc 1 109 0
 1283              		.cfi_startproc
 1284              	.LBB110:
 1285              	.LBB111:
 972:Generated_Source\PSoC4/CyLFClk.c ****     }
 1286              		.loc 1 972 0
 1287 0000 2B4B     		ldr	r3, .L156
 1288              	.LBE111:
 1289              	.LBE110:
 109:Generated_Source\PSoC4/CyLFClk.c ****     #if(CY_IP_SRSSV2)
 1290              		.loc 1 109 0
ARM GAS  C:\Users\g\AppData\Local\Temp\ccrBoTzc.s 			page 51


 1291 0002 70B5     		push	{r4, r5, r6, lr}
 1292              		.cfi_def_cfa_offset 16
 1293              		.cfi_offset 4, -16
 1294              		.cfi_offset 5, -12
 1295              		.cfi_offset 6, -8
 1296              		.cfi_offset 14, -4
 1297              	.LBB113:
 1298              	.LBB112:
 972:Generated_Source\PSoC4/CyLFClk.c ****     }
 1299              		.loc 1 972 0
 1300 0004 1C68     		ldr	r4, [r3]
 1301 0006 C023     		mov	r3, #192
 1302 0008 1B02     		lsl	r3, r3, #8
 1303 000a 1C40     		and	r4, r3
 1304 000c 03D1     		bne	.L136
 1305              	.LBE112:
 1306              	.LBE113:
 1307              	.LBB114:
 1308              	.LBB115:
 373:Generated_Source\PSoC4/CyLFClk.c ****             (uint32) 1u :
 1309              		.loc 1 373 0
 1310 000e 294B     		ldr	r3, .L156+4
 1311 0010 1B68     		ldr	r3, [r3]
 374:Generated_Source\PSoC4/CyLFClk.c ****             (uint32) 0u);
 1312              		.loc 1 374 0
 1313 0012 002B     		cmp	r3, #0
 1314 0014 00DB     		blt	.L154
 1315              	.L136:
 1316              	.LBE115:
 1317              	.LBE114:
 143:Generated_Source\PSoC4/CyLFClk.c **** 
 1318              		.loc 1 143 0
 1319              		@ sp needed
 1320 0016 70BD     		pop	{r4, r5, r6, pc}
 1321              	.L154:
 124:Generated_Source\PSoC4/CyLFClk.c ****                 CySysClkLfclkPosedgeCatch();
 1322              		.loc 1 124 0
 1323 0018 FFF7FEFF 		bl	CyEnterCriticalSection
 1324              	.LVL111:
 1325              	.LBB116:
 1326              	.LBB117:
 1327              	.LBB118:
 1328              	.LBB119:
1020:Generated_Source\PSoC4/CyLFClk.c ****     }
 1329              		.loc 1 1020 0
 1330 001c 264B     		ldr	r3, .L156+8
 1331              	.LBE119:
 1332              	.LBE118:
 1333              	.LBE117:
 1334              	.LBE116:
 124:Generated_Source\PSoC4/CyLFClk.c ****                 CySysClkLfclkPosedgeCatch();
 1335              		.loc 1 124 0
 1336 001e 061C     		mov	r6, r0
 1337              	.LVL112:
 1338              	.LBB136:
 1339              	.LBB134:
 1340              	.LBB121:
ARM GAS  C:\Users\g\AppData\Local\Temp\ccrBoTzc.s 			page 52


 1341              	.LBB120:
1020:Generated_Source\PSoC4/CyLFClk.c ****     }
 1342              		.loc 1 1020 0
 1343 0020 1A68     		ldr	r2, [r3]
 1344 0022 0121     		mov	r1, #1
 1345              	.LBE120:
 1346              	.LBE121:
1466:Generated_Source\PSoC4/CyLFClk.c **** 
1467:Generated_Source\PSoC4/CyLFClk.c **** 
1468:Generated_Source\PSoC4/CyLFClk.c ****     /*******************************************************************************
1469:Generated_Source\PSoC4/CyLFClk.c ****     * Function Name: CySysWdtGetInterruptSource
1470:Generated_Source\PSoC4/CyLFClk.c ****     ****************************************************************************//**
1471:Generated_Source\PSoC4/CyLFClk.c ****     * \brief
1472:Generated_Source\PSoC4/CyLFClk.c ****     * Reads a mask containing all the WDT counters interrupts that are currently
1473:Generated_Source\PSoC4/CyLFClk.c ****     * set by the hardware, if a corresponding mode is selected.
1474:Generated_Source\PSoC4/CyLFClk.c ****     *
1475:Generated_Source\PSoC4/CyLFClk.c ****     * \return The mask of interrupts set
1476:Generated_Source\PSoC4/CyLFClk.c ****     * \return CY_SYS_WDT_COUNTER0_INT - Counter 0
1477:Generated_Source\PSoC4/CyLFClk.c ****     * \return CY_SYS_WDT_COUNTER1_INT - Counter 1
1478:Generated_Source\PSoC4/CyLFClk.c ****     * \return CY_SYS_WDT_COUNTER2_INT - Counter 2
1479:Generated_Source\PSoC4/CyLFClk.c ****     *
1480:Generated_Source\PSoC4/CyLFClk.c ****     *******************************************************************************/
1481:Generated_Source\PSoC4/CyLFClk.c ****     uint32 CySysWdtGetInterruptSource(void)
1482:Generated_Source\PSoC4/CyLFClk.c ****     {
1483:Generated_Source\PSoC4/CyLFClk.c ****         return (CY_SYS_WDT_CONTROL_REG & (CY_SYS_WDT_COUNTER0_INT | CY_SYS_WDT_COUNTER1_INT | CY_SY
1484:Generated_Source\PSoC4/CyLFClk.c ****     }
1485:Generated_Source\PSoC4/CyLFClk.c **** 
1486:Generated_Source\PSoC4/CyLFClk.c **** 
1487:Generated_Source\PSoC4/CyLFClk.c ****     /*******************************************************************************
1488:Generated_Source\PSoC4/CyLFClk.c ****     * Function Name: CySysWdtClearInterrupt
1489:Generated_Source\PSoC4/CyLFClk.c ****     ****************************************************************************//**
1490:Generated_Source\PSoC4/CyLFClk.c ****     * \brief
1491:Generated_Source\PSoC4/CyLFClk.c ****     * Clears all the WDT counter interrupts set in the mask.
1492:Generated_Source\PSoC4/CyLFClk.c ****     *
1493:Generated_Source\PSoC4/CyLFClk.c ****     * Calling this function also prevents from Reset when the counter mode is set 
1494:Generated_Source\PSoC4/CyLFClk.c ****     * to generate 3 interrupts and then the device resets.
1495:Generated_Source\PSoC4/CyLFClk.c ****     *
1496:Generated_Source\PSoC4/CyLFClk.c ****     * All the WDT interrupts are to be cleared by the firmware, otherwise
1497:Generated_Source\PSoC4/CyLFClk.c ****     * interrupts are generated continuously.
1498:Generated_Source\PSoC4/CyLFClk.c ****     *
1499:Generated_Source\PSoC4/CyLFClk.c ****     * \param counterMask
1500:Generated_Source\PSoC4/CyLFClk.c ****     * CY_SYS_WDT_COUNTER0_INT - Clears counter 0 interrupts <br>
1501:Generated_Source\PSoC4/CyLFClk.c ****     * CY_SYS_WDT_COUNTER1_INT - Clears counter 1 interrupts <br>
1502:Generated_Source\PSoC4/CyLFClk.c ****     * CY_SYS_WDT_COUNTER2_INT - Clears counter 2 interrupts
1503:Generated_Source\PSoC4/CyLFClk.c ****     *
1504:Generated_Source\PSoC4/CyLFClk.c ****     * \details
1505:Generated_Source\PSoC4/CyLFClk.c ****     * This function temporary removes the watchdog lock, if it was set, and
1506:Generated_Source\PSoC4/CyLFClk.c ****     * restores the lock state after cleaning the WDT interrupts that are set in
1507:Generated_Source\PSoC4/CyLFClk.c ****     * a mask.
1508:Generated_Source\PSoC4/CyLFClk.c ****     *
1509:Generated_Source\PSoC4/CyLFClk.c ****     *******************************************************************************/
1510:Generated_Source\PSoC4/CyLFClk.c ****     void CySysWdtClearInterrupt(uint32 counterMask)
1511:Generated_Source\PSoC4/CyLFClk.c ****     {
1512:Generated_Source\PSoC4/CyLFClk.c ****         uint8 interruptState;
1513:Generated_Source\PSoC4/CyLFClk.c ****         uint32 wdtLockState;
1514:Generated_Source\PSoC4/CyLFClk.c **** 
1515:Generated_Source\PSoC4/CyLFClk.c ****         interruptState = CyEnterCriticalSection();
ARM GAS  C:\Users\g\AppData\Local\Temp\ccrBoTzc.s 			page 53


1516:Generated_Source\PSoC4/CyLFClk.c **** 
1517:Generated_Source\PSoC4/CyLFClk.c ****         if (0u != CySysWdtLocked())
1518:Generated_Source\PSoC4/CyLFClk.c ****         {
1519:Generated_Source\PSoC4/CyLFClk.c ****             wdtLockState = 1u;
1520:Generated_Source\PSoC4/CyLFClk.c ****             CySysWdtUnlock();
1521:Generated_Source\PSoC4/CyLFClk.c ****         }
1522:Generated_Source\PSoC4/CyLFClk.c ****         else
1523:Generated_Source\PSoC4/CyLFClk.c ****         {
1524:Generated_Source\PSoC4/CyLFClk.c ****             wdtLockState = 0u;
1525:Generated_Source\PSoC4/CyLFClk.c ****         }
1526:Generated_Source\PSoC4/CyLFClk.c **** 
1527:Generated_Source\PSoC4/CyLFClk.c ****         /* Set new WDT control register value */
1528:Generated_Source\PSoC4/CyLFClk.c ****         counterMask &= (CY_SYS_WDT_COUNTER0_INT |
1529:Generated_Source\PSoC4/CyLFClk.c ****                         CY_SYS_WDT_COUNTER1_INT |
1530:Generated_Source\PSoC4/CyLFClk.c ****                         CY_SYS_WDT_COUNTER2_INT);
1531:Generated_Source\PSoC4/CyLFClk.c **** 
1532:Generated_Source\PSoC4/CyLFClk.c ****         CY_SYS_WDT_CONTROL_REG = counterMask | (CY_SYS_WDT_CONTROL_REG & ~(CY_SYS_WDT_COUNTER0_INT 
1533:Generated_Source\PSoC4/CyLFClk.c ****                                                                            CY_SYS_WDT_COUNTER1_INT 
1534:Generated_Source\PSoC4/CyLFClk.c ****                                                                            CY_SYS_WDT_COUNTER2_INT)
1535:Generated_Source\PSoC4/CyLFClk.c **** 
1536:Generated_Source\PSoC4/CyLFClk.c ****         /* Read the CY_SYS_WDT_CONTROL_REG to clear the interrupt request.
1537:Generated_Source\PSoC4/CyLFClk.c ****          * Cypress ID #207093, #206231
1538:Generated_Source\PSoC4/CyLFClk.c ****         */
1539:Generated_Source\PSoC4/CyLFClk.c ****         (void)CY_SYS_WDT_CONTROL_REG;
1540:Generated_Source\PSoC4/CyLFClk.c **** 
1541:Generated_Source\PSoC4/CyLFClk.c ****         if (1u == wdtLockState)
1542:Generated_Source\PSoC4/CyLFClk.c ****         {
1543:Generated_Source\PSoC4/CyLFClk.c ****             CySysWdtLock();
1544:Generated_Source\PSoC4/CyLFClk.c ****         }
1545:Generated_Source\PSoC4/CyLFClk.c **** 
1546:Generated_Source\PSoC4/CyLFClk.c ****         CyExitCriticalSection(interruptState);
1547:Generated_Source\PSoC4/CyLFClk.c ****     }
1548:Generated_Source\PSoC4/CyLFClk.c **** 
1549:Generated_Source\PSoC4/CyLFClk.c **** 
1550:Generated_Source\PSoC4/CyLFClk.c ****     /*******************************************************************************
1551:Generated_Source\PSoC4/CyLFClk.c ****     * Function Name: CySysWdtResetCounters
1552:Generated_Source\PSoC4/CyLFClk.c ****     ****************************************************************************//**
1553:Generated_Source\PSoC4/CyLFClk.c ****     * \brief
1554:Generated_Source\PSoC4/CyLFClk.c ****     * Resets all the WDT counters set in the mask.
1555:Generated_Source\PSoC4/CyLFClk.c ****     *
1556:Generated_Source\PSoC4/CyLFClk.c ****     * \param countersMask
1557:Generated_Source\PSoC4/CyLFClk.c ****     * CY_SYS_WDT_COUNTER0_RESET - Reset counter 0 <br>
1558:Generated_Source\PSoC4/CyLFClk.c ****     * CY_SYS_WDT_COUNTER1_RESET - Reset counter 1 <br>
1559:Generated_Source\PSoC4/CyLFClk.c ****     * CY_SYS_WDT_COUNTER2_RESET - Reset counter 2
1560:Generated_Source\PSoC4/CyLFClk.c ****     *
1561:Generated_Source\PSoC4/CyLFClk.c ****     * \details
1562:Generated_Source\PSoC4/CyLFClk.c ****     * This function does not reset counter values if the Watchdog is locked.
1563:Generated_Source\PSoC4/CyLFClk.c ****     * This function waits while corresponding counters will be reset. This may
1564:Generated_Source\PSoC4/CyLFClk.c ****     * take up to 3 LFCLK cycles.
1565:Generated_Source\PSoC4/CyLFClk.c ****     * The LFCLK source must be enabled. Otherwise, the function will never exit.
1566:Generated_Source\PSoC4/CyLFClk.c ****     *
1567:Generated_Source\PSoC4/CyLFClk.c ****     *******************************************************************************/
1568:Generated_Source\PSoC4/CyLFClk.c ****     void CySysWdtResetCounters(uint32 countersMask)
1569:Generated_Source\PSoC4/CyLFClk.c ****     {
1570:Generated_Source\PSoC4/CyLFClk.c ****         /* Set new WDT reset value */
1571:Generated_Source\PSoC4/CyLFClk.c ****         CY_SYS_WDT_CONTROL_REG |= (countersMask & CY_SYS_WDT_COUNTERS_RESET);
1572:Generated_Source\PSoC4/CyLFClk.c **** 
ARM GAS  C:\Users\g\AppData\Local\Temp\ccrBoTzc.s 			page 54


1573:Generated_Source\PSoC4/CyLFClk.c ****         while (0uL != (CY_SYS_WDT_CONTROL_REG & CY_SYS_WDT_COUNTERS_RESET))
1574:Generated_Source\PSoC4/CyLFClk.c ****         {
1575:Generated_Source\PSoC4/CyLFClk.c ****             /* Wait for reset to come into effect */
1576:Generated_Source\PSoC4/CyLFClk.c ****         }
1577:Generated_Source\PSoC4/CyLFClk.c ****     }
1578:Generated_Source\PSoC4/CyLFClk.c **** 
1579:Generated_Source\PSoC4/CyLFClk.c **** 
1580:Generated_Source\PSoC4/CyLFClk.c ****     /*******************************************************************************
1581:Generated_Source\PSoC4/CyLFClk.c ****     * Function Name: CySysWdtSetInterruptCallback
1582:Generated_Source\PSoC4/CyLFClk.c ****     ****************************************************************************//**
1583:Generated_Source\PSoC4/CyLFClk.c ****     * \brief
1584:Generated_Source\PSoC4/CyLFClk.c ****     * Sets the ISR callback function for the particular WDT counter.
1585:Generated_Source\PSoC4/CyLFClk.c ****     * These functions are called on the WDT interrupt.
1586:Generated_Source\PSoC4/CyLFClk.c ****     *
1587:Generated_Source\PSoC4/CyLFClk.c ****     * \param counterNum The number of the WDT counter.
1588:Generated_Source\PSoC4/CyLFClk.c ****     * \param function The pointer to the callback function.
1589:Generated_Source\PSoC4/CyLFClk.c ****     *
1590:Generated_Source\PSoC4/CyLFClk.c ****     * \return The pointer to the previous callback function.
1591:Generated_Source\PSoC4/CyLFClk.c ****     * \return NULL is returned if the specified address is not set.
1592:Generated_Source\PSoC4/CyLFClk.c ****     *
1593:Generated_Source\PSoC4/CyLFClk.c ****     *******************************************************************************/
1594:Generated_Source\PSoC4/CyLFClk.c ****     cyWdtCallback CySysWdtSetInterruptCallback(uint32 counterNum, cyWdtCallback function)
1595:Generated_Source\PSoC4/CyLFClk.c ****     {
1596:Generated_Source\PSoC4/CyLFClk.c ****         cyWdtCallback prevCallback = (void *)0;
1597:Generated_Source\PSoC4/CyLFClk.c **** 
1598:Generated_Source\PSoC4/CyLFClk.c ****         if(counterNum < CY_WDT_NUM_OF_WDT)
1599:Generated_Source\PSoC4/CyLFClk.c ****         {
1600:Generated_Source\PSoC4/CyLFClk.c ****             prevCallback = cySysWdtCallback[counterNum];
1601:Generated_Source\PSoC4/CyLFClk.c ****             cySysWdtCallback[counterNum] = function;
1602:Generated_Source\PSoC4/CyLFClk.c ****         }
1603:Generated_Source\PSoC4/CyLFClk.c ****         else
1604:Generated_Source\PSoC4/CyLFClk.c ****         {
1605:Generated_Source\PSoC4/CyLFClk.c ****             CYASSERT(0u != 0u);
1606:Generated_Source\PSoC4/CyLFClk.c ****         }
1607:Generated_Source\PSoC4/CyLFClk.c **** 
1608:Generated_Source\PSoC4/CyLFClk.c ****         return((cyWdtCallback)prevCallback);
1609:Generated_Source\PSoC4/CyLFClk.c ****     }
1610:Generated_Source\PSoC4/CyLFClk.c **** 
1611:Generated_Source\PSoC4/CyLFClk.c **** 
1612:Generated_Source\PSoC4/CyLFClk.c ****     /*******************************************************************************
1613:Generated_Source\PSoC4/CyLFClk.c ****     * Function Name: CySysWdtGetInterruptCallback
1614:Generated_Source\PSoC4/CyLFClk.c ****     ****************************************************************************//**
1615:Generated_Source\PSoC4/CyLFClk.c ****     * \brief
1616:Generated_Source\PSoC4/CyLFClk.c ****     * Gets the ISR callback function for the particular WDT counter.
1617:Generated_Source\PSoC4/CyLFClk.c ****     *
1618:Generated_Source\PSoC4/CyLFClk.c ****     * \param counterNum The number of the WDT counter.
1619:Generated_Source\PSoC4/CyLFClk.c ****     *
1620:Generated_Source\PSoC4/CyLFClk.c ****     * \return The pointer to the callback function registered for a particular WDT by
1621:Generated_Source\PSoC4/CyLFClk.c ****     * a particular address that are passed through arguments.
1622:Generated_Source\PSoC4/CyLFClk.c ****     *
1623:Generated_Source\PSoC4/CyLFClk.c ****     *******************************************************************************/
1624:Generated_Source\PSoC4/CyLFClk.c ****     cyWdtCallback CySysWdtGetInterruptCallback(uint32 counterNum)
1625:Generated_Source\PSoC4/CyLFClk.c ****     {
1626:Generated_Source\PSoC4/CyLFClk.c ****         cyWdtCallback retCallback = (void *)0;
1627:Generated_Source\PSoC4/CyLFClk.c **** 
1628:Generated_Source\PSoC4/CyLFClk.c ****         if(counterNum < CY_WDT_NUM_OF_WDT)
1629:Generated_Source\PSoC4/CyLFClk.c ****         {
ARM GAS  C:\Users\g\AppData\Local\Temp\ccrBoTzc.s 			page 55


1630:Generated_Source\PSoC4/CyLFClk.c ****             retCallback = (cyWdtCallback)cySysWdtCallback[counterNum];
1631:Generated_Source\PSoC4/CyLFClk.c ****         }
1632:Generated_Source\PSoC4/CyLFClk.c ****         else
1633:Generated_Source\PSoC4/CyLFClk.c ****         {
1634:Generated_Source\PSoC4/CyLFClk.c ****             CYASSERT(0u != 0u);
1635:Generated_Source\PSoC4/CyLFClk.c ****         }
1636:Generated_Source\PSoC4/CyLFClk.c **** 
1637:Generated_Source\PSoC4/CyLFClk.c ****         return(retCallback);
1638:Generated_Source\PSoC4/CyLFClk.c ****     }
1639:Generated_Source\PSoC4/CyLFClk.c **** 
1640:Generated_Source\PSoC4/CyLFClk.c **** 
1641:Generated_Source\PSoC4/CyLFClk.c ****     /*******************************************************************************
1642:Generated_Source\PSoC4/CyLFClk.c ****     * Function Name: CySysWdtEnableCounterIsr
1643:Generated_Source\PSoC4/CyLFClk.c ****     ****************************************************************************//**
1644:Generated_Source\PSoC4/CyLFClk.c ****     * \brief
1645:Generated_Source\PSoC4/CyLFClk.c ****     * Enables the ISR callback servicing for the particular WDT counter
1646:Generated_Source\PSoC4/CyLFClk.c ****     *
1647:Generated_Source\PSoC4/CyLFClk.c ****     * \param counterNum Valid range [0-2]. The number of the WDT counter.
1648:Generated_Source\PSoC4/CyLFClk.c ****     *
1649:Generated_Source\PSoC4/CyLFClk.c ****     * Value corresponds to appropriate WDT counter. For example value 1 
1650:Generated_Source\PSoC4/CyLFClk.c ****     * corresponds to second WDT counter.
1651:Generated_Source\PSoC4/CyLFClk.c ****     *
1652:Generated_Source\PSoC4/CyLFClk.c ****     *******************************************************************************/
1653:Generated_Source\PSoC4/CyLFClk.c ****     void CySysWdtEnableCounterIsr(uint32 counterNum)
1654:Generated_Source\PSoC4/CyLFClk.c ****     {
1655:Generated_Source\PSoC4/CyLFClk.c ****         if(counterNum <= CY_SYS_WDT_COUNTER2)
1656:Generated_Source\PSoC4/CyLFClk.c ****         {
1657:Generated_Source\PSoC4/CyLFClk.c ****             disableServicedIsr &= ~counterIntMaskTbl[counterNum];
1658:Generated_Source\PSoC4/CyLFClk.c ****             wdtIsrMask |= counterIntMaskTbl[counterNum];
1659:Generated_Source\PSoC4/CyLFClk.c ****         }
1660:Generated_Source\PSoC4/CyLFClk.c ****         else
1661:Generated_Source\PSoC4/CyLFClk.c ****         {
1662:Generated_Source\PSoC4/CyLFClk.c ****             CYASSERT(0u != 0u);
1663:Generated_Source\PSoC4/CyLFClk.c ****         }
1664:Generated_Source\PSoC4/CyLFClk.c ****     }
1665:Generated_Source\PSoC4/CyLFClk.c **** 
1666:Generated_Source\PSoC4/CyLFClk.c **** 
1667:Generated_Source\PSoC4/CyLFClk.c ****     /*******************************************************************************
1668:Generated_Source\PSoC4/CyLFClk.c ****     * Function Name: CySysWdtDisableCounterIsr
1669:Generated_Source\PSoC4/CyLFClk.c ****     ****************************************************************************//**
1670:Generated_Source\PSoC4/CyLFClk.c ****     * \brief
1671:Generated_Source\PSoC4/CyLFClk.c ****     * Disables the ISR callback servicing for the particular WDT counter
1672:Generated_Source\PSoC4/CyLFClk.c ****     *
1673:Generated_Source\PSoC4/CyLFClk.c ****     * \param counterNum Valid range [0-2]. The number of the WDT counter.
1674:Generated_Source\PSoC4/CyLFClk.c ****     *
1675:Generated_Source\PSoC4/CyLFClk.c ****     *******************************************************************************/
1676:Generated_Source\PSoC4/CyLFClk.c ****     void CySysWdtDisableCounterIsr(uint32 counterNum)
1677:Generated_Source\PSoC4/CyLFClk.c ****     {
1678:Generated_Source\PSoC4/CyLFClk.c ****         if(counterNum <= CY_SYS_WDT_COUNTER2)
1679:Generated_Source\PSoC4/CyLFClk.c ****         {
1680:Generated_Source\PSoC4/CyLFClk.c ****             wdtIsrMask &= ~counterIntMaskTbl[counterNum];
1681:Generated_Source\PSoC4/CyLFClk.c ****         }
1682:Generated_Source\PSoC4/CyLFClk.c ****         else
1683:Generated_Source\PSoC4/CyLFClk.c ****         {
1684:Generated_Source\PSoC4/CyLFClk.c ****             CYASSERT(0u != 0u);
1685:Generated_Source\PSoC4/CyLFClk.c ****         }
1686:Generated_Source\PSoC4/CyLFClk.c ****     }
ARM GAS  C:\Users\g\AppData\Local\Temp\ccrBoTzc.s 			page 56


1687:Generated_Source\PSoC4/CyLFClk.c **** 
1688:Generated_Source\PSoC4/CyLFClk.c **** 
1689:Generated_Source\PSoC4/CyLFClk.c ****     /*******************************************************************************
1690:Generated_Source\PSoC4/CyLFClk.c ****     * Function Name: CySysWdtIsr
1691:Generated_Source\PSoC4/CyLFClk.c ****     ****************************************************************************//**
1692:Generated_Source\PSoC4/CyLFClk.c ****     * \brief
1693:Generated_Source\PSoC4/CyLFClk.c ****     * This is the handler of the WDT interrupt in CPU NVIC.
1694:Generated_Source\PSoC4/CyLFClk.c ****     *
1695:Generated_Source\PSoC4/CyLFClk.c ****     * The handler checks which WDT triggered in the interrupt and calls the 
1696:Generated_Source\PSoC4/CyLFClk.c ****     * respective callback functions configured by the user by using 
1697:Generated_Source\PSoC4/CyLFClk.c ****     * CySysWdtSetIsrCallback() API.
1698:Generated_Source\PSoC4/CyLFClk.c ****     *
1699:Generated_Source\PSoC4/CyLFClk.c ****     * The order of the callback execution is incremental. Callback-0 is
1700:Generated_Source\PSoC4/CyLFClk.c ****     * run as the first one and callback-2 is called as the last one.
1701:Generated_Source\PSoC4/CyLFClk.c ****     *
1702:Generated_Source\PSoC4/CyLFClk.c ****     * \details
1703:Generated_Source\PSoC4/CyLFClk.c ****     * This function clears the WDT interrupt every time when it is called.
1704:Generated_Source\PSoC4/CyLFClk.c ****     * Reset after the 3rd interrupt does not happen if this function is registered
1705:Generated_Source\PSoC4/CyLFClk.c ****     * as the interrupt handler even if the "Watchdog with Interrupt" mode is
1706:Generated_Source\PSoC4/CyLFClk.c ****     * selected on the "Low Frequency Clocks" tab.
1707:Generated_Source\PSoC4/CyLFClk.c ****     *
1708:Generated_Source\PSoC4/CyLFClk.c ****     *******************************************************************************/
1709:Generated_Source\PSoC4/CyLFClk.c ****     void CySysWdtIsr(void)
1710:Generated_Source\PSoC4/CyLFClk.c ****     {
1711:Generated_Source\PSoC4/CyLFClk.c ****         if(0u != (CY_SYS_WDT_COUNTER0_INT & CY_SYS_WDT_CONTROL_REG))
1712:Generated_Source\PSoC4/CyLFClk.c ****         {
1713:Generated_Source\PSoC4/CyLFClk.c ****             if(0u != (CY_SYS_WDT_COUNTER0_INT & wdtIsrMask))
1714:Generated_Source\PSoC4/CyLFClk.c ****             {
1715:Generated_Source\PSoC4/CyLFClk.c ****                 wdtIsrMask &= ~(disableServicedIsr & CY_SYS_WDT_COUNTER0_INT);
1716:Generated_Source\PSoC4/CyLFClk.c ****                 disableServicedIsr  &= ~CY_SYS_WDT_COUNTER0_INT;
1717:Generated_Source\PSoC4/CyLFClk.c ****                 if(cySysWdtCallback[CY_SYS_WDT_COUNTER0] != (void *) 0)
1718:Generated_Source\PSoC4/CyLFClk.c ****                 {
1719:Generated_Source\PSoC4/CyLFClk.c ****                     (void)(cySysWdtCallback[CY_SYS_WDT_COUNTER0])();
1720:Generated_Source\PSoC4/CyLFClk.c ****                 }
1721:Generated_Source\PSoC4/CyLFClk.c ****             }
1722:Generated_Source\PSoC4/CyLFClk.c ****             CySysWdtClearInterrupt(CY_SYS_WDT_COUNTER0_INT);
1723:Generated_Source\PSoC4/CyLFClk.c ****         }
1724:Generated_Source\PSoC4/CyLFClk.c **** 
1725:Generated_Source\PSoC4/CyLFClk.c ****         if(0u != (CY_SYS_WDT_COUNTER1_INT & CY_SYS_WDT_CONTROL_REG))
1726:Generated_Source\PSoC4/CyLFClk.c ****         {
1727:Generated_Source\PSoC4/CyLFClk.c ****             if(0u != (CY_SYS_WDT_COUNTER1_INT & wdtIsrMask))
1728:Generated_Source\PSoC4/CyLFClk.c ****             {
1729:Generated_Source\PSoC4/CyLFClk.c ****                 wdtIsrMask &= ~(disableServicedIsr & CY_SYS_WDT_COUNTER1_INT);
1730:Generated_Source\PSoC4/CyLFClk.c ****                 disableServicedIsr  &= ~CY_SYS_WDT_COUNTER1_INT;
1731:Generated_Source\PSoC4/CyLFClk.c ****                 if(cySysWdtCallback[CY_SYS_WDT_COUNTER1] != (void *) 0)
1732:Generated_Source\PSoC4/CyLFClk.c ****                 {
1733:Generated_Source\PSoC4/CyLFClk.c ****                     (void)(cySysWdtCallback[CY_SYS_WDT_COUNTER1])();
1734:Generated_Source\PSoC4/CyLFClk.c ****                 }
1735:Generated_Source\PSoC4/CyLFClk.c ****             }
1736:Generated_Source\PSoC4/CyLFClk.c ****             CySysWdtClearInterrupt(CY_SYS_WDT_COUNTER1_INT);
1737:Generated_Source\PSoC4/CyLFClk.c ****         }
1738:Generated_Source\PSoC4/CyLFClk.c **** 
1739:Generated_Source\PSoC4/CyLFClk.c ****         if(0u != (CY_SYS_WDT_COUNTER2_INT & CY_SYS_WDT_CONTROL_REG))
1740:Generated_Source\PSoC4/CyLFClk.c ****         {
1741:Generated_Source\PSoC4/CyLFClk.c ****             if(0u != (CY_SYS_WDT_COUNTER2_INT & wdtIsrMask))
1742:Generated_Source\PSoC4/CyLFClk.c ****             {
1743:Generated_Source\PSoC4/CyLFClk.c ****                 if(cySysWdtCallback[CY_SYS_WDT_COUNTER2] != (void *) 0)
ARM GAS  C:\Users\g\AppData\Local\Temp\ccrBoTzc.s 			page 57


1744:Generated_Source\PSoC4/CyLFClk.c ****                 {
1745:Generated_Source\PSoC4/CyLFClk.c ****                     (void)(cySysWdtCallback[CY_SYS_WDT_COUNTER2])();
1746:Generated_Source\PSoC4/CyLFClk.c ****                 }
1747:Generated_Source\PSoC4/CyLFClk.c ****             }
1748:Generated_Source\PSoC4/CyLFClk.c ****             CySysWdtClearInterrupt(CY_SYS_WDT_COUNTER2_INT);
1749:Generated_Source\PSoC4/CyLFClk.c ****         }
1750:Generated_Source\PSoC4/CyLFClk.c ****     }
1751:Generated_Source\PSoC4/CyLFClk.c **** 
1752:Generated_Source\PSoC4/CyLFClk.c **** 
1753:Generated_Source\PSoC4/CyLFClk.c ****     /*******************************************************************************
1754:Generated_Source\PSoC4/CyLFClk.c ****     * Function Name: CySysWatchdogFeed
1755:Generated_Source\PSoC4/CyLFClk.c ****     ****************************************************************************//**
1756:Generated_Source\PSoC4/CyLFClk.c ****     * \brief
1757:Generated_Source\PSoC4/CyLFClk.c ****     * Feeds the corresponded Watchdog Counter before it causes the device reset.
1758:Generated_Source\PSoC4/CyLFClk.c ****     *
1759:Generated_Source\PSoC4/CyLFClk.c ****     * Supported only for first WDT0 and second WDT1 counters in the "Watchdog" or 
1760:Generated_Source\PSoC4/CyLFClk.c ****     * "Watchdog w/ Interrupts" modes.
1761:Generated_Source\PSoC4/CyLFClk.c ****     *
1762:Generated_Source\PSoC4/CyLFClk.c ****     * \param counterNum
1763:Generated_Source\PSoC4/CyLFClk.c ****     * CY_SYS_WDT_COUNTER0 - Feeds the Counter 0 <br>
1764:Generated_Source\PSoC4/CyLFClk.c ****     * CY_SYS_WDT_COUNTER1 - Feeds the Counter 1
1765:Generated_Source\PSoC4/CyLFClk.c ****     *
1766:Generated_Source\PSoC4/CyLFClk.c ****     * Value of counterNum corresponds to appropriate counter. For example value 1 
1767:Generated_Source\PSoC4/CyLFClk.c ****     * corresponds to second WDT1 Counter.
1768:Generated_Source\PSoC4/CyLFClk.c ****     *
1769:Generated_Source\PSoC4/CyLFClk.c ****     * \details
1770:Generated_Source\PSoC4/CyLFClk.c ****     * Clears the WDT counter in the "Watchdog" mode or clears the WDT interrupt in
1771:Generated_Source\PSoC4/CyLFClk.c ****     * "Watchdog w/ Interrupts" mode. Does nothing in other modes.
1772:Generated_Source\PSoC4/CyLFClk.c ****     *
1773:Generated_Source\PSoC4/CyLFClk.c ****     *******************************************************************************/
1774:Generated_Source\PSoC4/CyLFClk.c ****     void CySysWatchdogFeed(uint32 counterNum)
1775:Generated_Source\PSoC4/CyLFClk.c ****     {
1776:Generated_Source\PSoC4/CyLFClk.c ****         if(counterNum == CY_SYS_WDT_COUNTER0)
1777:Generated_Source\PSoC4/CyLFClk.c ****         {
1778:Generated_Source\PSoC4/CyLFClk.c ****             if(CY_SYS_WDT_MODE_INT_RESET == CySysWdtGetMode(counterNum))
1779:Generated_Source\PSoC4/CyLFClk.c ****             {
1780:Generated_Source\PSoC4/CyLFClk.c ****                 CySysWdtClearInterrupt(CY_SYS_WDT_COUNTER0_INT);
1781:Generated_Source\PSoC4/CyLFClk.c ****             }
1782:Generated_Source\PSoC4/CyLFClk.c ****             else if(CY_SYS_WDT_MODE_RESET == CySysWdtGetMode(counterNum))
1783:Generated_Source\PSoC4/CyLFClk.c ****             {
1784:Generated_Source\PSoC4/CyLFClk.c ****                 CySysWdtResetCounters(CY_SYS_WDT_COUNTER0_RESET);
1785:Generated_Source\PSoC4/CyLFClk.c ****                 CySysWdtClearInterrupt(CY_SYS_WDT_COUNTER0_INT);
1786:Generated_Source\PSoC4/CyLFClk.c ****             }
1787:Generated_Source\PSoC4/CyLFClk.c ****             else
1788:Generated_Source\PSoC4/CyLFClk.c ****             {
1789:Generated_Source\PSoC4/CyLFClk.c ****                 /* Do nothing. */
1790:Generated_Source\PSoC4/CyLFClk.c ****             }
1791:Generated_Source\PSoC4/CyLFClk.c ****         }
1792:Generated_Source\PSoC4/CyLFClk.c ****         else if(counterNum == CY_SYS_WDT_COUNTER1)
1793:Generated_Source\PSoC4/CyLFClk.c ****         {
1794:Generated_Source\PSoC4/CyLFClk.c ****             if(CY_SYS_WDT_MODE_INT_RESET == CySysWdtGetMode(counterNum))
1795:Generated_Source\PSoC4/CyLFClk.c ****             {
1796:Generated_Source\PSoC4/CyLFClk.c ****                 CySysWdtClearInterrupt(CY_SYS_WDT_COUNTER1_INT);
1797:Generated_Source\PSoC4/CyLFClk.c ****             }
1798:Generated_Source\PSoC4/CyLFClk.c ****             else if(CY_SYS_WDT_MODE_RESET == CySysWdtGetMode(counterNum))
1799:Generated_Source\PSoC4/CyLFClk.c ****             {
1800:Generated_Source\PSoC4/CyLFClk.c ****                 CySysWdtResetCounters(CY_SYS_WDT_COUNTER1_RESET);
ARM GAS  C:\Users\g\AppData\Local\Temp\ccrBoTzc.s 			page 58


1801:Generated_Source\PSoC4/CyLFClk.c ****                 CySysWdtClearInterrupt(CY_SYS_WDT_COUNTER1_INT);
1802:Generated_Source\PSoC4/CyLFClk.c ****             }
1803:Generated_Source\PSoC4/CyLFClk.c ****             else
1804:Generated_Source\PSoC4/CyLFClk.c ****             {
1805:Generated_Source\PSoC4/CyLFClk.c ****                 /* Do nothing. */
1806:Generated_Source\PSoC4/CyLFClk.c ****             }
1807:Generated_Source\PSoC4/CyLFClk.c ****         }
1808:Generated_Source\PSoC4/CyLFClk.c ****         else
1809:Generated_Source\PSoC4/CyLFClk.c ****         {
1810:Generated_Source\PSoC4/CyLFClk.c ****             /* Do nothing. */
1811:Generated_Source\PSoC4/CyLFClk.c ****         }
1812:Generated_Source\PSoC4/CyLFClk.c ****     }
1813:Generated_Source\PSoC4/CyLFClk.c **** 
1814:Generated_Source\PSoC4/CyLFClk.c **** 
1815:Generated_Source\PSoC4/CyLFClk.c ****     /*******************************************************************************
1816:Generated_Source\PSoC4/CyLFClk.c ****     * Function Name: CySysClkLfclkPosedgeCatch
1817:Generated_Source\PSoC4/CyLFClk.c ****     ****************************************************************************//**
1818:Generated_Source\PSoC4/CyLFClk.c ****     * \internal
1819:Generated_Source\PSoC4/CyLFClk.c ****     * Returns once the LFCLK positive edge occurred.
1820:Generated_Source\PSoC4/CyLFClk.c ****     *
1821:Generated_Source\PSoC4/CyLFClk.c ****     * CySysClkLfclkPosedgeRestore() should be called after this function
1822:Generated_Source\PSoC4/CyLFClk.c ****     * to restore the WDT configuration.
1823:Generated_Source\PSoC4/CyLFClk.c ****     *
1824:Generated_Source\PSoC4/CyLFClk.c ****     * A pair of the CySysClkLfclkPosedgeCatch() and CySysClkLfclkPosedgeRestore()
1825:Generated_Source\PSoC4/CyLFClk.c ****     * functions is expected to be called inside a critical section.
1826:Generated_Source\PSoC4/CyLFClk.c ****     *
1827:Generated_Source\PSoC4/CyLFClk.c ****     * To ensure that the WDT counter value is read until it changes, the enabled
1828:Generated_Source\PSoC4/CyLFClk.c ****     * WDT counter is used. If no counter is enabled, counter 0 is enabled.
1829:Generated_Source\PSoC4/CyLFClk.c ****     * And after the LFCLK source is switched, the counter 0 configuration
1830:Generated_Source\PSoC4/CyLFClk.c ****     * is restored.
1831:Generated_Source\PSoC4/CyLFClk.c ****     *
1832:Generated_Source\PSoC4/CyLFClk.c ****     * Not applicable for the PSoC 4000 / PSoC 4000S / PSoC 4100S / PSoC Analog 
1833:Generated_Source\PSoC4/CyLFClk.c ****     * Coprocessor devices.
1834:Generated_Source\PSoC4/CyLFClk.c ****     *
1835:Generated_Source\PSoC4/CyLFClk.c ****     * \details
1836:Generated_Source\PSoC4/CyLFClk.c ****     * This function has no effect if WDT is locked (CySysWdtLock() is
1837:Generated_Source\PSoC4/CyLFClk.c ****     * called). Call CySysWdtUnlock() to unlock WDT.
1838:Generated_Source\PSoC4/CyLFClk.c ****     * \endinternal
1839:Generated_Source\PSoC4/CyLFClk.c ****     *******************************************************************************/
1840:Generated_Source\PSoC4/CyLFClk.c ****     static void CySysClkLfclkPosedgeCatch(void)
1841:Generated_Source\PSoC4/CyLFClk.c ****     {
1842:Generated_Source\PSoC4/CyLFClk.c ****         uint32 firstCount;
1843:Generated_Source\PSoC4/CyLFClk.c ****         static uint32 lfclkPosedgeEnabledWdtCounter = 0u;
1844:Generated_Source\PSoC4/CyLFClk.c **** 
1845:Generated_Source\PSoC4/CyLFClk.c ****         if (0u != CySysWdtGetEnabledStatus(CY_SYS_WDT_COUNTER0))
 1347              		.loc 1 1845 0
 1348 0024 9207     		lsl	r2, r2, #30
 1349 0026 21D5     		bpl	.L155
1846:Generated_Source\PSoC4/CyLFClk.c ****         {
1847:Generated_Source\PSoC4/CyLFClk.c ****             lfclkPosedgeEnabledWdtCounter = CY_SYS_WDT_COUNTER0;
 1350              		.loc 1 1847 0
 1351 0028 244D     		ldr	r5, .L156+12
 1352 002a 6C60     		str	r4, [r5, #4]
 1353              	.L139:
1848:Generated_Source\PSoC4/CyLFClk.c ****         }
1849:Generated_Source\PSoC4/CyLFClk.c ****         else if (0u != CySysWdtGetEnabledStatus(CY_SYS_WDT_COUNTER1))
1850:Generated_Source\PSoC4/CyLFClk.c ****         {
ARM GAS  C:\Users\g\AppData\Local\Temp\ccrBoTzc.s 			page 59


1851:Generated_Source\PSoC4/CyLFClk.c ****             lfclkPosedgeEnabledWdtCounter = CY_SYS_WDT_COUNTER1;
1852:Generated_Source\PSoC4/CyLFClk.c ****         }
1853:Generated_Source\PSoC4/CyLFClk.c ****         else if (0u != CySysWdtGetEnabledStatus(CY_SYS_WDT_COUNTER2))
1854:Generated_Source\PSoC4/CyLFClk.c ****         {
1855:Generated_Source\PSoC4/CyLFClk.c ****             lfclkPosedgeEnabledWdtCounter = CY_SYS_WDT_COUNTER2;
1856:Generated_Source\PSoC4/CyLFClk.c ****         }
1857:Generated_Source\PSoC4/CyLFClk.c ****         else /* All WDT counters are disabled */
1858:Generated_Source\PSoC4/CyLFClk.c ****         {
1859:Generated_Source\PSoC4/CyLFClk.c ****             /* Configure WDT counter # 0 */
1860:Generated_Source\PSoC4/CyLFClk.c ****             lfclkPosedgeWdtCounter0Enabled = 1u;
1861:Generated_Source\PSoC4/CyLFClk.c ****             lfclkPosedgeEnabledWdtCounter = CY_SYS_WDT_COUNTER0;
1862:Generated_Source\PSoC4/CyLFClk.c **** 
1863:Generated_Source\PSoC4/CyLFClk.c ****             lfclkPosedgeWdtCounter0Mode = CySysWdtGetMode(CY_SYS_WDT_COUNTER0);
1864:Generated_Source\PSoC4/CyLFClk.c ****             CySysWdtSetMode(CY_SYS_WDT_COUNTER0, CY_SYS_WDT_MODE_NONE);
1865:Generated_Source\PSoC4/CyLFClk.c ****             CySysWdtEnable(CY_SYS_WDT_COUNTER0_MASK);
1866:Generated_Source\PSoC4/CyLFClk.c ****         }
1867:Generated_Source\PSoC4/CyLFClk.c **** 
1868:Generated_Source\PSoC4/CyLFClk.c ****         firstCount = CySysWdtGetCount(lfclkPosedgeEnabledWdtCounter);
 1354              		.loc 1 1868 0
 1355 002c 201C     		mov	r0, r4
 1356 002e FFF7FEFF 		bl	CySysWdtGetCount
 1357              	.LVL113:
 1358 0032 041C     		mov	r4, r0
 1359              	.LVL114:
 1360              	.L142:
1869:Generated_Source\PSoC4/CyLFClk.c ****         while (CySysWdtGetCount(lfclkPosedgeEnabledWdtCounter) == firstCount)
 1361              		.loc 1 1869 0
 1362 0034 6868     		ldr	r0, [r5, #4]
 1363 0036 FFF7FEFF 		bl	CySysWdtGetCount
 1364              	.LVL115:
 1365 003a 8442     		cmp	r4, r0
 1366 003c FAD0     		beq	.L142
 1367              	.LBE134:
 1368              	.LBE136:
 126:Generated_Source\PSoC4/CyLFClk.c ****                 CySysClkLfclkPosedgeRestore();
 1369              		.loc 1 126 0
 1370 003e 1D4A     		ldr	r2, .L156+4
 1371 0040 1368     		ldr	r3, [r2]
 1372 0042 5B00     		lsl	r3, r3, #1
 1373 0044 5B08     		lsr	r3, r3, #1
 1374 0046 1360     		str	r3, [r2]
 1375              	.LBB137:
 1376              	.LBB138:
1870:Generated_Source\PSoC4/CyLFClk.c ****         {
1871:Generated_Source\PSoC4/CyLFClk.c ****             /* Wait for counter to increment */
1872:Generated_Source\PSoC4/CyLFClk.c ****         }
1873:Generated_Source\PSoC4/CyLFClk.c ****     }
1874:Generated_Source\PSoC4/CyLFClk.c **** 
1875:Generated_Source\PSoC4/CyLFClk.c **** 
1876:Generated_Source\PSoC4/CyLFClk.c ****     /*******************************************************************************
1877:Generated_Source\PSoC4/CyLFClk.c ****     * Function Name: CySysClkLfclkPosedgeRestore
1878:Generated_Source\PSoC4/CyLFClk.c ****     ****************************************************************************//**
1879:Generated_Source\PSoC4/CyLFClk.c ****     * \internal
1880:Generated_Source\PSoC4/CyLFClk.c ****     *  Restores the WDT configuration after a CySysClkLfclkPosedgeCatch() call.
1881:Generated_Source\PSoC4/CyLFClk.c ****     *
1882:Generated_Source\PSoC4/CyLFClk.c ****     *  A pair of the CySysClkLfclkPosedgeCatch() and CySysClkLfclkPosedgeRestore()
1883:Generated_Source\PSoC4/CyLFClk.c ****     *  functions is expected to be called inside a critical section.
ARM GAS  C:\Users\g\AppData\Local\Temp\ccrBoTzc.s 			page 60


1884:Generated_Source\PSoC4/CyLFClk.c ****     *
1885:Generated_Source\PSoC4/CyLFClk.c ****     * Not applicable for the PSoC 4000/PSoC 4000S / PSoC 4100S / PSoC Analog 
1886:Generated_Source\PSoC4/CyLFClk.c ****     * Coprocessor devices.
1887:Generated_Source\PSoC4/CyLFClk.c ****     *
1888:Generated_Source\PSoC4/CyLFClk.c ****     * \details
1889:Generated_Source\PSoC4/CyLFClk.c ****     *  This function has no effect if WDT is locked (CySysWdtLock() is
1890:Generated_Source\PSoC4/CyLFClk.c ****     *  called). Call CySysWdtUnlock() to unlock WDT.
1891:Generated_Source\PSoC4/CyLFClk.c ****     *
1892:Generated_Source\PSoC4/CyLFClk.c ****     * \endinternal
1893:Generated_Source\PSoC4/CyLFClk.c ****     *******************************************************************************/
1894:Generated_Source\PSoC4/CyLFClk.c ****     static void CySysClkLfclkPosedgeRestore(void)
1895:Generated_Source\PSoC4/CyLFClk.c ****     {
1896:Generated_Source\PSoC4/CyLFClk.c ****         if (lfclkPosedgeWdtCounter0Enabled != 0u)
 1377              		.loc 1 1896 0
 1378 0048 AB68     		ldr	r3, [r5, #8]
 1379 004a 002B     		cmp	r3, #0
 1380 004c 0AD0     		beq	.L143
1897:Generated_Source\PSoC4/CyLFClk.c ****         {
1898:Generated_Source\PSoC4/CyLFClk.c ****             /* Restore counter # 0 configuration and force its shutdown */
1899:Generated_Source\PSoC4/CyLFClk.c ****             CY_SYS_WDT_CONTROL_REG &= (uint32)(~CY_SYS_WDT_COUNTER0_MASK);
 1381              		.loc 1 1899 0
 1382 004e 0121     		mov	r1, #1
 1383 0050 194A     		ldr	r2, .L156+8
1900:Generated_Source\PSoC4/CyLFClk.c ****             CySysWdtSetMode(CY_SYS_WDT_COUNTER0, lfclkPosedgeWdtCounter0Mode);
 1384              		.loc 1 1900 0
 1385 0052 0020     		mov	r0, #0
1899:Generated_Source\PSoC4/CyLFClk.c ****             CySysWdtSetMode(CY_SYS_WDT_COUNTER0, lfclkPosedgeWdtCounter0Mode);
 1386              		.loc 1 1899 0
 1387 0054 1368     		ldr	r3, [r2]
 1388 0056 8B43     		bic	r3, r1
 1389 0058 1360     		str	r3, [r2]
 1390              		.loc 1 1900 0
 1391 005a E968     		ldr	r1, [r5, #12]
 1392 005c FFF7FEFF 		bl	CySysWdtSetMode
 1393              	.LVL116:
1901:Generated_Source\PSoC4/CyLFClk.c ****             lfclkPosedgeWdtCounter0Enabled = 0u;
 1394              		.loc 1 1901 0
 1395 0060 0023     		mov	r3, #0
 1396 0062 AB60     		str	r3, [r5, #8]
 1397              	.L143:
 1398              	.LBE138:
 1399              	.LBE137:
 128:Generated_Source\PSoC4/CyLFClk.c **** 
 1400              		.loc 1 128 0
 1401 0064 301C     		mov	r0, r6
 1402 0066 FFF7FEFF 		bl	CyExitCriticalSection
 1403              	.LVL117:
 1404 006a D4E7     		b	.L136
 1405              	.LVL118:
 1406              	.L155:
 1407              	.LBB139:
 1408              	.LBB135:
 1409              	.LBB122:
 1410              	.LBB123:
1020:Generated_Source\PSoC4/CyLFClk.c ****     }
 1411              		.loc 1 1020 0
 1412 006c 1A68     		ldr	r2, [r3]
ARM GAS  C:\Users\g\AppData\Local\Temp\ccrBoTzc.s 			page 61


 1413 006e 520A     		lsr	r2, r2, #9
 1414              	.LBE123:
 1415              	.LBE122:
1849:Generated_Source\PSoC4/CyLFClk.c ****         {
 1416              		.loc 1 1849 0
 1417 0070 1142     		tst	r1, r2
 1418 0072 03D0     		beq	.L140
1851:Generated_Source\PSoC4/CyLFClk.c ****         }
 1419              		.loc 1 1851 0
 1420 0074 114D     		ldr	r5, .L156+12
 1421 0076 0124     		mov	r4, #1
 1422 0078 6960     		str	r1, [r5, #4]
 1423 007a D7E7     		b	.L139
 1424              	.L140:
 1425              	.LVL119:
 1426              	.LBB124:
 1427              	.LBB125:
1020:Generated_Source\PSoC4/CyLFClk.c ****     }
 1428              		.loc 1 1020 0
 1429 007c 1B68     		ldr	r3, [r3]
 1430              	.LBE125:
 1431              	.LBE124:
1855:Generated_Source\PSoC4/CyLFClk.c ****         }
 1432              		.loc 1 1855 0
 1433 007e 0F4D     		ldr	r5, .L156+12
 1434              	.LBB127:
 1435              	.LBB126:
1020:Generated_Source\PSoC4/CyLFClk.c ****     }
 1436              		.loc 1 1020 0
 1437 0080 5B0C     		lsr	r3, r3, #17
 1438              	.LBE126:
 1439              	.LBE127:
1853:Generated_Source\PSoC4/CyLFClk.c ****         {
 1440              		.loc 1 1853 0
 1441 0082 1942     		tst	r1, r3
 1442 0084 03D0     		beq	.L141
1855:Generated_Source\PSoC4/CyLFClk.c ****         }
 1443              		.loc 1 1855 0
 1444 0086 0223     		mov	r3, #2
 1445 0088 0224     		mov	r4, #2
 1446 008a 6B60     		str	r3, [r5, #4]
 1447 008c CEE7     		b	.L139
 1448              	.L141:
 1449              	.LBB128:
 1450              	.LBB129:
1077:Generated_Source\PSoC4/CyLFClk.c ****     }
 1451              		.loc 1 1077 0
 1452 008e 0322     		mov	r2, #3
 1453 0090 0B4B     		ldr	r3, .L156+16
 1454              	.LBE129:
 1455              	.LBE128:
1860:Generated_Source\PSoC4/CyLFClk.c ****             lfclkPosedgeEnabledWdtCounter = CY_SYS_WDT_COUNTER0;
 1456              		.loc 1 1860 0
 1457 0092 A960     		str	r1, [r5, #8]
1861:Generated_Source\PSoC4/CyLFClk.c **** 
 1458              		.loc 1 1861 0
 1459 0094 6C60     		str	r4, [r5, #4]
ARM GAS  C:\Users\g\AppData\Local\Temp\ccrBoTzc.s 			page 62


 1460              	.LVL120:
 1461              	.LBB132:
 1462              	.LBB130:
1077:Generated_Source\PSoC4/CyLFClk.c ****     }
 1463              		.loc 1 1077 0
 1464 0096 1B68     		ldr	r3, [r3]
 1465              	.LBE130:
 1466              	.LBE132:
1864:Generated_Source\PSoC4/CyLFClk.c ****             CySysWdtEnable(CY_SYS_WDT_COUNTER0_MASK);
 1467              		.loc 1 1864 0
 1468 0098 0020     		mov	r0, #0
 1469              	.LBB133:
 1470              	.LBB131:
1077:Generated_Source\PSoC4/CyLFClk.c ****     }
 1471              		.loc 1 1077 0
 1472 009a 1340     		and	r3, r2
 1473              	.LBE131:
 1474              	.LBE133:
1864:Generated_Source\PSoC4/CyLFClk.c ****             CySysWdtEnable(CY_SYS_WDT_COUNTER0_MASK);
 1475              		.loc 1 1864 0
 1476 009c 0021     		mov	r1, #0
1863:Generated_Source\PSoC4/CyLFClk.c ****             CySysWdtSetMode(CY_SYS_WDT_COUNTER0, CY_SYS_WDT_MODE_NONE);
 1477              		.loc 1 1863 0
 1478 009e EB60     		str	r3, [r5, #12]
1864:Generated_Source\PSoC4/CyLFClk.c ****             CySysWdtEnable(CY_SYS_WDT_COUNTER0_MASK);
 1479              		.loc 1 1864 0
 1480 00a0 FFF7FEFF 		bl	CySysWdtSetMode
 1481              	.LVL121:
1865:Generated_Source\PSoC4/CyLFClk.c ****         }
 1482              		.loc 1 1865 0
 1483 00a4 0120     		mov	r0, #1
 1484 00a6 FFF7FEFF 		bl	CySysWdtEnable
 1485              	.LVL122:
 1486 00aa 6C68     		ldr	r4, [r5, #4]
 1487 00ac BEE7     		b	.L139
 1488              	.L157:
 1489 00ae C046     		.align	2
 1490              	.L156:
 1491 00b0 00010B40 		.word	1074462976
 1492 00b4 04010B40 		.word	1074462980
 1493 00b8 10020B40 		.word	1074463248
 1494 00bc 00000000 		.word	.LANCHOR0
 1495 00c0 0C020B40 		.word	1074463244
 1496              	.LBE135:
 1497              	.LBE139:
 1498              		.cfi_endproc
 1499              	.LFE1:
 1500              		.size	CySysClkIloStop, .-CySysClkIloStop
 1501              		.section	.text.CySysWdtGetInterruptSource,"ax",%progbits
 1502              		.align	2
 1503              		.global	CySysWdtGetInterruptSource
 1504              		.code	16
 1505              		.thumb_func
 1506              		.type	CySysWdtGetInterruptSource, %function
 1507              	CySysWdtGetInterruptSource:
 1508              	.LFB23:
1482:Generated_Source\PSoC4/CyLFClk.c ****         return (CY_SYS_WDT_CONTROL_REG & (CY_SYS_WDT_COUNTER0_INT | CY_SYS_WDT_COUNTER1_INT | CY_SY
ARM GAS  C:\Users\g\AppData\Local\Temp\ccrBoTzc.s 			page 63


 1509              		.loc 1 1482 0
 1510              		.cfi_startproc
1483:Generated_Source\PSoC4/CyLFClk.c ****     }
 1511              		.loc 1 1483 0
 1512 0000 024B     		ldr	r3, .L159
1484:Generated_Source\PSoC4/CyLFClk.c **** 
 1513              		.loc 1 1484 0
 1514              		@ sp needed
1483:Generated_Source\PSoC4/CyLFClk.c ****     }
 1515              		.loc 1 1483 0
 1516 0002 1868     		ldr	r0, [r3]
 1517 0004 024B     		ldr	r3, .L159+4
 1518 0006 1840     		and	r0, r3
1484:Generated_Source\PSoC4/CyLFClk.c **** 
 1519              		.loc 1 1484 0
 1520 0008 7047     		bx	lr
 1521              	.L160:
 1522 000a C046     		.align	2
 1523              	.L159:
 1524 000c 10020B40 		.word	1074463248
 1525 0010 04040400 		.word	263172
 1526              		.cfi_endproc
 1527              	.LFE23:
 1528              		.size	CySysWdtGetInterruptSource, .-CySysWdtGetInterruptSource
 1529              		.section	.text.CySysWdtClearInterrupt,"ax",%progbits
 1530              		.align	2
 1531              		.global	CySysWdtClearInterrupt
 1532              		.code	16
 1533              		.thumb_func
 1534              		.type	CySysWdtClearInterrupt, %function
 1535              	CySysWdtClearInterrupt:
 1536              	.LFB24:
1511:Generated_Source\PSoC4/CyLFClk.c ****         uint8 interruptState;
 1537              		.loc 1 1511 0
 1538              		.cfi_startproc
 1539              	.LVL123:
 1540 0000 38B5     		push	{r3, r4, r5, lr}
 1541              		.cfi_def_cfa_offset 16
 1542              		.cfi_offset 3, -16
 1543              		.cfi_offset 4, -12
 1544              		.cfi_offset 5, -8
 1545              		.cfi_offset 14, -4
1511:Generated_Source\PSoC4/CyLFClk.c ****         uint8 interruptState;
 1546              		.loc 1 1511 0
 1547 0002 051C     		mov	r5, r0
1515:Generated_Source\PSoC4/CyLFClk.c **** 
 1548              		.loc 1 1515 0
 1549 0004 FFF7FEFF 		bl	CyEnterCriticalSection
 1550              	.LVL124:
 1551              	.LBB140:
 1552              	.LBB141:
 972:Generated_Source\PSoC4/CyLFClk.c ****     }
 1553              		.loc 1 972 0
 1554 0008 104B     		ldr	r3, .L166
 1555              	.LBE141:
 1556              	.LBE140:
1515:Generated_Source\PSoC4/CyLFClk.c **** 
ARM GAS  C:\Users\g\AppData\Local\Temp\ccrBoTzc.s 			page 64


 1557              		.loc 1 1515 0
 1558 000a 041C     		mov	r4, r0
 1559              	.LVL125:
 1560              	.LBB143:
 1561              	.LBB142:
 972:Generated_Source\PSoC4/CyLFClk.c ****     }
 1562              		.loc 1 972 0
 1563 000c 1A68     		ldr	r2, [r3]
 1564 000e C023     		mov	r3, #192
 1565 0010 1B02     		lsl	r3, r3, #8
 1566 0012 1A42     		tst	r2, r3
 1567 0014 10D0     		beq	.L165
 1568              	.LVL126:
 1569              	.LBE142:
 1570              	.LBE143:
1520:Generated_Source\PSoC4/CyLFClk.c ****         }
 1571              		.loc 1 1520 0
 1572 0016 FFF7FEFF 		bl	CySysWdtUnlock
 1573              	.LVL127:
1532:Generated_Source\PSoC4/CyLFClk.c ****                                                                            CY_SYS_WDT_COUNTER1_INT 
 1574              		.loc 1 1532 0
 1575 001a 0D4A     		ldr	r2, .L166+4
1528:Generated_Source\PSoC4/CyLFClk.c ****                         CY_SYS_WDT_COUNTER1_INT |
 1576              		.loc 1 1528 0
 1577 001c 0D48     		ldr	r0, .L166+8
1532:Generated_Source\PSoC4/CyLFClk.c ****                                                                            CY_SYS_WDT_COUNTER1_INT 
 1578              		.loc 1 1532 0
 1579 001e 1168     		ldr	r1, [r2]
 1580 0020 0D4B     		ldr	r3, .L166+12
1528:Generated_Source\PSoC4/CyLFClk.c ****                         CY_SYS_WDT_COUNTER1_INT |
 1581              		.loc 1 1528 0
 1582 0022 2840     		and	r0, r5
 1583              	.LVL128:
1532:Generated_Source\PSoC4/CyLFClk.c ****                                                                            CY_SYS_WDT_COUNTER1_INT 
 1584              		.loc 1 1532 0
 1585 0024 0B40     		and	r3, r1
 1586 0026 1843     		orr	r0, r3
 1587              	.LVL129:
 1588 0028 1060     		str	r0, [r2]
1539:Generated_Source\PSoC4/CyLFClk.c **** 
 1589              		.loc 1 1539 0
 1590 002a 1368     		ldr	r3, [r2]
 1591              	.LVL130:
1543:Generated_Source\PSoC4/CyLFClk.c ****         }
 1592              		.loc 1 1543 0
 1593 002c FFF7FEFF 		bl	CySysWdtLock
 1594              	.LVL131:
 1595              	.L163:
1546:Generated_Source\PSoC4/CyLFClk.c ****     }
 1596              		.loc 1 1546 0
 1597 0030 201C     		mov	r0, r4
 1598 0032 FFF7FEFF 		bl	CyExitCriticalSection
 1599              	.LVL132:
1547:Generated_Source\PSoC4/CyLFClk.c **** 
 1600              		.loc 1 1547 0
 1601              		@ sp needed
 1602              	.LVL133:
ARM GAS  C:\Users\g\AppData\Local\Temp\ccrBoTzc.s 			page 65


 1603 0036 38BD     		pop	{r3, r4, r5, pc}
 1604              	.LVL134:
 1605              	.L165:
1532:Generated_Source\PSoC4/CyLFClk.c ****                                                                            CY_SYS_WDT_COUNTER1_INT 
 1606              		.loc 1 1532 0
 1607 0038 054A     		ldr	r2, .L166+4
1528:Generated_Source\PSoC4/CyLFClk.c ****                         CY_SYS_WDT_COUNTER1_INT |
 1608              		.loc 1 1528 0
 1609 003a 0648     		ldr	r0, .L166+8
1532:Generated_Source\PSoC4/CyLFClk.c ****                                                                            CY_SYS_WDT_COUNTER1_INT 
 1610              		.loc 1 1532 0
 1611 003c 1168     		ldr	r1, [r2]
 1612 003e 064B     		ldr	r3, .L166+12
1528:Generated_Source\PSoC4/CyLFClk.c ****                         CY_SYS_WDT_COUNTER1_INT |
 1613              		.loc 1 1528 0
 1614 0040 2840     		and	r0, r5
 1615              	.LVL135:
1532:Generated_Source\PSoC4/CyLFClk.c ****                                                                            CY_SYS_WDT_COUNTER1_INT 
 1616              		.loc 1 1532 0
 1617 0042 0B40     		and	r3, r1
 1618 0044 1843     		orr	r0, r3
 1619              	.LVL136:
 1620 0046 1060     		str	r0, [r2]
1539:Generated_Source\PSoC4/CyLFClk.c **** 
 1621              		.loc 1 1539 0
 1622 0048 1368     		ldr	r3, [r2]
 1623 004a F1E7     		b	.L163
 1624              	.L167:
 1625              		.align	2
 1626              	.L166:
 1627 004c 00010B40 		.word	1074462976
 1628 0050 10020B40 		.word	1074463248
 1629 0054 04040400 		.word	263172
 1630 0058 FBFBFBFF 		.word	-263173
 1631              		.cfi_endproc
 1632              	.LFE24:
 1633              		.size	CySysWdtClearInterrupt, .-CySysWdtClearInterrupt
 1634              		.section	.text.CySysWdtResetCounters,"ax",%progbits
 1635              		.align	2
 1636              		.global	CySysWdtResetCounters
 1637              		.code	16
 1638              		.thumb_func
 1639              		.type	CySysWdtResetCounters, %function
 1640              	CySysWdtResetCounters:
 1641              	.LFB25:
1569:Generated_Source\PSoC4/CyLFClk.c ****         /* Set new WDT reset value */
 1642              		.loc 1 1569 0
 1643              		.cfi_startproc
 1644              	.LVL137:
1571:Generated_Source\PSoC4/CyLFClk.c **** 
 1645              		.loc 1 1571 0
 1646 0000 044A     		ldr	r2, .L171
 1647 0002 0549     		ldr	r1, .L171+4
 1648 0004 1368     		ldr	r3, [r2]
 1649 0006 0840     		and	r0, r1
 1650              	.LVL138:
 1651 0008 1843     		orr	r0, r3
ARM GAS  C:\Users\g\AppData\Local\Temp\ccrBoTzc.s 			page 66


 1652 000a 1060     		str	r0, [r2]
 1653              	.L169:
1573:Generated_Source\PSoC4/CyLFClk.c ****         {
 1654              		.loc 1 1573 0 discriminator 1
 1655 000c 1368     		ldr	r3, [r2]
 1656 000e 0B42     		tst	r3, r1
 1657 0010 FCD1     		bne	.L169
1577:Generated_Source\PSoC4/CyLFClk.c **** 
 1658              		.loc 1 1577 0
 1659              		@ sp needed
 1660 0012 7047     		bx	lr
 1661              	.L172:
 1662              		.align	2
 1663              	.L171:
 1664 0014 10020B40 		.word	1074463248
 1665 0018 08080800 		.word	526344
 1666              		.cfi_endproc
 1667              	.LFE25:
 1668              		.size	CySysWdtResetCounters, .-CySysWdtResetCounters
 1669              		.section	.text.CySysWdtSetInterruptCallback,"ax",%progbits
 1670              		.align	2
 1671              		.global	CySysWdtSetInterruptCallback
 1672              		.code	16
 1673              		.thumb_func
 1674              		.type	CySysWdtSetInterruptCallback, %function
 1675              	CySysWdtSetInterruptCallback:
 1676              	.LFB26:
1595:Generated_Source\PSoC4/CyLFClk.c ****         cyWdtCallback prevCallback = (void *)0;
 1677              		.loc 1 1595 0
 1678              		.cfi_startproc
 1679              	.LVL139:
 1680 0000 08B5     		push	{r3, lr}
 1681              		.cfi_def_cfa_offset 8
 1682              		.cfi_offset 3, -8
 1683              		.cfi_offset 14, -4
1598:Generated_Source\PSoC4/CyLFClk.c ****         {
 1684              		.loc 1 1598 0
 1685 0002 0228     		cmp	r0, #2
 1686 0004 05D8     		bhi	.L174
1600:Generated_Source\PSoC4/CyLFClk.c ****             cySysWdtCallback[counterNum] = function;
 1687              		.loc 1 1600 0
 1688 0006 054B     		ldr	r3, .L176
 1689 0008 8000     		lsl	r0, r0, #2
 1690              	.LVL140:
 1691 000a 1B18     		add	r3, r3, r0
 1692 000c 1869     		ldr	r0, [r3, #16]
 1693              	.LVL141:
1601:Generated_Source\PSoC4/CyLFClk.c ****         }
 1694              		.loc 1 1601 0
 1695 000e 1961     		str	r1, [r3, #16]
 1696              	.LVL142:
 1697              	.L175:
1609:Generated_Source\PSoC4/CyLFClk.c **** 
 1698              		.loc 1 1609 0
 1699              		@ sp needed
 1700 0010 08BD     		pop	{r3, pc}
 1701              	.LVL143:
ARM GAS  C:\Users\g\AppData\Local\Temp\ccrBoTzc.s 			page 67


 1702              	.L174:
1605:Generated_Source\PSoC4/CyLFClk.c ****         }
 1703              		.loc 1 1605 0 discriminator 1
 1704 0012 0020     		mov	r0, #0
 1705              	.LVL144:
 1706 0014 FFF7FEFF 		bl	CyHalt
 1707              	.LVL145:
1596:Generated_Source\PSoC4/CyLFClk.c **** 
 1708              		.loc 1 1596 0 discriminator 1
 1709 0018 0020     		mov	r0, #0
 1710 001a F9E7     		b	.L175
 1711              	.L177:
 1712              		.align	2
 1713              	.L176:
 1714 001c 00000000 		.word	.LANCHOR0
 1715              		.cfi_endproc
 1716              	.LFE26:
 1717              		.size	CySysWdtSetInterruptCallback, .-CySysWdtSetInterruptCallback
 1718              		.section	.text.CySysWdtGetInterruptCallback,"ax",%progbits
 1719              		.align	2
 1720              		.global	CySysWdtGetInterruptCallback
 1721              		.code	16
 1722              		.thumb_func
 1723              		.type	CySysWdtGetInterruptCallback, %function
 1724              	CySysWdtGetInterruptCallback:
 1725              	.LFB27:
1625:Generated_Source\PSoC4/CyLFClk.c ****         cyWdtCallback retCallback = (void *)0;
 1726              		.loc 1 1625 0
 1727              		.cfi_startproc
 1728              	.LVL146:
 1729 0000 08B5     		push	{r3, lr}
 1730              		.cfi_def_cfa_offset 8
 1731              		.cfi_offset 3, -8
 1732              		.cfi_offset 14, -4
1628:Generated_Source\PSoC4/CyLFClk.c ****         {
 1733              		.loc 1 1628 0
 1734 0002 0228     		cmp	r0, #2
 1735 0004 04D8     		bhi	.L179
1630:Generated_Source\PSoC4/CyLFClk.c ****         }
 1736              		.loc 1 1630 0
 1737 0006 054B     		ldr	r3, .L181
 1738 0008 8000     		lsl	r0, r0, #2
 1739              	.LVL147:
 1740 000a 1818     		add	r0, r3, r0
 1741 000c 0069     		ldr	r0, [r0, #16]
 1742              	.LVL148:
 1743              	.L180:
1638:Generated_Source\PSoC4/CyLFClk.c **** 
 1744              		.loc 1 1638 0
 1745              		@ sp needed
 1746 000e 08BD     		pop	{r3, pc}
 1747              	.LVL149:
 1748              	.L179:
1634:Generated_Source\PSoC4/CyLFClk.c ****         }
 1749              		.loc 1 1634 0 discriminator 1
 1750 0010 0020     		mov	r0, #0
 1751              	.LVL150:
ARM GAS  C:\Users\g\AppData\Local\Temp\ccrBoTzc.s 			page 68


 1752 0012 FFF7FEFF 		bl	CyHalt
 1753              	.LVL151:
1626:Generated_Source\PSoC4/CyLFClk.c **** 
 1754              		.loc 1 1626 0 discriminator 1
 1755 0016 0020     		mov	r0, #0
 1756 0018 F9E7     		b	.L180
 1757              	.L182:
 1758 001a C046     		.align	2
 1759              	.L181:
 1760 001c 00000000 		.word	.LANCHOR0
 1761              		.cfi_endproc
 1762              	.LFE27:
 1763              		.size	CySysWdtGetInterruptCallback, .-CySysWdtGetInterruptCallback
 1764              		.section	.text.CySysWdtEnableCounterIsr,"ax",%progbits
 1765              		.align	2
 1766              		.global	CySysWdtEnableCounterIsr
 1767              		.code	16
 1768              		.thumb_func
 1769              		.type	CySysWdtEnableCounterIsr, %function
 1770              	CySysWdtEnableCounterIsr:
 1771              	.LFB28:
1654:Generated_Source\PSoC4/CyLFClk.c ****         if(counterNum <= CY_SYS_WDT_COUNTER2)
 1772              		.loc 1 1654 0
 1773              		.cfi_startproc
 1774              	.LVL152:
 1775 0000 08B5     		push	{r3, lr}
 1776              		.cfi_def_cfa_offset 8
 1777              		.cfi_offset 3, -8
 1778              		.cfi_offset 14, -4
1655:Generated_Source\PSoC4/CyLFClk.c ****         {
 1779              		.loc 1 1655 0
 1780 0002 0228     		cmp	r0, #2
 1781 0004 0BD8     		bhi	.L184
1657:Generated_Source\PSoC4/CyLFClk.c ****             wdtIsrMask |= counterIntMaskTbl[counterNum];
 1782              		.loc 1 1657 0
 1783 0006 084B     		ldr	r3, .L186
 1784 0008 8000     		lsl	r0, r0, #2
 1785              	.LVL153:
 1786 000a C158     		ldr	r1, [r0, r3]
 1787 000c 074B     		ldr	r3, .L186+4
 1788 000e DA69     		ldr	r2, [r3, #28]
 1789 0010 8A43     		bic	r2, r1
 1790 0012 DA61     		str	r2, [r3, #28]
1658:Generated_Source\PSoC4/CyLFClk.c ****         }
 1791              		.loc 1 1658 0
 1792 0014 064A     		ldr	r2, .L186+8
 1793 0016 1368     		ldr	r3, [r2]
 1794 0018 0B43     		orr	r3, r1
 1795 001a 1360     		str	r3, [r2]
 1796              	.L183:
1664:Generated_Source\PSoC4/CyLFClk.c **** 
 1797              		.loc 1 1664 0
 1798              		@ sp needed
 1799 001c 08BD     		pop	{r3, pc}
 1800              	.LVL154:
 1801              	.L184:
1662:Generated_Source\PSoC4/CyLFClk.c ****         }
ARM GAS  C:\Users\g\AppData\Local\Temp\ccrBoTzc.s 			page 69


 1802              		.loc 1 1662 0 discriminator 1
 1803 001e 0020     		mov	r0, #0
 1804              	.LVL155:
 1805 0020 FFF7FEFF 		bl	CyHalt
 1806              	.LVL156:
 1807 0024 FAE7     		b	.L183
 1808              	.L187:
 1809 0026 C046     		.align	2
 1810              	.L186:
 1811 0028 00000000 		.word	.LANCHOR1
 1812 002c 00000000 		.word	.LANCHOR0
 1813 0030 00000000 		.word	.LANCHOR2
 1814              		.cfi_endproc
 1815              	.LFE28:
 1816              		.size	CySysWdtEnableCounterIsr, .-CySysWdtEnableCounterIsr
 1817              		.section	.text.CySysWdtDisableCounterIsr,"ax",%progbits
 1818              		.align	2
 1819              		.global	CySysWdtDisableCounterIsr
 1820              		.code	16
 1821              		.thumb_func
 1822              		.type	CySysWdtDisableCounterIsr, %function
 1823              	CySysWdtDisableCounterIsr:
 1824              	.LFB29:
1677:Generated_Source\PSoC4/CyLFClk.c ****         if(counterNum <= CY_SYS_WDT_COUNTER2)
 1825              		.loc 1 1677 0
 1826              		.cfi_startproc
 1827              	.LVL157:
 1828 0000 08B5     		push	{r3, lr}
 1829              		.cfi_def_cfa_offset 8
 1830              		.cfi_offset 3, -8
 1831              		.cfi_offset 14, -4
1678:Generated_Source\PSoC4/CyLFClk.c ****         {
 1832              		.loc 1 1678 0
 1833 0002 0228     		cmp	r0, #2
 1834 0004 07D8     		bhi	.L189
1680:Generated_Source\PSoC4/CyLFClk.c ****         }
 1835              		.loc 1 1680 0
 1836 0006 064A     		ldr	r2, .L191
 1837 0008 0649     		ldr	r1, .L191+4
 1838 000a 8000     		lsl	r0, r0, #2
 1839              	.LVL158:
 1840 000c 1368     		ldr	r3, [r2]
 1841 000e 4158     		ldr	r1, [r0, r1]
 1842 0010 8B43     		bic	r3, r1
 1843 0012 1360     		str	r3, [r2]
 1844              	.L188:
1686:Generated_Source\PSoC4/CyLFClk.c **** 
 1845              		.loc 1 1686 0
 1846              		@ sp needed
 1847 0014 08BD     		pop	{r3, pc}
 1848              	.LVL159:
 1849              	.L189:
1684:Generated_Source\PSoC4/CyLFClk.c ****         }
 1850              		.loc 1 1684 0 discriminator 1
 1851 0016 0020     		mov	r0, #0
 1852              	.LVL160:
 1853 0018 FFF7FEFF 		bl	CyHalt
ARM GAS  C:\Users\g\AppData\Local\Temp\ccrBoTzc.s 			page 70


 1854              	.LVL161:
 1855 001c FAE7     		b	.L188
 1856              	.L192:
 1857 001e C046     		.align	2
 1858              	.L191:
 1859 0020 00000000 		.word	.LANCHOR2
 1860 0024 00000000 		.word	.LANCHOR1
 1861              		.cfi_endproc
 1862              	.LFE29:
 1863              		.size	CySysWdtDisableCounterIsr, .-CySysWdtDisableCounterIsr
 1864              		.section	.text.CySysWdtIsr,"ax",%progbits
 1865              		.align	2
 1866              		.global	CySysWdtIsr
 1867              		.code	16
 1868              		.thumb_func
 1869              		.type	CySysWdtIsr, %function
 1870              	CySysWdtIsr:
 1871              	.LFB30:
1710:Generated_Source\PSoC4/CyLFClk.c ****         if(0u != (CY_SYS_WDT_COUNTER0_INT & CY_SYS_WDT_CONTROL_REG))
 1872              		.loc 1 1710 0
 1873              		.cfi_startproc
1711:Generated_Source\PSoC4/CyLFClk.c ****         {
 1874              		.loc 1 1711 0
 1875 0000 254B     		ldr	r3, .L227
1710:Generated_Source\PSoC4/CyLFClk.c ****         if(0u != (CY_SYS_WDT_COUNTER0_INT & CY_SYS_WDT_CONTROL_REG))
 1876              		.loc 1 1710 0
 1877 0002 10B5     		push	{r4, lr}
 1878              		.cfi_def_cfa_offset 8
 1879              		.cfi_offset 4, -8
 1880              		.cfi_offset 14, -4
1711:Generated_Source\PSoC4/CyLFClk.c ****         {
 1881              		.loc 1 1711 0
 1882 0004 1A68     		ldr	r2, [r3]
 1883 0006 0423     		mov	r3, #4
 1884 0008 1342     		tst	r3, r2
 1885 000a 06D0     		beq	.L194
1713:Generated_Source\PSoC4/CyLFClk.c ****             {
 1886              		.loc 1 1713 0
 1887 000c 234A     		ldr	r2, .L227+4
 1888 000e 1168     		ldr	r1, [r2]
 1889 0010 0B42     		tst	r3, r1
 1890 0012 33D1     		bne	.L225
 1891              	.L196:
1722:Generated_Source\PSoC4/CyLFClk.c ****         }
 1892              		.loc 1 1722 0
 1893 0014 0420     		mov	r0, #4
 1894 0016 FFF7FEFF 		bl	CySysWdtClearInterrupt
 1895              	.LVL162:
 1896              	.L194:
1725:Generated_Source\PSoC4/CyLFClk.c ****         {
 1897              		.loc 1 1725 0
 1898 001a 1F4B     		ldr	r3, .L227
 1899 001c 1A68     		ldr	r2, [r3]
 1900 001e 8023     		mov	r3, #128
 1901 0020 DB00     		lsl	r3, r3, #3
 1902 0022 1A42     		tst	r2, r3
 1903 0024 07D0     		beq	.L198
ARM GAS  C:\Users\g\AppData\Local\Temp\ccrBoTzc.s 			page 71


1727:Generated_Source\PSoC4/CyLFClk.c ****             {
 1904              		.loc 1 1727 0
 1905 0026 1D4A     		ldr	r2, .L227+4
 1906 0028 1168     		ldr	r1, [r2]
 1907 002a 1942     		tst	r1, r3
 1908 002c 17D1     		bne	.L226
 1909              	.L200:
1736:Generated_Source\PSoC4/CyLFClk.c ****         }
 1910              		.loc 1 1736 0
 1911 002e 8020     		mov	r0, #128
 1912 0030 C000     		lsl	r0, r0, #3
 1913 0032 FFF7FEFF 		bl	CySysWdtClearInterrupt
 1914              	.LVL163:
 1915              	.L198:
1739:Generated_Source\PSoC4/CyLFClk.c ****         {
 1916              		.loc 1 1739 0
 1917 0036 184B     		ldr	r3, .L227
 1918 0038 1A68     		ldr	r2, [r3]
 1919 003a 8023     		mov	r3, #128
 1920 003c DB02     		lsl	r3, r3, #11
 1921 003e 1A42     		tst	r2, r3
 1922 0040 0CD0     		beq	.L193
1741:Generated_Source\PSoC4/CyLFClk.c ****             {
 1923              		.loc 1 1741 0
 1924 0042 164A     		ldr	r2, .L227+4
 1925 0044 1268     		ldr	r2, [r2]
 1926 0046 1A42     		tst	r2, r3
 1927 0048 04D0     		beq	.L203
1743:Generated_Source\PSoC4/CyLFClk.c ****                 {
 1928              		.loc 1 1743 0
 1929 004a 154B     		ldr	r3, .L227+8
 1930 004c 9B69     		ldr	r3, [r3, #24]
 1931 004e 002B     		cmp	r3, #0
 1932 0050 00D0     		beq	.L203
1745:Generated_Source\PSoC4/CyLFClk.c ****                 }
 1933              		.loc 1 1745 0
 1934 0052 9847     		blx	r3
 1935              	.LVL164:
 1936              	.L203:
1748:Generated_Source\PSoC4/CyLFClk.c ****         }
 1937              		.loc 1 1748 0
 1938 0054 8020     		mov	r0, #128
 1939 0056 C002     		lsl	r0, r0, #11
 1940 0058 FFF7FEFF 		bl	CySysWdtClearInterrupt
 1941              	.LVL165:
 1942              	.L193:
1750:Generated_Source\PSoC4/CyLFClk.c **** 
 1943              		.loc 1 1750 0
 1944              		@ sp needed
 1945 005c 10BD     		pop	{r4, pc}
 1946              	.L226:
1729:Generated_Source\PSoC4/CyLFClk.c ****                 disableServicedIsr  &= ~CY_SYS_WDT_COUNTER1_INT;
 1947              		.loc 1 1729 0
 1948 005e 1049     		ldr	r1, .L227+8
 1949 0060 CC69     		ldr	r4, [r1, #28]
 1950 0062 1068     		ldr	r0, [r2]
 1951 0064 2340     		and	r3, r4
ARM GAS  C:\Users\g\AppData\Local\Temp\ccrBoTzc.s 			page 72


 1952 0066 9843     		bic	r0, r3
 1953 0068 1060     		str	r0, [r2]
1730:Generated_Source\PSoC4/CyLFClk.c ****                 if(cySysWdtCallback[CY_SYS_WDT_COUNTER1] != (void *) 0)
 1954              		.loc 1 1730 0
 1955 006a CA69     		ldr	r2, [r1, #28]
 1956 006c 0D4B     		ldr	r3, .L227+12
 1957 006e 1340     		and	r3, r2
 1958 0070 CB61     		str	r3, [r1, #28]
1731:Generated_Source\PSoC4/CyLFClk.c ****                 {
 1959              		.loc 1 1731 0
 1960 0072 4B69     		ldr	r3, [r1, #20]
 1961 0074 002B     		cmp	r3, #0
 1962 0076 DAD0     		beq	.L200
1733:Generated_Source\PSoC4/CyLFClk.c ****                 }
 1963              		.loc 1 1733 0
 1964 0078 9847     		blx	r3
 1965              	.LVL166:
 1966 007a D8E7     		b	.L200
 1967              	.L225:
1715:Generated_Source\PSoC4/CyLFClk.c ****                 disableServicedIsr  &= ~CY_SYS_WDT_COUNTER0_INT;
 1968              		.loc 1 1715 0
 1969 007c 0849     		ldr	r1, .L227+8
 1970 007e CC69     		ldr	r4, [r1, #28]
 1971 0080 1068     		ldr	r0, [r2]
 1972 0082 1C40     		and	r4, r3
 1973 0084 A043     		bic	r0, r4
 1974 0086 1060     		str	r0, [r2]
1716:Generated_Source\PSoC4/CyLFClk.c ****                 if(cySysWdtCallback[CY_SYS_WDT_COUNTER0] != (void *) 0)
 1975              		.loc 1 1716 0
 1976 0088 CA69     		ldr	r2, [r1, #28]
 1977 008a 9A43     		bic	r2, r3
1717:Generated_Source\PSoC4/CyLFClk.c ****                 {
 1978              		.loc 1 1717 0
 1979 008c 0B69     		ldr	r3, [r1, #16]
1716:Generated_Source\PSoC4/CyLFClk.c ****                 if(cySysWdtCallback[CY_SYS_WDT_COUNTER0] != (void *) 0)
 1980              		.loc 1 1716 0
 1981 008e CA61     		str	r2, [r1, #28]
1717:Generated_Source\PSoC4/CyLFClk.c ****                 {
 1982              		.loc 1 1717 0
 1983 0090 002B     		cmp	r3, #0
 1984 0092 BFD0     		beq	.L196
1719:Generated_Source\PSoC4/CyLFClk.c ****                 }
 1985              		.loc 1 1719 0
 1986 0094 9847     		blx	r3
 1987              	.LVL167:
 1988 0096 BDE7     		b	.L196
 1989              	.L228:
 1990              		.align	2
 1991              	.L227:
 1992 0098 10020B40 		.word	1074463248
 1993 009c 00000000 		.word	.LANCHOR2
 1994 00a0 00000000 		.word	.LANCHOR0
 1995 00a4 FFFBFFFF 		.word	-1025
 1996              		.cfi_endproc
 1997              	.LFE30:
 1998              		.size	CySysWdtIsr, .-CySysWdtIsr
 1999              		.section	.text.CySysWatchdogFeed,"ax",%progbits
ARM GAS  C:\Users\g\AppData\Local\Temp\ccrBoTzc.s 			page 73


 2000              		.align	2
 2001              		.global	CySysWatchdogFeed
 2002              		.code	16
 2003              		.thumb_func
 2004              		.type	CySysWatchdogFeed, %function
 2005              	CySysWatchdogFeed:
 2006              	.LFB31:
1775:Generated_Source\PSoC4/CyLFClk.c ****         if(counterNum == CY_SYS_WDT_COUNTER0)
 2007              		.loc 1 1775 0
 2008              		.cfi_startproc
 2009              	.LVL168:
 2010 0000 08B5     		push	{r3, lr}
 2011              		.cfi_def_cfa_offset 8
 2012              		.cfi_offset 3, -8
 2013              		.cfi_offset 14, -4
1776:Generated_Source\PSoC4/CyLFClk.c ****         {
 2014              		.loc 1 1776 0
 2015 0002 0028     		cmp	r0, #0
 2016 0004 0AD1     		bne	.L230
 2017              	.LVL169:
 2018              	.LBB144:
 2019              	.LBB145:
1077:Generated_Source\PSoC4/CyLFClk.c ****     }
 2020              		.loc 1 1077 0
 2021 0006 0322     		mov	r2, #3
 2022 0008 1949     		ldr	r1, .L241
 2023 000a 0B68     		ldr	r3, [r1]
 2024 000c 1340     		and	r3, r2
 2025              	.LBE145:
 2026              	.LBE144:
1778:Generated_Source\PSoC4/CyLFClk.c ****             {
 2027              		.loc 1 1778 0
 2028 000e 032B     		cmp	r3, #3
 2029 0010 2AD0     		beq	.L234
 2030              	.LVL170:
 2031              	.LBB146:
 2032              	.LBB147:
1077:Generated_Source\PSoC4/CyLFClk.c ****     }
 2033              		.loc 1 1077 0
 2034 0012 0B68     		ldr	r3, [r1]
 2035 0014 1340     		and	r3, r2
 2036              	.LBE147:
 2037              	.LBE146:
1782:Generated_Source\PSoC4/CyLFClk.c ****             {
 2038              		.loc 1 1782 0
 2039 0016 022B     		cmp	r3, #2
 2040 0018 1DD0     		beq	.L240
 2041              	.LVL171:
 2042              	.L229:
1812:Generated_Source\PSoC4/CyLFClk.c **** 
 2043              		.loc 1 1812 0
 2044              		@ sp needed
 2045 001a 08BD     		pop	{r3, pc}
 2046              	.LVL172:
 2047              	.L230:
1792:Generated_Source\PSoC4/CyLFClk.c ****         {
 2048              		.loc 1 1792 0
