ARM GAS  C:\Users\g\AppData\Local\Temp\ccC3IUdD.s 			page 1


   1              		.cpu cortex-m0
   2              		.fpu softvfp
   3              		.eabi_attribute 20, 1
   4              		.eabi_attribute 21, 1
   5              		.eabi_attribute 23, 3
   6              		.eabi_attribute 24, 1
   7              		.eabi_attribute 25, 1
   8              		.eabi_attribute 26, 1
   9              		.eabi_attribute 30, 2
  10              		.eabi_attribute 34, 0
  11              		.eabi_attribute 18, 4
  12              		.code	16
  13              		.file	"main.c"
  14              		.text
  15              	.Ltext0:
  16              		.cfi_sections	.debug_frame
  17              		.section	.text.transmitUpdate,"ax",%progbits
  18              		.align	2
  19              		.global	transmitUpdate
  20              		.code	16
  21              		.thumb_func
  22              		.type	transmitUpdate, %function
  23              	transmitUpdate:
  24              	.LFB41:
  25              		.file 1 "main.c"
   1:main.c        **** /* ========================================
   2:main.c        **** Includes code contributions by Patrick Dussud
   3:main.c        **** 
   4:main.c        ****     current[mA]=1000*millivolts/(20*Rsense[mOhm])=10*millivolts for a 5 mOhm sense resistor
   5:main.c        ****     current_limit[mA]=40*current_setting
   6:main.c        ****     
   7:main.c        ****    ======================================== */
   8:main.c        ****     
   9:main.c        **** #include <project.h>
  10:main.c        **** #include <stdlib.h>
  11:main.c        **** 
  12:main.c        **** //#define DEBUG_INTERFACE
  13:main.c        **** 
  14:main.c        **** 
  15:main.c        **** 
  16:main.c        **** //the maximum amount that the integral error is allowed to grow
  17:main.c        **** //change to reduce or increase the integral term effect on the system
  18:main.c        **** #define ERROR_INTEGRAL_MAX      (2560000)
  19:main.c        **** //maximum output value for current limiting PI control loop
  20:main.c        **** //do not change this one
  21:main.c        **** #define DUTY_REDUCE_MAX         (4094)
  22:main.c        **** 
  23:main.c        **** //number of cpu cycles the motor has to reach the desired position afeter each step pulse
  24:main.c        **** #define TIMEOUT                 (2000)
  25:main.c        **** 
  26:main.c        **** //options bits are defined here
  27:main.c        **** #define OPTIONS_TIMEOUT (1)
  28:main.c        **** #define OPTIONS_REPORT_COMMAND (2)
  29:main.c        **** #define OPTIONS_TAKE_BACK_HALF (4)
  30:main.c        **** 
  31:main.c        **** void ffast_itoa(volatile char a_string[7], int16_t a_number) {
  32:main.c        ****     char temp;
ARM GAS  C:\Users\g\AppData\Local\Temp\ccC3IUdD.s 			page 2


  33:main.c        ****     if(a_number<0) {
  34:main.c        ****         a_string[0]='-';
  35:main.c        ****         a_number=-a_number;
  36:main.c        ****     }
  37:main.c        ****     else a_string[0]='0';
  38:main.c        ****     temp = '0';
  39:main.c        ****     while(a_number>=10000) {
  40:main.c        ****         a_number-=10000;
  41:main.c        ****         temp++;
  42:main.c        ****     }
  43:main.c        ****     a_string[1] = temp;
  44:main.c        ****     temp = '0';
  45:main.c        ****     while(a_number>=1000) {
  46:main.c        ****         a_number-=1000;
  47:main.c        ****         temp++;
  48:main.c        ****     }
  49:main.c        ****      a_string[2]= temp;
  50:main.c        ****     temp = '0';
  51:main.c        ****     while(a_number>=100) {
  52:main.c        ****         a_number-=100;
  53:main.c        ****         temp++;
  54:main.c        ****     }
  55:main.c        ****     a_string[3]= temp;
  56:main.c        ****     temp = '0';
  57:main.c        ****     while(a_number>=10) {
  58:main.c        ****         a_number-=10;
  59:main.c        ****         temp++;
  60:main.c        ****     }
  61:main.c        ****     a_string[4]= temp;
  62:main.c        ****     a_string[5]=a_number+'0';
  63:main.c        ****     a_string[6]='\0';
  64:main.c        **** 
  65:main.c        **** }
  66:main.c        **** 
  67:main.c        **** typedef uint32_t fix4_28;
  68:main.c        **** 
  69:main.c        **** void fast_itoa(volatile char a_string[7], int16_t a_number) {
  70:main.c        ****     if(a_number<0) {
  71:main.c        ****         a_string[0]='-';
  72:main.c        ****        a_number=-a_number;
  73:main.c        ****     }
  74:main.c        ****     else a_string[0]='0';
  75:main.c        **** 
  76:main.c        ****     fix4_28 const f1_10000 = (1 << 28) / 10000;
  77:main.c        **** 
  78:main.c        ****     // 2^28 / 10000 is 26843.5456, but 26843.75 is sufficiently close.
  79:main.c        ****     fix4_28 tmp = a_number * (f1_10000 + 1) - (a_number / 4);
  80:main.c        **** 
  81:main.c        ****     for(size_t i = 1; i < 6; i++)
  82:main.c        ****     {
  83:main.c        ****         int digit = (int)(tmp >> 28);
  84:main.c        ****         a_string[i] = '0' + (char) digit;
  85:main.c        ****         tmp = (tmp & 0x0fffffff) * 10;
  86:main.c        ****     }
  87:main.c        ****     a_string[6] = '\0';
  88:main.c        **** }
  89:main.c        **** 
ARM GAS  C:\Users\g\AppData\Local\Temp\ccC3IUdD.s 			page 3


  90:main.c        **** CY_ISR_PROTO(uartReceiveTransmit);
  91:main.c        **** CY_ISR_PROTO(transmitUpdate);
  92:main.c        **** CY_ISR_PROTO(pwmCycle);
  93:main.c        **** void transmit_data();
  94:main.c        **** int transmitting();
  95:main.c        **** 
  96:main.c        **** //cycle counter for motor power timeout
  97:main.c        **** uint16_t timeout_counter;
  98:main.c        **** //uart buffer
  99:main.c        **** volatile uint8_t command_ready, command_index, transmit_ready, loop_proceed;
 100:main.c        **** #define COMMAND_INDEX_LENGTH (16)
 101:main.c        **** volatile char command_parser[COMMAND_INDEX_LENGTH];
 102:main.c        **** volatile char current_tx[7], error_tx[7];
 103:main.c        **** 
 104:main.c        **** 
 105:main.c        **** int main() {
 106:main.c        **** 
 107:main.c        ****     int16_t millivolts=0, duty_reduce=0,error=0, error_derivative=0, error_at_timeout=0, error_prev
 108:main.c        ****     int32_t  output=0, error_integral=0;
 109:main.c        ****     uint8_t fault_detected=0, motor_shutdown=0, timeout_flag=0;
 110:main.c        ****     
 111:main.c        ****     //emulated EEPROM 
 112:main.c        ****     static const CYCODE uint16_t kp=2500, ki=0, kd=0, ferror=255, options=OPTIONS_TIMEOUT;
 113:main.c        ****     static const CYCODE uint8_t current_setting=255, invert_motor=0, uart_data=1;
 114:main.c        ****     //pointers to respective EEPROM addresses
 115:main.c        ****     volatile const uint16_t *eeprom_kp, *eeprom_ki, *eeprom_kd, *eeprom_ferror, *eeprom_options;
 116:main.c        ****     volatile const uint8_t *eeprom_current_setting, *eeprom_invert_motor, *eeprom_uart_data;
 117:main.c        **** 
 118:main.c        ****     //UART data
 119:main.c        ****     uint16_t command_value=0;
 120:main.c        ****     char command_type='z';
 121:main.c        ****     char command_local[5];
 122:main.c        ****     
 123:main.c        ****     if (reset_Read() == 0)
 124:main.c        ****     {
 125:main.c        ****         Bootloadable_1_Load();
 126:main.c        ****     }
 127:main.c        ****     
 128:main.c        ****     error_Write(1);
 129:main.c        ****     //Initialize quadrature decoding hardware
 130:main.c        ****     Counter_1_Start();
 131:main.c        ****     //192008N1
 132:main.c        ****     UART_Start();
 133:main.c        ****     //12-bit resolution. In phase with PWM_MOT
 134:main.c        ****     ADC_Start();
 135:main.c        ****     //UART transmit period timer (curently 100 transmissions per second)
 136:main.c        ****     TX_SEND_Start();
 137:main.c        ****     //Just the EEPROM...
 138:main.c        ****     EEPROM_Start();
 139:main.c        ****     //prepare gate driver for operation.  12-bit 6 kHz PWM
 140:main.c        ****     sleep_Write(1);
 141:main.c        ****     PWM_MOT_Start();
 142:main.c        ****     
 143:main.c        ****     //ISRs go here
 144:main.c        ****     rxISR_StartEx(uartReceiveTransmit);
 145:main.c        ****     UART_SetTxInterruptMode(0);
 146:main.c        ****     txISR_StartEx(transmitUpdate);
ARM GAS  C:\Users\g\AppData\Local\Temp\ccC3IUdD.s 			page 4


 147:main.c        ****     pwmISR_StartEx(pwmCycle);
 148:main.c        ****     
 149:main.c        ****     //store respective EEPROM addresses for future read operations
 150:main.c        ****     eeprom_kp=&kp;
 151:main.c        ****     eeprom_ki=&ki;
 152:main.c        ****     eeprom_kd=&kd;
 153:main.c        ****     eeprom_current_setting=&current_setting;
 154:main.c        ****     eeprom_invert_motor=&invert_motor;
 155:main.c        ****     eeprom_ferror=&ferror;
 156:main.c        ****     eeprom_uart_data=&uart_data;
 157:main.c        ****     eeprom_options = &options;
 158:main.c        ****     
 159:main.c        ****     CyDelay(1000);
 160:main.c        ****     
 161:main.c        **** #ifndef DEBUG_INTERFACE
 162:main.c        ****     //"board powered" signal
 163:main.c        ****     vin_Write(1);
 164:main.c        **** #endif //DEBUG_INTERFACE
 165:main.c        ****     
 166:main.c        ****     // Enable global interrupts
 167:main.c        ****     CyGlobalIntEnable;
 168:main.c        **** 
 169:main.c        ****     //reset the QED hardware counter
 170:main.c        ****     Counter_1_WriteCounter(0);
 171:main.c        ****     uint32_t loop_counter = 0; 
 172:main.c        ****     for(;;) {
 173:main.c        **** #ifdef DEBUG_INTERFACE
 174:main.c        ****         debug_pin_Write(1);
 175:main.c        **** #endif
 176:main.c        ****         while (!loop_proceed) {}
 177:main.c        **** #ifdef DEBUG_INTERFACE
 178:main.c        ****         debug_pin_Write(0);
 179:main.c        **** #endif
 180:main.c        ****         loop_proceed = 0; 
 181:main.c        ****         loop_counter++;
 182:main.c        ****         //following error exceeded
 183:main.c        ****         //prevents motor runaway when encoder count direction is backwards and rises an alarm when 
 184:main.c        ****         if(error>*eeprom_ferror || error<-*eeprom_ferror) {
 185:main.c        ****             error_Write(0);
 186:main.c        **** #ifndef DEBUG_INTERFACE
 187:main.c        ****             err_Write(1);
 188:main.c        **** #endif //DEBUG_INTERFACE
 189:main.c        ****             fault_detected=1;
 190:main.c        ****         }
 191:main.c        ****         else
 192:main.c        ****         {
 193:main.c        ****             //if no new step pulse is received for a number of cycles, shut down the motor, until a
 194:main.c        ****             if(timeout_counter<TIMEOUT) {
 195:main.c        ****                 timeout_counter++;
 196:main.c        ****                 timeout_flag=0;
 197:main.c        ****                 motor_shutdown=0;
 198:main.c        ****                 error_at_timeout = error_prev; 
 199:main.c        ****                 }
 200:main.c        ****                 else if(((*eeprom_options) & OPTIONS_TIMEOUT) && (timeout_flag==0)) {
 201:main.c        ****                     error_at_timeout=error;
 202:main.c        ****                     timeout_flag=1;
 203:main.c        ****                     motor_shutdown=1;
ARM GAS  C:\Users\g\AppData\Local\Temp\ccC3IUdD.s 			page 5


 204:main.c        ****                 }
 205:main.c        ****             uint8_t pulse_detected = (step_register_Read() != 0);
 206:main.c        ****             if (pulse_detected || ((error_at_timeout - error) < -3) || ((error_at_timeout - error) 
 207:main.c        ****                 timeout_counter = 0;
 208:main.c        ****             }
 209:main.c        ****         }
 210:main.c        **** 
 211:main.c        **** 
 212:main.c        ****         //gate driver error
 213:main.c        ****         //undervoltage, undercurrent or overtemperature
 214:main.c        ****         if(fault_Read()==0) {
 215:main.c        ****             error_Write(0);
 216:main.c        **** #ifndef DEBUG_INTERFACE
 217:main.c        ****             vin_Write(0);
 218:main.c        ****             err_Write(1);
 219:main.c        **** #endif //DEBUG_INTERFACE
 220:main.c        ****             fault_detected=1;
 221:main.c        ****         }
 222:main.c        ****         if(ovc_Read()==0) {
 223:main.c        ****             error_Write(0);
 224:main.c        **** #ifndef DEBUG_INTERFACE
 225:main.c        ****             vin_Write(0);
 226:main.c        ****             err_Write(1);
 227:main.c        **** #endif //DEBUG_INTERFACE
 228:main.c        ****             fault_detected=1;
 229:main.c        ****         }
 230:main.c        ****         
 231:main.c        ****         //reset pin
 232:main.c        ****         if(reset_Read()==0) {
 233:main.c        **** #ifndef DEBUG_INTERFACE
 234:main.c        ****             error_Write(0);
 235:main.c        ****             err_Write(1);
 236:main.c        **** #endif
 237:main.c        ****             fault_detected=1;
 238:main.c        ****         }
 239:main.c        ****         
 240:main.c        ****         //current limiting PI control. Calculate error and add it to the previous sum of errors
 241:main.c        ****         millivolts=(ADC_GetResult16(0)>>1);
 242:main.c        ****         //convert the current limit magnitude to voltage so the error can be computed using the ADC
 243:main.c        ****         duty_reduce+=((millivolts-(*eeprom_current_setting<<2))>>3);
 244:main.c        ****         if(duty_reduce>DUTY_REDUCE_MAX) duty_reduce=DUTY_REDUCE_MAX;
 245:main.c        ****         else if(duty_reduce<0) duty_reduce=0;
 246:main.c        ****         
 247:main.c        ****         //calculate error
 248:main.c        ****         error=(int16_t)Counter_1_ReadCounter();
 249:main.c        ****         //calculate change in process variable to prevent derivative kickback
 250:main.c        ****         error_derivative=error-error_prev;
 251:main.c        **** 
 252:main.c        ****         //sum of errors over time
 253:main.c        ****         if (motor_shutdown == 0)
 254:main.c        ****             error_integral+=error;
 255:main.c        **** 
 256:main.c        ****         //limit integral error
 257:main.c        ****         if(error_integral>ERROR_INTEGRAL_MAX) error_integral=ERROR_INTEGRAL_MAX;
 258:main.c        ****         else if(error_integral<-ERROR_INTEGRAL_MAX) error_integral=-ERROR_INTEGRAL_MAX;
 259:main.c        ****         
 260:main.c        ****         error_prev=error;
ARM GAS  C:\Users\g\AppData\Local\Temp\ccC3IUdD.s 			page 6


 261:main.c        ****         
 262:main.c        ****         //output value calculation and constraining
 263:main.c        ****         output=(*eeprom_kp*error)+((*eeprom_ki*error_integral)>>7)-(*eeprom_kd*error_derivative);
 264:main.c        **** 
 265:main.c        ****         output = output >> 8;
 266:main.c        ****         if(fault_detected) {
 267:main.c        ****             PWM_MOT_WriteCompare(1);
 268:main.c        ****         }
 269:main.c        ****         else {
 270:main.c        ****             if(*eeprom_invert_motor) {
 271:main.c        ****                 if(output>=0) phase_Write(1);
 272:main.c        ****                 else {
 273:main.c        ****                     output=-output;
 274:main.c        ****                     phase_Write(0);
 275:main.c        ****                 }
 276:main.c        ****             }
 277:main.c        ****             else {
 278:main.c        ****                 if(output>=0) phase_Write(0);
 279:main.c        ****                 else {
 280:main.c        ****                     output=-output;
 281:main.c        ****                     phase_Write(1);
 282:main.c        ****                 }
 283:main.c        ****             }
 284:main.c        **** 
 285:main.c        ****             if(output>4095) output=4095;
 286:main.c        ****             output-=duty_reduce;
 287:main.c        ****             if(output<1) output=1;
 288:main.c        ****             if(motor_shutdown) PWM_MOT_WriteCompare(1);
 289:main.c        ****             else PWM_MOT_WriteCompare(output);
 290:main.c        ****         }
 291:main.c        ****         
 292:main.c        ****         
 293:main.c        ****         //parse UART data. Do not use numbers as condition for the switch
 294:main.c        ****         if(command_ready==1) {
 295:main.c        ****             command_type=command_parser[0];
 296:main.c        ****             for(int i=0; i<5; i++) command_local[i]=command_parser[i+1];
 297:main.c        ****             command_value=atoi(command_local);
 298:main.c        ****             switch(command_type) {
 299:main.c        ****                 //PID coefficients
 300:main.c        ****                 case 'p':
 301:main.c        ****                     if (command_value != *eeprom_kp)
 302:main.c        ****                         EEPROM_Write((const uint8_t*)&command_value, (const uint8_t*)&kp, 2);
 303:main.c        ****                 break;
 304:main.c        ****                 case 'i':
 305:main.c        ****                     if (command_value != *eeprom_ki)
 306:main.c        ****                         EEPROM_Write((const uint8_t*)&command_value, (const uint8_t*)&ki, 2);
 307:main.c        ****                 break;
 308:main.c        ****                 case 'd':
 309:main.c        ****                     if (command_value != *eeprom_kd)
 310:main.c        ****                         EEPROM_Write((const uint8_t*)&command_value, (const uint8_t*)&kd, 2);
 311:main.c        ****                 break;
 312:main.c        ****                 //current limit value
 313:main.c        ****                 case 'c':
 314:main.c        ****                     if (command_value != *eeprom_current_setting)
 315:main.c        ****                         EEPROM_Write((const uint8_t*)&command_value, &current_setting, 1);
 316:main.c        ****                 break;
 317:main.c        ****                 //motor direction of rotation flag
ARM GAS  C:\Users\g\AppData\Local\Temp\ccC3IUdD.s 			page 7


 318:main.c        ****                 case 'r':
 319:main.c        ****                     if (command_value != *eeprom_invert_motor)
 320:main.c        ****                         EEPROM_Write((const uint8_t*)&command_value, &invert_motor, 1);
 321:main.c        ****                 break;
 322:main.c        ****                 //maximum allowable following error
 323:main.c        ****                 case 'f':
 324:main.c        ****                     if (command_value != *eeprom_ferror)
 325:main.c        ****                         EEPROM_Write((const uint8_t*)&command_value, (const uint8_t*)&ferror, 2);
 326:main.c        ****                 break;
 327:main.c        ****                 //transmit diagnostic data flag
 328:main.c        ****                 case 'u':
 329:main.c        ****                     if (command_value != *eeprom_uart_data)
 330:main.c        ****                         EEPROM_Write((const uint8_t*)&command_value, &uart_data, 1);
 331:main.c        ****                 break;
 332:main.c        ****                 //options
 333:main.c        ****                 case 'o':
 334:main.c        ****                     if (command_value != *eeprom_options)
 335:main.c        ****                         EEPROM_Write((const uint8_t*)&command_value, (const uint8_t*)&options, 2);
 336:main.c        ****                     break;  
 337:main.c        ****                 //move motor
 338:main.c        ****                 case '+':
 339:main.c        ****                     Counter_1_WriteCounter (Counter_1_ReadCounter()+command_value);
 340:main.c        ****                 break;
 341:main.c        ****                 case '-':
 342:main.c        ****                     Counter_1_WriteCounter (Counter_1_ReadCounter()-command_value);
 343:main.c        ****                 break;
 344:main.c        ****                 default:
 345:main.c        ****                     break;
 346:main.c        ****             }
 347:main.c        ****             command_ready=0;
 348:main.c        ****         }
 349:main.c        ****         
 350:main.c        ****         if (!transmitting())
 351:main.c        ****         {
 352:main.c        ****             //prepare UART strings
 353:main.c        ****             fast_itoa(error_tx, error+500);
 354:main.c        ****             if ((*eeprom_options) & OPTIONS_REPORT_COMMAND)
 355:main.c        ****                 fast_itoa(current_tx, output);
 356:main.c        ****             else
 357:main.c        ****                 fast_itoa(current_tx, 10*millivolts);
 358:main.c        ****         }
 359:main.c        ****         
 360:main.c        **** 
 361:main.c        ****         if(transmit_ready) {
 362:main.c        ****             transmit_ready = 0; 
 363:main.c        ****             if(*eeprom_uart_data) {
 364:main.c        ****                 transmit_data();
 365:main.c        ****             }
 366:main.c        ****         }
 367:main.c        ****                 
 368:main.c        ****     }
 369:main.c        **** }
 370:main.c        **** 
 371:main.c        **** volatile uint8_t transmit_state = 0; 
 372:main.c        **** volatile uint32_t transmit_index;
 373:main.c        **** int transmitting()
 374:main.c        **** {
ARM GAS  C:\Users\g\AppData\Local\Temp\ccC3IUdD.s 			page 8


 375:main.c        ****     return (transmit_state != 0);
 376:main.c        **** }
 377:main.c        **** void transmit_data()
 378:main.c        **** {
 379:main.c        ****     if (!transmitting())
 380:main.c        ****     {
 381:main.c        ****         transmit_state = 1;
 382:main.c        ****         transmit_index = 0;
 383:main.c        ****         UART_SetTxInterruptMode(UART_INTR_TX_NOT_FULL);
 384:main.c        ****     }
 385:main.c        **** }
 386:main.c        **** 
 387:main.c        **** //string transmission begins with '$' and ends with ';'
 388:main.c        **** //insert a ' ' between each string
 389:main.c        **** void transmit_engine()
 390:main.c        **** {
 391:main.c        ****     char c;
 392:main.c        ****     switch (transmit_state)
 393:main.c        ****     {
 394:main.c        ****     case 0:
 395:main.c        ****         break;
 396:main.c        ****     case 1:
 397:main.c        ****         transmit_state++;
 398:main.c        ****         UART_UartPutChar('$');
 399:main.c        ****         break;
 400:main.c        ****     case 2:
 401:main.c        ****         
 402:main.c        ****         if (transmit_index<6)
 403:main.c        ****         {
 404:main.c        ****             c = error_tx[transmit_index];
 405:main.c        ****             UART_UartPutChar(c);
 406:main.c        ****             transmit_index++;
 407:main.c        ****         }
 408:main.c        ****         else
 409:main.c        ****         {
 410:main.c        ****             transmit_index = 0;
 411:main.c        ****             transmit_state++;
 412:main.c        ****         }
 413:main.c        ****         break;
 414:main.c        ****     case 3:
 415:main.c        ****         transmit_state++;
 416:main.c        ****         UART_UartPutChar(' ');
 417:main.c        ****         break;
 418:main.c        ****     case 4:
 419:main.c        ****         
 420:main.c        ****         if (transmit_index<6)
 421:main.c        ****         {
 422:main.c        ****             c = current_tx[transmit_index];
 423:main.c        ****             UART_UartPutChar(c);
 424:main.c        ****             transmit_index++;
 425:main.c        ****         }
 426:main.c        ****         else
 427:main.c        ****         {
 428:main.c        ****             transmit_index = 0;
 429:main.c        ****             transmit_state++;
 430:main.c        ****         }
 431:main.c        ****         break;  
ARM GAS  C:\Users\g\AppData\Local\Temp\ccC3IUdD.s 			page 9


 432:main.c        ****     case 5:
 433:main.c        ****         transmit_state = 0; 
 434:main.c        ****         UART_UartPutChar(';');
 435:main.c        ****         UART_SetTxInterruptMode(0);
 436:main.c        ****         break;      
 437:main.c        ****     }
 438:main.c        **** }
 439:main.c        **** 
 440:main.c        **** volatile uint8_t command_overrun = 0;
 441:main.c        **** //write to uart buffer
 442:main.c        **** CY_ISR(uartReceiveTransmit) {
 443:main.c        ****     if (UART_GetInterruptCause() == UART_INTR_CAUSE_RX)
 444:main.c        ****     {
 445:main.c        ****         uint32_t source = UART_GetRxInterruptSource();
 446:main.c        ****         if (source & UART_INTR_RX_NOT_EMPTY)
 447:main.c        ****         {
 448:main.c        ****             if (command_ready == 0)
 449:main.c        ****             {
 450:main.c        ****                 char c = UART_UartGetChar();
 451:main.c        ****                 if (command_overrun == 0)
 452:main.c        ****                 {
 453:main.c        ****                     if (c == ';')
 454:main.c        ****                     {
 455:main.c        ****                         command_parser[command_index]=c;
 456:main.c        ****                         command_index=0;
 457:main.c        ****                         command_ready=1;
 458:main.c        ****                     }
 459:main.c        ****                     else if (command_index < COMMAND_INDEX_LENGTH-1)
 460:main.c        ****                     {
 461:main.c        ****                         command_parser[command_index]=c;
 462:main.c        ****                         command_index++;
 463:main.c        ****                     }
 464:main.c        ****                 } 
 465:main.c        ****                 else 
 466:main.c        ****                 {
 467:main.c        ****                     //skip all of the characters until the end of command character
 468:main.c        ****                     if (c == ';')
 469:main.c        ****                     {
 470:main.c        ****                         command_overrun = 0;
 471:main.c        ****                         command_index=0;
 472:main.c        ****                     }
 473:main.c        ****                 }
 474:main.c        ****                 
 475:main.c        ****             }
 476:main.c        ****             else
 477:main.c        ****             {
 478:main.c        ****                 command_overrun = 1;
 479:main.c        ****             }
 480:main.c        ****         }
 481:main.c        ****         else 
 482:main.c        ****         {
 483:main.c        ****             if (source & UART_INTR_RX_OVERFLOW)
 484:main.c        ****             {
 485:main.c        ****                 command_overrun = 1;
 486:main.c        ****             }
 487:main.c        ****         }
 488:main.c        ****         UART_ClearRxInterruptSource(source);
ARM GAS  C:\Users\g\AppData\Local\Temp\ccC3IUdD.s 			page 10


 489:main.c        ****     }
 490:main.c        ****     else if (UART_GetInterruptCause() == UART_INTR_CAUSE_TX)
 491:main.c        ****     {
 492:main.c        ****         uint32_t source = UART_GetTxInterruptSource();
 493:main.c        ****         if( source & UART_INTR_TX_NOT_FULL)
 494:main.c        ****         {
 495:main.c        ****             transmit_engine();
 496:main.c        ****             
 497:main.c        ****         }
 498:main.c        ****         UART_ClearTxInterruptSource(source);
 499:main.c        ****     }
 500:main.c        **** }
 501:main.c        **** 
 502:main.c        **** //set UART transmission allowed flag
 503:main.c        **** CY_ISR(transmitUpdate) {
  26              		.loc 1 503 0
  27              		.cfi_startproc
  28 0000 08B5     		push	{r3, lr}
  29              		.cfi_def_cfa_offset 8
  30              		.cfi_offset 3, -8
  31              		.cfi_offset 14, -4
 504:main.c        ****     txISR_ClearPending();
  32              		.loc 1 504 0
  33 0002 FFF7FEFF 		bl	txISR_ClearPending
  34              	.LVL0:
 505:main.c        ****     transmit_ready=1;
  35              		.loc 1 505 0
  36 0006 0122     		mov	r2, #1
  37 0008 014B     		ldr	r3, .L2
 506:main.c        **** }
  38              		.loc 1 506 0
  39              		@ sp needed
 505:main.c        ****     transmit_ready=1;
  40              		.loc 1 505 0
  41 000a 1A70     		strb	r2, [r3]
  42              		.loc 1 506 0
  43 000c 08BD     		pop	{r3, pc}
  44              	.L3:
  45 000e C046     		.align	2
  46              	.L2:
  47 0010 00000000 		.word	transmit_ready
  48              		.cfi_endproc
  49              	.LFE41:
  50              		.size	transmitUpdate, .-transmitUpdate
  51              		.section	.text.pwmCycle,"ax",%progbits
  52              		.align	2
  53              		.global	pwmCycle
  54              		.code	16
  55              		.thumb_func
  56              		.type	pwmCycle, %function
  57              	pwmCycle:
  58              	.LFB42:
 507:main.c        **** 
 508:main.c        **** CY_ISR_PROTO(pwmCycle) {
  59              		.loc 1 508 0
  60              		.cfi_startproc
  61 0000 08B5     		push	{r3, lr}
ARM GAS  C:\Users\g\AppData\Local\Temp\ccC3IUdD.s 			page 11


  62              		.cfi_def_cfa_offset 8
  63              		.cfi_offset 3, -8
  64              		.cfi_offset 14, -4
 509:main.c        ****     PWM_MOT_ClearInterrupt(PWM_MOT_INTR_MASK_TC);
  65              		.loc 1 509 0
  66 0002 0120     		mov	r0, #1
  67 0004 FFF7FEFF 		bl	PWM_MOT_ClearInterrupt
  68              	.LVL1:
 510:main.c        ****     loop_proceed=1;
  69              		.loc 1 510 0
  70 0008 0122     		mov	r2, #1
  71 000a 014B     		ldr	r3, .L5
 511:main.c        **** }
  72              		.loc 1 511 0
  73              		@ sp needed
 510:main.c        ****     loop_proceed=1;
  74              		.loc 1 510 0
  75 000c 1A70     		strb	r2, [r3]
  76              		.loc 1 511 0
  77 000e 08BD     		pop	{r3, pc}
  78              	.L6:
  79              		.align	2
  80              	.L5:
  81 0010 00000000 		.word	loop_proceed
  82              		.cfi_endproc
  83              	.LFE42:
  84              		.size	pwmCycle, .-pwmCycle
  85              		.section	.text.ffast_itoa,"ax",%progbits
  86              		.align	2
  87              		.global	ffast_itoa
  88              		.code	16
  89              		.thumb_func
  90              		.type	ffast_itoa, %function
  91              	ffast_itoa:
  92              	.LFB34:
  31:main.c        ****     char temp;
  93              		.loc 1 31 0
  94              		.cfi_startproc
  95              	.LVL2:
  96 0000 10B5     		push	{r4, lr}
  97              		.cfi_def_cfa_offset 8
  98              		.cfi_offset 4, -8
  99              		.cfi_offset 14, -4
  33:main.c        ****         a_string[0]='-';
 100              		.loc 1 33 0
 101 0002 0029     		cmp	r1, #0
 102 0004 39DB     		blt	.L27
  37:main.c        ****     temp = '0';
 103              		.loc 1 37 0
 104 0006 3023     		mov	r3, #48
 105 0008 0370     		strb	r3, [r0]
 106              	.L9:
 107              	.LVL3:
  39:main.c        ****         a_number-=10000;
 108              		.loc 1 39 0
 109 000a 1E4C     		ldr	r4, .L28
 110 000c 3022     		mov	r2, #48
ARM GAS  C:\Users\g\AppData\Local\Temp\ccC3IUdD.s 			page 12


 111 000e A142     		cmp	r1, r4
 112 0010 08DD     		ble	.L10
 113              	.LVL4:
 114              	.L11:
 115 0012 1D4B     		ldr	r3, .L28+4
  41:main.c        ****     }
 116              		.loc 1 41 0
 117 0014 0132     		add	r2, r2, #1
 118              	.LVL5:
 119 0016 9C46     		mov	ip, r3
 120 0018 6144     		add	r1, r1, ip
 121              	.LVL6:
 122 001a 8BB2     		uxth	r3, r1
 123 001c 19B2     		sxth	r1, r3
 124              	.LVL7:
 125 001e D2B2     		uxtb	r2, r2
 126              	.LVL8:
  39:main.c        ****         a_number-=10000;
 127              		.loc 1 39 0
 128 0020 A342     		cmp	r3, r4
 129 0022 F6D8     		bhi	.L11
 130              	.LVL9:
 131              	.L10:
  45:main.c        ****         a_number-=1000;
 132              		.loc 1 45 0
 133 0024 194C     		ldr	r4, .L28+8
  43:main.c        ****     temp = '0';
 134              		.loc 1 43 0
 135 0026 4270     		strb	r2, [r0, #1]
 136              	.LVL10:
  45:main.c        ****         a_number-=1000;
 137              		.loc 1 45 0
 138 0028 3022     		mov	r2, #48
 139 002a A142     		cmp	r1, r4
 140 002c 08DD     		ble	.L12
 141              	.LVL11:
 142              	.L13:
 143 002e 184B     		ldr	r3, .L28+12
  47:main.c        ****     }
 144              		.loc 1 47 0
 145 0030 0132     		add	r2, r2, #1
 146              	.LVL12:
 147 0032 9C46     		mov	ip, r3
 148 0034 6144     		add	r1, r1, ip
 149              	.LVL13:
 150 0036 8BB2     		uxth	r3, r1
 151 0038 19B2     		sxth	r1, r3
 152              	.LVL14:
 153 003a D2B2     		uxtb	r2, r2
 154              	.LVL15:
  45:main.c        ****         a_number-=1000;
 155              		.loc 1 45 0
 156 003c A342     		cmp	r3, r4
 157 003e F6D8     		bhi	.L13
 158              	.LVL16:
 159              	.L12:
  49:main.c        ****     temp = '0';
ARM GAS  C:\Users\g\AppData\Local\Temp\ccC3IUdD.s 			page 13


 160              		.loc 1 49 0
 161 0040 8270     		strb	r2, [r0, #2]
 162              	.LVL17:
  51:main.c        ****         a_number-=100;
 163              		.loc 1 51 0
 164 0042 3022     		mov	r2, #48
 165 0044 6329     		cmp	r1, #99
 166 0046 06DD     		ble	.L14
 167              	.LVL18:
 168              	.L15:
 169 0048 6439     		sub	r1, r1, #100
 170              	.LVL19:
 171 004a 8BB2     		uxth	r3, r1
  53:main.c        ****     }
 172              		.loc 1 53 0
 173 004c 0132     		add	r2, r2, #1
 174              	.LVL20:
 175 004e 19B2     		sxth	r1, r3
 176              	.LVL21:
 177 0050 D2B2     		uxtb	r2, r2
 178              	.LVL22:
  51:main.c        ****         a_number-=100;
 179              		.loc 1 51 0
 180 0052 632B     		cmp	r3, #99
 181 0054 F8D8     		bhi	.L15
 182              	.LVL23:
 183              	.L14:
  55:main.c        ****     temp = '0';
 184              		.loc 1 55 0
 185 0056 C270     		strb	r2, [r0, #3]
 186              	.LVL24:
  57:main.c        ****         a_number-=10;
 187              		.loc 1 57 0
 188 0058 3022     		mov	r2, #48
 189 005a 0929     		cmp	r1, #9
 190 005c 06DD     		ble	.L16
 191              	.LVL25:
 192              	.L17:
 193 005e 0A39     		sub	r1, r1, #10
 194              	.LVL26:
 195 0060 8BB2     		uxth	r3, r1
  59:main.c        ****     }
 196              		.loc 1 59 0
 197 0062 0132     		add	r2, r2, #1
 198              	.LVL27:
 199 0064 19B2     		sxth	r1, r3
 200              	.LVL28:
 201 0066 D2B2     		uxtb	r2, r2
 202              	.LVL29:
  57:main.c        ****         a_number-=10;
 203              		.loc 1 57 0
 204 0068 092B     		cmp	r3, #9
 205 006a F8D8     		bhi	.L17
 206              	.LVL30:
 207              	.L16:
  63:main.c        **** 
 208              		.loc 1 63 0
ARM GAS  C:\Users\g\AppData\Local\Temp\ccC3IUdD.s 			page 14


 209 006c 0023     		mov	r3, #0
  62:main.c        ****     a_string[6]='\0';
 210              		.loc 1 62 0
 211 006e 3031     		add	r1, r1, #48
 212              	.LVL31:
 213 0070 C9B2     		uxtb	r1, r1
  61:main.c        ****     a_string[5]=a_number+'0';
 214              		.loc 1 61 0
 215 0072 0271     		strb	r2, [r0, #4]
  65:main.c        **** 
 216              		.loc 1 65 0
 217              		@ sp needed
  62:main.c        ****     a_string[6]='\0';
 218              		.loc 1 62 0
 219 0074 4171     		strb	r1, [r0, #5]
  63:main.c        **** 
 220              		.loc 1 63 0
 221 0076 8371     		strb	r3, [r0, #6]
  65:main.c        **** 
 222              		.loc 1 65 0
 223 0078 10BD     		pop	{r4, pc}
 224              	.LVL32:
 225              	.L27:
  34:main.c        ****         a_number=-a_number;
 226              		.loc 1 34 0
 227 007a 2D23     		mov	r3, #45
  35:main.c        ****     }
 228              		.loc 1 35 0
 229 007c 4942     		neg	r1, r1
 230              	.LVL33:
  34:main.c        ****         a_number=-a_number;
 231              		.loc 1 34 0
 232 007e 0370     		strb	r3, [r0]
  35:main.c        ****     }
 233              		.loc 1 35 0
 234 0080 09B2     		sxth	r1, r1
 235              	.LVL34:
 236 0082 C2E7     		b	.L9
 237              	.L29:
 238              		.align	2
 239              	.L28:
 240 0084 0F270000 		.word	9999
 241 0088 F0D8FFFF 		.word	-10000
 242 008c E7030000 		.word	999
 243 0090 18FCFFFF 		.word	-1000
 244              		.cfi_endproc
 245              	.LFE34:
 246              		.size	ffast_itoa, .-ffast_itoa
 247              		.section	.text.fast_itoa,"ax",%progbits
 248              		.align	2
 249              		.global	fast_itoa
 250              		.code	16
 251              		.thumb_func
 252              		.type	fast_itoa, %function
 253              	fast_itoa:
 254              	.LFB35:
  69:main.c        ****     if(a_number<0) {
ARM GAS  C:\Users\g\AppData\Local\Temp\ccC3IUdD.s 			page 15


 255              		.loc 1 69 0
 256              		.cfi_startproc
 257              	.LVL35:
 258 0000 10B5     		push	{r4, lr}
 259              		.cfi_def_cfa_offset 8
 260              		.cfi_offset 4, -8
 261              		.cfi_offset 14, -4
  70:main.c        ****         a_string[0]='-';
 262              		.loc 1 70 0
 263 0002 0029     		cmp	r1, #0
 264 0004 18DB     		blt	.L35
  74:main.c        **** 
 265              		.loc 1 74 0
 266 0006 3023     		mov	r3, #48
 267 0008 0370     		strb	r3, [r0]
 268              	.L32:
 269              	.LVL36:
  79:main.c        **** 
 270              		.loc 1 79 0
 271 000a 0E4B     		ldr	r3, .L36
 272 000c CA17     		asr	r2, r1, #31
 273 000e 4B43     		mul	r3, r1
 274 0010 920F     		lsr	r2, r2, #30
 275 0012 5118     		add	r1, r2, r1
 276              	.LVL37:
 277 0014 8910     		asr	r1, r1, #2
 278 0016 591A     		sub	r1, r3, r1
 279              	.LVL38:
 280 0018 841D     		add	r4, r0, #6
 281 001a 431C     		add	r3, r0, #1
 282              	.LVL39:
 283              	.L33:
 284              	.LBB17:
 285              	.LBB18:
  83:main.c        ****         a_string[i] = '0' + (char) digit;
 286              		.loc 1 83 0 discriminator 3
 287 001c 0A0F     		lsr	r2, r1, #28
 288              	.LVL40:
  85:main.c        ****     }
 289              		.loc 1 85 0 discriminator 3
 290 001e 0901     		lsl	r1, r1, #4
 291              	.LVL41:
  84:main.c        ****         tmp = (tmp & 0x0fffffff) * 10;
 292              		.loc 1 84 0 discriminator 3
 293 0020 3032     		add	r2, r2, #48
 294              	.LVL42:
  85:main.c        ****     }
 295              		.loc 1 85 0 discriminator 3
 296 0022 0909     		lsr	r1, r1, #4
  84:main.c        ****         tmp = (tmp & 0x0fffffff) * 10;
 297              		.loc 1 84 0 discriminator 3
 298 0024 1A70     		strb	r2, [r3]
  85:main.c        ****     }
 299              		.loc 1 85 0 discriminator 3
 300 0026 8A00     		lsl	r2, r1, #2
 301              	.LVL43:
 302 0028 5118     		add	r1, r2, r1
ARM GAS  C:\Users\g\AppData\Local\Temp\ccC3IUdD.s 			page 16


 303 002a 0133     		add	r3, r3, #1
 304              	.LVL44:
 305 002c 4900     		lsl	r1, r1, #1
 306              	.LVL45:
 307              	.LBE18:
  81:main.c        ****     {
 308              		.loc 1 81 0 discriminator 3
 309 002e A342     		cmp	r3, r4
 310 0030 F4D1     		bne	.L33
 311              	.LBE17:
  87:main.c        **** }
 312              		.loc 1 87 0
 313 0032 0023     		mov	r3, #0
  88:main.c        **** 
 314              		.loc 1 88 0
 315              		@ sp needed
  87:main.c        **** }
 316              		.loc 1 87 0
 317 0034 8371     		strb	r3, [r0, #6]
  88:main.c        **** 
 318              		.loc 1 88 0
 319 0036 10BD     		pop	{r4, pc}
 320              	.LVL46:
 321              	.L35:
  71:main.c        ****        a_number=-a_number;
 322              		.loc 1 71 0
 323 0038 2D23     		mov	r3, #45
  72:main.c        ****     }
 324              		.loc 1 72 0
 325 003a 4942     		neg	r1, r1
 326              	.LVL47:
  71:main.c        ****        a_number=-a_number;
 327              		.loc 1 71 0
 328 003c 0370     		strb	r3, [r0]
  72:main.c        ****     }
 329              		.loc 1 72 0
 330 003e 09B2     		sxth	r1, r1
 331              	.LVL48:
 332 0040 E3E7     		b	.L32
 333              	.L37:
 334 0042 C046     		.align	2
 335              	.L36:
 336 0044 DC680000 		.word	26844
 337              		.cfi_endproc
 338              	.LFE35:
 339              		.size	fast_itoa, .-fast_itoa
 340              		.section	.rodata.cst2,"aM",%progbits,2
 341              		.align	1
 342              	.LC25:
 343 0000 FE0F     		.short	4094
 344              		.section	.text.startup.main,"ax",%progbits
 345              		.align	2
 346              		.global	main
 347              		.code	16
 348              		.thumb_func
 349              		.type	main, %function
 350              	main:
ARM GAS  C:\Users\g\AppData\Local\Temp\ccC3IUdD.s 			page 17


 351              	.LFB36:
 105:main.c        **** 
 352              		.loc 1 105 0
 353              		.cfi_startproc
 354              	.LVL49:
 355 0000 F0B5     		push	{r4, r5, r6, r7, lr}
 356              		.cfi_def_cfa_offset 20
 357              		.cfi_offset 4, -20
 358              		.cfi_offset 5, -16
 359              		.cfi_offset 6, -12
 360              		.cfi_offset 7, -8
 361              		.cfi_offset 14, -4
 362 0002 5F46     		mov	r7, fp
 363 0004 5646     		mov	r6, r10
 364 0006 4D46     		mov	r5, r9
 365 0008 4446     		mov	r4, r8
 119:main.c        ****     char command_type='z';
 366              		.loc 1 119 0
 367 000a 0023     		mov	r3, #0
 105:main.c        **** 
 368              		.loc 1 105 0
 369 000c F0B4     		push	{r4, r5, r6, r7}
 370              		.cfi_def_cfa_offset 36
 371              		.cfi_offset 8, -36
 372              		.cfi_offset 9, -32
 373              		.cfi_offset 10, -28
 374              		.cfi_offset 11, -24
 375 000e 8BB0     		sub	sp, sp, #44
 376              		.cfi_def_cfa_offset 80
 119:main.c        ****     char command_type='z';
 377              		.loc 1 119 0
 378 0010 06AA     		add	r2, sp, #24
 379 0012 D380     		strh	r3, [r2, #6]
 380              	.LVL50:
 123:main.c        ****     {
 381              		.loc 1 123 0
 382 0014 FFF7FEFF 		bl	reset_Read
 383              	.LVL51:
 384 0018 0028     		cmp	r0, #0
 385 001a 01D1     		bne	.L39
 125:main.c        ****     }
 386              		.loc 1 125 0
 387 001c FFF7FEFF 		bl	Bootloadable_1_Load
 388              	.LVL52:
 389              	.L39:
 128:main.c        ****     //Initialize quadrature decoding hardware
 390              		.loc 1 128 0
 391 0020 0120     		mov	r0, #1
 392 0022 FFF7FEFF 		bl	error_Write
 393              	.LVL53:
 130:main.c        ****     //192008N1
 394              		.loc 1 130 0
 395 0026 FFF7FEFF 		bl	Counter_1_Start
 396              	.LVL54:
 132:main.c        ****     //12-bit resolution. In phase with PWM_MOT
 397              		.loc 1 132 0
 398 002a FFF7FEFF 		bl	UART_Start
ARM GAS  C:\Users\g\AppData\Local\Temp\ccC3IUdD.s 			page 18


 399              	.LVL55:
 134:main.c        ****     //UART transmit period timer (curently 100 transmissions per second)
 400              		.loc 1 134 0
 401 002e FFF7FEFF 		bl	ADC_Start
 402              	.LVL56:
 136:main.c        ****     //Just the EEPROM...
 403              		.loc 1 136 0
 404 0032 FFF7FEFF 		bl	TX_SEND_Start
 405              	.LVL57:
 138:main.c        ****     //prepare gate driver for operation.  12-bit 6 kHz PWM
 406              		.loc 1 138 0
 407 0036 FFF7FEFF 		bl	EEPROM_Start
 408              	.LVL58:
 140:main.c        ****     PWM_MOT_Start();
 409              		.loc 1 140 0
 410 003a 0120     		mov	r0, #1
 411 003c FFF7FEFF 		bl	sleep_Write
 412              	.LVL59:
 141:main.c        ****     
 413              		.loc 1 141 0
 414 0040 FFF7FEFF 		bl	PWM_MOT_Start
 415              	.LVL60:
 144:main.c        ****     UART_SetTxInterruptMode(0);
 416              		.loc 1 144 0
 417 0044 CD48     		ldr	r0, .L109
 418 0046 FFF7FEFF 		bl	rxISR_StartEx
 419              	.LVL61:
 145:main.c        ****     txISR_StartEx(transmitUpdate);
 420              		.loc 1 145 0
 421 004a 0022     		mov	r2, #0
 422 004c CC4B     		ldr	r3, .L109+4
 146:main.c        ****     pwmISR_StartEx(pwmCycle);
 423              		.loc 1 146 0
 424 004e CD48     		ldr	r0, .L109+8
 145:main.c        ****     txISR_StartEx(transmitUpdate);
 425              		.loc 1 145 0
 426 0050 1A60     		str	r2, [r3]
 146:main.c        ****     pwmISR_StartEx(pwmCycle);
 427              		.loc 1 146 0
 428 0052 FFF7FEFF 		bl	txISR_StartEx
 429              	.LVL62:
 147:main.c        ****     
 430              		.loc 1 147 0
 431 0056 CC48     		ldr	r0, .L109+12
 432 0058 FFF7FEFF 		bl	pwmISR_StartEx
 433              	.LVL63:
 159:main.c        ****     
 434              		.loc 1 159 0
 435 005c FA20     		mov	r0, #250
 436 005e 8000     		lsl	r0, r0, #2
 437 0060 FFF7FEFF 		bl	CyDelay
 438              	.LVL64:
 163:main.c        **** #endif //DEBUG_INTERFACE
 439              		.loc 1 163 0
 440 0064 0120     		mov	r0, #1
 441 0066 FFF7FEFF 		bl	vin_Write
 442              	.LVL65:
ARM GAS  C:\Users\g\AppData\Local\Temp\ccC3IUdD.s 			page 19


 167:main.c        **** 
 443              		.loc 1 167 0
 444              	@ 167 "main.c" 1
 445 006a 62B6     		CPSIE   i
 446              	@ 0 "" 2
 170:main.c        ****     uint32_t loop_counter = 0; 
 447              		.loc 1 170 0
 448              		.code	16
 449 006c 0020     		mov	r0, #0
 450 006e FFF7FEFF 		bl	Counter_1_WriteCounter
 451              	.LVL66:
 109:main.c        ****     
 452              		.loc 1 109 0
 453 0072 0023     		mov	r3, #0
 108:main.c        ****     uint8_t fault_detected=0, motor_shutdown=0, timeout_flag=0;
 454              		.loc 1 108 0
 455 0074 0026     		mov	r6, #0
 107:main.c        ****     int32_t  output=0, error_integral=0;
 456              		.loc 1 107 0
 457 0076 0024     		mov	r4, #0
 458 0078 9B46     		mov	fp, r3
 459 007a C44D     		ldr	r5, .L109+16
 460 007c C44F     		ldr	r7, .L109+20
 109:main.c        ****     
 461              		.loc 1 109 0
 462 007e 0593     		str	r3, [sp, #20]
 463 0080 0293     		str	r3, [sp, #8]
 464 0082 0193     		str	r3, [sp, #4]
 107:main.c        ****     int32_t  output=0, error_integral=0;
 465              		.loc 1 107 0
 466 0084 0493     		str	r3, [sp, #16]
 467              	.LVL67:
 468              	.L41:
 176:main.c        **** #ifdef DEBUG_INTERFACE
 469              		.loc 1 176 0 discriminator 1
 470 0086 2B78     		ldrb	r3, [r5]
 471 0088 002B     		cmp	r3, #0
 472 008a FCD0     		beq	.L41
 180:main.c        ****         loop_counter++;
 473              		.loc 1 180 0
 474 008c 0023     		mov	r3, #0
 475 008e 2B70     		strb	r3, [r5]
 184:main.c        ****             error_Write(0);
 476              		.loc 1 184 0
 477 0090 23B2     		sxth	r3, r4
 478 0092 9846     		mov	r8, r3
 479 0094 3B88     		ldrh	r3, [r7]
 480 0096 9845     		cmp	r8, r3
 481 0098 00DD     		ble	.LCB451
 482 009a CCE0     		b	.L42	@long jump
 483              	.LCB451:
 184:main.c        ****             error_Write(0);
 484              		.loc 1 184 0 is_stmt 0 discriminator 1
 485 009c 3B88     		ldrh	r3, [r7]
 486 009e 5B42     		neg	r3, r3
 487 00a0 9845     		cmp	r8, r3
 488 00a2 00DA     		bge	.LCB456
ARM GAS  C:\Users\g\AppData\Local\Temp\ccC3IUdD.s 			page 20


 489 00a4 C7E0     		b	.L42	@long jump
 490              	.LCB456:
 491              	.LBB31:
 194:main.c        ****                 timeout_counter++;
 492              		.loc 1 194 0 is_stmt 1
 493 00a6 BB4B     		ldr	r3, .L109+24
 494 00a8 BB4A     		ldr	r2, .L109+28
 495 00aa 1B88     		ldrh	r3, [r3]
 496 00ac 9342     		cmp	r3, r2
 497 00ae 00D9     		bls	.LCB462
 498 00b0 A7E1     		b	.L45	@long jump
 499              	.LCB462:
 195:main.c        ****                 timeout_flag=0;
 500              		.loc 1 195 0
 501 00b2 B84A     		ldr	r2, .L109+24
 502 00b4 0133     		add	r3, r3, #1
 503 00b6 1380     		strh	r3, [r2]
 504              	.LVL68:
 197:main.c        ****                 error_at_timeout = error_prev; 
 505              		.loc 1 197 0
 506 00b8 0023     		mov	r3, #0
 507 00ba 0293     		str	r3, [sp, #8]
 508              	.LVL69:
 509              	.L46:
 205:main.c        ****             if (pulse_detected || ((error_at_timeout - error) < -3) || ((error_at_timeout - error) 
 510              		.loc 1 205 0
 511 00bc FFF7FEFF 		bl	step_register_Read
 512              	.LVL70:
 206:main.c        ****                 timeout_counter = 0;
 513              		.loc 1 206 0
 514 00c0 029B     		ldr	r3, [sp, #8]
 515 00c2 0494     		str	r4, [sp, #16]
 516 00c4 0593     		str	r3, [sp, #20]
 517 00c6 0028     		cmp	r0, #0
 518 00c8 02D0     		beq	.L44
 519              	.LVL71:
 520              	.L48:
 207:main.c        ****             }
 521              		.loc 1 207 0
 522 00ca 0023     		mov	r3, #0
 523 00cc B14A     		ldr	r2, .L109+24
 524 00ce 1380     		strh	r3, [r2]
 525              	.L44:
 526              	.LVL72:
 527              	.LBE31:
 214:main.c        ****             error_Write(0);
 528              		.loc 1 214 0
 529 00d0 FFF7FEFF 		bl	fault_Read
 530              	.LVL73:
 531 00d4 0028     		cmp	r0, #0
 532 00d6 00D1     		bne	.LCB507
 533 00d8 BAE0     		b	.L101	@long jump
 534              	.LCB507:
 535              	.L49:
 222:main.c        ****             error_Write(0);
 536              		.loc 1 222 0
 537 00da FFF7FEFF 		bl	ovc_Read
ARM GAS  C:\Users\g\AppData\Local\Temp\ccC3IUdD.s 			page 21


 538              	.LVL74:
 539 00de 0028     		cmp	r0, #0
 540 00e0 00D1     		bne	.LCB518
 541 00e2 C4E0     		b	.L102	@long jump
 542              	.LCB518:
 543              	.L50:
 232:main.c        **** #ifndef DEBUG_INTERFACE
 544              		.loc 1 232 0
 545 00e4 FFF7FEFF 		bl	reset_Read
 546              	.LVL75:
 547 00e8 0028     		cmp	r0, #0
 548 00ea 00D1     		bne	.LCB525
 549 00ec CEE0     		b	.L103	@long jump
 550              	.LCB525:
 551              	.LVL76:
 552              	.L51:
 241:main.c        ****         //convert the current limit magnitude to voltage so the error can be computed using the ADC
 553              		.loc 1 241 0
 554 00ee 0020     		mov	r0, #0
 555 00f0 FFF7FEFF 		bl	ADC_GetResult16
 556              	.LVL77:
 557 00f4 4010     		asr	r0, r0, #1
 558 00f6 83B2     		uxth	r3, r0
 559 00f8 9A46     		mov	r10, r3
 560              	.LVL78:
 243:main.c        ****         if(duty_reduce>DUTY_REDUCE_MAX) duty_reduce=DUTY_REDUCE_MAX;
 561              		.loc 1 243 0
 562 00fa 5246     		mov	r2, r10
 563 00fc 3B79     		ldrb	r3, [r7, #4]
 564 00fe 11B2     		sxth	r1, r2
 565 0100 9B00     		lsl	r3, r3, #2
 566 0102 CB1A     		sub	r3, r1, r3
 567 0104 DB10     		asr	r3, r3, #3
 568 0106 5B44     		add	r3, r3, fp
 569 0108 9AB2     		uxth	r2, r3
 570              	.LVL79:
 571 010a 13B2     		sxth	r3, r2
 572 010c DB43     		mvn	r3, r3
 573 010e DB17     		asr	r3, r3, #31
 574 0110 1340     		and	r3, r2
 575 0112 A249     		ldr	r1, .L109+32
 576 0114 1AB2     		sxth	r2, r3
 577              	.LVL80:
 578 0116 8A42     		cmp	r2, r1
 579 0118 01DD     		ble	.L53
 580 011a A14B     		ldr	r3, .L109+36
 581 011c 1B88     		ldrh	r3, [r3]
 582              	.L53:
 583 011e 9BB2     		uxth	r3, r3
 584 0120 9B46     		mov	fp, r3
 248:main.c        ****         //calculate change in process variable to prevent derivative kickback
 585              		.loc 1 248 0
 586 0122 FFF7FEFF 		bl	Counter_1_ReadCounter
 587              	.LVL81:
 588 0126 6A46     		mov	r2, sp
 589 0128 9081     		strh	r0, [r2, #12]
 590 012a 9389     		ldrh	r3, [r2, #12]
ARM GAS  C:\Users\g\AppData\Local\Temp\ccC3IUdD.s 			page 22


 250:main.c        **** 
 591              		.loc 1 250 0
 592 012c 041B     		sub	r4, r0, r4
 593              	.LVL82:
 248:main.c        ****         //calculate change in process variable to prevent derivative kickback
 594              		.loc 1 248 0
 595 012e 9946     		mov	r9, r3
 596              	.LVL83:
 253:main.c        ****             error_integral+=error;
 597              		.loc 1 253 0
 598 0130 029B     		ldr	r3, [sp, #8]
 248:main.c        ****         //calculate change in process variable to prevent derivative kickback
 599              		.loc 1 248 0
 600 0132 8046     		mov	r8, r0
 601              	.LVL84:
 250:main.c        **** 
 602              		.loc 1 250 0
 603 0134 A1B2     		uxth	r1, r4
 604              	.LVL85:
 253:main.c        ****             error_integral+=error;
 605              		.loc 1 253 0
 606 0136 002B     		cmp	r3, #0
 607 0138 00D1     		bne	.LCB583
 608 013a AFE0     		b	.L54	@long jump
 609              	.LCB583:
 610 013c 4B46     		mov	r3, r9
 611 013e 1CB2     		sxth	r4, r3
 612              	.L55:
 613 0140 984B     		ldr	r3, .L109+40
 614 0142 9E42     		cmp	r6, r3
 615 0144 00DA     		bge	.L56
 616 0146 1E1C     		mov	r6, r3
 617              	.LVL86:
 618              	.L56:
 619 0148 974B     		ldr	r3, .L109+44
 620 014a 9E42     		cmp	r6, r3
 621 014c 00DD     		ble	.L57
 622 014e 1E1C     		mov	r6, r3
 623              	.L57:
 624              	.LVL87:
 263:main.c        **** 
 625              		.loc 1 263 0
 626 0150 F888     		ldrh	r0, [r7, #6]
 627 0152 3B89     		ldrh	r3, [r7, #8]
 628 0154 4443     		mul	r4, r0
 629 0156 7343     		mul	r3, r6
 630 0158 7A89     		ldrh	r2, [r7, #10]
 631 015a DB11     		asr	r3, r3, #7
 632 015c E318     		add	r3, r4, r3
 633 015e 141C     		mov	r4, r2
 634 0160 09B2     		sxth	r1, r1
 635 0162 4C43     		mul	r4, r1
 636 0164 1C1B     		sub	r4, r3, r4
 637              	.LVL88:
 266:main.c        ****             PWM_MOT_WriteCompare(1);
 638              		.loc 1 266 0
 639 0166 019B     		ldr	r3, [sp, #4]
ARM GAS  C:\Users\g\AppData\Local\Temp\ccC3IUdD.s 			page 23


 265:main.c        ****         if(fault_detected) {
 640              		.loc 1 265 0
 641 0168 2412     		asr	r4, r4, #8
 642              	.LVL89:
 266:main.c        ****             PWM_MOT_WriteCompare(1);
 643              		.loc 1 266 0
 644 016a 002B     		cmp	r3, #0
 645 016c 3CD1     		bne	.L100
 270:main.c        ****                 if(output>=0) phase_Write(1);
 646              		.loc 1 270 0
 647 016e 3B7B     		ldrb	r3, [r7, #12]
 648 0170 002B     		cmp	r3, #0
 649 0172 00D1     		bne	.LCB631
 650 0174 96E0     		b	.L60	@long jump
 651              	.LCB631:
 271:main.c        ****                 else {
 652              		.loc 1 271 0
 653 0176 002C     		cmp	r4, #0
 654 0178 00DA     		bge	.LCB633
 655 017a 65E1     		b	.L104	@long jump
 656              	.LCB633:
 657              	.LVL90:
 658              	.L99:
 281:main.c        ****                 }
 659              		.loc 1 281 0
 660 017c 0120     		mov	r0, #1
 661 017e FFF7FEFF 		bl	phase_Write
 662              	.LVL91:
 663              	.L62:
 664 0182 8A4B     		ldr	r3, .L109+48
 665 0184 9C42     		cmp	r4, r3
 666 0186 00DD     		ble	.L64
 667 0188 1C1C     		mov	r4, r3
 668              	.LVL92:
 669              	.L64:
 286:main.c        ****             if(output<1) output=1;
 670              		.loc 1 286 0
 671 018a 5B46     		mov	r3, fp
 672 018c 19B2     		sxth	r1, r3
 673 018e 641A     		sub	r4, r4, r1
 674              	.LVL93:
 287:main.c        ****             if(motor_shutdown) PWM_MOT_WriteCompare(1);
 675              		.loc 1 287 0
 676 0190 002C     		cmp	r4, #0
 677 0192 00DC     		bgt	.LCB661
 678 0194 33E1     		b	.L105	@long jump
 679              	.LCB661:
 680              	.LVL94:
 681              	.L65:
 288:main.c        ****             else PWM_MOT_WriteCompare(output);
 682              		.loc 1 288 0
 683 0196 029B     		ldr	r3, [sp, #8]
 684 0198 002B     		cmp	r3, #0
 685 019a 25D1     		bne	.L100
 289:main.c        ****         }
 686              		.loc 1 289 0
 687 019c 201C     		mov	r0, r4
ARM GAS  C:\Users\g\AppData\Local\Temp\ccC3IUdD.s 			page 24


 688 019e FFF7FEFF 		bl	PWM_MOT_WriteCompare
 689              	.LVL95:
 294:main.c        ****             command_type=command_parser[0];
 690              		.loc 1 294 0
 691 01a2 834B     		ldr	r3, .L109+52
 692 01a4 1B78     		ldrb	r3, [r3]
 693 01a6 012B     		cmp	r3, #1
 694 01a8 25D0     		beq	.L106
 695              	.L67:
 696              	.LBB32:
 697              	.LBB33:
 375:main.c        **** }
 698              		.loc 1 375 0
 699 01aa 824B     		ldr	r3, .L109+56
 700 01ac 1B78     		ldrb	r3, [r3]
 701              	.LBE33:
 702              	.LBE32:
 350:main.c        ****         {
 703              		.loc 1 350 0
 704 01ae 002B     		cmp	r3, #0
 705 01b0 7FD0     		beq	.L107
 706              	.L81:
 361:main.c        ****             transmit_ready = 0; 
 707              		.loc 1 361 0
 708 01b2 814B     		ldr	r3, .L109+60
 709 01b4 1B78     		ldrb	r3, [r3]
 710 01b6 002B     		cmp	r3, #0
 711 01b8 0AD0     		beq	.L84
 362:main.c        ****             if(*eeprom_uart_data) {
 712              		.loc 1 362 0
 713 01ba 0023     		mov	r3, #0
 714 01bc 7E4A     		ldr	r2, .L109+60
 715 01be 1370     		strb	r3, [r2]
 363:main.c        ****                 transmit_data();
 716              		.loc 1 363 0
 717 01c0 7B7B     		ldrb	r3, [r7, #13]
 718 01c2 002B     		cmp	r3, #0
 719 01c4 04D0     		beq	.L84
 720              	.LBB34:
 721              	.LBB35:
 722              	.LBB36:
 723              	.LBB37:
 375:main.c        **** }
 724              		.loc 1 375 0
 725 01c6 7B4B     		ldr	r3, .L109+56
 726 01c8 1B78     		ldrb	r3, [r3]
 727 01ca DBB2     		uxtb	r3, r3
 728              	.LBE37:
 729              	.LBE36:
 379:main.c        ****     {
 730              		.loc 1 379 0
 731 01cc 002B     		cmp	r3, #0
 732 01ce 01D0     		beq	.L108
 733              	.L84:
 734              	.LBE35:
 735              	.LBE34:
 105:main.c        **** 
ARM GAS  C:\Users\g\AppData\Local\Temp\ccC3IUdD.s 			page 25


 736              		.loc 1 105 0 discriminator 1
 737 01d0 4C46     		mov	r4, r9
 738              	.LVL96:
 739 01d2 58E7     		b	.L41
 740              	.LVL97:
 741              	.L108:
 742              	.LBB42:
 743              	.LBB40:
 744              	.LBB38:
 381:main.c        ****         transmit_index = 0;
 745              		.loc 1 381 0
 746 01d4 0122     		mov	r2, #1
 747 01d6 7749     		ldr	r1, .L109+56
 748              	.LBE38:
 749              	.LBE40:
 750              	.LBE42:
 105:main.c        **** 
 751              		.loc 1 105 0
 752 01d8 4C46     		mov	r4, r9
 753              	.LVL98:
 754              	.LBB43:
 755              	.LBB41:
 756              	.LBB39:
 381:main.c        ****         transmit_index = 0;
 757              		.loc 1 381 0
 758 01da 0A70     		strb	r2, [r1]
 382:main.c        ****         UART_SetTxInterruptMode(UART_INTR_TX_NOT_FULL);
 759              		.loc 1 382 0
 760 01dc 774A     		ldr	r2, .L109+64
 761 01de 1360     		str	r3, [r2]
 383:main.c        ****     }
 762              		.loc 1 383 0
 763 01e0 0222     		mov	r2, #2
 764 01e2 674B     		ldr	r3, .L109+4
 765 01e4 1A60     		str	r2, [r3]
 766 01e6 4EE7     		b	.L41
 767              	.LVL99:
 768              	.L100:
 769              	.LBE39:
 770              	.LBE41:
 771              	.LBE43:
 288:main.c        ****             else PWM_MOT_WriteCompare(output);
 772              		.loc 1 288 0 discriminator 1
 773 01e8 0120     		mov	r0, #1
 774 01ea FFF7FEFF 		bl	PWM_MOT_WriteCompare
 775              	.LVL100:
 294:main.c        ****             command_type=command_parser[0];
 776              		.loc 1 294 0 discriminator 1
 777 01ee 704B     		ldr	r3, .L109+52
 778 01f0 1B78     		ldrb	r3, [r3]
 779 01f2 012B     		cmp	r3, #1
 780 01f4 D9D1     		bne	.L67
 781              	.L106:
 295:main.c        ****             for(int i=0; i<5; i++) command_local[i]=command_parser[i+1];
 782              		.loc 1 295 0
 783 01f6 724B     		ldr	r3, .L109+68
 784              	.LBB44:
ARM GAS  C:\Users\g\AppData\Local\Temp\ccC3IUdD.s 			page 26


 296:main.c        ****             command_value=atoi(command_local);
 785              		.loc 1 296 0
 786 01f8 A446     		mov	ip, r4
 787              	.LBE44:
 295:main.c        ****             for(int i=0; i<5; i++) command_local[i]=command_parser[i+1];
 788              		.loc 1 295 0
 789 01fa 1B78     		ldrb	r3, [r3]
 790 01fc DBB2     		uxtb	r3, r3
 791 01fe 0393     		str	r3, [sp, #12]
 792              	.LVL101:
 793              	.LBB45:
 296:main.c        ****             command_value=atoi(command_local);
 794              		.loc 1 296 0
 795 0200 0023     		mov	r3, #0
 796              	.LVL102:
 797              	.L68:
 296:main.c        ****             command_value=atoi(command_local);
 798              		.loc 1 296 0 is_stmt 0 discriminator 3
 799 0202 0824     		mov	r4, #8
 800 0204 6E4A     		ldr	r2, .L109+68
 801 0206 0133     		add	r3, r3, #1
 802              	.LVL103:
 803 0208 D15C     		ldrb	r1, [r2, r3]
 804 020a 06A8     		add	r0, sp, #24
 805 020c 5A1E     		sub	r2, r3, #1
 806 020e 0019     		add	r0, r0, r4
 807 0210 8154     		strb	r1, [r0, r2]
 808              	.LVL104:
 809 0212 052B     		cmp	r3, #5
 810 0214 F5D1     		bne	.L68
 811              	.LBE45:
 297:main.c        ****             switch(command_type) {
 812              		.loc 1 297 0 is_stmt 1
 813 0216 08A8     		add	r0, sp, #32
 814 0218 6446     		mov	r4, ip
 815 021a FFF7FEFF 		bl	atoi
 816              	.LVL105:
 817 021e 06AB     		add	r3, sp, #24
 818 0220 80B2     		uxth	r0, r0
 819 0222 D880     		strh	r0, [r3, #6]
 298:main.c        ****                 //PID coefficients
 820              		.loc 1 298 0
 821 0224 039B     		ldr	r3, [sp, #12]
 822 0226 2B3B     		sub	r3, r3, #43
 823 0228 DBB2     		uxtb	r3, r3
 824 022a 4A2B     		cmp	r3, #74
 825 022c 5BD8     		bhi	.L69
 826 022e 654A     		ldr	r2, .L109+72
 827 0230 9B00     		lsl	r3, r3, #2
 828 0232 D358     		ldr	r3, [r2, r3]
 829 0234 9F46     		mov	pc, r3
 830              		.section	.rodata
 831              		.align	2
 832              	.L71:
 833 0000 00030000 		.word	.L70
 834 0004 E6020000 		.word	.L69
 835 0008 EE020000 		.word	.L72
ARM GAS  C:\Users\g\AppData\Local\Temp\ccC3IUdD.s 			page 27


 836 000c E6020000 		.word	.L69
 837 0010 E6020000 		.word	.L69
 838 0014 E6020000 		.word	.L69
 839 0018 E6020000 		.word	.L69
 840 001c E6020000 		.word	.L69
 841 0020 E6020000 		.word	.L69
 842 0024 E6020000 		.word	.L69
 843 0028 E6020000 		.word	.L69
 844 002c E6020000 		.word	.L69
 845 0030 E6020000 		.word	.L69
 846 0034 E6020000 		.word	.L69
 847 0038 E6020000 		.word	.L69
 848 003c E6020000 		.word	.L69
 849 0040 E6020000 		.word	.L69
 850 0044 E6020000 		.word	.L69
 851 0048 E6020000 		.word	.L69
 852 004c E6020000 		.word	.L69
 853 0050 E6020000 		.word	.L69
 854 0054 E6020000 		.word	.L69
 855 0058 E6020000 		.word	.L69
 856 005c E6020000 		.word	.L69
 857 0060 E6020000 		.word	.L69
 858 0064 E6020000 		.word	.L69
 859 0068 E6020000 		.word	.L69
 860 006c E6020000 		.word	.L69
 861 0070 E6020000 		.word	.L69
 862 0074 E6020000 		.word	.L69
 863 0078 E6020000 		.word	.L69
 864 007c E6020000 		.word	.L69
 865 0080 E6020000 		.word	.L69
 866 0084 E6020000 		.word	.L69
 867 0088 E6020000 		.word	.L69
 868 008c E6020000 		.word	.L69
 869 0090 E6020000 		.word	.L69
 870 0094 E6020000 		.word	.L69
 871 0098 E6020000 		.word	.L69
 872 009c E6020000 		.word	.L69
 873 00a0 E6020000 		.word	.L69
 874 00a4 E6020000 		.word	.L69
 875 00a8 E6020000 		.word	.L69
 876 00ac E6020000 		.word	.L69
 877 00b0 E6020000 		.word	.L69
 878 00b4 E6020000 		.word	.L69
 879 00b8 E6020000 		.word	.L69
 880 00bc E6020000 		.word	.L69
 881 00c0 E6020000 		.word	.L69
 882 00c4 E6020000 		.word	.L69
 883 00c8 E6020000 		.word	.L69
 884 00cc E6020000 		.word	.L69
 885 00d0 E6020000 		.word	.L69
 886 00d4 E6020000 		.word	.L69
 887 00d8 E6020000 		.word	.L69
 888 00dc E6020000 		.word	.L69
 889 00e0 52030000 		.word	.L73
 890 00e4 3C030000 		.word	.L74
 891 00e8 E6020000 		.word	.L69
 892 00ec 28030000 		.word	.L75
ARM GAS  C:\Users\g\AppData\Local\Temp\ccC3IUdD.s 			page 28


 893 00f0 E6020000 		.word	.L69
 894 00f4 E6020000 		.word	.L69
 895 00f8 12030000 		.word	.L76
 896 00fc E6020000 		.word	.L69
 897 0100 E6020000 		.word	.L69
 898 0104 E6020000 		.word	.L69
 899 0108 E6020000 		.word	.L69
 900 010c E6020000 		.word	.L69
 901 0110 D0030000 		.word	.L77
 902 0114 66030000 		.word	.L78
 903 0118 E6020000 		.word	.L69
 904 011c E6030000 		.word	.L79
 905 0120 E6020000 		.word	.L69
 906 0124 E6020000 		.word	.L69
 907 0128 D2020000 		.word	.L80
 908              		.section	.text.startup.main
 909              	.LVL106:
 910              	.L42:
 185:main.c        **** #ifndef DEBUG_INTERFACE
 911              		.loc 1 185 0
 912 0236 0020     		mov	r0, #0
 913 0238 FFF7FEFF 		bl	error_Write
 914              	.LVL107:
 187:main.c        **** #endif //DEBUG_INTERFACE
 915              		.loc 1 187 0
 916 023c 0120     		mov	r0, #1
 917 023e FFF7FEFF 		bl	err_Write
 918              	.LVL108:
 189:main.c        ****         }
 919              		.loc 1 189 0
 920 0242 0123     		mov	r3, #1
 921 0244 0193     		str	r3, [sp, #4]
 922              	.LVL109:
 214:main.c        ****             error_Write(0);
 923              		.loc 1 214 0
 924 0246 FFF7FEFF 		bl	fault_Read
 925              	.LVL110:
 926 024a 0028     		cmp	r0, #0
 927 024c 00D0     		beq	.LCB845
 928 024e 44E7     		b	.L49	@long jump
 929              	.LCB845:
 930              	.L101:
 215:main.c        **** #ifndef DEBUG_INTERFACE
 931              		.loc 1 215 0
 932 0250 FFF7FEFF 		bl	error_Write
 933              	.LVL111:
 217:main.c        ****             err_Write(1);
 934              		.loc 1 217 0
 935 0254 0020     		mov	r0, #0
 936 0256 FFF7FEFF 		bl	vin_Write
 937              	.LVL112:
 218:main.c        **** #endif //DEBUG_INTERFACE
 938              		.loc 1 218 0
 939 025a 0120     		mov	r0, #1
 940 025c FFF7FEFF 		bl	err_Write
 941              	.LVL113:
 220:main.c        ****         }
ARM GAS  C:\Users\g\AppData\Local\Temp\ccC3IUdD.s 			page 29


 942              		.loc 1 220 0
 943 0260 0123     		mov	r3, #1
 944 0262 0193     		str	r3, [sp, #4]
 945              	.LVL114:
 222:main.c        ****             error_Write(0);
 946              		.loc 1 222 0
 947 0264 FFF7FEFF 		bl	ovc_Read
 948              	.LVL115:
 949 0268 0028     		cmp	r0, #0
 950 026a 00D0     		beq	.LCB866
 951 026c 3AE7     		b	.L50	@long jump
 952              	.LCB866:
 953              	.L102:
 223:main.c        **** #ifndef DEBUG_INTERFACE
 954              		.loc 1 223 0
 955 026e FFF7FEFF 		bl	error_Write
 956              	.LVL116:
 225:main.c        ****             err_Write(1);
 957              		.loc 1 225 0
 958 0272 0020     		mov	r0, #0
 959 0274 FFF7FEFF 		bl	vin_Write
 960              	.LVL117:
 226:main.c        **** #endif //DEBUG_INTERFACE
 961              		.loc 1 226 0
 962 0278 0120     		mov	r0, #1
 963 027a FFF7FEFF 		bl	err_Write
 964              	.LVL118:
 228:main.c        ****         }
 965              		.loc 1 228 0
 966 027e 0123     		mov	r3, #1
 967 0280 0193     		str	r3, [sp, #4]
 968              	.LVL119:
 232:main.c        **** #ifndef DEBUG_INTERFACE
 969              		.loc 1 232 0
 970 0282 FFF7FEFF 		bl	reset_Read
 971              	.LVL120:
 972 0286 0028     		cmp	r0, #0
 973 0288 00D0     		beq	.LCB884
 974 028a 30E7     		b	.L51	@long jump
 975              	.LCB884:
 976              	.L103:
 234:main.c        ****             err_Write(1);
 977              		.loc 1 234 0
 978 028c FFF7FEFF 		bl	error_Write
 979              	.LVL121:
 235:main.c        **** #endif
 980              		.loc 1 235 0
 981 0290 0120     		mov	r0, #1
 982 0292 FFF7FEFF 		bl	err_Write
 983              	.LVL122:
 237:main.c        ****         }
 984              		.loc 1 237 0
 985 0296 0123     		mov	r3, #1
 986 0298 0193     		str	r3, [sp, #4]
 987 029a 28E7     		b	.L51
 988              	.LVL123:
 989              	.L54:
ARM GAS  C:\Users\g\AppData\Local\Temp\ccC3IUdD.s 			page 30


 254:main.c        **** 
 990              		.loc 1 254 0
 991 029c 4B46     		mov	r3, r9
 992 029e 1CB2     		sxth	r4, r3
 993 02a0 3619     		add	r6, r6, r4
 994              	.LVL124:
 995 02a2 4DE7     		b	.L55
 996              	.LVL125:
 997              	.L60:
 278:main.c        ****                 else {
 998              		.loc 1 278 0
 999 02a4 002C     		cmp	r4, #0
 1000 02a6 00DA     		bge	.LCB920
 1001 02a8 CCE0     		b	.L63	@long jump
 1002              	.LCB920:
 278:main.c        ****                 else {
 1003              		.loc 1 278 0 is_stmt 0 discriminator 1
 1004 02aa 0020     		mov	r0, #0
 1005 02ac FFF7FEFF 		bl	phase_Write
 1006              	.LVL126:
 1007 02b0 67E7     		b	.L62
 1008              	.L107:
 353:main.c        ****             if ((*eeprom_options) & OPTIONS_REPORT_COMMAND)
 1009              		.loc 1 353 0 is_stmt 1
 1010 02b2 4146     		mov	r1, r8
 1011 02b4 F531     		add	r1, r1, #245
 1012 02b6 FF31     		add	r1, r1, #255
 1013 02b8 09B2     		sxth	r1, r1
 1014 02ba 4348     		ldr	r0, .L109+76
 1015 02bc FFF7FEFF 		bl	fast_itoa
 1016              	.LVL127:
 354:main.c        ****                 fast_itoa(current_tx, output);
 1017              		.loc 1 354 0
 1018 02c0 7B88     		ldrh	r3, [r7, #2]
 1019 02c2 9B07     		lsl	r3, r3, #30
 1020 02c4 00D4     		bmi	.LCB944
 1021 02c6 B4E0     		b	.L82	@long jump
 1022              	.LCB944:
 355:main.c        ****             else
 1023              		.loc 1 355 0
 1024 02c8 21B2     		sxth	r1, r4
 1025 02ca 4048     		ldr	r0, .L109+80
 1026 02cc FFF7FEFF 		bl	fast_itoa
 1027              	.LVL128:
 1028 02d0 6FE7     		b	.L81
 1029              	.LVL129:
 1030              	.L80:
 329:main.c        ****                         EEPROM_Write((const uint8_t*)&command_value, &uart_data, 1);
 1031              		.loc 1 329 0
 1032 02d2 7B7B     		ldrb	r3, [r7, #13]
 1033 02d4 9842     		cmp	r0, r3
 1034 02d6 06D0     		beq	.L69
 330:main.c        ****                 break;
 1035              		.loc 1 330 0
 1036 02d8 391C     		mov	r1, r7
 1037 02da 06AB     		add	r3, sp, #24
 1038 02dc 0D31     		add	r1, r1, #13
ARM GAS  C:\Users\g\AppData\Local\Temp\ccC3IUdD.s 			page 31


 1039 02de 981D     		add	r0, r3, #6
 1040 02e0 0122     		mov	r2, #1
 1041 02e2 FFF7FEFF 		bl	EEPROM_Write
 1042              	.LVL130:
 1043              	.L69:
 347:main.c        ****         }
 1044              		.loc 1 347 0
 1045 02e6 0023     		mov	r3, #0
 1046 02e8 314A     		ldr	r2, .L109+52
 1047 02ea 1370     		strb	r3, [r2]
 1048 02ec 5DE7     		b	.L67
 1049              	.L72:
 342:main.c        ****                 break;
 1050              		.loc 1 342 0
 1051 02ee FFF7FEFF 		bl	Counter_1_ReadCounter
 1052              	.LVL131:
 1053 02f2 06AB     		add	r3, sp, #24
 1054 02f4 DB88     		ldrh	r3, [r3, #6]
 1055 02f6 C01A     		sub	r0, r0, r3
 1056 02f8 80B2     		uxth	r0, r0
 1057 02fa FFF7FEFF 		bl	Counter_1_WriteCounter
 1058              	.LVL132:
 343:main.c        ****                 default:
 1059              		.loc 1 343 0
 1060 02fe F2E7     		b	.L69
 1061              	.L70:
 339:main.c        ****                 break;
 1062              		.loc 1 339 0
 1063 0300 FFF7FEFF 		bl	Counter_1_ReadCounter
 1064              	.LVL133:
 1065 0304 06AB     		add	r3, sp, #24
 1066 0306 DB88     		ldrh	r3, [r3, #6]
 1067 0308 C018     		add	r0, r0, r3
 1068 030a 80B2     		uxth	r0, r0
 1069 030c FFF7FEFF 		bl	Counter_1_WriteCounter
 1070              	.LVL134:
 340:main.c        ****                 case '-':
 1071              		.loc 1 340 0
 1072 0310 E9E7     		b	.L69
 1073              	.L76:
 305:main.c        ****                         EEPROM_Write((const uint8_t*)&command_value, (const uint8_t*)&ki, 2);
 1074              		.loc 1 305 0
 1075 0312 3B89     		ldrh	r3, [r7, #8]
 1076 0314 9842     		cmp	r0, r3
 1077 0316 E6D0     		beq	.L69
 306:main.c        ****                 break;
 1078              		.loc 1 306 0
 1079 0318 391C     		mov	r1, r7
 1080 031a 06AB     		add	r3, sp, #24
 1081 031c 0831     		add	r1, r1, #8
 1082 031e 981D     		add	r0, r3, #6
 1083 0320 0222     		mov	r2, #2
 1084 0322 FFF7FEFF 		bl	EEPROM_Write
 1085              	.LVL135:
 1086 0326 DEE7     		b	.L69
 1087              	.L75:
 324:main.c        ****                         EEPROM_Write((const uint8_t*)&command_value, (const uint8_t*)&ferror, 2);
ARM GAS  C:\Users\g\AppData\Local\Temp\ccC3IUdD.s 			page 32


 1088              		.loc 1 324 0
 1089 0328 3B88     		ldrh	r3, [r7]
 1090 032a 9842     		cmp	r0, r3
 1091 032c DBD0     		beq	.L69
 325:main.c        ****                 break;
 1092              		.loc 1 325 0
 1093 032e 06AB     		add	r3, sp, #24
 1094 0330 981D     		add	r0, r3, #6
 1095 0332 391C     		mov	r1, r7
 1096 0334 0222     		mov	r2, #2
 1097 0336 FFF7FEFF 		bl	EEPROM_Write
 1098              	.LVL136:
 1099 033a D4E7     		b	.L69
 1100              	.L74:
 309:main.c        ****                         EEPROM_Write((const uint8_t*)&command_value, (const uint8_t*)&kd, 2);
 1101              		.loc 1 309 0
 1102 033c 7B89     		ldrh	r3, [r7, #10]
 1103 033e 9842     		cmp	r0, r3
 1104 0340 D1D0     		beq	.L69
 310:main.c        ****                 break;
 1105              		.loc 1 310 0
 1106 0342 391C     		mov	r1, r7
 1107 0344 06AB     		add	r3, sp, #24
 1108 0346 0A31     		add	r1, r1, #10
 1109 0348 981D     		add	r0, r3, #6
 1110 034a 0222     		mov	r2, #2
 1111 034c FFF7FEFF 		bl	EEPROM_Write
 1112              	.LVL137:
 1113 0350 C9E7     		b	.L69
 1114              	.L73:
 314:main.c        ****                         EEPROM_Write((const uint8_t*)&command_value, &current_setting, 1);
 1115              		.loc 1 314 0
 1116 0352 3B79     		ldrb	r3, [r7, #4]
 1117 0354 9842     		cmp	r0, r3
 1118 0356 C6D0     		beq	.L69
 315:main.c        ****                 break;
 1119              		.loc 1 315 0
 1120 0358 06AB     		add	r3, sp, #24
 1121 035a 391D     		add	r1, r7, #4
 1122 035c 981D     		add	r0, r3, #6
 1123 035e 0122     		mov	r2, #1
 1124 0360 FFF7FEFF 		bl	EEPROM_Write
 1125              	.LVL138:
 1126 0364 BFE7     		b	.L69
 1127              	.L78:
 301:main.c        ****                         EEPROM_Write((const uint8_t*)&command_value, (const uint8_t*)&kp, 2);
 1128              		.loc 1 301 0
 1129 0366 FB88     		ldrh	r3, [r7, #6]
 1130 0368 9842     		cmp	r0, r3
 1131 036a BCD0     		beq	.L69
 302:main.c        ****                 break;
 1132              		.loc 1 302 0
 1133 036c 06AB     		add	r3, sp, #24
 1134 036e B91D     		add	r1, r7, #6
 1135 0370 981D     		add	r0, r3, #6
 1136 0372 0222     		mov	r2, #2
 1137 0374 FFF7FEFF 		bl	EEPROM_Write
ARM GAS  C:\Users\g\AppData\Local\Temp\ccC3IUdD.s 			page 33


 1138              	.LVL139:
 1139 0378 B5E7     		b	.L69
 1140              	.L110:
 1141 037a C046     		.align	2
 1142              	.L109:
 1143 037c 00000000 		.word	uartReceiveTransmit
 1144 0380 880F0740 		.word	1074204552
 1145 0384 00000000 		.word	transmitUpdate
 1146 0388 00000000 		.word	pwmCycle
 1147 038c 00000000 		.word	loop_proceed
 1148 0390 44010000 		.word	.LANCHOR0
 1149 0394 00000000 		.word	timeout_counter
 1150 0398 CF070000 		.word	1999
 1151 039c FE0F0000 		.word	4094
 1152 03a0 00000000 		.word	.LC25
 1153 03a4 00F0D8FF 		.word	-2560000
 1154 03a8 00102700 		.word	2560000
 1155 03ac FF0F0000 		.word	4095
 1156 03b0 00000000 		.word	command_ready
 1157 03b4 00000000 		.word	.LANCHOR1
 1158 03b8 00000000 		.word	transmit_ready
 1159 03bc 00000000 		.word	transmit_index
 1160 03c0 00000000 		.word	command_parser
 1161 03c4 00000000 		.word	.L71
 1162 03c8 00000000 		.word	error_tx
 1163 03cc 00000000 		.word	current_tx
 1164              	.L77:
 334:main.c        ****                         EEPROM_Write((const uint8_t*)&command_value, (const uint8_t*)&options, 2);
 1165              		.loc 1 334 0
 1166 03d0 7B88     		ldrh	r3, [r7, #2]
 1167 03d2 9842     		cmp	r0, r3
 1168 03d4 00D1     		bne	.LCB1104
 1169 03d6 86E7     		b	.L69	@long jump
 1170              	.LCB1104:
 335:main.c        ****                     break;  
 1171              		.loc 1 335 0
 1172 03d8 06AB     		add	r3, sp, #24
 1173 03da B91C     		add	r1, r7, #2
 1174 03dc 981D     		add	r0, r3, #6
 1175 03de 0222     		mov	r2, #2
 1176 03e0 FFF7FEFF 		bl	EEPROM_Write
 1177              	.LVL140:
 1178 03e4 7FE7     		b	.L69
 1179              	.L79:
 319:main.c        ****                         EEPROM_Write((const uint8_t*)&command_value, &invert_motor, 1);
 1180              		.loc 1 319 0
 1181 03e6 3B7B     		ldrb	r3, [r7, #12]
 1182 03e8 9842     		cmp	r0, r3
 1183 03ea 00D1     		bne	.LCB1119
 1184 03ec 7BE7     		b	.L69	@long jump
 1185              	.LCB1119:
 320:main.c        ****                 break;
 1186              		.loc 1 320 0
 1187 03ee 391C     		mov	r1, r7
 1188 03f0 06AB     		add	r3, sp, #24
 1189 03f2 0C31     		add	r1, r1, #12
 1190 03f4 981D     		add	r0, r3, #6
ARM GAS  C:\Users\g\AppData\Local\Temp\ccC3IUdD.s 			page 34


 1191 03f6 0122     		mov	r2, #1
 1192 03f8 FFF7FEFF 		bl	EEPROM_Write
 1193              	.LVL141:
 1194 03fc 73E7     		b	.L69
 1195              	.LVL142:
 1196              	.L105:
 287:main.c        ****             if(motor_shutdown) PWM_MOT_WriteCompare(1);
 1197              		.loc 1 287 0
 1198 03fe 0124     		mov	r4, #1
 1199              	.LVL143:
 1200 0400 C9E6     		b	.L65
 1201              	.LVL144:
 1202              	.L45:
 1203              	.LBB46:
 200:main.c        ****                     error_at_timeout=error;
 1204              		.loc 1 200 0
 1205 0402 7B88     		ldrh	r3, [r7, #2]
 1206 0404 DB07     		lsl	r3, r3, #31
 1207 0406 05D5     		bpl	.L47
 200:main.c        ****                     error_at_timeout=error;
 1208              		.loc 1 200 0 is_stmt 0 discriminator 1
 1209 0408 059B     		ldr	r3, [sp, #20]
 1210 040a 002B     		cmp	r3, #0
 1211 040c 02D1     		bne	.L47
 203:main.c        ****                 }
 1212              		.loc 1 203 0 is_stmt 1
 1213 040e 0123     		mov	r3, #1
 1214 0410 0293     		str	r3, [sp, #8]
 1215              	.LVL145:
 1216 0412 53E6     		b	.L46
 1217              	.LVL146:
 1218              	.L47:
 205:main.c        ****             if (pulse_detected || ((error_at_timeout - error) < -3) || ((error_at_timeout - error) 
 1219              		.loc 1 205 0
 1220 0414 FFF7FEFF 		bl	step_register_Read
 1221              	.LVL147:
 206:main.c        ****                 timeout_counter = 0;
 1222              		.loc 1 206 0
 1223 0418 0028     		cmp	r0, #0
 1224 041a 00D0     		beq	.LCB1177
 1225 041c 55E6     		b	.L48	@long jump
 1226              	.LCB1177:
 206:main.c        ****                 timeout_counter = 0;
 1227              		.loc 1 206 0 is_stmt 0 discriminator 1
 1228 041e 6B46     		mov	r3, sp
 1229 0420 1022     		mov	r2, #16
 1230 0422 9B5E     		ldrsh	r3, [r3, r2]
 1231 0424 4246     		mov	r2, r8
 1232 0426 9B1A     		sub	r3, r3, r2
 1233 0428 0333     		add	r3, r3, #3
 1234 042a 062B     		cmp	r3, #6
 1235 042c 00D8     		bhi	.LCB1184
 1236 042e 4FE6     		b	.L44	@long jump
 1237              	.LCB1184:
 1238 0430 4BE6     		b	.L48
 1239              	.LVL148:
 1240              	.L82:
ARM GAS  C:\Users\g\AppData\Local\Temp\ccC3IUdD.s 			page 35


 1241              	.LBE46:
 357:main.c        ****         }
 1242              		.loc 1 357 0 is_stmt 1
 1243 0432 5346     		mov	r3, r10
 1244 0434 9900     		lsl	r1, r3, #2
 1245 0436 5144     		add	r1, r1, r10
 1246 0438 4900     		lsl	r1, r1, #1
 1247 043a 09B2     		sxth	r1, r1
 1248 043c 0548     		ldr	r0, .L111
 1249 043e FFF7FEFF 		bl	fast_itoa
 1250              	.LVL149:
 1251 0442 B6E6     		b	.L81
 1252              	.LVL150:
 1253              	.L63:
 280:main.c        ****                     phase_Write(1);
 1254              		.loc 1 280 0
 1255 0444 6442     		neg	r4, r4
 1256              	.LVL151:
 1257 0446 99E6     		b	.L99
 1258              	.LVL152:
 1259              	.L104:
 274:main.c        ****                 }
 1260              		.loc 1 274 0
 1261 0448 0020     		mov	r0, #0
 273:main.c        ****                     phase_Write(0);
 1262              		.loc 1 273 0
 1263 044a 6442     		neg	r4, r4
 1264              	.LVL153:
 274:main.c        ****                 }
 1265              		.loc 1 274 0
 1266 044c FFF7FEFF 		bl	phase_Write
 1267              	.LVL154:
 1268 0450 97E6     		b	.L62
 1269              	.L112:
 1270 0452 C046     		.align	2
 1271              	.L111:
 1272 0454 00000000 		.word	current_tx
 1273              		.cfi_endproc
 1274              	.LFE36:
 1275              		.size	main, .-main
 1276              		.section	.text.transmitting,"ax",%progbits
 1277              		.align	2
 1278              		.global	transmitting
 1279              		.code	16
 1280              		.thumb_func
 1281              		.type	transmitting, %function
 1282              	transmitting:
 1283              	.LFB37:
 374:main.c        ****     return (transmit_state != 0);
 1284              		.loc 1 374 0
 1285              		.cfi_startproc
 375:main.c        **** }
 1286              		.loc 1 375 0
 1287 0000 024B     		ldr	r3, .L114
 376:main.c        **** void transmit_data()
 1288              		.loc 1 376 0
 1289              		@ sp needed
ARM GAS  C:\Users\g\AppData\Local\Temp\ccC3IUdD.s 			page 36


 375:main.c        **** }
 1290              		.loc 1 375 0
 1291 0002 1878     		ldrb	r0, [r3]
 1292 0004 431E     		sub	r3, r0, #1
 1293 0006 9841     		sbc	r0, r0, r3
 376:main.c        **** void transmit_data()
 1294              		.loc 1 376 0
 1295 0008 7047     		bx	lr
 1296              	.L115:
 1297 000a C046     		.align	2
 1298              	.L114:
 1299 000c 00000000 		.word	.LANCHOR1
 1300              		.cfi_endproc
 1301              	.LFE37:
 1302              		.size	transmitting, .-transmitting
 1303              		.section	.text.transmit_data,"ax",%progbits
 1304              		.align	2
 1305              		.global	transmit_data
 1306              		.code	16
 1307              		.thumb_func
 1308              		.type	transmit_data, %function
 1309              	transmit_data:
 1310              	.LFB38:
 378:main.c        ****     if (!transmitting())
 1311              		.loc 1 378 0
 1312              		.cfi_startproc
 1313              	.LBB53:
 1314              	.LBB54:
 375:main.c        **** }
 1315              		.loc 1 375 0
 1316 0000 064A     		ldr	r2, .L118
 1317 0002 1378     		ldrb	r3, [r2]
 1318 0004 DBB2     		uxtb	r3, r3
 1319              	.LBE54:
 1320              	.LBE53:
 379:main.c        ****     {
 1321              		.loc 1 379 0
 1322 0006 002B     		cmp	r3, #0
 1323 0008 06D1     		bne	.L116
 1324              	.LBB55:
 381:main.c        ****         transmit_index = 0;
 1325              		.loc 1 381 0
 1326 000a 0121     		mov	r1, #1
 1327 000c 1170     		strb	r1, [r2]
 382:main.c        ****         UART_SetTxInterruptMode(UART_INTR_TX_NOT_FULL);
 1328              		.loc 1 382 0
 1329 000e 044A     		ldr	r2, .L118+4
 1330 0010 1360     		str	r3, [r2]
 383:main.c        ****     }
 1331              		.loc 1 383 0
 1332 0012 0222     		mov	r2, #2
 1333 0014 034B     		ldr	r3, .L118+8
 1334 0016 1A60     		str	r2, [r3]
 1335              	.L116:
 1336              	.LBE55:
 385:main.c        **** 
 1337              		.loc 1 385 0
ARM GAS  C:\Users\g\AppData\Local\Temp\ccC3IUdD.s 			page 37


 1338              		@ sp needed
 1339 0018 7047     		bx	lr
 1340              	.L119:
 1341 001a C046     		.align	2
 1342              	.L118:
 1343 001c 00000000 		.word	.LANCHOR1
 1344 0020 00000000 		.word	transmit_index
 1345 0024 880F0740 		.word	1074204552
 1346              		.cfi_endproc
 1347              	.LFE38:
 1348              		.size	transmit_data, .-transmit_data
 1349              		.section	.text.transmit_engine,"ax",%progbits
 1350              		.align	2
 1351              		.global	transmit_engine
 1352              		.code	16
 1353              		.thumb_func
 1354              		.type	transmit_engine, %function
 1355              	transmit_engine:
 1356              	.LFB39:
 390:main.c        ****     char c;
 1357              		.loc 1 390 0
 1358              		.cfi_startproc
 1359 0000 10B5     		push	{r4, lr}
 1360              		.cfi_def_cfa_offset 8
 1361              		.cfi_offset 4, -8
 1362              		.cfi_offset 14, -4
 392:main.c        ****     {
 1363              		.loc 1 392 0
 1364 0002 1E4A     		ldr	r2, .L132
 1365 0004 1378     		ldrb	r3, [r2]
 1366 0006 DBB2     		uxtb	r3, r3
 1367 0008 052B     		cmp	r3, #5
 1368 000a 10D8     		bhi	.L120
 1369 000c 1C49     		ldr	r1, .L132+4
 1370 000e 9B00     		lsl	r3, r3, #2
 1371 0010 CB58     		ldr	r3, [r1, r3]
 1372 0012 9F46     		mov	pc, r3
 1373              		.section	.rodata
 1374              		.align	2
 1375              	.L123:
 1376 012c 2E000000 		.word	.L120
 1377 0130 56000000 		.word	.L122
 1378 0134 14000000 		.word	.L124
 1379 0138 66000000 		.word	.L125
 1380 013c 30000000 		.word	.L126
 1381 0140 46000000 		.word	.L127
 1382              		.section	.text.transmit_engine
 1383              	.L124:
 402:main.c        ****         {
 1384              		.loc 1 402 0
 1385 0014 1B4C     		ldr	r4, .L132+8
 1386 0016 2368     		ldr	r3, [r4]
 1387 0018 052B     		cmp	r3, #5
 1388 001a 0DD8     		bhi	.L129
 404:main.c        ****             UART_UartPutChar(c);
 1389              		.loc 1 404 0
 1390 001c 2368     		ldr	r3, [r4]
ARM GAS  C:\Users\g\AppData\Local\Temp\ccC3IUdD.s 			page 38


 1391 001e 1A4A     		ldr	r2, .L132+12
 1392              	.L130:
 422:main.c        ****             UART_UartPutChar(c);
 1393              		.loc 1 422 0
 1394 0020 D05C     		ldrb	r0, [r2, r3]
 1395 0022 C0B2     		uxtb	r0, r0
 1396              	.LVL155:
 423:main.c        ****             transmit_index++;
 1397              		.loc 1 423 0
 1398 0024 FFF7FEFF 		bl	UART_SpiUartWriteTxData
 1399              	.LVL156:
 424:main.c        ****         }
 1400              		.loc 1 424 0
 1401 0028 2368     		ldr	r3, [r4]
 1402 002a 0133     		add	r3, r3, #1
 1403 002c 2360     		str	r3, [r4]
 1404              	.L120:
 438:main.c        **** 
 1405              		.loc 1 438 0
 1406              		@ sp needed
 1407 002e 10BD     		pop	{r4, pc}
 1408              	.L126:
 420:main.c        ****         {
 1409              		.loc 1 420 0
 1410 0030 144C     		ldr	r4, .L132+8
 1411 0032 2368     		ldr	r3, [r4]
 1412 0034 052B     		cmp	r3, #5
 1413 0036 1ED9     		bls	.L131
 1414              	.L129:
 428:main.c        ****             transmit_state++;
 1415              		.loc 1 428 0
 1416 0038 0023     		mov	r3, #0
 1417 003a 2360     		str	r3, [r4]
 429:main.c        ****         }
 1418              		.loc 1 429 0
 1419 003c 1378     		ldrb	r3, [r2]
 1420 003e 0133     		add	r3, r3, #1
 1421 0040 DBB2     		uxtb	r3, r3
 1422 0042 1370     		strb	r3, [r2]
 1423 0044 F3E7     		b	.L120
 1424              	.L127:
 433:main.c        ****         UART_UartPutChar(';');
 1425              		.loc 1 433 0
 1426 0046 0024     		mov	r4, #0
 434:main.c        ****         UART_SetTxInterruptMode(0);
 1427              		.loc 1 434 0
 1428 0048 3B20     		mov	r0, #59
 433:main.c        ****         UART_UartPutChar(';');
 1429              		.loc 1 433 0
 1430 004a 1470     		strb	r4, [r2]
 434:main.c        ****         UART_SetTxInterruptMode(0);
 1431              		.loc 1 434 0
 1432 004c FFF7FEFF 		bl	UART_SpiUartWriteTxData
 1433              	.LVL157:
 435:main.c        ****         break;      
 1434              		.loc 1 435 0
 1435 0050 0E4B     		ldr	r3, .L132+16
ARM GAS  C:\Users\g\AppData\Local\Temp\ccC3IUdD.s 			page 39


 1436 0052 1C60     		str	r4, [r3]
 436:main.c        ****     }
 1437              		.loc 1 436 0
 1438 0054 EBE7     		b	.L120
 1439              	.L122:
 397:main.c        ****         UART_UartPutChar('$');
 1440              		.loc 1 397 0
 1441 0056 1378     		ldrb	r3, [r2]
 398:main.c        ****         break;
 1442              		.loc 1 398 0
 1443 0058 2420     		mov	r0, #36
 397:main.c        ****         UART_UartPutChar('$');
 1444              		.loc 1 397 0
 1445 005a 0133     		add	r3, r3, #1
 1446 005c DBB2     		uxtb	r3, r3
 1447 005e 1370     		strb	r3, [r2]
 398:main.c        ****         break;
 1448              		.loc 1 398 0
 1449 0060 FFF7FEFF 		bl	UART_SpiUartWriteTxData
 1450              	.LVL158:
 399:main.c        ****     case 2:
 1451              		.loc 1 399 0
 1452 0064 E3E7     		b	.L120
 1453              	.L125:
 415:main.c        ****         UART_UartPutChar(' ');
 1454              		.loc 1 415 0
 1455 0066 1378     		ldrb	r3, [r2]
 416:main.c        ****         break;
 1456              		.loc 1 416 0
 1457 0068 2020     		mov	r0, #32
 415:main.c        ****         UART_UartPutChar(' ');
 1458              		.loc 1 415 0
 1459 006a 0133     		add	r3, r3, #1
 1460 006c DBB2     		uxtb	r3, r3
 1461 006e 1370     		strb	r3, [r2]
 416:main.c        ****         break;
 1462              		.loc 1 416 0
 1463 0070 FFF7FEFF 		bl	UART_SpiUartWriteTxData
 1464              	.LVL159:
 417:main.c        ****     case 4:
 1465              		.loc 1 417 0
 1466 0074 DBE7     		b	.L120
 1467              	.L131:
 422:main.c        ****             UART_UartPutChar(c);
 1468              		.loc 1 422 0
 1469 0076 2368     		ldr	r3, [r4]
 1470 0078 054A     		ldr	r2, .L132+20
 1471 007a D1E7     		b	.L130
 1472              	.L133:
 1473              		.align	2
 1474              	.L132:
 1475 007c 00000000 		.word	.LANCHOR1
 1476 0080 2C010000 		.word	.L123
 1477 0084 00000000 		.word	transmit_index
 1478 0088 00000000 		.word	error_tx
 1479 008c 880F0740 		.word	1074204552
 1480 0090 00000000 		.word	current_tx
ARM GAS  C:\Users\g\AppData\Local\Temp\ccC3IUdD.s 			page 40


 1481              		.cfi_endproc
 1482              	.LFE39:
 1483              		.size	transmit_engine, .-transmit_engine
 1484              		.section	.text.uartReceiveTransmit,"ax",%progbits
 1485              		.align	2
 1486              		.global	uartReceiveTransmit
 1487              		.code	16
 1488              		.thumb_func
 1489              		.type	uartReceiveTransmit, %function
 1490              	uartReceiveTransmit:
 1491              	.LFB40:
 442:main.c        ****     if (UART_GetInterruptCause() == UART_INTR_CAUSE_RX)
 1492              		.loc 1 442 0
 1493              		.cfi_startproc
 443:main.c        ****     {
 1494              		.loc 1 443 0
 1495 0000 244B     		ldr	r3, .L157
 442:main.c        ****     if (UART_GetInterruptCause() == UART_INTR_CAUSE_RX)
 1496              		.loc 1 442 0
 1497 0002 70B5     		push	{r4, r5, r6, lr}
 1498              		.cfi_def_cfa_offset 16
 1499              		.cfi_offset 4, -16
 1500              		.cfi_offset 5, -12
 1501              		.cfi_offset 6, -8
 1502              		.cfi_offset 14, -4
 443:main.c        ****     {
 1503              		.loc 1 443 0
 1504 0004 1A68     		ldr	r2, [r3]
 1505 0006 082A     		cmp	r2, #8
 1506 0008 0AD0     		beq	.L152
 490:main.c        ****     {
 1507              		.loc 1 490 0
 1508 000a 1B68     		ldr	r3, [r3]
 1509 000c 042B     		cmp	r3, #4
 1510 000e 00D0     		beq	.L153
 1511              	.L134:
 500:main.c        **** 
 1512              		.loc 1 500 0
 1513              		@ sp needed
 1514 0010 70BD     		pop	{r4, r5, r6, pc}
 1515              	.L153:
 1516              	.LBB62:
 492:main.c        ****         if( source & UART_INTR_TX_NOT_FULL)
 1517              		.loc 1 492 0
 1518 0012 214B     		ldr	r3, .L157+4
 1519 0014 1C68     		ldr	r4, [r3]
 1520              	.LVL160:
 493:main.c        ****         {
 1521              		.loc 1 493 0
 1522 0016 A307     		lsl	r3, r4, #30
 1523 0018 2AD4     		bmi	.L154
 1524              	.L144:
 498:main.c        ****     }
 1525              		.loc 1 498 0
 1526 001a 1F4B     		ldr	r3, .L157+4
 1527 001c 1C60     		str	r4, [r3]
 1528 001e F7E7     		b	.L134
ARM GAS  C:\Users\g\AppData\Local\Temp\ccC3IUdD.s 			page 41


 1529              	.LVL161:
 1530              	.L152:
 1531              	.LBE62:
 1532              	.LBB63:
 1533              	.LBB64:
 445:main.c        ****         if (source & UART_INTR_RX_NOT_EMPTY)
 1534              		.loc 1 445 0
 1535 0020 1E4B     		ldr	r3, .L157+8
 1536 0022 1C68     		ldr	r4, [r3]
 1537              	.LVL162:
 446:main.c        ****         {
 1538              		.loc 1 446 0
 1539 0024 6307     		lsl	r3, r4, #29
 1540 0026 07D4     		bmi	.L155
 483:main.c        ****             {
 1541              		.loc 1 483 0
 1542 0028 A306     		lsl	r3, r4, #26
 1543 002a 02D5     		bpl	.L140
 1544              	.L151:
 485:main.c        ****             }
 1545              		.loc 1 485 0
 1546 002c 0122     		mov	r2, #1
 1547 002e 1C4B     		ldr	r3, .L157+12
 1548 0030 5A70     		strb	r2, [r3, #1]
 1549              	.L140:
 488:main.c        ****     }
 1550              		.loc 1 488 0
 1551 0032 1A4B     		ldr	r3, .L157+8
 1552 0034 1C60     		str	r4, [r3]
 1553 0036 EBE7     		b	.L134
 1554              	.L155:
 448:main.c        ****             {
 1555              		.loc 1 448 0
 1556 0038 1A4E     		ldr	r6, .L157+16
 1557 003a 3578     		ldrb	r5, [r6]
 1558 003c EDB2     		uxtb	r5, r5
 1559 003e 002D     		cmp	r5, #0
 1560 0040 F4D1     		bne	.L151
 1561              	.LBB65:
 450:main.c        ****                 if (command_overrun == 0)
 1562              		.loc 1 450 0
 1563 0042 FFF7FEFF 		bl	UART_UartGetChar
 1564              	.LVL163:
 451:main.c        ****                 {
 1565              		.loc 1 451 0
 1566 0046 164A     		ldr	r2, .L157+12
 450:main.c        ****                 if (command_overrun == 0)
 1567              		.loc 1 450 0
 1568 0048 C0B2     		uxtb	r0, r0
 1569              	.LVL164:
 451:main.c        ****                 {
 1570              		.loc 1 451 0
 1571 004a 5378     		ldrb	r3, [r2, #1]
 1572 004c DBB2     		uxtb	r3, r3
 1573 004e 002B     		cmp	r3, #0
 1574 0050 11D1     		bne	.L138
 453:main.c        ****                     {
ARM GAS  C:\Users\g\AppData\Local\Temp\ccC3IUdD.s 			page 42


 1575              		.loc 1 453 0
 1576 0052 3B28     		cmp	r0, #59
 1577 0054 15D0     		beq	.L156
 459:main.c        ****                     {
 1578              		.loc 1 459 0
 1579 0056 144B     		ldr	r3, .L157+20
 1580 0058 1A78     		ldrb	r2, [r3]
 1581 005a 0E2A     		cmp	r2, #14
 1582 005c E9D8     		bhi	.L140
 461:main.c        ****                         command_index++;
 1583              		.loc 1 461 0
 1584 005e 1A78     		ldrb	r2, [r3]
 1585 0060 1249     		ldr	r1, .L157+24
 1586 0062 D2B2     		uxtb	r2, r2
 1587 0064 8854     		strb	r0, [r1, r2]
 462:main.c        ****                     }
 1588              		.loc 1 462 0
 1589 0066 1A78     		ldrb	r2, [r3]
 1590 0068 0132     		add	r2, r2, #1
 1591 006a D2B2     		uxtb	r2, r2
 1592 006c 1A70     		strb	r2, [r3]
 1593 006e E0E7     		b	.L140
 1594              	.LVL165:
 1595              	.L154:
 1596              	.LBE65:
 1597              	.LBE64:
 1598              	.LBE63:
 1599              	.LBB68:
 495:main.c        ****             
 1600              		.loc 1 495 0
 1601 0070 FFF7FEFF 		bl	transmit_engine
 1602              	.LVL166:
 1603 0074 D1E7     		b	.L144
 1604              	.LVL167:
 1605              	.L138:
 1606              	.LBE68:
 1607              	.LBB69:
 1608              	.LBB67:
 1609              	.LBB66:
 468:main.c        ****                     {
 1610              		.loc 1 468 0
 1611 0076 3B28     		cmp	r0, #59
 1612 0078 DBD1     		bne	.L140
 471:main.c        ****                     }
 1613              		.loc 1 471 0
 1614 007a 0B4B     		ldr	r3, .L157+20
 470:main.c        ****                         command_index=0;
 1615              		.loc 1 470 0
 1616 007c 5570     		strb	r5, [r2, #1]
 471:main.c        ****                     }
 1617              		.loc 1 471 0
 1618 007e 1D70     		strb	r5, [r3]
 1619 0080 D7E7     		b	.L140
 1620              	.L156:
 455:main.c        ****                         command_index=0;
 1621              		.loc 1 455 0
 1622 0082 0949     		ldr	r1, .L157+20
ARM GAS  C:\Users\g\AppData\Local\Temp\ccC3IUdD.s 			page 43


 1623 0084 094D     		ldr	r5, .L157+24
 1624 0086 0A78     		ldrb	r2, [r1]
 1625 0088 D2B2     		uxtb	r2, r2
 1626 008a A854     		strb	r0, [r5, r2]
 456:main.c        ****                         command_ready=1;
 1627              		.loc 1 456 0
 1628 008c 0B70     		strb	r3, [r1]
 457:main.c        ****                     }
 1629              		.loc 1 457 0
 1630 008e 0133     		add	r3, r3, #1
 1631 0090 3370     		strb	r3, [r6]
 1632 0092 CEE7     		b	.L140
 1633              	.L158:
 1634              		.align	2
 1635              	.L157:
 1636 0094 000E0740 		.word	1074204160
 1637 0098 800F0740 		.word	1074204544
 1638 009c C00F0740 		.word	1074204608
 1639 00a0 00000000 		.word	.LANCHOR1
 1640 00a4 00000000 		.word	command_ready
 1641 00a8 00000000 		.word	command_index
 1642 00ac 00000000 		.word	command_parser
 1643              	.LBE66:
 1644              	.LBE67:
 1645              	.LBE69:
 1646              		.cfi_endproc
 1647              	.LFE40:
 1648              		.size	uartReceiveTransmit, .-uartReceiveTransmit
 1649              		.global	command_overrun
 1650              		.comm	transmit_index,4,4
 1651              		.global	transmit_state
 1652              		.comm	error_tx,7,4
 1653              		.comm	current_tx,7,4
 1654              		.comm	command_parser,16,4
 1655              		.comm	loop_proceed,1,1
 1656              		.comm	transmit_ready,1,1
 1657              		.comm	command_index,1,1
 1658              		.comm	command_ready,1,1
 1659              		.comm	timeout_counter,2,2
 1660              		.section	.rodata
 1661              		.align	1
 1662              		.set	.LANCHOR0,. + 0
 1663              		.type	ferror.6339, %object
 1664              		.size	ferror.6339, 2
 1665              	ferror.6339:
 1666 0144 FF00     		.short	255
 1667              		.type	options.6340, %object
 1668              		.size	options.6340, 2
 1669              	options.6340:
 1670 0146 0100     		.short	1
 1671              		.type	current_setting.6341, %object
 1672              		.size	current_setting.6341, 1
 1673              	current_setting.6341:
 1674 0148 FF       		.byte	-1
 1675 0149 00       		.space	1
 1676              		.type	kp.6336, %object
 1677              		.size	kp.6336, 2
ARM GAS  C:\Users\g\AppData\Local\Temp\ccC3IUdD.s 			page 44


 1678              	kp.6336:
 1679 014a C409     		.short	2500
 1680              		.type	ki.6337, %object
 1681              		.size	ki.6337, 2
 1682              	ki.6337:
 1683 014c 0000     		.space	2
 1684              		.type	kd.6338, %object
 1685              		.size	kd.6338, 2
 1686              	kd.6338:
 1687 014e 0000     		.space	2
 1688              		.type	invert_motor.6342, %object
 1689              		.size	invert_motor.6342, 1
 1690              	invert_motor.6342:
 1691 0150 00       		.space	1
 1692              		.type	uart_data.6343, %object
 1693              		.size	uart_data.6343, 1
 1694              	uart_data.6343:
 1695 0151 01       		.byte	1
 1696 0152 0000     		.bss
 1697              		.set	.LANCHOR1,. + 0
 1698              		.type	transmit_state, %object
 1699              		.size	transmit_state, 1
 1700              	transmit_state:
 1701 0000 00       		.space	1
 1702              		.type	command_overrun, %object
 1703              		.size	command_overrun, 1
 1704              	command_overrun:
 1705 0001 00       		.space	1
 1706              		.text
 1707              	.Letext0:
 1708              		.file 2 "c:\\program files (x86)\\cypress\\psoc creator\\4.0\\psoc creator\\import\\gnu\\arm\\4.9.
 1709              		.file 3 "c:\\program files (x86)\\cypress\\psoc creator\\4.0\\psoc creator\\import\\gnu\\arm\\4.9.
 1710              		.file 4 "Generated_Source\\PSoC4/cytypes.h"
 1711              		.file 5 "c:\\program files (x86)\\cypress\\psoc creator\\4.0\\psoc creator\\import\\gnu\\arm\\4.9.
 1712              		.file 6 "Generated_Source\\PSoC4/txISR.h"
 1713              		.file 7 "Generated_Source\\PSoC4/PWM_MOT.h"
 1714              		.file 8 "Generated_Source\\PSoC4/step_register.h"
 1715              		.file 9 "Generated_Source\\PSoC4/reset.h"
 1716              		.file 10 "Generated_Source\\PSoC4/Bootloadable_1.h"
 1717              		.file 11 "Generated_Source\\PSoC4/error.h"
 1718              		.file 12 "Generated_Source\\PSoC4/Counter_1.h"
 1719              		.file 13 "Generated_Source\\PSoC4/UART.h"
 1720              		.file 14 "Generated_Source\\PSoC4/ADC.h"
 1721              		.file 15 "Generated_Source\\PSoC4/TX_SEND.h"
 1722              		.file 16 "Generated_Source\\PSoC4/EEPROM.h"
 1723              		.file 17 "Generated_Source\\PSoC4/sleep.h"
 1724              		.file 18 "Generated_Source\\PSoC4/rxISR.h"
 1725              		.file 19 "Generated_Source\\PSoC4/pwmISR.h"
 1726              		.file 20 "Generated_Source\\PSoC4/CyLib.h"
 1727              		.file 21 "Generated_Source\\PSoC4/vin.h"
 1728              		.file 22 "Generated_Source\\PSoC4/fault.h"
 1729              		.file 23 "Generated_Source\\PSoC4/ovc.h"
 1730              		.file 24 "Generated_Source\\PSoC4/phase.h"
 1731              		.file 25 "c:\\program files (x86)\\cypress\\psoc creator\\4.0\\psoc creator\\import\\gnu\\arm\\4.9
 1732              		.file 26 "Generated_Source\\PSoC4/err.h"
 1733              		.file 27 "Generated_Source\\PSoC4/UART_SPI_UART.h"