ARM GAS  C:\Users\g\AppData\Local\Temp\ccC7fujn.s 			page 1


   1              		.cpu cortex-m0
   2              		.fpu softvfp
   3              		.eabi_attribute 20, 1
   4              		.eabi_attribute 21, 1
   5              		.eabi_attribute 23, 3
   6              		.eabi_attribute 24, 1
   7              		.eabi_attribute 25, 1
   8              		.eabi_attribute 26, 1
   9              		.eabi_attribute 30, 2
  10              		.eabi_attribute 34, 0
  11              		.eabi_attribute 18, 4
  12              		.code	16
  13              		.file	"PWM_MOT.c"
  14              		.text
  15              	.Ltext0:
  16              		.cfi_sections	.debug_frame
  17              		.section	.text.PWM_MOT_Init,"ax",%progbits
  18              		.align	2
  19              		.global	PWM_MOT_Init
  20              		.code	16
  21              		.thumb_func
  22              		.type	PWM_MOT_Init, %function
  23              	PWM_MOT_Init:
  24              	.LFB0:
  25              		.file 1 "Generated_Source\\PSoC4\\PWM_MOT.c"
   1:Generated_Source\PSoC4/PWM_MOT.c **** /*******************************************************************************
   2:Generated_Source\PSoC4/PWM_MOT.c **** * File Name: PWM_MOT.c
   3:Generated_Source\PSoC4/PWM_MOT.c **** * Version 2.10
   4:Generated_Source\PSoC4/PWM_MOT.c **** *
   5:Generated_Source\PSoC4/PWM_MOT.c **** * Description:
   6:Generated_Source\PSoC4/PWM_MOT.c **** *  This file provides the source code to the API for the PWM_MOT
   7:Generated_Source\PSoC4/PWM_MOT.c **** *  component
   8:Generated_Source\PSoC4/PWM_MOT.c **** *
   9:Generated_Source\PSoC4/PWM_MOT.c **** * Note:
  10:Generated_Source\PSoC4/PWM_MOT.c **** *  None
  11:Generated_Source\PSoC4/PWM_MOT.c **** *
  12:Generated_Source\PSoC4/PWM_MOT.c **** ********************************************************************************
  13:Generated_Source\PSoC4/PWM_MOT.c **** * Copyright 2013-2015, Cypress Semiconductor Corporation.  All rights reserved.
  14:Generated_Source\PSoC4/PWM_MOT.c **** * You may use this file only in accordance with the license, terms, conditions,
  15:Generated_Source\PSoC4/PWM_MOT.c **** * disclaimers, and limitations in the end user license agreement accompanying
  16:Generated_Source\PSoC4/PWM_MOT.c **** * the software package with which this file was provided.
  17:Generated_Source\PSoC4/PWM_MOT.c **** *******************************************************************************/
  18:Generated_Source\PSoC4/PWM_MOT.c **** 
  19:Generated_Source\PSoC4/PWM_MOT.c **** #include "PWM_MOT.h"
  20:Generated_Source\PSoC4/PWM_MOT.c **** 
  21:Generated_Source\PSoC4/PWM_MOT.c **** uint8 PWM_MOT_initVar = 0u;
  22:Generated_Source\PSoC4/PWM_MOT.c **** 
  23:Generated_Source\PSoC4/PWM_MOT.c **** 
  24:Generated_Source\PSoC4/PWM_MOT.c **** /*******************************************************************************
  25:Generated_Source\PSoC4/PWM_MOT.c **** * Function Name: PWM_MOT_Init
  26:Generated_Source\PSoC4/PWM_MOT.c **** ********************************************************************************
  27:Generated_Source\PSoC4/PWM_MOT.c **** *
  28:Generated_Source\PSoC4/PWM_MOT.c **** * Summary:
  29:Generated_Source\PSoC4/PWM_MOT.c **** *  Initialize/Restore default PWM_MOT configuration.
  30:Generated_Source\PSoC4/PWM_MOT.c **** *
  31:Generated_Source\PSoC4/PWM_MOT.c **** * Parameters:
  32:Generated_Source\PSoC4/PWM_MOT.c **** *  None
ARM GAS  C:\Users\g\AppData\Local\Temp\ccC7fujn.s 			page 2


  33:Generated_Source\PSoC4/PWM_MOT.c **** *
  34:Generated_Source\PSoC4/PWM_MOT.c **** * Return:
  35:Generated_Source\PSoC4/PWM_MOT.c **** *  None
  36:Generated_Source\PSoC4/PWM_MOT.c **** *
  37:Generated_Source\PSoC4/PWM_MOT.c **** *******************************************************************************/
  38:Generated_Source\PSoC4/PWM_MOT.c **** void PWM_MOT_Init(void)
  39:Generated_Source\PSoC4/PWM_MOT.c **** {
  26              		.loc 1 39 0
  27              		.cfi_startproc
  40:Generated_Source\PSoC4/PWM_MOT.c **** 
  41:Generated_Source\PSoC4/PWM_MOT.c ****     /* Set values from customizer to CTRL */
  42:Generated_Source\PSoC4/PWM_MOT.c ****     #if (PWM_MOT__QUAD == PWM_MOT_CONFIG)
  43:Generated_Source\PSoC4/PWM_MOT.c ****         PWM_MOT_CONTROL_REG = PWM_MOT_CTRL_QUAD_BASE_CONFIG;
  44:Generated_Source\PSoC4/PWM_MOT.c ****         
  45:Generated_Source\PSoC4/PWM_MOT.c ****         /* Set values from customizer to CTRL1 */
  46:Generated_Source\PSoC4/PWM_MOT.c ****         PWM_MOT_TRIG_CONTROL1_REG  = PWM_MOT_QUAD_SIGNALS_MODES;
  47:Generated_Source\PSoC4/PWM_MOT.c **** 
  48:Generated_Source\PSoC4/PWM_MOT.c ****         /* Set values from customizer to INTR */
  49:Generated_Source\PSoC4/PWM_MOT.c ****         PWM_MOT_SetInterruptMode(PWM_MOT_QUAD_INTERRUPT_MASK);
  50:Generated_Source\PSoC4/PWM_MOT.c ****         
  51:Generated_Source\PSoC4/PWM_MOT.c ****          /* Set other values */
  52:Generated_Source\PSoC4/PWM_MOT.c ****         PWM_MOT_SetCounterMode(PWM_MOT_COUNT_DOWN);
  53:Generated_Source\PSoC4/PWM_MOT.c ****         PWM_MOT_WritePeriod(PWM_MOT_QUAD_PERIOD_INIT_VALUE);
  54:Generated_Source\PSoC4/PWM_MOT.c ****         PWM_MOT_WriteCounter(PWM_MOT_QUAD_PERIOD_INIT_VALUE);
  55:Generated_Source\PSoC4/PWM_MOT.c ****     #endif  /* (PWM_MOT__QUAD == PWM_MOT_CONFIG) */
  56:Generated_Source\PSoC4/PWM_MOT.c **** 
  57:Generated_Source\PSoC4/PWM_MOT.c ****     #if (PWM_MOT__TIMER == PWM_MOT_CONFIG)
  58:Generated_Source\PSoC4/PWM_MOT.c ****         PWM_MOT_CONTROL_REG = PWM_MOT_CTRL_TIMER_BASE_CONFIG;
  59:Generated_Source\PSoC4/PWM_MOT.c ****         
  60:Generated_Source\PSoC4/PWM_MOT.c ****         /* Set values from customizer to CTRL1 */
  61:Generated_Source\PSoC4/PWM_MOT.c ****         PWM_MOT_TRIG_CONTROL1_REG  = PWM_MOT_TIMER_SIGNALS_MODES;
  62:Generated_Source\PSoC4/PWM_MOT.c ****     
  63:Generated_Source\PSoC4/PWM_MOT.c ****         /* Set values from customizer to INTR */
  64:Generated_Source\PSoC4/PWM_MOT.c ****         PWM_MOT_SetInterruptMode(PWM_MOT_TC_INTERRUPT_MASK);
  65:Generated_Source\PSoC4/PWM_MOT.c ****         
  66:Generated_Source\PSoC4/PWM_MOT.c ****         /* Set other values from customizer */
  67:Generated_Source\PSoC4/PWM_MOT.c ****         PWM_MOT_WritePeriod(PWM_MOT_TC_PERIOD_VALUE );
  68:Generated_Source\PSoC4/PWM_MOT.c **** 
  69:Generated_Source\PSoC4/PWM_MOT.c ****         #if (PWM_MOT__COMPARE == PWM_MOT_TC_COMP_CAP_MODE)
  70:Generated_Source\PSoC4/PWM_MOT.c ****             PWM_MOT_WriteCompare(PWM_MOT_TC_COMPARE_VALUE);
  71:Generated_Source\PSoC4/PWM_MOT.c **** 
  72:Generated_Source\PSoC4/PWM_MOT.c ****             #if (1u == PWM_MOT_TC_COMPARE_SWAP)
  73:Generated_Source\PSoC4/PWM_MOT.c ****                 PWM_MOT_SetCompareSwap(1u);
  74:Generated_Source\PSoC4/PWM_MOT.c ****                 PWM_MOT_WriteCompareBuf(PWM_MOT_TC_COMPARE_BUF_VALUE);
  75:Generated_Source\PSoC4/PWM_MOT.c ****             #endif  /* (1u == PWM_MOT_TC_COMPARE_SWAP) */
  76:Generated_Source\PSoC4/PWM_MOT.c ****         #endif  /* (PWM_MOT__COMPARE == PWM_MOT_TC_COMP_CAP_MODE) */
  77:Generated_Source\PSoC4/PWM_MOT.c **** 
  78:Generated_Source\PSoC4/PWM_MOT.c ****         /* Initialize counter value */
  79:Generated_Source\PSoC4/PWM_MOT.c ****         #if (PWM_MOT_CY_TCPWM_V2 && PWM_MOT_TIMER_UPDOWN_CNT_USED && !PWM_MOT_CY_TCPWM_4000)
  80:Generated_Source\PSoC4/PWM_MOT.c ****             PWM_MOT_WriteCounter(1u);
  81:Generated_Source\PSoC4/PWM_MOT.c ****         #elif(PWM_MOT__COUNT_DOWN == PWM_MOT_TC_COUNTER_MODE)
  82:Generated_Source\PSoC4/PWM_MOT.c ****             PWM_MOT_WriteCounter(PWM_MOT_TC_PERIOD_VALUE);
  83:Generated_Source\PSoC4/PWM_MOT.c ****         #else
  84:Generated_Source\PSoC4/PWM_MOT.c ****             PWM_MOT_WriteCounter(0u);
  85:Generated_Source\PSoC4/PWM_MOT.c ****         #endif /* (PWM_MOT_CY_TCPWM_V2 && PWM_MOT_TIMER_UPDOWN_CNT_USED && !PWM_MOT_CY_TCPWM_4000) 
  86:Generated_Source\PSoC4/PWM_MOT.c ****     #endif  /* (PWM_MOT__TIMER == PWM_MOT_CONFIG) */
  87:Generated_Source\PSoC4/PWM_MOT.c **** 
ARM GAS  C:\Users\g\AppData\Local\Temp\ccC7fujn.s 			page 3


  88:Generated_Source\PSoC4/PWM_MOT.c ****     #if (PWM_MOT__PWM_SEL == PWM_MOT_CONFIG)
  89:Generated_Source\PSoC4/PWM_MOT.c ****         PWM_MOT_CONTROL_REG = PWM_MOT_CTRL_PWM_BASE_CONFIG;
  28              		.loc 1 89 0
  29 0000 8022     		mov	r2, #128
  90:Generated_Source\PSoC4/PWM_MOT.c **** 
  91:Generated_Source\PSoC4/PWM_MOT.c ****         #if (PWM_MOT__PWM_PR == PWM_MOT_PWM_MODE)
  92:Generated_Source\PSoC4/PWM_MOT.c ****             PWM_MOT_CONTROL_REG |= PWM_MOT_CTRL_PWM_RUN_MODE;
  93:Generated_Source\PSoC4/PWM_MOT.c ****             PWM_MOT_WriteCounter(PWM_MOT_PWM_PR_INIT_VALUE);
  94:Generated_Source\PSoC4/PWM_MOT.c ****         #else
  95:Generated_Source\PSoC4/PWM_MOT.c ****             PWM_MOT_CONTROL_REG |= PWM_MOT_CTRL_PWM_ALIGN | PWM_MOT_CTRL_PWM_KILL_EVENT;
  30              		.loc 1 95 0
  31 0002 8021     		mov	r1, #128
  89:Generated_Source\PSoC4/PWM_MOT.c **** 
  32              		.loc 1 89 0
  33 0004 0E4B     		ldr	r3, .L2
  34 0006 D204     		lsl	r2, r2, #19
  35 0008 1A60     		str	r2, [r3]
  36              		.loc 1 95 0
  37 000a 1A68     		ldr	r2, [r3]
  38 000c 8902     		lsl	r1, r1, #10
  39 000e 0A43     		orr	r2, r1
  40              	.LBB22:
  41              	.LBB23:
  96:Generated_Source\PSoC4/PWM_MOT.c ****             
  97:Generated_Source\PSoC4/PWM_MOT.c ****             /* Initialize counter value */
  98:Generated_Source\PSoC4/PWM_MOT.c ****             #if (PWM_MOT_CY_TCPWM_V2 && PWM_MOT_PWM_UPDOWN_CNT_USED && !PWM_MOT_CY_TCPWM_4000)
  99:Generated_Source\PSoC4/PWM_MOT.c ****                 PWM_MOT_WriteCounter(1u);
 100:Generated_Source\PSoC4/PWM_MOT.c ****             #elif (PWM_MOT__RIGHT == PWM_MOT_PWM_ALIGN)
 101:Generated_Source\PSoC4/PWM_MOT.c ****                 PWM_MOT_WriteCounter(PWM_MOT_PWM_PERIOD_VALUE);
 102:Generated_Source\PSoC4/PWM_MOT.c ****             #else 
 103:Generated_Source\PSoC4/PWM_MOT.c ****                 PWM_MOT_WriteCounter(0u);
 104:Generated_Source\PSoC4/PWM_MOT.c ****             #endif  /* (PWM_MOT_CY_TCPWM_V2 && PWM_MOT_PWM_UPDOWN_CNT_USED && !PWM_MOT_CY_TCPWM_400
 105:Generated_Source\PSoC4/PWM_MOT.c ****         #endif  /* (PWM_MOT__PWM_PR == PWM_MOT_PWM_MODE) */
 106:Generated_Source\PSoC4/PWM_MOT.c **** 
 107:Generated_Source\PSoC4/PWM_MOT.c ****         #if (PWM_MOT__PWM_DT == PWM_MOT_PWM_MODE)
 108:Generated_Source\PSoC4/PWM_MOT.c ****             PWM_MOT_CONTROL_REG |= PWM_MOT_CTRL_PWM_DEAD_TIME_CYCLE;
 109:Generated_Source\PSoC4/PWM_MOT.c ****         #endif  /* (PWM_MOT__PWM_DT == PWM_MOT_PWM_MODE) */
 110:Generated_Source\PSoC4/PWM_MOT.c **** 
 111:Generated_Source\PSoC4/PWM_MOT.c ****         #if (PWM_MOT__PWM == PWM_MOT_PWM_MODE)
 112:Generated_Source\PSoC4/PWM_MOT.c ****             PWM_MOT_CONTROL_REG |= PWM_MOT_CTRL_PWM_PRESCALER;
 113:Generated_Source\PSoC4/PWM_MOT.c ****         #endif  /* (PWM_MOT__PWM == PWM_MOT_PWM_MODE) */
 114:Generated_Source\PSoC4/PWM_MOT.c **** 
 115:Generated_Source\PSoC4/PWM_MOT.c ****         /* Set values from customizer to CTRL1 */
 116:Generated_Source\PSoC4/PWM_MOT.c ****         PWM_MOT_TRIG_CONTROL1_REG  = PWM_MOT_PWM_SIGNALS_MODES;
 117:Generated_Source\PSoC4/PWM_MOT.c ****     
 118:Generated_Source\PSoC4/PWM_MOT.c ****         /* Set values from customizer to INTR */
 119:Generated_Source\PSoC4/PWM_MOT.c ****         PWM_MOT_SetInterruptMode(PWM_MOT_PWM_INTERRUPT_MASK);
 120:Generated_Source\PSoC4/PWM_MOT.c **** 
 121:Generated_Source\PSoC4/PWM_MOT.c ****         /* Set values from customizer to CTRL2 */
 122:Generated_Source\PSoC4/PWM_MOT.c ****         #if (PWM_MOT__PWM_PR == PWM_MOT_PWM_MODE)
 123:Generated_Source\PSoC4/PWM_MOT.c ****             PWM_MOT_TRIG_CONTROL2_REG =
 124:Generated_Source\PSoC4/PWM_MOT.c ****                     (PWM_MOT_CC_MATCH_NO_CHANGE    |
 125:Generated_Source\PSoC4/PWM_MOT.c ****                     PWM_MOT_OVERLOW_NO_CHANGE      |
 126:Generated_Source\PSoC4/PWM_MOT.c ****                     PWM_MOT_UNDERFLOW_NO_CHANGE);
 127:Generated_Source\PSoC4/PWM_MOT.c ****         #else
 128:Generated_Source\PSoC4/PWM_MOT.c ****             #if (PWM_MOT__LEFT == PWM_MOT_PWM_ALIGN)
 129:Generated_Source\PSoC4/PWM_MOT.c ****                 PWM_MOT_TRIG_CONTROL2_REG = PWM_MOT_PWM_MODE_LEFT;
ARM GAS  C:\Users\g\AppData\Local\Temp\ccC7fujn.s 			page 4


 130:Generated_Source\PSoC4/PWM_MOT.c ****             #endif  /* ( PWM_MOT_PWM_LEFT == PWM_MOT_PWM_ALIGN) */
 131:Generated_Source\PSoC4/PWM_MOT.c **** 
 132:Generated_Source\PSoC4/PWM_MOT.c ****             #if (PWM_MOT__RIGHT == PWM_MOT_PWM_ALIGN)
 133:Generated_Source\PSoC4/PWM_MOT.c ****                 PWM_MOT_TRIG_CONTROL2_REG = PWM_MOT_PWM_MODE_RIGHT;
 134:Generated_Source\PSoC4/PWM_MOT.c ****             #endif  /* ( PWM_MOT_PWM_RIGHT == PWM_MOT_PWM_ALIGN) */
 135:Generated_Source\PSoC4/PWM_MOT.c **** 
 136:Generated_Source\PSoC4/PWM_MOT.c ****             #if (PWM_MOT__CENTER == PWM_MOT_PWM_ALIGN)
 137:Generated_Source\PSoC4/PWM_MOT.c ****                 PWM_MOT_TRIG_CONTROL2_REG = PWM_MOT_PWM_MODE_CENTER;
 138:Generated_Source\PSoC4/PWM_MOT.c ****             #endif  /* ( PWM_MOT_PWM_CENTER == PWM_MOT_PWM_ALIGN) */
 139:Generated_Source\PSoC4/PWM_MOT.c **** 
 140:Generated_Source\PSoC4/PWM_MOT.c ****             #if (PWM_MOT__ASYMMETRIC == PWM_MOT_PWM_ALIGN)
 141:Generated_Source\PSoC4/PWM_MOT.c ****                 PWM_MOT_TRIG_CONTROL2_REG = PWM_MOT_PWM_MODE_ASYM;
 142:Generated_Source\PSoC4/PWM_MOT.c ****             #endif  /* (PWM_MOT__ASYMMETRIC == PWM_MOT_PWM_ALIGN) */
 143:Generated_Source\PSoC4/PWM_MOT.c ****         #endif  /* (PWM_MOT__PWM_PR == PWM_MOT_PWM_MODE) */
 144:Generated_Source\PSoC4/PWM_MOT.c **** 
 145:Generated_Source\PSoC4/PWM_MOT.c ****         /* Set other values from customizer */
 146:Generated_Source\PSoC4/PWM_MOT.c ****         PWM_MOT_WritePeriod(PWM_MOT_PWM_PERIOD_VALUE );
 147:Generated_Source\PSoC4/PWM_MOT.c ****         PWM_MOT_WriteCompare(PWM_MOT_PWM_COMPARE_VALUE);
 148:Generated_Source\PSoC4/PWM_MOT.c **** 
 149:Generated_Source\PSoC4/PWM_MOT.c ****         #if (1u == PWM_MOT_PWM_COMPARE_SWAP)
 150:Generated_Source\PSoC4/PWM_MOT.c ****             PWM_MOT_SetCompareSwap(1u);
 151:Generated_Source\PSoC4/PWM_MOT.c ****             PWM_MOT_WriteCompareBuf(PWM_MOT_PWM_COMPARE_BUF_VALUE);
 152:Generated_Source\PSoC4/PWM_MOT.c ****         #endif  /* (1u == PWM_MOT_PWM_COMPARE_SWAP) */
 153:Generated_Source\PSoC4/PWM_MOT.c **** 
 154:Generated_Source\PSoC4/PWM_MOT.c ****         #if (1u == PWM_MOT_PWM_PERIOD_SWAP)
 155:Generated_Source\PSoC4/PWM_MOT.c ****             PWM_MOT_SetPeriodSwap(1u);
 156:Generated_Source\PSoC4/PWM_MOT.c ****             PWM_MOT_WritePeriodBuf(PWM_MOT_PWM_PERIOD_BUF_VALUE);
 157:Generated_Source\PSoC4/PWM_MOT.c ****         #endif  /* (1u == PWM_MOT_PWM_PERIOD_SWAP) */
 158:Generated_Source\PSoC4/PWM_MOT.c ****     #endif  /* (PWM_MOT__PWM_SEL == PWM_MOT_CONFIG) */
 159:Generated_Source\PSoC4/PWM_MOT.c ****     
 160:Generated_Source\PSoC4/PWM_MOT.c **** }
 161:Generated_Source\PSoC4/PWM_MOT.c **** 
 162:Generated_Source\PSoC4/PWM_MOT.c **** 
 163:Generated_Source\PSoC4/PWM_MOT.c **** /*******************************************************************************
 164:Generated_Source\PSoC4/PWM_MOT.c **** * Function Name: PWM_MOT_Enable
 165:Generated_Source\PSoC4/PWM_MOT.c **** ********************************************************************************
 166:Generated_Source\PSoC4/PWM_MOT.c **** *
 167:Generated_Source\PSoC4/PWM_MOT.c **** * Summary:
 168:Generated_Source\PSoC4/PWM_MOT.c **** *  Enables the PWM_MOT.
 169:Generated_Source\PSoC4/PWM_MOT.c **** *
 170:Generated_Source\PSoC4/PWM_MOT.c **** * Parameters:
 171:Generated_Source\PSoC4/PWM_MOT.c **** *  None
 172:Generated_Source\PSoC4/PWM_MOT.c **** *
 173:Generated_Source\PSoC4/PWM_MOT.c **** * Return:
 174:Generated_Source\PSoC4/PWM_MOT.c **** *  None
 175:Generated_Source\PSoC4/PWM_MOT.c **** *
 176:Generated_Source\PSoC4/PWM_MOT.c **** *******************************************************************************/
 177:Generated_Source\PSoC4/PWM_MOT.c **** void PWM_MOT_Enable(void)
 178:Generated_Source\PSoC4/PWM_MOT.c **** {
 179:Generated_Source\PSoC4/PWM_MOT.c ****     uint8 enableInterrupts;
 180:Generated_Source\PSoC4/PWM_MOT.c **** 
 181:Generated_Source\PSoC4/PWM_MOT.c ****     enableInterrupts = CyEnterCriticalSection();
 182:Generated_Source\PSoC4/PWM_MOT.c ****     PWM_MOT_BLOCK_CONTROL_REG |= PWM_MOT_MASK;
 183:Generated_Source\PSoC4/PWM_MOT.c ****     CyExitCriticalSection(enableInterrupts);
 184:Generated_Source\PSoC4/PWM_MOT.c **** 
 185:Generated_Source\PSoC4/PWM_MOT.c ****     /* Start Timer or PWM if start input is absent */
 186:Generated_Source\PSoC4/PWM_MOT.c ****     #if (PWM_MOT__PWM_SEL == PWM_MOT_CONFIG)
ARM GAS  C:\Users\g\AppData\Local\Temp\ccC7fujn.s 			page 5


 187:Generated_Source\PSoC4/PWM_MOT.c ****         #if (0u == PWM_MOT_PWM_START_SIGNAL_PRESENT)
 188:Generated_Source\PSoC4/PWM_MOT.c ****             PWM_MOT_TriggerCommand(PWM_MOT_MASK, PWM_MOT_CMD_START);
 189:Generated_Source\PSoC4/PWM_MOT.c ****         #endif /* (0u == PWM_MOT_PWM_START_SIGNAL_PRESENT) */
 190:Generated_Source\PSoC4/PWM_MOT.c ****     #endif /* (PWM_MOT__PWM_SEL == PWM_MOT_CONFIG) */
 191:Generated_Source\PSoC4/PWM_MOT.c **** 
 192:Generated_Source\PSoC4/PWM_MOT.c ****     #if (PWM_MOT__TIMER == PWM_MOT_CONFIG)
 193:Generated_Source\PSoC4/PWM_MOT.c ****         #if (0u == PWM_MOT_TC_START_SIGNAL_PRESENT)
 194:Generated_Source\PSoC4/PWM_MOT.c ****             PWM_MOT_TriggerCommand(PWM_MOT_MASK, PWM_MOT_CMD_START);
 195:Generated_Source\PSoC4/PWM_MOT.c ****         #endif /* (0u == PWM_MOT_TC_START_SIGNAL_PRESENT) */
 196:Generated_Source\PSoC4/PWM_MOT.c ****     #endif /* (PWM_MOT__TIMER == PWM_MOT_CONFIG) */
 197:Generated_Source\PSoC4/PWM_MOT.c ****     
 198:Generated_Source\PSoC4/PWM_MOT.c ****     #if (PWM_MOT__QUAD == PWM_MOT_CONFIG)
 199:Generated_Source\PSoC4/PWM_MOT.c ****         #if (0u != PWM_MOT_QUAD_AUTO_START)
 200:Generated_Source\PSoC4/PWM_MOT.c ****             PWM_MOT_TriggerCommand(PWM_MOT_MASK, PWM_MOT_CMD_RELOAD);
 201:Generated_Source\PSoC4/PWM_MOT.c ****         #endif /* (0u != PWM_MOT_QUAD_AUTO_START) */
 202:Generated_Source\PSoC4/PWM_MOT.c ****     #endif  /* (PWM_MOT__QUAD == PWM_MOT_CONFIG) */
 203:Generated_Source\PSoC4/PWM_MOT.c **** }
 204:Generated_Source\PSoC4/PWM_MOT.c **** 
 205:Generated_Source\PSoC4/PWM_MOT.c **** 
 206:Generated_Source\PSoC4/PWM_MOT.c **** /*******************************************************************************
 207:Generated_Source\PSoC4/PWM_MOT.c **** * Function Name: PWM_MOT_Start
 208:Generated_Source\PSoC4/PWM_MOT.c **** ********************************************************************************
 209:Generated_Source\PSoC4/PWM_MOT.c **** *
 210:Generated_Source\PSoC4/PWM_MOT.c **** * Summary:
 211:Generated_Source\PSoC4/PWM_MOT.c **** *  Initializes the PWM_MOT with default customizer
 212:Generated_Source\PSoC4/PWM_MOT.c **** *  values when called the first time and enables the PWM_MOT.
 213:Generated_Source\PSoC4/PWM_MOT.c **** *  For subsequent calls the configuration is left unchanged and the component is
 214:Generated_Source\PSoC4/PWM_MOT.c **** *  just enabled.
 215:Generated_Source\PSoC4/PWM_MOT.c **** *
 216:Generated_Source\PSoC4/PWM_MOT.c **** * Parameters:
 217:Generated_Source\PSoC4/PWM_MOT.c **** *  None
 218:Generated_Source\PSoC4/PWM_MOT.c **** *
 219:Generated_Source\PSoC4/PWM_MOT.c **** * Return:
 220:Generated_Source\PSoC4/PWM_MOT.c **** *  None
 221:Generated_Source\PSoC4/PWM_MOT.c **** *
 222:Generated_Source\PSoC4/PWM_MOT.c **** * Global variables:
 223:Generated_Source\PSoC4/PWM_MOT.c **** *  PWM_MOT_initVar: global variable is used to indicate initial
 224:Generated_Source\PSoC4/PWM_MOT.c **** *  configuration of this component.  The variable is initialized to zero and set
 225:Generated_Source\PSoC4/PWM_MOT.c **** *  to 1 the first time PWM_MOT_Start() is called. This allows
 226:Generated_Source\PSoC4/PWM_MOT.c **** *  enabling/disabling a component without re-initialization in all subsequent
 227:Generated_Source\PSoC4/PWM_MOT.c **** *  calls to the PWM_MOT_Start() routine.
 228:Generated_Source\PSoC4/PWM_MOT.c **** *
 229:Generated_Source\PSoC4/PWM_MOT.c **** *******************************************************************************/
 230:Generated_Source\PSoC4/PWM_MOT.c **** void PWM_MOT_Start(void)
 231:Generated_Source\PSoC4/PWM_MOT.c **** {
 232:Generated_Source\PSoC4/PWM_MOT.c ****     if (0u == PWM_MOT_initVar)
 233:Generated_Source\PSoC4/PWM_MOT.c ****     {
 234:Generated_Source\PSoC4/PWM_MOT.c ****         PWM_MOT_Init();
 235:Generated_Source\PSoC4/PWM_MOT.c ****         PWM_MOT_initVar = 1u;
 236:Generated_Source\PSoC4/PWM_MOT.c ****     }
 237:Generated_Source\PSoC4/PWM_MOT.c **** 
 238:Generated_Source\PSoC4/PWM_MOT.c ****     PWM_MOT_Enable();
 239:Generated_Source\PSoC4/PWM_MOT.c **** }
 240:Generated_Source\PSoC4/PWM_MOT.c **** 
 241:Generated_Source\PSoC4/PWM_MOT.c **** 
 242:Generated_Source\PSoC4/PWM_MOT.c **** /*******************************************************************************
 243:Generated_Source\PSoC4/PWM_MOT.c **** * Function Name: PWM_MOT_Stop
ARM GAS  C:\Users\g\AppData\Local\Temp\ccC7fujn.s 			page 6


 244:Generated_Source\PSoC4/PWM_MOT.c **** ********************************************************************************
 245:Generated_Source\PSoC4/PWM_MOT.c **** *
 246:Generated_Source\PSoC4/PWM_MOT.c **** * Summary:
 247:Generated_Source\PSoC4/PWM_MOT.c **** *  Disables the PWM_MOT.
 248:Generated_Source\PSoC4/PWM_MOT.c **** *
 249:Generated_Source\PSoC4/PWM_MOT.c **** * Parameters:
 250:Generated_Source\PSoC4/PWM_MOT.c **** *  None
 251:Generated_Source\PSoC4/PWM_MOT.c **** *
 252:Generated_Source\PSoC4/PWM_MOT.c **** * Return:
 253:Generated_Source\PSoC4/PWM_MOT.c **** *  None
 254:Generated_Source\PSoC4/PWM_MOT.c **** *
 255:Generated_Source\PSoC4/PWM_MOT.c **** *******************************************************************************/
 256:Generated_Source\PSoC4/PWM_MOT.c **** void PWM_MOT_Stop(void)
 257:Generated_Source\PSoC4/PWM_MOT.c **** {
 258:Generated_Source\PSoC4/PWM_MOT.c ****     uint8 enableInterrupts;
 259:Generated_Source\PSoC4/PWM_MOT.c **** 
 260:Generated_Source\PSoC4/PWM_MOT.c ****     enableInterrupts = CyEnterCriticalSection();
 261:Generated_Source\PSoC4/PWM_MOT.c **** 
 262:Generated_Source\PSoC4/PWM_MOT.c ****     PWM_MOT_BLOCK_CONTROL_REG &= (uint32)~PWM_MOT_MASK;
 263:Generated_Source\PSoC4/PWM_MOT.c **** 
 264:Generated_Source\PSoC4/PWM_MOT.c ****     CyExitCriticalSection(enableInterrupts);
 265:Generated_Source\PSoC4/PWM_MOT.c **** }
 266:Generated_Source\PSoC4/PWM_MOT.c **** 
 267:Generated_Source\PSoC4/PWM_MOT.c **** 
 268:Generated_Source\PSoC4/PWM_MOT.c **** /*******************************************************************************
 269:Generated_Source\PSoC4/PWM_MOT.c **** * Function Name: PWM_MOT_SetMode
 270:Generated_Source\PSoC4/PWM_MOT.c **** ********************************************************************************
 271:Generated_Source\PSoC4/PWM_MOT.c **** *
 272:Generated_Source\PSoC4/PWM_MOT.c **** * Summary:
 273:Generated_Source\PSoC4/PWM_MOT.c **** *  Sets the operation mode of the PWM_MOT. This function is used when
 274:Generated_Source\PSoC4/PWM_MOT.c **** *  configured as a generic PWM_MOT and the actual mode of operation is
 275:Generated_Source\PSoC4/PWM_MOT.c **** *  set at runtime. The mode must be set while the component is disabled.
 276:Generated_Source\PSoC4/PWM_MOT.c **** *
 277:Generated_Source\PSoC4/PWM_MOT.c **** * Parameters:
 278:Generated_Source\PSoC4/PWM_MOT.c **** *  mode: Mode for the PWM_MOT to operate in
 279:Generated_Source\PSoC4/PWM_MOT.c **** *   Values:
 280:Generated_Source\PSoC4/PWM_MOT.c **** *   - PWM_MOT_MODE_TIMER_COMPARE - Timer / Counter with
 281:Generated_Source\PSoC4/PWM_MOT.c **** *                                                 compare capability
 282:Generated_Source\PSoC4/PWM_MOT.c **** *         - PWM_MOT_MODE_TIMER_CAPTURE - Timer / Counter with
 283:Generated_Source\PSoC4/PWM_MOT.c **** *                                                 capture capability
 284:Generated_Source\PSoC4/PWM_MOT.c **** *         - PWM_MOT_MODE_QUAD - Quadrature decoder
 285:Generated_Source\PSoC4/PWM_MOT.c **** *         - PWM_MOT_MODE_PWM - PWM
 286:Generated_Source\PSoC4/PWM_MOT.c **** *         - PWM_MOT_MODE_PWM_DT - PWM with dead time
 287:Generated_Source\PSoC4/PWM_MOT.c **** *         - PWM_MOT_MODE_PWM_PR - PWM with pseudo random capability
 288:Generated_Source\PSoC4/PWM_MOT.c **** *
 289:Generated_Source\PSoC4/PWM_MOT.c **** * Return:
 290:Generated_Source\PSoC4/PWM_MOT.c **** *  None
 291:Generated_Source\PSoC4/PWM_MOT.c **** *
 292:Generated_Source\PSoC4/PWM_MOT.c **** *******************************************************************************/
 293:Generated_Source\PSoC4/PWM_MOT.c **** void PWM_MOT_SetMode(uint32 mode)
 294:Generated_Source\PSoC4/PWM_MOT.c **** {
 295:Generated_Source\PSoC4/PWM_MOT.c ****     uint8 enableInterrupts;
 296:Generated_Source\PSoC4/PWM_MOT.c **** 
 297:Generated_Source\PSoC4/PWM_MOT.c ****     enableInterrupts = CyEnterCriticalSection();
 298:Generated_Source\PSoC4/PWM_MOT.c **** 
 299:Generated_Source\PSoC4/PWM_MOT.c ****     PWM_MOT_CONTROL_REG &= (uint32)~PWM_MOT_MODE_MASK;
 300:Generated_Source\PSoC4/PWM_MOT.c ****     PWM_MOT_CONTROL_REG |= mode;
ARM GAS  C:\Users\g\AppData\Local\Temp\ccC7fujn.s 			page 7


 301:Generated_Source\PSoC4/PWM_MOT.c **** 
 302:Generated_Source\PSoC4/PWM_MOT.c ****     CyExitCriticalSection(enableInterrupts);
 303:Generated_Source\PSoC4/PWM_MOT.c **** }
 304:Generated_Source\PSoC4/PWM_MOT.c **** 
 305:Generated_Source\PSoC4/PWM_MOT.c **** 
 306:Generated_Source\PSoC4/PWM_MOT.c **** /*******************************************************************************
 307:Generated_Source\PSoC4/PWM_MOT.c **** * Function Name: PWM_MOT_SetQDMode
 308:Generated_Source\PSoC4/PWM_MOT.c **** ********************************************************************************
 309:Generated_Source\PSoC4/PWM_MOT.c **** *
 310:Generated_Source\PSoC4/PWM_MOT.c **** * Summary:
 311:Generated_Source\PSoC4/PWM_MOT.c **** *  Sets the the Quadrature Decoder to one of the 3 supported modes.
 312:Generated_Source\PSoC4/PWM_MOT.c **** *  Its functionality is only applicable to Quadrature Decoder operation.
 313:Generated_Source\PSoC4/PWM_MOT.c **** *
 314:Generated_Source\PSoC4/PWM_MOT.c **** * Parameters:
 315:Generated_Source\PSoC4/PWM_MOT.c **** *  qdMode: Quadrature Decoder mode
 316:Generated_Source\PSoC4/PWM_MOT.c **** *   Values:
 317:Generated_Source\PSoC4/PWM_MOT.c **** *         - PWM_MOT_MODE_X1 - Counts on phi 1 rising
 318:Generated_Source\PSoC4/PWM_MOT.c **** *         - PWM_MOT_MODE_X2 - Counts on both edges of phi1 (2x faster)
 319:Generated_Source\PSoC4/PWM_MOT.c **** *         - PWM_MOT_MODE_X4 - Counts on both edges of phi1 and phi2
 320:Generated_Source\PSoC4/PWM_MOT.c **** *                                        (4x faster)
 321:Generated_Source\PSoC4/PWM_MOT.c **** *
 322:Generated_Source\PSoC4/PWM_MOT.c **** * Return:
 323:Generated_Source\PSoC4/PWM_MOT.c **** *  None
 324:Generated_Source\PSoC4/PWM_MOT.c **** *
 325:Generated_Source\PSoC4/PWM_MOT.c **** *******************************************************************************/
 326:Generated_Source\PSoC4/PWM_MOT.c **** void PWM_MOT_SetQDMode(uint32 qdMode)
 327:Generated_Source\PSoC4/PWM_MOT.c **** {
 328:Generated_Source\PSoC4/PWM_MOT.c ****     uint8 enableInterrupts;
 329:Generated_Source\PSoC4/PWM_MOT.c **** 
 330:Generated_Source\PSoC4/PWM_MOT.c ****     enableInterrupts = CyEnterCriticalSection();
 331:Generated_Source\PSoC4/PWM_MOT.c **** 
 332:Generated_Source\PSoC4/PWM_MOT.c ****     PWM_MOT_CONTROL_REG &= (uint32)~PWM_MOT_QUAD_MODE_MASK;
 333:Generated_Source\PSoC4/PWM_MOT.c ****     PWM_MOT_CONTROL_REG |= qdMode;
 334:Generated_Source\PSoC4/PWM_MOT.c **** 
 335:Generated_Source\PSoC4/PWM_MOT.c ****     CyExitCriticalSection(enableInterrupts);
 336:Generated_Source\PSoC4/PWM_MOT.c **** }
 337:Generated_Source\PSoC4/PWM_MOT.c **** 
 338:Generated_Source\PSoC4/PWM_MOT.c **** 
 339:Generated_Source\PSoC4/PWM_MOT.c **** /*******************************************************************************
 340:Generated_Source\PSoC4/PWM_MOT.c **** * Function Name: PWM_MOT_SetPrescaler
 341:Generated_Source\PSoC4/PWM_MOT.c **** ********************************************************************************
 342:Generated_Source\PSoC4/PWM_MOT.c **** *
 343:Generated_Source\PSoC4/PWM_MOT.c **** * Summary:
 344:Generated_Source\PSoC4/PWM_MOT.c **** *  Sets the prescaler value that is applied to the clock input.  Not applicable
 345:Generated_Source\PSoC4/PWM_MOT.c **** *  to a PWM with the dead time mode or Quadrature Decoder mode.
 346:Generated_Source\PSoC4/PWM_MOT.c **** *
 347:Generated_Source\PSoC4/PWM_MOT.c **** * Parameters:
 348:Generated_Source\PSoC4/PWM_MOT.c **** *  prescaler: Prescaler divider value
 349:Generated_Source\PSoC4/PWM_MOT.c **** *   Values:
 350:Generated_Source\PSoC4/PWM_MOT.c **** *         - PWM_MOT_PRESCALE_DIVBY1    - Divide by 1 (no prescaling)
 351:Generated_Source\PSoC4/PWM_MOT.c **** *         - PWM_MOT_PRESCALE_DIVBY2    - Divide by 2
 352:Generated_Source\PSoC4/PWM_MOT.c **** *         - PWM_MOT_PRESCALE_DIVBY4    - Divide by 4
 353:Generated_Source\PSoC4/PWM_MOT.c **** *         - PWM_MOT_PRESCALE_DIVBY8    - Divide by 8
 354:Generated_Source\PSoC4/PWM_MOT.c **** *         - PWM_MOT_PRESCALE_DIVBY16   - Divide by 16
 355:Generated_Source\PSoC4/PWM_MOT.c **** *         - PWM_MOT_PRESCALE_DIVBY32   - Divide by 32
 356:Generated_Source\PSoC4/PWM_MOT.c **** *         - PWM_MOT_PRESCALE_DIVBY64   - Divide by 64
 357:Generated_Source\PSoC4/PWM_MOT.c **** *         - PWM_MOT_PRESCALE_DIVBY128  - Divide by 128
ARM GAS  C:\Users\g\AppData\Local\Temp\ccC7fujn.s 			page 8


 358:Generated_Source\PSoC4/PWM_MOT.c **** *
 359:Generated_Source\PSoC4/PWM_MOT.c **** * Return:
 360:Generated_Source\PSoC4/PWM_MOT.c **** *  None
 361:Generated_Source\PSoC4/PWM_MOT.c **** *
 362:Generated_Source\PSoC4/PWM_MOT.c **** *******************************************************************************/
 363:Generated_Source\PSoC4/PWM_MOT.c **** void PWM_MOT_SetPrescaler(uint32 prescaler)
 364:Generated_Source\PSoC4/PWM_MOT.c **** {
 365:Generated_Source\PSoC4/PWM_MOT.c ****     uint8 enableInterrupts;
 366:Generated_Source\PSoC4/PWM_MOT.c **** 
 367:Generated_Source\PSoC4/PWM_MOT.c ****     enableInterrupts = CyEnterCriticalSection();
 368:Generated_Source\PSoC4/PWM_MOT.c **** 
 369:Generated_Source\PSoC4/PWM_MOT.c ****     PWM_MOT_CONTROL_REG &= (uint32)~PWM_MOT_PRESCALER_MASK;
 370:Generated_Source\PSoC4/PWM_MOT.c ****     PWM_MOT_CONTROL_REG |= prescaler;
 371:Generated_Source\PSoC4/PWM_MOT.c **** 
 372:Generated_Source\PSoC4/PWM_MOT.c ****     CyExitCriticalSection(enableInterrupts);
 373:Generated_Source\PSoC4/PWM_MOT.c **** }
 374:Generated_Source\PSoC4/PWM_MOT.c **** 
 375:Generated_Source\PSoC4/PWM_MOT.c **** 
 376:Generated_Source\PSoC4/PWM_MOT.c **** /*******************************************************************************
 377:Generated_Source\PSoC4/PWM_MOT.c **** * Function Name: PWM_MOT_SetOneShot
 378:Generated_Source\PSoC4/PWM_MOT.c **** ********************************************************************************
 379:Generated_Source\PSoC4/PWM_MOT.c **** *
 380:Generated_Source\PSoC4/PWM_MOT.c **** * Summary:
 381:Generated_Source\PSoC4/PWM_MOT.c **** *  Writes the register that controls whether the PWM_MOT runs
 382:Generated_Source\PSoC4/PWM_MOT.c **** *  continuously or stops when terminal count is reached.  By default the
 383:Generated_Source\PSoC4/PWM_MOT.c **** *  PWM_MOT operates in the continuous mode.
 384:Generated_Source\PSoC4/PWM_MOT.c **** *
 385:Generated_Source\PSoC4/PWM_MOT.c **** * Parameters:
 386:Generated_Source\PSoC4/PWM_MOT.c **** *  oneShotEnable
 387:Generated_Source\PSoC4/PWM_MOT.c **** *   Values:
 388:Generated_Source\PSoC4/PWM_MOT.c **** *     - 0 - Continuous
 389:Generated_Source\PSoC4/PWM_MOT.c **** *     - 1 - Enable One Shot
 390:Generated_Source\PSoC4/PWM_MOT.c **** *
 391:Generated_Source\PSoC4/PWM_MOT.c **** * Return:
 392:Generated_Source\PSoC4/PWM_MOT.c **** *  None
 393:Generated_Source\PSoC4/PWM_MOT.c **** *
 394:Generated_Source\PSoC4/PWM_MOT.c **** *******************************************************************************/
 395:Generated_Source\PSoC4/PWM_MOT.c **** void PWM_MOT_SetOneShot(uint32 oneShotEnable)
 396:Generated_Source\PSoC4/PWM_MOT.c **** {
 397:Generated_Source\PSoC4/PWM_MOT.c ****     uint8 enableInterrupts;
 398:Generated_Source\PSoC4/PWM_MOT.c **** 
 399:Generated_Source\PSoC4/PWM_MOT.c ****     enableInterrupts = CyEnterCriticalSection();
 400:Generated_Source\PSoC4/PWM_MOT.c **** 
 401:Generated_Source\PSoC4/PWM_MOT.c ****     PWM_MOT_CONTROL_REG &= (uint32)~PWM_MOT_ONESHOT_MASK;
 402:Generated_Source\PSoC4/PWM_MOT.c ****     PWM_MOT_CONTROL_REG |= ((uint32)((oneShotEnable & PWM_MOT_1BIT_MASK) <<
 403:Generated_Source\PSoC4/PWM_MOT.c ****                                                                PWM_MOT_ONESHOT_SHIFT));
 404:Generated_Source\PSoC4/PWM_MOT.c **** 
 405:Generated_Source\PSoC4/PWM_MOT.c ****     CyExitCriticalSection(enableInterrupts);
 406:Generated_Source\PSoC4/PWM_MOT.c **** }
 407:Generated_Source\PSoC4/PWM_MOT.c **** 
 408:Generated_Source\PSoC4/PWM_MOT.c **** 
 409:Generated_Source\PSoC4/PWM_MOT.c **** /*******************************************************************************
 410:Generated_Source\PSoC4/PWM_MOT.c **** * Function Name: PWM_MOT_SetPWMMode
 411:Generated_Source\PSoC4/PWM_MOT.c **** ********************************************************************************
 412:Generated_Source\PSoC4/PWM_MOT.c **** *
 413:Generated_Source\PSoC4/PWM_MOT.c **** * Summary:
 414:Generated_Source\PSoC4/PWM_MOT.c **** *  Writes the control register that determines what mode of operation the PWM
ARM GAS  C:\Users\g\AppData\Local\Temp\ccC7fujn.s 			page 9


 415:Generated_Source\PSoC4/PWM_MOT.c **** *  output lines are driven in.  There is a setting for what to do on a
 416:Generated_Source\PSoC4/PWM_MOT.c **** *  comparison match (CC_MATCH), on an overflow (OVERFLOW) and on an underflow
 417:Generated_Source\PSoC4/PWM_MOT.c **** *  (UNDERFLOW).  The value for each of the three must be ORed together to form
 418:Generated_Source\PSoC4/PWM_MOT.c **** *  the mode.
 419:Generated_Source\PSoC4/PWM_MOT.c **** *
 420:Generated_Source\PSoC4/PWM_MOT.c **** * Parameters:
 421:Generated_Source\PSoC4/PWM_MOT.c **** *  modeMask: A combination of three mode settings.  Mask must include a value
 422:Generated_Source\PSoC4/PWM_MOT.c **** *  for each of the three or use one of the preconfigured PWM settings.
 423:Generated_Source\PSoC4/PWM_MOT.c **** *   Values:
 424:Generated_Source\PSoC4/PWM_MOT.c **** *     - CC_MATCH_SET        - Set on comparison match
 425:Generated_Source\PSoC4/PWM_MOT.c **** *     - CC_MATCH_CLEAR      - Clear on comparison match
 426:Generated_Source\PSoC4/PWM_MOT.c **** *     - CC_MATCH_INVERT     - Invert on comparison match
 427:Generated_Source\PSoC4/PWM_MOT.c **** *     - CC_MATCH_NO_CHANGE  - No change on comparison match
 428:Generated_Source\PSoC4/PWM_MOT.c **** *     - OVERLOW_SET         - Set on overflow
 429:Generated_Source\PSoC4/PWM_MOT.c **** *     - OVERLOW_CLEAR       - Clear on  overflow
 430:Generated_Source\PSoC4/PWM_MOT.c **** *     - OVERLOW_INVERT      - Invert on overflow
 431:Generated_Source\PSoC4/PWM_MOT.c **** *     - OVERLOW_NO_CHANGE   - No change on overflow
 432:Generated_Source\PSoC4/PWM_MOT.c **** *     - UNDERFLOW_SET       - Set on underflow
 433:Generated_Source\PSoC4/PWM_MOT.c **** *     - UNDERFLOW_CLEAR     - Clear on underflow
 434:Generated_Source\PSoC4/PWM_MOT.c **** *     - UNDERFLOW_INVERT    - Invert on underflow
 435:Generated_Source\PSoC4/PWM_MOT.c **** *     - UNDERFLOW_NO_CHANGE - No change on underflow
 436:Generated_Source\PSoC4/PWM_MOT.c **** *     - PWM_MODE_LEFT       - Setting for left aligned PWM.  Should be combined
 437:Generated_Source\PSoC4/PWM_MOT.c **** *                             with up counting mode
 438:Generated_Source\PSoC4/PWM_MOT.c **** *     - PWM_MODE_RIGHT      - Setting for right aligned PWM.  Should be combined
 439:Generated_Source\PSoC4/PWM_MOT.c **** *                             with down counting mode
 440:Generated_Source\PSoC4/PWM_MOT.c **** *     - PWM_MODE_CENTER     - Setting for center aligned PWM.  Should be
 441:Generated_Source\PSoC4/PWM_MOT.c **** *                             combined with up/down 0 mode
 442:Generated_Source\PSoC4/PWM_MOT.c **** *     - PWM_MODE_ASYM       - Setting for asymmetric PWM.  Should be combined
 443:Generated_Source\PSoC4/PWM_MOT.c **** *                             with up/down 1 mode
 444:Generated_Source\PSoC4/PWM_MOT.c **** *
 445:Generated_Source\PSoC4/PWM_MOT.c **** * Return:
 446:Generated_Source\PSoC4/PWM_MOT.c **** *  None
 447:Generated_Source\PSoC4/PWM_MOT.c **** *
 448:Generated_Source\PSoC4/PWM_MOT.c **** *******************************************************************************/
 449:Generated_Source\PSoC4/PWM_MOT.c **** void PWM_MOT_SetPWMMode(uint32 modeMask)
 450:Generated_Source\PSoC4/PWM_MOT.c **** {
 451:Generated_Source\PSoC4/PWM_MOT.c ****     PWM_MOT_TRIG_CONTROL2_REG = (modeMask & PWM_MOT_6BIT_MASK);
 452:Generated_Source\PSoC4/PWM_MOT.c **** }
 453:Generated_Source\PSoC4/PWM_MOT.c **** 
 454:Generated_Source\PSoC4/PWM_MOT.c **** 
 455:Generated_Source\PSoC4/PWM_MOT.c **** 
 456:Generated_Source\PSoC4/PWM_MOT.c **** /*******************************************************************************
 457:Generated_Source\PSoC4/PWM_MOT.c **** * Function Name: PWM_MOT_SetPWMSyncKill
 458:Generated_Source\PSoC4/PWM_MOT.c **** ********************************************************************************
 459:Generated_Source\PSoC4/PWM_MOT.c **** *
 460:Generated_Source\PSoC4/PWM_MOT.c **** * Summary:
 461:Generated_Source\PSoC4/PWM_MOT.c **** *  Writes the register that controls whether the PWM kill signal (stop input)
 462:Generated_Source\PSoC4/PWM_MOT.c **** *  causes asynchronous or synchronous kill operation.  By default the kill
 463:Generated_Source\PSoC4/PWM_MOT.c **** *  operation is asynchronous.  This functionality is only applicable to the PWM
 464:Generated_Source\PSoC4/PWM_MOT.c **** *  and PWM with dead time modes.
 465:Generated_Source\PSoC4/PWM_MOT.c **** *
 466:Generated_Source\PSoC4/PWM_MOT.c **** *  For Synchronous mode the kill signal disables both the line and line_n
 467:Generated_Source\PSoC4/PWM_MOT.c **** *  signals until the next terminal count.
 468:Generated_Source\PSoC4/PWM_MOT.c **** *
 469:Generated_Source\PSoC4/PWM_MOT.c **** *  For Asynchronous mode the kill signal disables both the line and line_n
 470:Generated_Source\PSoC4/PWM_MOT.c **** *  signals when the kill signal is present.  This mode should only be used
 471:Generated_Source\PSoC4/PWM_MOT.c **** *  when the kill signal (stop input) is configured in the pass through mode
ARM GAS  C:\Users\g\AppData\Local\Temp\ccC7fujn.s 			page 10


 472:Generated_Source\PSoC4/PWM_MOT.c **** *  (Level sensitive signal).
 473:Generated_Source\PSoC4/PWM_MOT.c **** 
 474:Generated_Source\PSoC4/PWM_MOT.c **** *
 475:Generated_Source\PSoC4/PWM_MOT.c **** * Parameters:
 476:Generated_Source\PSoC4/PWM_MOT.c **** *  syncKillEnable
 477:Generated_Source\PSoC4/PWM_MOT.c **** *   Values:
 478:Generated_Source\PSoC4/PWM_MOT.c **** *     - 0 - Asynchronous
 479:Generated_Source\PSoC4/PWM_MOT.c **** *     - 1 - Synchronous
 480:Generated_Source\PSoC4/PWM_MOT.c **** *
 481:Generated_Source\PSoC4/PWM_MOT.c **** * Return:
 482:Generated_Source\PSoC4/PWM_MOT.c **** *  None
 483:Generated_Source\PSoC4/PWM_MOT.c **** *
 484:Generated_Source\PSoC4/PWM_MOT.c **** *******************************************************************************/
 485:Generated_Source\PSoC4/PWM_MOT.c **** void PWM_MOT_SetPWMSyncKill(uint32 syncKillEnable)
 486:Generated_Source\PSoC4/PWM_MOT.c **** {
 487:Generated_Source\PSoC4/PWM_MOT.c ****     uint8 enableInterrupts;
 488:Generated_Source\PSoC4/PWM_MOT.c **** 
 489:Generated_Source\PSoC4/PWM_MOT.c ****     enableInterrupts = CyEnterCriticalSection();
 490:Generated_Source\PSoC4/PWM_MOT.c **** 
 491:Generated_Source\PSoC4/PWM_MOT.c ****     PWM_MOT_CONTROL_REG &= (uint32)~PWM_MOT_PWM_SYNC_KILL_MASK;
 492:Generated_Source\PSoC4/PWM_MOT.c ****     PWM_MOT_CONTROL_REG |= ((uint32)((syncKillEnable & PWM_MOT_1BIT_MASK)  <<
 493:Generated_Source\PSoC4/PWM_MOT.c ****                                                PWM_MOT_PWM_SYNC_KILL_SHIFT));
 494:Generated_Source\PSoC4/PWM_MOT.c **** 
 495:Generated_Source\PSoC4/PWM_MOT.c ****     CyExitCriticalSection(enableInterrupts);
 496:Generated_Source\PSoC4/PWM_MOT.c **** }
 497:Generated_Source\PSoC4/PWM_MOT.c **** 
 498:Generated_Source\PSoC4/PWM_MOT.c **** 
 499:Generated_Source\PSoC4/PWM_MOT.c **** /*******************************************************************************
 500:Generated_Source\PSoC4/PWM_MOT.c **** * Function Name: PWM_MOT_SetPWMStopOnKill
 501:Generated_Source\PSoC4/PWM_MOT.c **** ********************************************************************************
 502:Generated_Source\PSoC4/PWM_MOT.c **** *
 503:Generated_Source\PSoC4/PWM_MOT.c **** * Summary:
 504:Generated_Source\PSoC4/PWM_MOT.c **** *  Writes the register that controls whether the PWM kill signal (stop input)
 505:Generated_Source\PSoC4/PWM_MOT.c **** *  causes the PWM counter to stop.  By default the kill operation does not stop
 506:Generated_Source\PSoC4/PWM_MOT.c **** *  the counter.  This functionality is only applicable to the three PWM modes.
 507:Generated_Source\PSoC4/PWM_MOT.c **** *
 508:Generated_Source\PSoC4/PWM_MOT.c **** *
 509:Generated_Source\PSoC4/PWM_MOT.c **** * Parameters:
 510:Generated_Source\PSoC4/PWM_MOT.c **** *  stopOnKillEnable
 511:Generated_Source\PSoC4/PWM_MOT.c **** *   Values:
 512:Generated_Source\PSoC4/PWM_MOT.c **** *     - 0 - Don't stop
 513:Generated_Source\PSoC4/PWM_MOT.c **** *     - 1 - Stop
 514:Generated_Source\PSoC4/PWM_MOT.c **** *
 515:Generated_Source\PSoC4/PWM_MOT.c **** * Return:
 516:Generated_Source\PSoC4/PWM_MOT.c **** *  None
 517:Generated_Source\PSoC4/PWM_MOT.c **** *
 518:Generated_Source\PSoC4/PWM_MOT.c **** *******************************************************************************/
 519:Generated_Source\PSoC4/PWM_MOT.c **** void PWM_MOT_SetPWMStopOnKill(uint32 stopOnKillEnable)
 520:Generated_Source\PSoC4/PWM_MOT.c **** {
 521:Generated_Source\PSoC4/PWM_MOT.c ****     uint8 enableInterrupts;
 522:Generated_Source\PSoC4/PWM_MOT.c **** 
 523:Generated_Source\PSoC4/PWM_MOT.c ****     enableInterrupts = CyEnterCriticalSection();
 524:Generated_Source\PSoC4/PWM_MOT.c **** 
 525:Generated_Source\PSoC4/PWM_MOT.c ****     PWM_MOT_CONTROL_REG &= (uint32)~PWM_MOT_PWM_STOP_KILL_MASK;
 526:Generated_Source\PSoC4/PWM_MOT.c ****     PWM_MOT_CONTROL_REG |= ((uint32)((stopOnKillEnable & PWM_MOT_1BIT_MASK)  <<
 527:Generated_Source\PSoC4/PWM_MOT.c ****                                                          PWM_MOT_PWM_STOP_KILL_SHIFT));
 528:Generated_Source\PSoC4/PWM_MOT.c **** 
ARM GAS  C:\Users\g\AppData\Local\Temp\ccC7fujn.s 			page 11


 529:Generated_Source\PSoC4/PWM_MOT.c ****     CyExitCriticalSection(enableInterrupts);
 530:Generated_Source\PSoC4/PWM_MOT.c **** }
 531:Generated_Source\PSoC4/PWM_MOT.c **** 
 532:Generated_Source\PSoC4/PWM_MOT.c **** 
 533:Generated_Source\PSoC4/PWM_MOT.c **** /*******************************************************************************
 534:Generated_Source\PSoC4/PWM_MOT.c **** * Function Name: PWM_MOT_SetPWMDeadTime
 535:Generated_Source\PSoC4/PWM_MOT.c **** ********************************************************************************
 536:Generated_Source\PSoC4/PWM_MOT.c **** *
 537:Generated_Source\PSoC4/PWM_MOT.c **** * Summary:
 538:Generated_Source\PSoC4/PWM_MOT.c **** *  Writes the dead time control value.  This value delays the rising edge of
 539:Generated_Source\PSoC4/PWM_MOT.c **** *  both the line and line_n signals the designated number of cycles resulting
 540:Generated_Source\PSoC4/PWM_MOT.c **** *  in both signals being inactive for that many cycles.  This functionality is
 541:Generated_Source\PSoC4/PWM_MOT.c **** *  only applicable to the PWM in the dead time mode.
 542:Generated_Source\PSoC4/PWM_MOT.c **** 
 543:Generated_Source\PSoC4/PWM_MOT.c **** *
 544:Generated_Source\PSoC4/PWM_MOT.c **** * Parameters:
 545:Generated_Source\PSoC4/PWM_MOT.c **** *  Dead time to insert
 546:Generated_Source\PSoC4/PWM_MOT.c **** *   Values: 0 to 255
 547:Generated_Source\PSoC4/PWM_MOT.c **** *
 548:Generated_Source\PSoC4/PWM_MOT.c **** * Return:
 549:Generated_Source\PSoC4/PWM_MOT.c **** *  None
 550:Generated_Source\PSoC4/PWM_MOT.c **** *
 551:Generated_Source\PSoC4/PWM_MOT.c **** *******************************************************************************/
 552:Generated_Source\PSoC4/PWM_MOT.c **** void PWM_MOT_SetPWMDeadTime(uint32 deadTime)
 553:Generated_Source\PSoC4/PWM_MOT.c **** {
 554:Generated_Source\PSoC4/PWM_MOT.c ****     uint8 enableInterrupts;
 555:Generated_Source\PSoC4/PWM_MOT.c **** 
 556:Generated_Source\PSoC4/PWM_MOT.c ****     enableInterrupts = CyEnterCriticalSection();
 557:Generated_Source\PSoC4/PWM_MOT.c **** 
 558:Generated_Source\PSoC4/PWM_MOT.c ****     PWM_MOT_CONTROL_REG &= (uint32)~PWM_MOT_PRESCALER_MASK;
 559:Generated_Source\PSoC4/PWM_MOT.c ****     PWM_MOT_CONTROL_REG |= ((uint32)((deadTime & PWM_MOT_8BIT_MASK) <<
 560:Generated_Source\PSoC4/PWM_MOT.c ****                                                           PWM_MOT_PRESCALER_SHIFT));
 561:Generated_Source\PSoC4/PWM_MOT.c **** 
 562:Generated_Source\PSoC4/PWM_MOT.c ****     CyExitCriticalSection(enableInterrupts);
 563:Generated_Source\PSoC4/PWM_MOT.c **** }
 564:Generated_Source\PSoC4/PWM_MOT.c **** 
 565:Generated_Source\PSoC4/PWM_MOT.c **** 
 566:Generated_Source\PSoC4/PWM_MOT.c **** /*******************************************************************************
 567:Generated_Source\PSoC4/PWM_MOT.c **** * Function Name: PWM_MOT_SetPWMInvert
 568:Generated_Source\PSoC4/PWM_MOT.c **** ********************************************************************************
 569:Generated_Source\PSoC4/PWM_MOT.c **** *
 570:Generated_Source\PSoC4/PWM_MOT.c **** * Summary:
 571:Generated_Source\PSoC4/PWM_MOT.c **** *  Writes the bits that control whether the line and line_n outputs are
 572:Generated_Source\PSoC4/PWM_MOT.c **** *  inverted from their normal output values.  This functionality is only
 573:Generated_Source\PSoC4/PWM_MOT.c **** *  applicable to the three PWM modes.
 574:Generated_Source\PSoC4/PWM_MOT.c **** *
 575:Generated_Source\PSoC4/PWM_MOT.c **** * Parameters:
 576:Generated_Source\PSoC4/PWM_MOT.c **** *  mask: Mask of outputs to invert.
 577:Generated_Source\PSoC4/PWM_MOT.c **** *   Values:
 578:Generated_Source\PSoC4/PWM_MOT.c **** *         - PWM_MOT_INVERT_LINE   - Inverts the line output
 579:Generated_Source\PSoC4/PWM_MOT.c **** *         - PWM_MOT_INVERT_LINE_N - Inverts the line_n output
 580:Generated_Source\PSoC4/PWM_MOT.c **** *
 581:Generated_Source\PSoC4/PWM_MOT.c **** * Return:
 582:Generated_Source\PSoC4/PWM_MOT.c **** *  None
 583:Generated_Source\PSoC4/PWM_MOT.c **** *
 584:Generated_Source\PSoC4/PWM_MOT.c **** *******************************************************************************/
 585:Generated_Source\PSoC4/PWM_MOT.c **** void PWM_MOT_SetPWMInvert(uint32 mask)
ARM GAS  C:\Users\g\AppData\Local\Temp\ccC7fujn.s 			page 12


 586:Generated_Source\PSoC4/PWM_MOT.c **** {
 587:Generated_Source\PSoC4/PWM_MOT.c ****     uint8 enableInterrupts;
 588:Generated_Source\PSoC4/PWM_MOT.c **** 
 589:Generated_Source\PSoC4/PWM_MOT.c ****     enableInterrupts = CyEnterCriticalSection();
 590:Generated_Source\PSoC4/PWM_MOT.c **** 
 591:Generated_Source\PSoC4/PWM_MOT.c ****     PWM_MOT_CONTROL_REG &= (uint32)~PWM_MOT_INV_OUT_MASK;
 592:Generated_Source\PSoC4/PWM_MOT.c ****     PWM_MOT_CONTROL_REG |= mask;
 593:Generated_Source\PSoC4/PWM_MOT.c **** 
 594:Generated_Source\PSoC4/PWM_MOT.c ****     CyExitCriticalSection(enableInterrupts);
 595:Generated_Source\PSoC4/PWM_MOT.c **** }
 596:Generated_Source\PSoC4/PWM_MOT.c **** 
 597:Generated_Source\PSoC4/PWM_MOT.c **** 
 598:Generated_Source\PSoC4/PWM_MOT.c **** 
 599:Generated_Source\PSoC4/PWM_MOT.c **** /*******************************************************************************
 600:Generated_Source\PSoC4/PWM_MOT.c **** * Function Name: PWM_MOT_WriteCounter
 601:Generated_Source\PSoC4/PWM_MOT.c **** ********************************************************************************
 602:Generated_Source\PSoC4/PWM_MOT.c **** *
 603:Generated_Source\PSoC4/PWM_MOT.c **** * Summary:
 604:Generated_Source\PSoC4/PWM_MOT.c **** *  Writes a new 16bit counter value directly into the counter register, thus
 605:Generated_Source\PSoC4/PWM_MOT.c **** *  setting the counter (not the period) to the value written. It is not
 606:Generated_Source\PSoC4/PWM_MOT.c **** *  advised to write to this field when the counter is running.
 607:Generated_Source\PSoC4/PWM_MOT.c **** *
 608:Generated_Source\PSoC4/PWM_MOT.c **** * Parameters:
 609:Generated_Source\PSoC4/PWM_MOT.c **** *  count: value to write
 610:Generated_Source\PSoC4/PWM_MOT.c **** *
 611:Generated_Source\PSoC4/PWM_MOT.c **** * Return:
 612:Generated_Source\PSoC4/PWM_MOT.c **** *  None
 613:Generated_Source\PSoC4/PWM_MOT.c **** *
 614:Generated_Source\PSoC4/PWM_MOT.c **** *******************************************************************************/
 615:Generated_Source\PSoC4/PWM_MOT.c **** void PWM_MOT_WriteCounter(uint32 count)
 616:Generated_Source\PSoC4/PWM_MOT.c **** {
 617:Generated_Source\PSoC4/PWM_MOT.c ****     PWM_MOT_COUNTER_REG = (count & PWM_MOT_16BIT_MASK);
  42              		.loc 1 617 0
  43 0010 0021     		mov	r1, #0
  44              	.LBE23:
  45              	.LBE22:
  95:Generated_Source\PSoC4/PWM_MOT.c ****             
  46              		.loc 1 95 0
  47 0012 1A60     		str	r2, [r3]
  48              	.LVL0:
  49              	.LBB26:
  50              	.LBB24:
  51              		.loc 1 617 0
  52 0014 0B4A     		ldr	r2, .L2+4
  53              	.LBE24:
  54              	.LBE26:
 160:Generated_Source\PSoC4/PWM_MOT.c **** 
  55              		.loc 1 160 0
  56              		@ sp needed
  57              	.LBB27:
  58              	.LBB25:
  59              		.loc 1 617 0
  60 0016 1160     		str	r1, [r2]
  61              	.LBE25:
  62              	.LBE27:
 112:Generated_Source\PSoC4/PWM_MOT.c ****         #endif  /* (PWM_MOT__PWM == PWM_MOT_PWM_MODE) */
  63              		.loc 1 112 0
ARM GAS  C:\Users\g\AppData\Local\Temp\ccC7fujn.s 			page 13


  64 0018 1A68     		ldr	r2, [r3]
 137:Generated_Source\PSoC4/PWM_MOT.c ****             #endif  /* ( PWM_MOT_PWM_CENTER == PWM_MOT_PWM_ALIGN) */
  65              		.loc 1 137 0
  66 001a 1E31     		add	r1, r1, #30
 112:Generated_Source\PSoC4/PWM_MOT.c ****         #endif  /* (PWM_MOT__PWM == PWM_MOT_PWM_MODE) */
  67              		.loc 1 112 0
  68 001c 1A60     		str	r2, [r3]
 116:Generated_Source\PSoC4/PWM_MOT.c ****     
  69              		.loc 1 116 0
  70 001e C322     		mov	r2, #195
  71 0020 094B     		ldr	r3, .L2+8
  72 0022 9200     		lsl	r2, r2, #2
  73 0024 1A60     		str	r2, [r3]
  74              	.LVL1:
  75              	.LBB28:
  76              	.LBB29:
 618:Generated_Source\PSoC4/PWM_MOT.c **** }
 619:Generated_Source\PSoC4/PWM_MOT.c **** 
 620:Generated_Source\PSoC4/PWM_MOT.c **** 
 621:Generated_Source\PSoC4/PWM_MOT.c **** /*******************************************************************************
 622:Generated_Source\PSoC4/PWM_MOT.c **** * Function Name: PWM_MOT_ReadCounter
 623:Generated_Source\PSoC4/PWM_MOT.c **** ********************************************************************************
 624:Generated_Source\PSoC4/PWM_MOT.c **** *
 625:Generated_Source\PSoC4/PWM_MOT.c **** * Summary:
 626:Generated_Source\PSoC4/PWM_MOT.c **** *  Reads the current counter value.
 627:Generated_Source\PSoC4/PWM_MOT.c **** *
 628:Generated_Source\PSoC4/PWM_MOT.c **** * Parameters:
 629:Generated_Source\PSoC4/PWM_MOT.c **** *  None
 630:Generated_Source\PSoC4/PWM_MOT.c **** *
 631:Generated_Source\PSoC4/PWM_MOT.c **** * Return:
 632:Generated_Source\PSoC4/PWM_MOT.c **** *  Current counter value
 633:Generated_Source\PSoC4/PWM_MOT.c **** *
 634:Generated_Source\PSoC4/PWM_MOT.c **** *******************************************************************************/
 635:Generated_Source\PSoC4/PWM_MOT.c **** uint32 PWM_MOT_ReadCounter(void)
 636:Generated_Source\PSoC4/PWM_MOT.c **** {
 637:Generated_Source\PSoC4/PWM_MOT.c ****     return (PWM_MOT_COUNTER_REG & PWM_MOT_16BIT_MASK);
 638:Generated_Source\PSoC4/PWM_MOT.c **** }
 639:Generated_Source\PSoC4/PWM_MOT.c **** 
 640:Generated_Source\PSoC4/PWM_MOT.c **** 
 641:Generated_Source\PSoC4/PWM_MOT.c **** /*******************************************************************************
 642:Generated_Source\PSoC4/PWM_MOT.c **** * Function Name: PWM_MOT_SetCounterMode
 643:Generated_Source\PSoC4/PWM_MOT.c **** ********************************************************************************
 644:Generated_Source\PSoC4/PWM_MOT.c **** *
 645:Generated_Source\PSoC4/PWM_MOT.c **** * Summary:
 646:Generated_Source\PSoC4/PWM_MOT.c **** *  Sets the counter mode.  Applicable to all modes except Quadrature Decoder
 647:Generated_Source\PSoC4/PWM_MOT.c **** *  and the PWM with a pseudo random output.
 648:Generated_Source\PSoC4/PWM_MOT.c **** *
 649:Generated_Source\PSoC4/PWM_MOT.c **** * Parameters:
 650:Generated_Source\PSoC4/PWM_MOT.c **** *  counterMode: Enumerated counter type values
 651:Generated_Source\PSoC4/PWM_MOT.c **** *   Values:
 652:Generated_Source\PSoC4/PWM_MOT.c **** *     - PWM_MOT_COUNT_UP       - Counts up
 653:Generated_Source\PSoC4/PWM_MOT.c **** *     - PWM_MOT_COUNT_DOWN     - Counts down
 654:Generated_Source\PSoC4/PWM_MOT.c **** *     - PWM_MOT_COUNT_UPDOWN0  - Counts up and down. Terminal count
 655:Generated_Source\PSoC4/PWM_MOT.c **** *                                         generated when counter reaches 0
 656:Generated_Source\PSoC4/PWM_MOT.c **** *     - PWM_MOT_COUNT_UPDOWN1  - Counts up and down. Terminal count
 657:Generated_Source\PSoC4/PWM_MOT.c **** *                                         generated both when counter reaches 0
 658:Generated_Source\PSoC4/PWM_MOT.c **** *                                         and period
ARM GAS  C:\Users\g\AppData\Local\Temp\ccC7fujn.s 			page 14


 659:Generated_Source\PSoC4/PWM_MOT.c **** *
 660:Generated_Source\PSoC4/PWM_MOT.c **** * Return:
 661:Generated_Source\PSoC4/PWM_MOT.c **** *  None
 662:Generated_Source\PSoC4/PWM_MOT.c **** *
 663:Generated_Source\PSoC4/PWM_MOT.c **** *******************************************************************************/
 664:Generated_Source\PSoC4/PWM_MOT.c **** void PWM_MOT_SetCounterMode(uint32 counterMode)
 665:Generated_Source\PSoC4/PWM_MOT.c **** {
 666:Generated_Source\PSoC4/PWM_MOT.c ****     uint8 enableInterrupts;
 667:Generated_Source\PSoC4/PWM_MOT.c **** 
 668:Generated_Source\PSoC4/PWM_MOT.c ****     enableInterrupts = CyEnterCriticalSection();
 669:Generated_Source\PSoC4/PWM_MOT.c **** 
 670:Generated_Source\PSoC4/PWM_MOT.c ****     PWM_MOT_CONTROL_REG &= (uint32)~PWM_MOT_UPDOWN_MASK;
 671:Generated_Source\PSoC4/PWM_MOT.c ****     PWM_MOT_CONTROL_REG |= counterMode;
 672:Generated_Source\PSoC4/PWM_MOT.c **** 
 673:Generated_Source\PSoC4/PWM_MOT.c ****     CyExitCriticalSection(enableInterrupts);
 674:Generated_Source\PSoC4/PWM_MOT.c **** }
 675:Generated_Source\PSoC4/PWM_MOT.c **** 
 676:Generated_Source\PSoC4/PWM_MOT.c **** 
 677:Generated_Source\PSoC4/PWM_MOT.c **** /*******************************************************************************
 678:Generated_Source\PSoC4/PWM_MOT.c **** * Function Name: PWM_MOT_WritePeriod
 679:Generated_Source\PSoC4/PWM_MOT.c **** ********************************************************************************
 680:Generated_Source\PSoC4/PWM_MOT.c **** *
 681:Generated_Source\PSoC4/PWM_MOT.c **** * Summary:
 682:Generated_Source\PSoC4/PWM_MOT.c **** *  Writes the 16 bit period register with the new period value.
 683:Generated_Source\PSoC4/PWM_MOT.c **** *  To cause the counter to count for N cycles this register should be written
 684:Generated_Source\PSoC4/PWM_MOT.c **** *  with N-1 (counts from 0 to period inclusive).
 685:Generated_Source\PSoC4/PWM_MOT.c **** *
 686:Generated_Source\PSoC4/PWM_MOT.c **** * Parameters:
 687:Generated_Source\PSoC4/PWM_MOT.c **** *  period: Period value
 688:Generated_Source\PSoC4/PWM_MOT.c **** *
 689:Generated_Source\PSoC4/PWM_MOT.c **** * Return:
 690:Generated_Source\PSoC4/PWM_MOT.c **** *  None
 691:Generated_Source\PSoC4/PWM_MOT.c **** *
 692:Generated_Source\PSoC4/PWM_MOT.c **** *******************************************************************************/
 693:Generated_Source\PSoC4/PWM_MOT.c **** void PWM_MOT_WritePeriod(uint32 period)
 694:Generated_Source\PSoC4/PWM_MOT.c **** {
 695:Generated_Source\PSoC4/PWM_MOT.c ****     PWM_MOT_PERIOD_REG = (period & PWM_MOT_16BIT_MASK);
 696:Generated_Source\PSoC4/PWM_MOT.c **** }
 697:Generated_Source\PSoC4/PWM_MOT.c **** 
 698:Generated_Source\PSoC4/PWM_MOT.c **** 
 699:Generated_Source\PSoC4/PWM_MOT.c **** /*******************************************************************************
 700:Generated_Source\PSoC4/PWM_MOT.c **** * Function Name: PWM_MOT_ReadPeriod
 701:Generated_Source\PSoC4/PWM_MOT.c **** ********************************************************************************
 702:Generated_Source\PSoC4/PWM_MOT.c **** *
 703:Generated_Source\PSoC4/PWM_MOT.c **** * Summary:
 704:Generated_Source\PSoC4/PWM_MOT.c **** *  Reads the 16 bit period register.
 705:Generated_Source\PSoC4/PWM_MOT.c **** *
 706:Generated_Source\PSoC4/PWM_MOT.c **** * Parameters:
 707:Generated_Source\PSoC4/PWM_MOT.c **** *  None
 708:Generated_Source\PSoC4/PWM_MOT.c **** *
 709:Generated_Source\PSoC4/PWM_MOT.c **** * Return:
 710:Generated_Source\PSoC4/PWM_MOT.c **** *  Period value
 711:Generated_Source\PSoC4/PWM_MOT.c **** *
 712:Generated_Source\PSoC4/PWM_MOT.c **** *******************************************************************************/
 713:Generated_Source\PSoC4/PWM_MOT.c **** uint32 PWM_MOT_ReadPeriod(void)
 714:Generated_Source\PSoC4/PWM_MOT.c **** {
 715:Generated_Source\PSoC4/PWM_MOT.c ****     return (PWM_MOT_PERIOD_REG & PWM_MOT_16BIT_MASK);
ARM GAS  C:\Users\g\AppData\Local\Temp\ccC7fujn.s 			page 15


 716:Generated_Source\PSoC4/PWM_MOT.c **** }
 717:Generated_Source\PSoC4/PWM_MOT.c **** 
 718:Generated_Source\PSoC4/PWM_MOT.c **** 
 719:Generated_Source\PSoC4/PWM_MOT.c **** /*******************************************************************************
 720:Generated_Source\PSoC4/PWM_MOT.c **** * Function Name: PWM_MOT_SetCompareSwap
 721:Generated_Source\PSoC4/PWM_MOT.c **** ********************************************************************************
 722:Generated_Source\PSoC4/PWM_MOT.c **** *
 723:Generated_Source\PSoC4/PWM_MOT.c **** * Summary:
 724:Generated_Source\PSoC4/PWM_MOT.c **** *  Writes the register that controls whether the compare registers are
 725:Generated_Source\PSoC4/PWM_MOT.c **** *  swapped. When enabled in the Timer/Counter mode(without capture) the swap
 726:Generated_Source\PSoC4/PWM_MOT.c **** *  occurs at a TC event. In the PWM mode the swap occurs at the next TC event
 727:Generated_Source\PSoC4/PWM_MOT.c **** *  following a hardware switch event.
 728:Generated_Source\PSoC4/PWM_MOT.c **** *
 729:Generated_Source\PSoC4/PWM_MOT.c **** * Parameters:
 730:Generated_Source\PSoC4/PWM_MOT.c **** *  swapEnable
 731:Generated_Source\PSoC4/PWM_MOT.c **** *   Values:
 732:Generated_Source\PSoC4/PWM_MOT.c **** *     - 0 - Disable swap
 733:Generated_Source\PSoC4/PWM_MOT.c **** *     - 1 - Enable swap
 734:Generated_Source\PSoC4/PWM_MOT.c **** *
 735:Generated_Source\PSoC4/PWM_MOT.c **** * Return:
 736:Generated_Source\PSoC4/PWM_MOT.c **** *  None
 737:Generated_Source\PSoC4/PWM_MOT.c **** *
 738:Generated_Source\PSoC4/PWM_MOT.c **** *******************************************************************************/
 739:Generated_Source\PSoC4/PWM_MOT.c **** void PWM_MOT_SetCompareSwap(uint32 swapEnable)
 740:Generated_Source\PSoC4/PWM_MOT.c **** {
 741:Generated_Source\PSoC4/PWM_MOT.c ****     uint8 enableInterrupts;
 742:Generated_Source\PSoC4/PWM_MOT.c **** 
 743:Generated_Source\PSoC4/PWM_MOT.c ****     enableInterrupts = CyEnterCriticalSection();
 744:Generated_Source\PSoC4/PWM_MOT.c **** 
 745:Generated_Source\PSoC4/PWM_MOT.c ****     PWM_MOT_CONTROL_REG &= (uint32)~PWM_MOT_RELOAD_CC_MASK;
 746:Generated_Source\PSoC4/PWM_MOT.c ****     PWM_MOT_CONTROL_REG |= (swapEnable & PWM_MOT_1BIT_MASK);
 747:Generated_Source\PSoC4/PWM_MOT.c **** 
 748:Generated_Source\PSoC4/PWM_MOT.c ****     CyExitCriticalSection(enableInterrupts);
 749:Generated_Source\PSoC4/PWM_MOT.c **** }
 750:Generated_Source\PSoC4/PWM_MOT.c **** 
 751:Generated_Source\PSoC4/PWM_MOT.c **** 
 752:Generated_Source\PSoC4/PWM_MOT.c **** /*******************************************************************************
 753:Generated_Source\PSoC4/PWM_MOT.c **** * Function Name: PWM_MOT_WritePeriodBuf
 754:Generated_Source\PSoC4/PWM_MOT.c **** ********************************************************************************
 755:Generated_Source\PSoC4/PWM_MOT.c **** *
 756:Generated_Source\PSoC4/PWM_MOT.c **** * Summary:
 757:Generated_Source\PSoC4/PWM_MOT.c **** *  Writes the 16 bit period buf register with the new period value.
 758:Generated_Source\PSoC4/PWM_MOT.c **** *
 759:Generated_Source\PSoC4/PWM_MOT.c **** * Parameters:
 760:Generated_Source\PSoC4/PWM_MOT.c **** *  periodBuf: Period value
 761:Generated_Source\PSoC4/PWM_MOT.c **** *
 762:Generated_Source\PSoC4/PWM_MOT.c **** * Return:
 763:Generated_Source\PSoC4/PWM_MOT.c **** *  None
 764:Generated_Source\PSoC4/PWM_MOT.c **** *
 765:Generated_Source\PSoC4/PWM_MOT.c **** *******************************************************************************/
 766:Generated_Source\PSoC4/PWM_MOT.c **** void PWM_MOT_WritePeriodBuf(uint32 periodBuf)
 767:Generated_Source\PSoC4/PWM_MOT.c **** {
 768:Generated_Source\PSoC4/PWM_MOT.c ****     PWM_MOT_PERIOD_BUF_REG = (periodBuf & PWM_MOT_16BIT_MASK);
 769:Generated_Source\PSoC4/PWM_MOT.c **** }
 770:Generated_Source\PSoC4/PWM_MOT.c **** 
 771:Generated_Source\PSoC4/PWM_MOT.c **** 
 772:Generated_Source\PSoC4/PWM_MOT.c **** /*******************************************************************************
ARM GAS  C:\Users\g\AppData\Local\Temp\ccC7fujn.s 			page 16


 773:Generated_Source\PSoC4/PWM_MOT.c **** * Function Name: PWM_MOT_ReadPeriodBuf
 774:Generated_Source\PSoC4/PWM_MOT.c **** ********************************************************************************
 775:Generated_Source\PSoC4/PWM_MOT.c **** *
 776:Generated_Source\PSoC4/PWM_MOT.c **** * Summary:
 777:Generated_Source\PSoC4/PWM_MOT.c **** *  Reads the 16 bit period buf register.
 778:Generated_Source\PSoC4/PWM_MOT.c **** *
 779:Generated_Source\PSoC4/PWM_MOT.c **** * Parameters:
 780:Generated_Source\PSoC4/PWM_MOT.c **** *  None
 781:Generated_Source\PSoC4/PWM_MOT.c **** *
 782:Generated_Source\PSoC4/PWM_MOT.c **** * Return:
 783:Generated_Source\PSoC4/PWM_MOT.c **** *  Period value
 784:Generated_Source\PSoC4/PWM_MOT.c **** *
 785:Generated_Source\PSoC4/PWM_MOT.c **** *******************************************************************************/
 786:Generated_Source\PSoC4/PWM_MOT.c **** uint32 PWM_MOT_ReadPeriodBuf(void)
 787:Generated_Source\PSoC4/PWM_MOT.c **** {
 788:Generated_Source\PSoC4/PWM_MOT.c ****     return (PWM_MOT_PERIOD_BUF_REG & PWM_MOT_16BIT_MASK);
 789:Generated_Source\PSoC4/PWM_MOT.c **** }
 790:Generated_Source\PSoC4/PWM_MOT.c **** 
 791:Generated_Source\PSoC4/PWM_MOT.c **** 
 792:Generated_Source\PSoC4/PWM_MOT.c **** /*******************************************************************************
 793:Generated_Source\PSoC4/PWM_MOT.c **** * Function Name: PWM_MOT_SetPeriodSwap
 794:Generated_Source\PSoC4/PWM_MOT.c **** ********************************************************************************
 795:Generated_Source\PSoC4/PWM_MOT.c **** *
 796:Generated_Source\PSoC4/PWM_MOT.c **** * Summary:
 797:Generated_Source\PSoC4/PWM_MOT.c **** *  Writes the register that controls whether the period registers are
 798:Generated_Source\PSoC4/PWM_MOT.c **** *  swapped. When enabled in Timer/Counter mode the swap occurs at a TC event.
 799:Generated_Source\PSoC4/PWM_MOT.c **** *  In the PWM mode the swap occurs at the next TC event following a hardware
 800:Generated_Source\PSoC4/PWM_MOT.c **** *  switch event.
 801:Generated_Source\PSoC4/PWM_MOT.c **** *
 802:Generated_Source\PSoC4/PWM_MOT.c **** * Parameters:
 803:Generated_Source\PSoC4/PWM_MOT.c **** *  swapEnable
 804:Generated_Source\PSoC4/PWM_MOT.c **** *   Values:
 805:Generated_Source\PSoC4/PWM_MOT.c **** *     - 0 - Disable swap
 806:Generated_Source\PSoC4/PWM_MOT.c **** *     - 1 - Enable swap
 807:Generated_Source\PSoC4/PWM_MOT.c **** *
 808:Generated_Source\PSoC4/PWM_MOT.c **** * Return:
 809:Generated_Source\PSoC4/PWM_MOT.c **** *  None
 810:Generated_Source\PSoC4/PWM_MOT.c **** *
 811:Generated_Source\PSoC4/PWM_MOT.c **** *******************************************************************************/
 812:Generated_Source\PSoC4/PWM_MOT.c **** void PWM_MOT_SetPeriodSwap(uint32 swapEnable)
 813:Generated_Source\PSoC4/PWM_MOT.c **** {
 814:Generated_Source\PSoC4/PWM_MOT.c ****     uint8 enableInterrupts;
 815:Generated_Source\PSoC4/PWM_MOT.c **** 
 816:Generated_Source\PSoC4/PWM_MOT.c ****     enableInterrupts = CyEnterCriticalSection();
 817:Generated_Source\PSoC4/PWM_MOT.c **** 
 818:Generated_Source\PSoC4/PWM_MOT.c ****     PWM_MOT_CONTROL_REG &= (uint32)~PWM_MOT_RELOAD_PERIOD_MASK;
 819:Generated_Source\PSoC4/PWM_MOT.c ****     PWM_MOT_CONTROL_REG |= ((uint32)((swapEnable & PWM_MOT_1BIT_MASK) <<
 820:Generated_Source\PSoC4/PWM_MOT.c ****                                                             PWM_MOT_RELOAD_PERIOD_SHIFT));
 821:Generated_Source\PSoC4/PWM_MOT.c **** 
 822:Generated_Source\PSoC4/PWM_MOT.c ****     CyExitCriticalSection(enableInterrupts);
 823:Generated_Source\PSoC4/PWM_MOT.c **** }
 824:Generated_Source\PSoC4/PWM_MOT.c **** 
 825:Generated_Source\PSoC4/PWM_MOT.c **** 
 826:Generated_Source\PSoC4/PWM_MOT.c **** /*******************************************************************************
 827:Generated_Source\PSoC4/PWM_MOT.c **** * Function Name: PWM_MOT_WriteCompare
 828:Generated_Source\PSoC4/PWM_MOT.c **** ********************************************************************************
 829:Generated_Source\PSoC4/PWM_MOT.c **** *
ARM GAS  C:\Users\g\AppData\Local\Temp\ccC7fujn.s 			page 17


 830:Generated_Source\PSoC4/PWM_MOT.c **** * Summary:
 831:Generated_Source\PSoC4/PWM_MOT.c **** *  Writes the 16 bit compare register with the new compare value. Not
 832:Generated_Source\PSoC4/PWM_MOT.c **** *  applicable for Timer/Counter with Capture or in Quadrature Decoder modes.
 833:Generated_Source\PSoC4/PWM_MOT.c **** *
 834:Generated_Source\PSoC4/PWM_MOT.c **** * Parameters:
 835:Generated_Source\PSoC4/PWM_MOT.c **** *  compare: Compare value
 836:Generated_Source\PSoC4/PWM_MOT.c **** *
 837:Generated_Source\PSoC4/PWM_MOT.c **** * Return:
 838:Generated_Source\PSoC4/PWM_MOT.c **** *  None
 839:Generated_Source\PSoC4/PWM_MOT.c **** *
 840:Generated_Source\PSoC4/PWM_MOT.c **** * Note:
 841:Generated_Source\PSoC4/PWM_MOT.c **** *  It is not recommended to use the value equal to "0" or equal to 
 842:Generated_Source\PSoC4/PWM_MOT.c **** *  "period value" in Center or Asymmetric align PWM modes on the 
 843:Generated_Source\PSoC4/PWM_MOT.c **** *  PSoC 4100/PSoC 4200 devices.
 844:Generated_Source\PSoC4/PWM_MOT.c **** *  PSoC 4000 devices write the 16 bit compare register with the decremented 
 845:Generated_Source\PSoC4/PWM_MOT.c **** *  compare value in the Up counting mode (except 0x0u), and the incremented 
 846:Generated_Source\PSoC4/PWM_MOT.c **** *  compare value in the Down counting mode (except 0xFFFFu).
 847:Generated_Source\PSoC4/PWM_MOT.c **** *
 848:Generated_Source\PSoC4/PWM_MOT.c **** *******************************************************************************/
 849:Generated_Source\PSoC4/PWM_MOT.c **** void PWM_MOT_WriteCompare(uint32 compare)
 850:Generated_Source\PSoC4/PWM_MOT.c **** {
 851:Generated_Source\PSoC4/PWM_MOT.c ****     #if (PWM_MOT_CY_TCPWM_4000)
 852:Generated_Source\PSoC4/PWM_MOT.c ****         uint32 currentMode;
 853:Generated_Source\PSoC4/PWM_MOT.c ****     #endif /* (PWM_MOT_CY_TCPWM_4000) */
 854:Generated_Source\PSoC4/PWM_MOT.c **** 
 855:Generated_Source\PSoC4/PWM_MOT.c ****     #if (PWM_MOT_CY_TCPWM_4000)
 856:Generated_Source\PSoC4/PWM_MOT.c ****         currentMode = ((PWM_MOT_CONTROL_REG & PWM_MOT_UPDOWN_MASK) >> PWM_MOT_UPDOWN_SHIFT);
 857:Generated_Source\PSoC4/PWM_MOT.c **** 
 858:Generated_Source\PSoC4/PWM_MOT.c ****         if (((uint32)PWM_MOT__COUNT_DOWN == currentMode) && (0xFFFFu != compare))
 859:Generated_Source\PSoC4/PWM_MOT.c ****         {
 860:Generated_Source\PSoC4/PWM_MOT.c ****             compare++;
 861:Generated_Source\PSoC4/PWM_MOT.c ****         }
 862:Generated_Source\PSoC4/PWM_MOT.c ****         else if (((uint32)PWM_MOT__COUNT_UP == currentMode) && (0u != compare))
 863:Generated_Source\PSoC4/PWM_MOT.c ****         {
 864:Generated_Source\PSoC4/PWM_MOT.c ****             compare--;
 865:Generated_Source\PSoC4/PWM_MOT.c ****         }
 866:Generated_Source\PSoC4/PWM_MOT.c ****         else
 867:Generated_Source\PSoC4/PWM_MOT.c ****         {
 868:Generated_Source\PSoC4/PWM_MOT.c ****         }
 869:Generated_Source\PSoC4/PWM_MOT.c ****         
 870:Generated_Source\PSoC4/PWM_MOT.c ****     
 871:Generated_Source\PSoC4/PWM_MOT.c ****     #endif /* (PWM_MOT_CY_TCPWM_4000) */
 872:Generated_Source\PSoC4/PWM_MOT.c ****     
 873:Generated_Source\PSoC4/PWM_MOT.c ****     PWM_MOT_COMP_CAP_REG = (compare & PWM_MOT_16BIT_MASK);
 874:Generated_Source\PSoC4/PWM_MOT.c **** }
 875:Generated_Source\PSoC4/PWM_MOT.c **** 
 876:Generated_Source\PSoC4/PWM_MOT.c **** 
 877:Generated_Source\PSoC4/PWM_MOT.c **** /*******************************************************************************
 878:Generated_Source\PSoC4/PWM_MOT.c **** * Function Name: PWM_MOT_ReadCompare
 879:Generated_Source\PSoC4/PWM_MOT.c **** ********************************************************************************
 880:Generated_Source\PSoC4/PWM_MOT.c **** *
 881:Generated_Source\PSoC4/PWM_MOT.c **** * Summary:
 882:Generated_Source\PSoC4/PWM_MOT.c **** *  Reads the compare register. Not applicable for Timer/Counter with Capture
 883:Generated_Source\PSoC4/PWM_MOT.c **** *  or in Quadrature Decoder modes.
 884:Generated_Source\PSoC4/PWM_MOT.c **** *  PSoC 4000 devices read the incremented compare register value in the 
 885:Generated_Source\PSoC4/PWM_MOT.c **** *  Up counting mode (except 0xFFFFu), and the decremented value in the 
 886:Generated_Source\PSoC4/PWM_MOT.c **** *  Down counting mode (except 0x0u).
ARM GAS  C:\Users\g\AppData\Local\Temp\ccC7fujn.s 			page 18


 887:Generated_Source\PSoC4/PWM_MOT.c **** *
 888:Generated_Source\PSoC4/PWM_MOT.c **** * Parameters:
 889:Generated_Source\PSoC4/PWM_MOT.c **** *  None
 890:Generated_Source\PSoC4/PWM_MOT.c **** *
 891:Generated_Source\PSoC4/PWM_MOT.c **** * Return:
 892:Generated_Source\PSoC4/PWM_MOT.c **** *  Compare value
 893:Generated_Source\PSoC4/PWM_MOT.c **** *
 894:Generated_Source\PSoC4/PWM_MOT.c **** * Note:
 895:Generated_Source\PSoC4/PWM_MOT.c **** *  PSoC 4000 devices read the incremented compare register value in the 
 896:Generated_Source\PSoC4/PWM_MOT.c **** *  Up counting mode (except 0xFFFFu), and the decremented value in the 
 897:Generated_Source\PSoC4/PWM_MOT.c **** *  Down counting mode (except 0x0u).
 898:Generated_Source\PSoC4/PWM_MOT.c **** *
 899:Generated_Source\PSoC4/PWM_MOT.c **** *******************************************************************************/
 900:Generated_Source\PSoC4/PWM_MOT.c **** uint32 PWM_MOT_ReadCompare(void)
 901:Generated_Source\PSoC4/PWM_MOT.c **** {
 902:Generated_Source\PSoC4/PWM_MOT.c ****     #if (PWM_MOT_CY_TCPWM_4000)
 903:Generated_Source\PSoC4/PWM_MOT.c ****         uint32 currentMode;
 904:Generated_Source\PSoC4/PWM_MOT.c ****         uint32 regVal;
 905:Generated_Source\PSoC4/PWM_MOT.c ****     #endif /* (PWM_MOT_CY_TCPWM_4000) */
 906:Generated_Source\PSoC4/PWM_MOT.c **** 
 907:Generated_Source\PSoC4/PWM_MOT.c ****     #if (PWM_MOT_CY_TCPWM_4000)
 908:Generated_Source\PSoC4/PWM_MOT.c ****         currentMode = ((PWM_MOT_CONTROL_REG & PWM_MOT_UPDOWN_MASK) >> PWM_MOT_UPDOWN_SHIFT);
 909:Generated_Source\PSoC4/PWM_MOT.c ****         
 910:Generated_Source\PSoC4/PWM_MOT.c ****         regVal = PWM_MOT_COMP_CAP_REG;
 911:Generated_Source\PSoC4/PWM_MOT.c ****         
 912:Generated_Source\PSoC4/PWM_MOT.c ****         if (((uint32)PWM_MOT__COUNT_DOWN == currentMode) && (0u != regVal))
 913:Generated_Source\PSoC4/PWM_MOT.c ****         {
 914:Generated_Source\PSoC4/PWM_MOT.c ****             regVal--;
 915:Generated_Source\PSoC4/PWM_MOT.c ****         }
 916:Generated_Source\PSoC4/PWM_MOT.c ****         else if (((uint32)PWM_MOT__COUNT_UP == currentMode) && (0xFFFFu != regVal))
 917:Generated_Source\PSoC4/PWM_MOT.c ****         {
 918:Generated_Source\PSoC4/PWM_MOT.c ****             regVal++;
 919:Generated_Source\PSoC4/PWM_MOT.c ****         }
 920:Generated_Source\PSoC4/PWM_MOT.c ****         else
 921:Generated_Source\PSoC4/PWM_MOT.c ****         {
 922:Generated_Source\PSoC4/PWM_MOT.c ****         }
 923:Generated_Source\PSoC4/PWM_MOT.c **** 
 924:Generated_Source\PSoC4/PWM_MOT.c ****         return (regVal & PWM_MOT_16BIT_MASK);
 925:Generated_Source\PSoC4/PWM_MOT.c ****     #else
 926:Generated_Source\PSoC4/PWM_MOT.c ****         return (PWM_MOT_COMP_CAP_REG & PWM_MOT_16BIT_MASK);
 927:Generated_Source\PSoC4/PWM_MOT.c ****     #endif /* (PWM_MOT_CY_TCPWM_4000) */
 928:Generated_Source\PSoC4/PWM_MOT.c **** }
 929:Generated_Source\PSoC4/PWM_MOT.c **** 
 930:Generated_Source\PSoC4/PWM_MOT.c **** 
 931:Generated_Source\PSoC4/PWM_MOT.c **** /*******************************************************************************
 932:Generated_Source\PSoC4/PWM_MOT.c **** * Function Name: PWM_MOT_WriteCompareBuf
 933:Generated_Source\PSoC4/PWM_MOT.c **** ********************************************************************************
 934:Generated_Source\PSoC4/PWM_MOT.c **** *
 935:Generated_Source\PSoC4/PWM_MOT.c **** * Summary:
 936:Generated_Source\PSoC4/PWM_MOT.c **** *  Writes the 16 bit compare buffer register with the new compare value. Not
 937:Generated_Source\PSoC4/PWM_MOT.c **** *  applicable for Timer/Counter with Capture or in Quadrature Decoder modes.
 938:Generated_Source\PSoC4/PWM_MOT.c **** *
 939:Generated_Source\PSoC4/PWM_MOT.c **** * Parameters:
 940:Generated_Source\PSoC4/PWM_MOT.c **** *  compareBuf: Compare value
 941:Generated_Source\PSoC4/PWM_MOT.c **** *
 942:Generated_Source\PSoC4/PWM_MOT.c **** * Return:
 943:Generated_Source\PSoC4/PWM_MOT.c **** *  None
ARM GAS  C:\Users\g\AppData\Local\Temp\ccC7fujn.s 			page 19


 944:Generated_Source\PSoC4/PWM_MOT.c **** *
 945:Generated_Source\PSoC4/PWM_MOT.c **** * Note:
 946:Generated_Source\PSoC4/PWM_MOT.c **** *  It is not recommended to use the value equal to "0" or equal to 
 947:Generated_Source\PSoC4/PWM_MOT.c **** *  "period value" in Center or Asymmetric align PWM modes on the 
 948:Generated_Source\PSoC4/PWM_MOT.c **** *  PSoC 4100/PSoC 4200 devices.
 949:Generated_Source\PSoC4/PWM_MOT.c **** *  PSoC 4000 devices write the 16 bit compare register with the decremented 
 950:Generated_Source\PSoC4/PWM_MOT.c **** *  compare value in the Up counting mode (except 0x0u), and the incremented 
 951:Generated_Source\PSoC4/PWM_MOT.c **** *  compare value in the Down counting mode (except 0xFFFFu).
 952:Generated_Source\PSoC4/PWM_MOT.c **** *
 953:Generated_Source\PSoC4/PWM_MOT.c **** *******************************************************************************/
 954:Generated_Source\PSoC4/PWM_MOT.c **** void PWM_MOT_WriteCompareBuf(uint32 compareBuf)
 955:Generated_Source\PSoC4/PWM_MOT.c **** {
 956:Generated_Source\PSoC4/PWM_MOT.c ****     #if (PWM_MOT_CY_TCPWM_4000)
 957:Generated_Source\PSoC4/PWM_MOT.c ****         uint32 currentMode;
 958:Generated_Source\PSoC4/PWM_MOT.c ****     #endif /* (PWM_MOT_CY_TCPWM_4000) */
 959:Generated_Source\PSoC4/PWM_MOT.c **** 
 960:Generated_Source\PSoC4/PWM_MOT.c ****     #if (PWM_MOT_CY_TCPWM_4000)
 961:Generated_Source\PSoC4/PWM_MOT.c ****         currentMode = ((PWM_MOT_CONTROL_REG & PWM_MOT_UPDOWN_MASK) >> PWM_MOT_UPDOWN_SHIFT);
 962:Generated_Source\PSoC4/PWM_MOT.c **** 
 963:Generated_Source\PSoC4/PWM_MOT.c ****         if (((uint32)PWM_MOT__COUNT_DOWN == currentMode) && (0xFFFFu != compareBuf))
 964:Generated_Source\PSoC4/PWM_MOT.c ****         {
 965:Generated_Source\PSoC4/PWM_MOT.c ****             compareBuf++;
 966:Generated_Source\PSoC4/PWM_MOT.c ****         }
 967:Generated_Source\PSoC4/PWM_MOT.c ****         else if (((uint32)PWM_MOT__COUNT_UP == currentMode) && (0u != compareBuf))
 968:Generated_Source\PSoC4/PWM_MOT.c ****         {
 969:Generated_Source\PSoC4/PWM_MOT.c ****             compareBuf --;
 970:Generated_Source\PSoC4/PWM_MOT.c ****         }
 971:Generated_Source\PSoC4/PWM_MOT.c ****         else
 972:Generated_Source\PSoC4/PWM_MOT.c ****         {
 973:Generated_Source\PSoC4/PWM_MOT.c ****         }
 974:Generated_Source\PSoC4/PWM_MOT.c ****     #endif /* (PWM_MOT_CY_TCPWM_4000) */
 975:Generated_Source\PSoC4/PWM_MOT.c ****     
 976:Generated_Source\PSoC4/PWM_MOT.c ****     PWM_MOT_COMP_CAP_BUF_REG = (compareBuf & PWM_MOT_16BIT_MASK);
 977:Generated_Source\PSoC4/PWM_MOT.c **** }
 978:Generated_Source\PSoC4/PWM_MOT.c **** 
 979:Generated_Source\PSoC4/PWM_MOT.c **** 
 980:Generated_Source\PSoC4/PWM_MOT.c **** /*******************************************************************************
 981:Generated_Source\PSoC4/PWM_MOT.c **** * Function Name: PWM_MOT_ReadCompareBuf
 982:Generated_Source\PSoC4/PWM_MOT.c **** ********************************************************************************
 983:Generated_Source\PSoC4/PWM_MOT.c **** *
 984:Generated_Source\PSoC4/PWM_MOT.c **** * Summary:
 985:Generated_Source\PSoC4/PWM_MOT.c **** *  Reads the compare buffer register. Not applicable for Timer/Counter with
 986:Generated_Source\PSoC4/PWM_MOT.c **** *  Capture or in Quadrature Decoder modes.
 987:Generated_Source\PSoC4/PWM_MOT.c **** *
 988:Generated_Source\PSoC4/PWM_MOT.c **** * Parameters:
 989:Generated_Source\PSoC4/PWM_MOT.c **** *  None
 990:Generated_Source\PSoC4/PWM_MOT.c **** *
 991:Generated_Source\PSoC4/PWM_MOT.c **** * Return:
 992:Generated_Source\PSoC4/PWM_MOT.c **** *  Compare buffer value
 993:Generated_Source\PSoC4/PWM_MOT.c **** *
 994:Generated_Source\PSoC4/PWM_MOT.c **** * Note:
 995:Generated_Source\PSoC4/PWM_MOT.c **** *  PSoC 4000 devices read the incremented compare register value in the 
 996:Generated_Source\PSoC4/PWM_MOT.c **** *  Up counting mode (except 0xFFFFu), and the decremented value in the 
 997:Generated_Source\PSoC4/PWM_MOT.c **** *  Down counting mode (except 0x0u).
 998:Generated_Source\PSoC4/PWM_MOT.c **** *
 999:Generated_Source\PSoC4/PWM_MOT.c **** *******************************************************************************/
1000:Generated_Source\PSoC4/PWM_MOT.c **** uint32 PWM_MOT_ReadCompareBuf(void)
ARM GAS  C:\Users\g\AppData\Local\Temp\ccC7fujn.s 			page 20


1001:Generated_Source\PSoC4/PWM_MOT.c **** {
1002:Generated_Source\PSoC4/PWM_MOT.c ****     #if (PWM_MOT_CY_TCPWM_4000)
1003:Generated_Source\PSoC4/PWM_MOT.c ****         uint32 currentMode;
1004:Generated_Source\PSoC4/PWM_MOT.c ****         uint32 regVal;
1005:Generated_Source\PSoC4/PWM_MOT.c ****     #endif /* (PWM_MOT_CY_TCPWM_4000) */
1006:Generated_Source\PSoC4/PWM_MOT.c **** 
1007:Generated_Source\PSoC4/PWM_MOT.c ****     #if (PWM_MOT_CY_TCPWM_4000)
1008:Generated_Source\PSoC4/PWM_MOT.c ****         currentMode = ((PWM_MOT_CONTROL_REG & PWM_MOT_UPDOWN_MASK) >> PWM_MOT_UPDOWN_SHIFT);
1009:Generated_Source\PSoC4/PWM_MOT.c **** 
1010:Generated_Source\PSoC4/PWM_MOT.c ****         regVal = PWM_MOT_COMP_CAP_BUF_REG;
1011:Generated_Source\PSoC4/PWM_MOT.c ****         
1012:Generated_Source\PSoC4/PWM_MOT.c ****         if (((uint32)PWM_MOT__COUNT_DOWN == currentMode) && (0u != regVal))
1013:Generated_Source\PSoC4/PWM_MOT.c ****         {
1014:Generated_Source\PSoC4/PWM_MOT.c ****             regVal--;
1015:Generated_Source\PSoC4/PWM_MOT.c ****         }
1016:Generated_Source\PSoC4/PWM_MOT.c ****         else if (((uint32)PWM_MOT__COUNT_UP == currentMode) && (0xFFFFu != regVal))
1017:Generated_Source\PSoC4/PWM_MOT.c ****         {
1018:Generated_Source\PSoC4/PWM_MOT.c ****             regVal++;
1019:Generated_Source\PSoC4/PWM_MOT.c ****         }
1020:Generated_Source\PSoC4/PWM_MOT.c ****         else
1021:Generated_Source\PSoC4/PWM_MOT.c ****         {
1022:Generated_Source\PSoC4/PWM_MOT.c ****         }
1023:Generated_Source\PSoC4/PWM_MOT.c **** 
1024:Generated_Source\PSoC4/PWM_MOT.c ****         return (regVal & PWM_MOT_16BIT_MASK);
1025:Generated_Source\PSoC4/PWM_MOT.c ****     #else
1026:Generated_Source\PSoC4/PWM_MOT.c ****         return (PWM_MOT_COMP_CAP_BUF_REG & PWM_MOT_16BIT_MASK);
1027:Generated_Source\PSoC4/PWM_MOT.c ****     #endif /* (PWM_MOT_CY_TCPWM_4000) */
1028:Generated_Source\PSoC4/PWM_MOT.c **** }
1029:Generated_Source\PSoC4/PWM_MOT.c **** 
1030:Generated_Source\PSoC4/PWM_MOT.c **** 
1031:Generated_Source\PSoC4/PWM_MOT.c **** /*******************************************************************************
1032:Generated_Source\PSoC4/PWM_MOT.c **** * Function Name: PWM_MOT_ReadCapture
1033:Generated_Source\PSoC4/PWM_MOT.c **** ********************************************************************************
1034:Generated_Source\PSoC4/PWM_MOT.c **** *
1035:Generated_Source\PSoC4/PWM_MOT.c **** * Summary:
1036:Generated_Source\PSoC4/PWM_MOT.c **** *  Reads the captured counter value. This API is applicable only for
1037:Generated_Source\PSoC4/PWM_MOT.c **** *  Timer/Counter with the capture mode and Quadrature Decoder modes.
1038:Generated_Source\PSoC4/PWM_MOT.c **** *
1039:Generated_Source\PSoC4/PWM_MOT.c **** * Parameters:
1040:Generated_Source\PSoC4/PWM_MOT.c **** *  None
1041:Generated_Source\PSoC4/PWM_MOT.c **** *
1042:Generated_Source\PSoC4/PWM_MOT.c **** * Return:
1043:Generated_Source\PSoC4/PWM_MOT.c **** *  Capture value
1044:Generated_Source\PSoC4/PWM_MOT.c **** *
1045:Generated_Source\PSoC4/PWM_MOT.c **** *******************************************************************************/
1046:Generated_Source\PSoC4/PWM_MOT.c **** uint32 PWM_MOT_ReadCapture(void)
1047:Generated_Source\PSoC4/PWM_MOT.c **** {
1048:Generated_Source\PSoC4/PWM_MOT.c ****     return (PWM_MOT_COMP_CAP_REG & PWM_MOT_16BIT_MASK);
1049:Generated_Source\PSoC4/PWM_MOT.c **** }
1050:Generated_Source\PSoC4/PWM_MOT.c **** 
1051:Generated_Source\PSoC4/PWM_MOT.c **** 
1052:Generated_Source\PSoC4/PWM_MOT.c **** /*******************************************************************************
1053:Generated_Source\PSoC4/PWM_MOT.c **** * Function Name: PWM_MOT_ReadCaptureBuf
1054:Generated_Source\PSoC4/PWM_MOT.c **** ********************************************************************************
1055:Generated_Source\PSoC4/PWM_MOT.c **** *
1056:Generated_Source\PSoC4/PWM_MOT.c **** * Summary:
1057:Generated_Source\PSoC4/PWM_MOT.c **** *  Reads the capture buffer register. This API is applicable only for
ARM GAS  C:\Users\g\AppData\Local\Temp\ccC7fujn.s 			page 21


1058:Generated_Source\PSoC4/PWM_MOT.c **** *  Timer/Counter with the capture mode and Quadrature Decoder modes.
1059:Generated_Source\PSoC4/PWM_MOT.c **** *
1060:Generated_Source\PSoC4/PWM_MOT.c **** * Parameters:
1061:Generated_Source\PSoC4/PWM_MOT.c **** *  None
1062:Generated_Source\PSoC4/PWM_MOT.c **** *
1063:Generated_Source\PSoC4/PWM_MOT.c **** * Return:
1064:Generated_Source\PSoC4/PWM_MOT.c **** *  Capture buffer value
1065:Generated_Source\PSoC4/PWM_MOT.c **** *
1066:Generated_Source\PSoC4/PWM_MOT.c **** *******************************************************************************/
1067:Generated_Source\PSoC4/PWM_MOT.c **** uint32 PWM_MOT_ReadCaptureBuf(void)
1068:Generated_Source\PSoC4/PWM_MOT.c **** {
1069:Generated_Source\PSoC4/PWM_MOT.c ****     return (PWM_MOT_COMP_CAP_BUF_REG & PWM_MOT_16BIT_MASK);
1070:Generated_Source\PSoC4/PWM_MOT.c **** }
1071:Generated_Source\PSoC4/PWM_MOT.c **** 
1072:Generated_Source\PSoC4/PWM_MOT.c **** 
1073:Generated_Source\PSoC4/PWM_MOT.c **** /*******************************************************************************
1074:Generated_Source\PSoC4/PWM_MOT.c **** * Function Name: PWM_MOT_SetCaptureMode
1075:Generated_Source\PSoC4/PWM_MOT.c **** ********************************************************************************
1076:Generated_Source\PSoC4/PWM_MOT.c **** *
1077:Generated_Source\PSoC4/PWM_MOT.c **** * Summary:
1078:Generated_Source\PSoC4/PWM_MOT.c **** *  Sets the capture trigger mode. For PWM mode this is the switch input.
1079:Generated_Source\PSoC4/PWM_MOT.c **** *  This input is not applicable to the Timer/Counter without Capture and
1080:Generated_Source\PSoC4/PWM_MOT.c **** *  Quadrature Decoder modes.
1081:Generated_Source\PSoC4/PWM_MOT.c **** *
1082:Generated_Source\PSoC4/PWM_MOT.c **** * Parameters:
1083:Generated_Source\PSoC4/PWM_MOT.c **** *  triggerMode: Enumerated trigger mode value
1084:Generated_Source\PSoC4/PWM_MOT.c **** *   Values:
1085:Generated_Source\PSoC4/PWM_MOT.c **** *     - PWM_MOT_TRIG_LEVEL     - Level
1086:Generated_Source\PSoC4/PWM_MOT.c **** *     - PWM_MOT_TRIG_RISING    - Rising edge
1087:Generated_Source\PSoC4/PWM_MOT.c **** *     - PWM_MOT_TRIG_FALLING   - Falling edge
1088:Generated_Source\PSoC4/PWM_MOT.c **** *     - PWM_MOT_TRIG_BOTH      - Both rising and falling edge
1089:Generated_Source\PSoC4/PWM_MOT.c **** *
1090:Generated_Source\PSoC4/PWM_MOT.c **** * Return:
1091:Generated_Source\PSoC4/PWM_MOT.c **** *  None
1092:Generated_Source\PSoC4/PWM_MOT.c **** *
1093:Generated_Source\PSoC4/PWM_MOT.c **** *******************************************************************************/
1094:Generated_Source\PSoC4/PWM_MOT.c **** void PWM_MOT_SetCaptureMode(uint32 triggerMode)
1095:Generated_Source\PSoC4/PWM_MOT.c **** {
1096:Generated_Source\PSoC4/PWM_MOT.c ****     uint8 enableInterrupts;
1097:Generated_Source\PSoC4/PWM_MOT.c **** 
1098:Generated_Source\PSoC4/PWM_MOT.c ****     enableInterrupts = CyEnterCriticalSection();
1099:Generated_Source\PSoC4/PWM_MOT.c **** 
1100:Generated_Source\PSoC4/PWM_MOT.c ****     PWM_MOT_TRIG_CONTROL1_REG &= (uint32)~PWM_MOT_CAPTURE_MASK;
1101:Generated_Source\PSoC4/PWM_MOT.c ****     PWM_MOT_TRIG_CONTROL1_REG |= triggerMode;
1102:Generated_Source\PSoC4/PWM_MOT.c **** 
1103:Generated_Source\PSoC4/PWM_MOT.c ****     CyExitCriticalSection(enableInterrupts);
1104:Generated_Source\PSoC4/PWM_MOT.c **** }
1105:Generated_Source\PSoC4/PWM_MOT.c **** 
1106:Generated_Source\PSoC4/PWM_MOT.c **** 
1107:Generated_Source\PSoC4/PWM_MOT.c **** /*******************************************************************************
1108:Generated_Source\PSoC4/PWM_MOT.c **** * Function Name: PWM_MOT_SetReloadMode
1109:Generated_Source\PSoC4/PWM_MOT.c **** ********************************************************************************
1110:Generated_Source\PSoC4/PWM_MOT.c **** *
1111:Generated_Source\PSoC4/PWM_MOT.c **** * Summary:
1112:Generated_Source\PSoC4/PWM_MOT.c **** *  Sets the reload trigger mode. For Quadrature Decoder mode this is the index
1113:Generated_Source\PSoC4/PWM_MOT.c **** *  input.
1114:Generated_Source\PSoC4/PWM_MOT.c **** *
ARM GAS  C:\Users\g\AppData\Local\Temp\ccC7fujn.s 			page 22


1115:Generated_Source\PSoC4/PWM_MOT.c **** * Parameters:
1116:Generated_Source\PSoC4/PWM_MOT.c **** *  triggerMode: Enumerated trigger mode value
1117:Generated_Source\PSoC4/PWM_MOT.c **** *   Values:
1118:Generated_Source\PSoC4/PWM_MOT.c **** *     - PWM_MOT_TRIG_LEVEL     - Level
1119:Generated_Source\PSoC4/PWM_MOT.c **** *     - PWM_MOT_TRIG_RISING    - Rising edge
1120:Generated_Source\PSoC4/PWM_MOT.c **** *     - PWM_MOT_TRIG_FALLING   - Falling edge
1121:Generated_Source\PSoC4/PWM_MOT.c **** *     - PWM_MOT_TRIG_BOTH      - Both rising and falling edge
1122:Generated_Source\PSoC4/PWM_MOT.c **** *
1123:Generated_Source\PSoC4/PWM_MOT.c **** * Return:
1124:Generated_Source\PSoC4/PWM_MOT.c **** *  None
1125:Generated_Source\PSoC4/PWM_MOT.c **** *
1126:Generated_Source\PSoC4/PWM_MOT.c **** *******************************************************************************/
1127:Generated_Source\PSoC4/PWM_MOT.c **** void PWM_MOT_SetReloadMode(uint32 triggerMode)
1128:Generated_Source\PSoC4/PWM_MOT.c **** {
1129:Generated_Source\PSoC4/PWM_MOT.c ****     uint8 enableInterrupts;
1130:Generated_Source\PSoC4/PWM_MOT.c **** 
1131:Generated_Source\PSoC4/PWM_MOT.c ****     enableInterrupts = CyEnterCriticalSection();
1132:Generated_Source\PSoC4/PWM_MOT.c **** 
1133:Generated_Source\PSoC4/PWM_MOT.c ****     PWM_MOT_TRIG_CONTROL1_REG &= (uint32)~PWM_MOT_RELOAD_MASK;
1134:Generated_Source\PSoC4/PWM_MOT.c ****     PWM_MOT_TRIG_CONTROL1_REG |= ((uint32)(triggerMode << PWM_MOT_RELOAD_SHIFT));
1135:Generated_Source\PSoC4/PWM_MOT.c **** 
1136:Generated_Source\PSoC4/PWM_MOT.c ****     CyExitCriticalSection(enableInterrupts);
1137:Generated_Source\PSoC4/PWM_MOT.c **** }
1138:Generated_Source\PSoC4/PWM_MOT.c **** 
1139:Generated_Source\PSoC4/PWM_MOT.c **** 
1140:Generated_Source\PSoC4/PWM_MOT.c **** /*******************************************************************************
1141:Generated_Source\PSoC4/PWM_MOT.c **** * Function Name: PWM_MOT_SetStartMode
1142:Generated_Source\PSoC4/PWM_MOT.c **** ********************************************************************************
1143:Generated_Source\PSoC4/PWM_MOT.c **** *
1144:Generated_Source\PSoC4/PWM_MOT.c **** * Summary:
1145:Generated_Source\PSoC4/PWM_MOT.c **** *  Sets the start trigger mode. For Quadrature Decoder mode this is the
1146:Generated_Source\PSoC4/PWM_MOT.c **** *  phiB input.
1147:Generated_Source\PSoC4/PWM_MOT.c **** *
1148:Generated_Source\PSoC4/PWM_MOT.c **** * Parameters:
1149:Generated_Source\PSoC4/PWM_MOT.c **** *  triggerMode: Enumerated trigger mode value
1150:Generated_Source\PSoC4/PWM_MOT.c **** *   Values:
1151:Generated_Source\PSoC4/PWM_MOT.c **** *     - PWM_MOT_TRIG_LEVEL     - Level
1152:Generated_Source\PSoC4/PWM_MOT.c **** *     - PWM_MOT_TRIG_RISING    - Rising edge
1153:Generated_Source\PSoC4/PWM_MOT.c **** *     - PWM_MOT_TRIG_FALLING   - Falling edge
1154:Generated_Source\PSoC4/PWM_MOT.c **** *     - PWM_MOT_TRIG_BOTH      - Both rising and falling edge
1155:Generated_Source\PSoC4/PWM_MOT.c **** *
1156:Generated_Source\PSoC4/PWM_MOT.c **** * Return:
1157:Generated_Source\PSoC4/PWM_MOT.c **** *  None
1158:Generated_Source\PSoC4/PWM_MOT.c **** *
1159:Generated_Source\PSoC4/PWM_MOT.c **** *******************************************************************************/
1160:Generated_Source\PSoC4/PWM_MOT.c **** void PWM_MOT_SetStartMode(uint32 triggerMode)
1161:Generated_Source\PSoC4/PWM_MOT.c **** {
1162:Generated_Source\PSoC4/PWM_MOT.c ****     uint8 enableInterrupts;
1163:Generated_Source\PSoC4/PWM_MOT.c **** 
1164:Generated_Source\PSoC4/PWM_MOT.c ****     enableInterrupts = CyEnterCriticalSection();
1165:Generated_Source\PSoC4/PWM_MOT.c **** 
1166:Generated_Source\PSoC4/PWM_MOT.c ****     PWM_MOT_TRIG_CONTROL1_REG &= (uint32)~PWM_MOT_START_MASK;
1167:Generated_Source\PSoC4/PWM_MOT.c ****     PWM_MOT_TRIG_CONTROL1_REG |= ((uint32)(triggerMode << PWM_MOT_START_SHIFT));
1168:Generated_Source\PSoC4/PWM_MOT.c **** 
1169:Generated_Source\PSoC4/PWM_MOT.c ****     CyExitCriticalSection(enableInterrupts);
1170:Generated_Source\PSoC4/PWM_MOT.c **** }
1171:Generated_Source\PSoC4/PWM_MOT.c **** 
ARM GAS  C:\Users\g\AppData\Local\Temp\ccC7fujn.s 			page 23


1172:Generated_Source\PSoC4/PWM_MOT.c **** 
1173:Generated_Source\PSoC4/PWM_MOT.c **** /*******************************************************************************
1174:Generated_Source\PSoC4/PWM_MOT.c **** * Function Name: PWM_MOT_SetStopMode
1175:Generated_Source\PSoC4/PWM_MOT.c **** ********************************************************************************
1176:Generated_Source\PSoC4/PWM_MOT.c **** *
1177:Generated_Source\PSoC4/PWM_MOT.c **** * Summary:
1178:Generated_Source\PSoC4/PWM_MOT.c **** *  Sets the stop trigger mode. For PWM mode this is the kill input.
1179:Generated_Source\PSoC4/PWM_MOT.c **** *
1180:Generated_Source\PSoC4/PWM_MOT.c **** * Parameters:
1181:Generated_Source\PSoC4/PWM_MOT.c **** *  triggerMode: Enumerated trigger mode value
1182:Generated_Source\PSoC4/PWM_MOT.c **** *   Values:
1183:Generated_Source\PSoC4/PWM_MOT.c **** *     - PWM_MOT_TRIG_LEVEL     - Level
1184:Generated_Source\PSoC4/PWM_MOT.c **** *     - PWM_MOT_TRIG_RISING    - Rising edge
1185:Generated_Source\PSoC4/PWM_MOT.c **** *     - PWM_MOT_TRIG_FALLING   - Falling edge
1186:Generated_Source\PSoC4/PWM_MOT.c **** *     - PWM_MOT_TRIG_BOTH      - Both rising and falling edge
1187:Generated_Source\PSoC4/PWM_MOT.c **** *
1188:Generated_Source\PSoC4/PWM_MOT.c **** * Return:
1189:Generated_Source\PSoC4/PWM_MOT.c **** *  None
1190:Generated_Source\PSoC4/PWM_MOT.c **** *
1191:Generated_Source\PSoC4/PWM_MOT.c **** *******************************************************************************/
1192:Generated_Source\PSoC4/PWM_MOT.c **** void PWM_MOT_SetStopMode(uint32 triggerMode)
1193:Generated_Source\PSoC4/PWM_MOT.c **** {
1194:Generated_Source\PSoC4/PWM_MOT.c ****     uint8 enableInterrupts;
1195:Generated_Source\PSoC4/PWM_MOT.c **** 
1196:Generated_Source\PSoC4/PWM_MOT.c ****     enableInterrupts = CyEnterCriticalSection();
1197:Generated_Source\PSoC4/PWM_MOT.c **** 
1198:Generated_Source\PSoC4/PWM_MOT.c ****     PWM_MOT_TRIG_CONTROL1_REG &= (uint32)~PWM_MOT_STOP_MASK;
1199:Generated_Source\PSoC4/PWM_MOT.c ****     PWM_MOT_TRIG_CONTROL1_REG |= ((uint32)(triggerMode << PWM_MOT_STOP_SHIFT));
1200:Generated_Source\PSoC4/PWM_MOT.c **** 
1201:Generated_Source\PSoC4/PWM_MOT.c ****     CyExitCriticalSection(enableInterrupts);
1202:Generated_Source\PSoC4/PWM_MOT.c **** }
1203:Generated_Source\PSoC4/PWM_MOT.c **** 
1204:Generated_Source\PSoC4/PWM_MOT.c **** 
1205:Generated_Source\PSoC4/PWM_MOT.c **** /*******************************************************************************
1206:Generated_Source\PSoC4/PWM_MOT.c **** * Function Name: PWM_MOT_SetCountMode
1207:Generated_Source\PSoC4/PWM_MOT.c **** ********************************************************************************
1208:Generated_Source\PSoC4/PWM_MOT.c **** *
1209:Generated_Source\PSoC4/PWM_MOT.c **** * Summary:
1210:Generated_Source\PSoC4/PWM_MOT.c **** *  Sets the count trigger mode. For Quadrature Decoder mode this is the phiA
1211:Generated_Source\PSoC4/PWM_MOT.c **** *  input.
1212:Generated_Source\PSoC4/PWM_MOT.c **** *
1213:Generated_Source\PSoC4/PWM_MOT.c **** * Parameters:
1214:Generated_Source\PSoC4/PWM_MOT.c **** *  triggerMode: Enumerated trigger mode value
1215:Generated_Source\PSoC4/PWM_MOT.c **** *   Values:
1216:Generated_Source\PSoC4/PWM_MOT.c **** *     - PWM_MOT_TRIG_LEVEL     - Level
1217:Generated_Source\PSoC4/PWM_MOT.c **** *     - PWM_MOT_TRIG_RISING    - Rising edge
1218:Generated_Source\PSoC4/PWM_MOT.c **** *     - PWM_MOT_TRIG_FALLING   - Falling edge
1219:Generated_Source\PSoC4/PWM_MOT.c **** *     - PWM_MOT_TRIG_BOTH      - Both rising and falling edge
1220:Generated_Source\PSoC4/PWM_MOT.c **** *
1221:Generated_Source\PSoC4/PWM_MOT.c **** * Return:
1222:Generated_Source\PSoC4/PWM_MOT.c **** *  None
1223:Generated_Source\PSoC4/PWM_MOT.c **** *
1224:Generated_Source\PSoC4/PWM_MOT.c **** *******************************************************************************/
1225:Generated_Source\PSoC4/PWM_MOT.c **** void PWM_MOT_SetCountMode(uint32 triggerMode)
1226:Generated_Source\PSoC4/PWM_MOT.c **** {
1227:Generated_Source\PSoC4/PWM_MOT.c ****     uint8 enableInterrupts;
1228:Generated_Source\PSoC4/PWM_MOT.c **** 
ARM GAS  C:\Users\g\AppData\Local\Temp\ccC7fujn.s 			page 24


1229:Generated_Source\PSoC4/PWM_MOT.c ****     enableInterrupts = CyEnterCriticalSection();
1230:Generated_Source\PSoC4/PWM_MOT.c **** 
1231:Generated_Source\PSoC4/PWM_MOT.c ****     PWM_MOT_TRIG_CONTROL1_REG &= (uint32)~PWM_MOT_COUNT_MASK;
1232:Generated_Source\PSoC4/PWM_MOT.c ****     PWM_MOT_TRIG_CONTROL1_REG |= ((uint32)(triggerMode << PWM_MOT_COUNT_SHIFT));
1233:Generated_Source\PSoC4/PWM_MOT.c **** 
1234:Generated_Source\PSoC4/PWM_MOT.c ****     CyExitCriticalSection(enableInterrupts);
1235:Generated_Source\PSoC4/PWM_MOT.c **** }
1236:Generated_Source\PSoC4/PWM_MOT.c **** 
1237:Generated_Source\PSoC4/PWM_MOT.c **** 
1238:Generated_Source\PSoC4/PWM_MOT.c **** /*******************************************************************************
1239:Generated_Source\PSoC4/PWM_MOT.c **** * Function Name: PWM_MOT_TriggerCommand
1240:Generated_Source\PSoC4/PWM_MOT.c **** ********************************************************************************
1241:Generated_Source\PSoC4/PWM_MOT.c **** *
1242:Generated_Source\PSoC4/PWM_MOT.c **** * Summary:
1243:Generated_Source\PSoC4/PWM_MOT.c **** *  Triggers the designated command to occur on the designated TCPWM instances.
1244:Generated_Source\PSoC4/PWM_MOT.c **** *  The mask can be used to apply this command simultaneously to more than one
1245:Generated_Source\PSoC4/PWM_MOT.c **** *  instance.  This allows multiple TCPWM instances to be synchronized.
1246:Generated_Source\PSoC4/PWM_MOT.c **** *
1247:Generated_Source\PSoC4/PWM_MOT.c **** * Parameters:
1248:Generated_Source\PSoC4/PWM_MOT.c **** *  mask: A combination of mask bits for each instance of the TCPWM that the
1249:Generated_Source\PSoC4/PWM_MOT.c **** *        command should apply to.  This function from one instance can be used
1250:Generated_Source\PSoC4/PWM_MOT.c **** *        to apply the command to any of the instances in the design.
1251:Generated_Source\PSoC4/PWM_MOT.c **** *        The mask value for a specific instance is available with the MASK
1252:Generated_Source\PSoC4/PWM_MOT.c **** *        define.
1253:Generated_Source\PSoC4/PWM_MOT.c **** *  command: Enumerated command values. Capture command only applicable for
1254:Generated_Source\PSoC4/PWM_MOT.c **** *           Timer/Counter with Capture and PWM modes.
1255:Generated_Source\PSoC4/PWM_MOT.c **** *   Values:
1256:Generated_Source\PSoC4/PWM_MOT.c **** *     - PWM_MOT_CMD_CAPTURE    - Trigger Capture/Switch command
1257:Generated_Source\PSoC4/PWM_MOT.c **** *     - PWM_MOT_CMD_RELOAD     - Trigger Reload/Index command
1258:Generated_Source\PSoC4/PWM_MOT.c **** *     - PWM_MOT_CMD_STOP       - Trigger Stop/Kill command
1259:Generated_Source\PSoC4/PWM_MOT.c **** *     - PWM_MOT_CMD_START      - Trigger Start/phiB command
1260:Generated_Source\PSoC4/PWM_MOT.c **** *
1261:Generated_Source\PSoC4/PWM_MOT.c **** * Return:
1262:Generated_Source\PSoC4/PWM_MOT.c **** *  None
1263:Generated_Source\PSoC4/PWM_MOT.c **** *
1264:Generated_Source\PSoC4/PWM_MOT.c **** *******************************************************************************/
1265:Generated_Source\PSoC4/PWM_MOT.c **** void PWM_MOT_TriggerCommand(uint32 mask, uint32 command)
1266:Generated_Source\PSoC4/PWM_MOT.c **** {
1267:Generated_Source\PSoC4/PWM_MOT.c ****     uint8 enableInterrupts;
1268:Generated_Source\PSoC4/PWM_MOT.c **** 
1269:Generated_Source\PSoC4/PWM_MOT.c ****     enableInterrupts = CyEnterCriticalSection();
1270:Generated_Source\PSoC4/PWM_MOT.c **** 
1271:Generated_Source\PSoC4/PWM_MOT.c ****     PWM_MOT_COMMAND_REG = ((uint32)(mask << command));
1272:Generated_Source\PSoC4/PWM_MOT.c **** 
1273:Generated_Source\PSoC4/PWM_MOT.c ****     CyExitCriticalSection(enableInterrupts);
1274:Generated_Source\PSoC4/PWM_MOT.c **** }
1275:Generated_Source\PSoC4/PWM_MOT.c **** 
1276:Generated_Source\PSoC4/PWM_MOT.c **** 
1277:Generated_Source\PSoC4/PWM_MOT.c **** /*******************************************************************************
1278:Generated_Source\PSoC4/PWM_MOT.c **** * Function Name: PWM_MOT_ReadStatus
1279:Generated_Source\PSoC4/PWM_MOT.c **** ********************************************************************************
1280:Generated_Source\PSoC4/PWM_MOT.c **** *
1281:Generated_Source\PSoC4/PWM_MOT.c **** * Summary:
1282:Generated_Source\PSoC4/PWM_MOT.c **** *  Reads the status of the PWM_MOT.
1283:Generated_Source\PSoC4/PWM_MOT.c **** *
1284:Generated_Source\PSoC4/PWM_MOT.c **** * Parameters:
1285:Generated_Source\PSoC4/PWM_MOT.c **** *  None
ARM GAS  C:\Users\g\AppData\Local\Temp\ccC7fujn.s 			page 25


1286:Generated_Source\PSoC4/PWM_MOT.c **** *
1287:Generated_Source\PSoC4/PWM_MOT.c **** * Return:
1288:Generated_Source\PSoC4/PWM_MOT.c **** *  Status
1289:Generated_Source\PSoC4/PWM_MOT.c **** *   Values:
1290:Generated_Source\PSoC4/PWM_MOT.c **** *     - PWM_MOT_STATUS_DOWN    - Set if counting down
1291:Generated_Source\PSoC4/PWM_MOT.c **** *     - PWM_MOT_STATUS_RUNNING - Set if counter is running
1292:Generated_Source\PSoC4/PWM_MOT.c **** *
1293:Generated_Source\PSoC4/PWM_MOT.c **** *******************************************************************************/
1294:Generated_Source\PSoC4/PWM_MOT.c **** uint32 PWM_MOT_ReadStatus(void)
1295:Generated_Source\PSoC4/PWM_MOT.c **** {
1296:Generated_Source\PSoC4/PWM_MOT.c ****     return ((PWM_MOT_STATUS_REG >> PWM_MOT_RUNNING_STATUS_SHIFT) |
1297:Generated_Source\PSoC4/PWM_MOT.c ****             (PWM_MOT_STATUS_REG & PWM_MOT_STATUS_DOWN));
1298:Generated_Source\PSoC4/PWM_MOT.c **** }
1299:Generated_Source\PSoC4/PWM_MOT.c **** 
1300:Generated_Source\PSoC4/PWM_MOT.c **** 
1301:Generated_Source\PSoC4/PWM_MOT.c **** /*******************************************************************************
1302:Generated_Source\PSoC4/PWM_MOT.c **** * Function Name: PWM_MOT_SetInterruptMode
1303:Generated_Source\PSoC4/PWM_MOT.c **** ********************************************************************************
1304:Generated_Source\PSoC4/PWM_MOT.c **** *
1305:Generated_Source\PSoC4/PWM_MOT.c **** * Summary:
1306:Generated_Source\PSoC4/PWM_MOT.c **** *  Sets the interrupt mask to control which interrupt
1307:Generated_Source\PSoC4/PWM_MOT.c **** *  requests generate the interrupt signal.
1308:Generated_Source\PSoC4/PWM_MOT.c **** *
1309:Generated_Source\PSoC4/PWM_MOT.c **** * Parameters:
1310:Generated_Source\PSoC4/PWM_MOT.c **** *   interruptMask: Mask of bits to be enabled
1311:Generated_Source\PSoC4/PWM_MOT.c **** *   Values:
1312:Generated_Source\PSoC4/PWM_MOT.c **** *     - PWM_MOT_INTR_MASK_TC       - Terminal count mask
1313:Generated_Source\PSoC4/PWM_MOT.c **** *     - PWM_MOT_INTR_MASK_CC_MATCH - Compare count / capture mask
1314:Generated_Source\PSoC4/PWM_MOT.c **** *
1315:Generated_Source\PSoC4/PWM_MOT.c **** * Return:
1316:Generated_Source\PSoC4/PWM_MOT.c **** *  None
1317:Generated_Source\PSoC4/PWM_MOT.c **** *
1318:Generated_Source\PSoC4/PWM_MOT.c **** *******************************************************************************/
1319:Generated_Source\PSoC4/PWM_MOT.c **** void PWM_MOT_SetInterruptMode(uint32 interruptMask)
1320:Generated_Source\PSoC4/PWM_MOT.c **** {
1321:Generated_Source\PSoC4/PWM_MOT.c ****     PWM_MOT_INTERRUPT_MASK_REG =  interruptMask;
  77              		.loc 1 1321 0
  78 0026 0123     		mov	r3, #1
  79 0028 084A     		ldr	r2, .L2+12
  80 002a 1360     		str	r3, [r2]
  81              	.LBE29:
  82              	.LBE28:
 137:Generated_Source\PSoC4/PWM_MOT.c ****             #endif  /* ( PWM_MOT_PWM_CENTER == PWM_MOT_PWM_ALIGN) */
  83              		.loc 1 137 0
  84 002c 084A     		ldr	r2, .L2+16
  85 002e 1160     		str	r1, [r2]
  86              	.LVL2:
  87              	.LBB30:
  88              	.LBB31:
 695:Generated_Source\PSoC4/PWM_MOT.c **** }
  89              		.loc 1 695 0
  90 0030 8021     		mov	r1, #128
  91 0032 084A     		ldr	r2, .L2+20
  92 0034 4901     		lsl	r1, r1, #5
  93 0036 1160     		str	r1, [r2]
  94              	.LVL3:
  95              	.LBE31:
ARM GAS  C:\Users\g\AppData\Local\Temp\ccC7fujn.s 			page 26


  96              	.LBE30:
  97              	.LBB32:
  98              	.LBB33:
 873:Generated_Source\PSoC4/PWM_MOT.c **** }
  99              		.loc 1 873 0
 100 0038 074A     		ldr	r2, .L2+24
 101 003a 1360     		str	r3, [r2]
 102              	.LBE33:
 103              	.LBE32:
 160:Generated_Source\PSoC4/PWM_MOT.c **** 
 104              		.loc 1 160 0
 105 003c 7047     		bx	lr
 106              	.L3:
 107 003e C046     		.align	2
 108              	.L2:
 109 0040 00010540 		.word	1074069760
 110 0044 08010540 		.word	1074069768
 111 0048 24010540 		.word	1074069796
 112 004c 38010540 		.word	1074069816
 113 0050 28010540 		.word	1074069800
 114 0054 14010540 		.word	1074069780
 115 0058 0C010540 		.word	1074069772
 116              		.cfi_endproc
 117              	.LFE0:
 118              		.size	PWM_MOT_Init, .-PWM_MOT_Init
 119              		.section	.text.PWM_MOT_Enable,"ax",%progbits
 120              		.align	2
 121              		.global	PWM_MOT_Enable
 122              		.code	16
 123              		.thumb_func
 124              		.type	PWM_MOT_Enable, %function
 125              	PWM_MOT_Enable:
 126              	.LFB1:
 178:Generated_Source\PSoC4/PWM_MOT.c ****     uint8 enableInterrupts;
 127              		.loc 1 178 0
 128              		.cfi_startproc
 129 0000 08B5     		push	{r3, lr}
 130              		.cfi_def_cfa_offset 8
 131              		.cfi_offset 3, -8
 132              		.cfi_offset 14, -4
 181:Generated_Source\PSoC4/PWM_MOT.c ****     PWM_MOT_BLOCK_CONTROL_REG |= PWM_MOT_MASK;
 133              		.loc 1 181 0
 134 0002 FFF7FEFF 		bl	CyEnterCriticalSection
 135              	.LVL4:
 182:Generated_Source\PSoC4/PWM_MOT.c ****     CyExitCriticalSection(enableInterrupts);
 136              		.loc 1 182 0
 137 0006 0123     		mov	r3, #1
 138 0008 074A     		ldr	r2, .L5
 203:Generated_Source\PSoC4/PWM_MOT.c **** 
 139              		.loc 1 203 0
 140              		@ sp needed
 182:Generated_Source\PSoC4/PWM_MOT.c ****     CyExitCriticalSection(enableInterrupts);
 141              		.loc 1 182 0
 142 000a 1168     		ldr	r1, [r2]
 143 000c 0B43     		orr	r3, r1
 144 000e 1360     		str	r3, [r2]
 183:Generated_Source\PSoC4/PWM_MOT.c **** 
ARM GAS  C:\Users\g\AppData\Local\Temp\ccC7fujn.s 			page 27


 145              		.loc 1 183 0
 146 0010 FFF7FEFF 		bl	CyExitCriticalSection
 147              	.LVL5:
 148              	.LBB34:
 149              	.LBB35:
1269:Generated_Source\PSoC4/PWM_MOT.c **** 
 150              		.loc 1 1269 0
 151 0014 FFF7FEFF 		bl	CyEnterCriticalSection
 152              	.LVL6:
1271:Generated_Source\PSoC4/PWM_MOT.c **** 
 153              		.loc 1 1271 0
 154 0018 8022     		mov	r2, #128
 155 001a 044B     		ldr	r3, .L5+4
 156 001c 5204     		lsl	r2, r2, #17
 157 001e 1A60     		str	r2, [r3]
1273:Generated_Source\PSoC4/PWM_MOT.c **** }
 158              		.loc 1 1273 0
 159 0020 FFF7FEFF 		bl	CyExitCriticalSection
 160              	.LVL7:
 161              	.LBE35:
 162              	.LBE34:
 203:Generated_Source\PSoC4/PWM_MOT.c **** 
 163              		.loc 1 203 0
 164 0024 08BD     		pop	{r3, pc}
 165              	.L6:
 166 0026 C046     		.align	2
 167              	.L5:
 168 0028 00000540 		.word	1074069504
 169 002c 08000540 		.word	1074069512
 170              		.cfi_endproc
 171              	.LFE1:
 172              		.size	PWM_MOT_Enable, .-PWM_MOT_Enable
 173              		.section	.text.PWM_MOT_Start,"ax",%progbits
 174              		.align	2
 175              		.global	PWM_MOT_Start
 176              		.code	16
 177              		.thumb_func
 178              		.type	PWM_MOT_Start, %function
 179              	PWM_MOT_Start:
 180              	.LFB2:
 231:Generated_Source\PSoC4/PWM_MOT.c ****     if (0u == PWM_MOT_initVar)
 181              		.loc 1 231 0
 182              		.cfi_startproc
 183 0000 10B5     		push	{r4, lr}
 184              		.cfi_def_cfa_offset 8
 185              		.cfi_offset 4, -8
 186              		.cfi_offset 14, -4
 232:Generated_Source\PSoC4/PWM_MOT.c ****     {
 187              		.loc 1 232 0
 188 0002 124A     		ldr	r2, .L10
 189 0004 1178     		ldrb	r1, [r2]
 190 0006 0029     		cmp	r1, #0
 191 0008 1DD1     		bne	.L8
 192              	.LBB36:
 193              	.LBB37:
  89:Generated_Source\PSoC4/PWM_MOT.c **** 
 194              		.loc 1 89 0
ARM GAS  C:\Users\g\AppData\Local\Temp\ccC7fujn.s 			page 28


 195 000a 8020     		mov	r0, #128
  95:Generated_Source\PSoC4/PWM_MOT.c ****             
 196              		.loc 1 95 0
 197 000c 8024     		mov	r4, #128
  89:Generated_Source\PSoC4/PWM_MOT.c **** 
 198              		.loc 1 89 0
 199 000e 104B     		ldr	r3, .L10+4
 200 0010 C004     		lsl	r0, r0, #19
 201 0012 1860     		str	r0, [r3]
  95:Generated_Source\PSoC4/PWM_MOT.c ****             
 202              		.loc 1 95 0
 203 0014 1868     		ldr	r0, [r3]
 204 0016 A402     		lsl	r4, r4, #10
 205 0018 2043     		orr	r0, r4
 206 001a 1860     		str	r0, [r3]
 207              	.LVL8:
 208              	.LBB38:
 209              	.LBB39:
 617:Generated_Source\PSoC4/PWM_MOT.c **** }
 210              		.loc 1 617 0
 211 001c 0D48     		ldr	r0, .L10+8
 212 001e 0160     		str	r1, [r0]
 213              	.LBE39:
 214              	.LBE38:
 112:Generated_Source\PSoC4/PWM_MOT.c ****         #endif  /* (PWM_MOT__PWM == PWM_MOT_PWM_MODE) */
 215              		.loc 1 112 0
 216 0020 1968     		ldr	r1, [r3]
 137:Generated_Source\PSoC4/PWM_MOT.c ****             #endif  /* ( PWM_MOT_PWM_CENTER == PWM_MOT_PWM_ALIGN) */
 217              		.loc 1 137 0
 218 0022 1E20     		mov	r0, #30
 112:Generated_Source\PSoC4/PWM_MOT.c ****         #endif  /* (PWM_MOT__PWM == PWM_MOT_PWM_MODE) */
 219              		.loc 1 112 0
 220 0024 1960     		str	r1, [r3]
 116:Generated_Source\PSoC4/PWM_MOT.c ****     
 221              		.loc 1 116 0
 222 0026 C321     		mov	r1, #195
 223 0028 0B4B     		ldr	r3, .L10+12
 224 002a 8900     		lsl	r1, r1, #2
 225 002c 1960     		str	r1, [r3]
 226              	.LVL9:
 227              	.LBB40:
 228              	.LBB41:
 229              		.loc 1 1321 0
 230 002e 0123     		mov	r3, #1
 231 0030 0A49     		ldr	r1, .L10+16
 232 0032 0B60     		str	r3, [r1]
 233              	.LBE41:
 234              	.LBE40:
 137:Generated_Source\PSoC4/PWM_MOT.c ****             #endif  /* ( PWM_MOT_PWM_CENTER == PWM_MOT_PWM_ALIGN) */
 235              		.loc 1 137 0
 236 0034 0A49     		ldr	r1, .L10+20
 237 0036 0860     		str	r0, [r1]
 238              	.LVL10:
 239              	.LBB42:
 240              	.LBB43:
 695:Generated_Source\PSoC4/PWM_MOT.c **** }
 241              		.loc 1 695 0
ARM GAS  C:\Users\g\AppData\Local\Temp\ccC7fujn.s 			page 29


 242 0038 8020     		mov	r0, #128
 243 003a 0A49     		ldr	r1, .L10+24
 244 003c 4001     		lsl	r0, r0, #5
 245 003e 0860     		str	r0, [r1]
 246              	.LVL11:
 247              	.LBE43:
 248              	.LBE42:
 249              	.LBB44:
 250              	.LBB45:
 873:Generated_Source\PSoC4/PWM_MOT.c **** }
 251              		.loc 1 873 0
 252 0040 0949     		ldr	r1, .L10+28
 253 0042 0B60     		str	r3, [r1]
 254              	.LBE45:
 255              	.LBE44:
 256              	.LBE37:
 257              	.LBE36:
 235:Generated_Source\PSoC4/PWM_MOT.c ****     }
 258              		.loc 1 235 0
 259 0044 1370     		strb	r3, [r2]
 260              	.LVL12:
 261              	.L8:
 238:Generated_Source\PSoC4/PWM_MOT.c **** }
 262              		.loc 1 238 0
 263 0046 FFF7FEFF 		bl	PWM_MOT_Enable
 264              	.LVL13:
 239:Generated_Source\PSoC4/PWM_MOT.c **** 
 265              		.loc 1 239 0
 266              		@ sp needed
 267 004a 10BD     		pop	{r4, pc}
 268              	.L11:
 269              		.align	2
 270              	.L10:
 271 004c 00000000 		.word	.LANCHOR0
 272 0050 00010540 		.word	1074069760
 273 0054 08010540 		.word	1074069768
 274 0058 24010540 		.word	1074069796
 275 005c 38010540 		.word	1074069816
 276 0060 28010540 		.word	1074069800
 277 0064 14010540 		.word	1074069780
 278 0068 0C010540 		.word	1074069772
 279              		.cfi_endproc
 280              	.LFE2:
 281              		.size	PWM_MOT_Start, .-PWM_MOT_Start
 282              		.section	.text.PWM_MOT_Stop,"ax",%progbits
 283              		.align	2
 284              		.global	PWM_MOT_Stop
 285              		.code	16
 286              		.thumb_func
 287              		.type	PWM_MOT_Stop, %function
 288              	PWM_MOT_Stop:
 289              	.LFB3:
 257:Generated_Source\PSoC4/PWM_MOT.c ****     uint8 enableInterrupts;
 290              		.loc 1 257 0
 291              		.cfi_startproc
 292 0000 08B5     		push	{r3, lr}
 293              		.cfi_def_cfa_offset 8
ARM GAS  C:\Users\g\AppData\Local\Temp\ccC7fujn.s 			page 30


 294              		.cfi_offset 3, -8
 295              		.cfi_offset 14, -4
 260:Generated_Source\PSoC4/PWM_MOT.c **** 
 296              		.loc 1 260 0
 297 0002 FFF7FEFF 		bl	CyEnterCriticalSection
 298              	.LVL14:
 262:Generated_Source\PSoC4/PWM_MOT.c **** 
 299              		.loc 1 262 0
 300 0006 0121     		mov	r1, #1
 301 0008 034A     		ldr	r2, .L13
 265:Generated_Source\PSoC4/PWM_MOT.c **** 
 302              		.loc 1 265 0
 303              		@ sp needed
 262:Generated_Source\PSoC4/PWM_MOT.c **** 
 304              		.loc 1 262 0
 305 000a 1368     		ldr	r3, [r2]
 306 000c 8B43     		bic	r3, r1
 307 000e 1360     		str	r3, [r2]
 264:Generated_Source\PSoC4/PWM_MOT.c **** }
 308              		.loc 1 264 0
 309 0010 FFF7FEFF 		bl	CyExitCriticalSection
 310              	.LVL15:
 265:Generated_Source\PSoC4/PWM_MOT.c **** 
 311              		.loc 1 265 0
 312 0014 08BD     		pop	{r3, pc}
 313              	.L14:
 314 0016 C046     		.align	2
 315              	.L13:
 316 0018 00000540 		.word	1074069504
 317              		.cfi_endproc
 318              	.LFE3:
 319              		.size	PWM_MOT_Stop, .-PWM_MOT_Stop
 320              		.section	.text.PWM_MOT_SetMode,"ax",%progbits
 321              		.align	2
 322              		.global	PWM_MOT_SetMode
 323              		.code	16
 324              		.thumb_func
 325              		.type	PWM_MOT_SetMode, %function
 326              	PWM_MOT_SetMode:
 327              	.LFB4:
 294:Generated_Source\PSoC4/PWM_MOT.c ****     uint8 enableInterrupts;
 328              		.loc 1 294 0
 329              		.cfi_startproc
 330              	.LVL16:
 331 0000 10B5     		push	{r4, lr}
 332              		.cfi_def_cfa_offset 8
 333              		.cfi_offset 4, -8
 334              		.cfi_offset 14, -4
 294:Generated_Source\PSoC4/PWM_MOT.c ****     uint8 enableInterrupts;
 335              		.loc 1 294 0
 336 0002 041C     		mov	r4, r0
 297:Generated_Source\PSoC4/PWM_MOT.c **** 
 337              		.loc 1 297 0
 338 0004 FFF7FEFF 		bl	CyEnterCriticalSection
 339              	.LVL17:
 299:Generated_Source\PSoC4/PWM_MOT.c ****     PWM_MOT_CONTROL_REG |= mode;
 340              		.loc 1 299 0
ARM GAS  C:\Users\g\AppData\Local\Temp\ccC7fujn.s 			page 31


 341 0008 054B     		ldr	r3, .L16
 342 000a 064A     		ldr	r2, .L16+4
 343 000c 1968     		ldr	r1, [r3]
 303:Generated_Source\PSoC4/PWM_MOT.c **** 
 344              		.loc 1 303 0
 345              		@ sp needed
 299:Generated_Source\PSoC4/PWM_MOT.c ****     PWM_MOT_CONTROL_REG |= mode;
 346              		.loc 1 299 0
 347 000e 0A40     		and	r2, r1
 348 0010 1A60     		str	r2, [r3]
 300:Generated_Source\PSoC4/PWM_MOT.c **** 
 349              		.loc 1 300 0
 350 0012 1A68     		ldr	r2, [r3]
 351 0014 2243     		orr	r2, r4
 352 0016 1A60     		str	r2, [r3]
 302:Generated_Source\PSoC4/PWM_MOT.c **** }
 353              		.loc 1 302 0
 354 0018 FFF7FEFF 		bl	CyExitCriticalSection
 355              	.LVL18:
 356              	.LVL19:
 303:Generated_Source\PSoC4/PWM_MOT.c **** 
 357              		.loc 1 303 0
 358 001c 10BD     		pop	{r4, pc}
 359              	.L17:
 360 001e C046     		.align	2
 361              	.L16:
 362 0020 00010540 		.word	1074069760
 363 0024 FFFFFFF8 		.word	-117440513
 364              		.cfi_endproc
 365              	.LFE4:
 366              		.size	PWM_MOT_SetMode, .-PWM_MOT_SetMode
 367              		.section	.text.PWM_MOT_SetQDMode,"ax",%progbits
 368              		.align	2
 369              		.global	PWM_MOT_SetQDMode
 370              		.code	16
 371              		.thumb_func
 372              		.type	PWM_MOT_SetQDMode, %function
 373              	PWM_MOT_SetQDMode:
 374              	.LFB5:
 327:Generated_Source\PSoC4/PWM_MOT.c ****     uint8 enableInterrupts;
 375              		.loc 1 327 0
 376              		.cfi_startproc
 377              	.LVL20:
 378 0000 10B5     		push	{r4, lr}
 379              		.cfi_def_cfa_offset 8
 380              		.cfi_offset 4, -8
 381              		.cfi_offset 14, -4
 327:Generated_Source\PSoC4/PWM_MOT.c ****     uint8 enableInterrupts;
 382              		.loc 1 327 0
 383 0002 041C     		mov	r4, r0
 330:Generated_Source\PSoC4/PWM_MOT.c **** 
 384              		.loc 1 330 0
 385 0004 FFF7FEFF 		bl	CyEnterCriticalSection
 386              	.LVL21:
 332:Generated_Source\PSoC4/PWM_MOT.c ****     PWM_MOT_CONTROL_REG |= qdMode;
 387              		.loc 1 332 0
 388 0008 054B     		ldr	r3, .L19
ARM GAS  C:\Users\g\AppData\Local\Temp\ccC7fujn.s 			page 32


 389 000a 064A     		ldr	r2, .L19+4
 390 000c 1968     		ldr	r1, [r3]
 336:Generated_Source\PSoC4/PWM_MOT.c **** 
 391              		.loc 1 336 0
 392              		@ sp needed
 332:Generated_Source\PSoC4/PWM_MOT.c ****     PWM_MOT_CONTROL_REG |= qdMode;
 393              		.loc 1 332 0
 394 000e 0A40     		and	r2, r1
 395 0010 1A60     		str	r2, [r3]
 333:Generated_Source\PSoC4/PWM_MOT.c **** 
 396              		.loc 1 333 0
 397 0012 1A68     		ldr	r2, [r3]
 398 0014 2243     		orr	r2, r4
 399 0016 1A60     		str	r2, [r3]
 335:Generated_Source\PSoC4/PWM_MOT.c **** }
 400              		.loc 1 335 0
 401 0018 FFF7FEFF 		bl	CyExitCriticalSection
 402              	.LVL22:
 403              	.LVL23:
 336:Generated_Source\PSoC4/PWM_MOT.c **** 
 404              		.loc 1 336 0
 405 001c 10BD     		pop	{r4, pc}
 406              	.L20:
 407 001e C046     		.align	2
 408              	.L19:
 409 0020 00010540 		.word	1074069760
 410 0024 FFFF8FFF 		.word	-7340033
 411              		.cfi_endproc
 412              	.LFE5:
 413              		.size	PWM_MOT_SetQDMode, .-PWM_MOT_SetQDMode
 414              		.section	.text.PWM_MOT_SetPrescaler,"ax",%progbits
 415              		.align	2
 416              		.global	PWM_MOT_SetPrescaler
 417              		.code	16
 418              		.thumb_func
 419              		.type	PWM_MOT_SetPrescaler, %function
 420              	PWM_MOT_SetPrescaler:
 421              	.LFB6:
 364:Generated_Source\PSoC4/PWM_MOT.c ****     uint8 enableInterrupts;
 422              		.loc 1 364 0
 423              		.cfi_startproc
 424              	.LVL24:
 425 0000 10B5     		push	{r4, lr}
 426              		.cfi_def_cfa_offset 8
 427              		.cfi_offset 4, -8
 428              		.cfi_offset 14, -4
 364:Generated_Source\PSoC4/PWM_MOT.c ****     uint8 enableInterrupts;
 429              		.loc 1 364 0
 430 0002 041C     		mov	r4, r0
 367:Generated_Source\PSoC4/PWM_MOT.c **** 
 431              		.loc 1 367 0
 432 0004 FFF7FEFF 		bl	CyEnterCriticalSection
 433              	.LVL25:
 369:Generated_Source\PSoC4/PWM_MOT.c ****     PWM_MOT_CONTROL_REG |= prescaler;
 434              		.loc 1 369 0
 435 0008 054B     		ldr	r3, .L22
 436 000a 064A     		ldr	r2, .L22+4
ARM GAS  C:\Users\g\AppData\Local\Temp\ccC7fujn.s 			page 33


 437 000c 1968     		ldr	r1, [r3]
 373:Generated_Source\PSoC4/PWM_MOT.c **** 
 438              		.loc 1 373 0
 439              		@ sp needed
 369:Generated_Source\PSoC4/PWM_MOT.c ****     PWM_MOT_CONTROL_REG |= prescaler;
 440              		.loc 1 369 0
 441 000e 0A40     		and	r2, r1
 442 0010 1A60     		str	r2, [r3]
 370:Generated_Source\PSoC4/PWM_MOT.c **** 
 443              		.loc 1 370 0
 444 0012 1A68     		ldr	r2, [r3]
 445 0014 2243     		orr	r2, r4
 446 0016 1A60     		str	r2, [r3]
 372:Generated_Source\PSoC4/PWM_MOT.c **** }
 447              		.loc 1 372 0
 448 0018 FFF7FEFF 		bl	CyExitCriticalSection
 449              	.LVL26:
 450              	.LVL27:
 373:Generated_Source\PSoC4/PWM_MOT.c **** 
 451              		.loc 1 373 0
 452 001c 10BD     		pop	{r4, pc}
 453              	.L23:
 454 001e C046     		.align	2
 455              	.L22:
 456 0020 00010540 		.word	1074069760
 457 0024 FF00FFFF 		.word	-65281
 458              		.cfi_endproc
 459              	.LFE6:
 460              		.size	PWM_MOT_SetPrescaler, .-PWM_MOT_SetPrescaler
 461              		.section	.text.PWM_MOT_SetOneShot,"ax",%progbits
 462              		.align	2
 463              		.global	PWM_MOT_SetOneShot
 464              		.code	16
 465              		.thumb_func
 466              		.type	PWM_MOT_SetOneShot, %function
 467              	PWM_MOT_SetOneShot:
 468              	.LFB7:
 396:Generated_Source\PSoC4/PWM_MOT.c ****     uint8 enableInterrupts;
 469              		.loc 1 396 0
 470              		.cfi_startproc
 471              	.LVL28:
 472 0000 10B5     		push	{r4, lr}
 473              		.cfi_def_cfa_offset 8
 474              		.cfi_offset 4, -8
 475              		.cfi_offset 14, -4
 396:Generated_Source\PSoC4/PWM_MOT.c ****     uint8 enableInterrupts;
 476              		.loc 1 396 0
 477 0002 041C     		mov	r4, r0
 399:Generated_Source\PSoC4/PWM_MOT.c **** 
 478              		.loc 1 399 0
 479 0004 FFF7FEFF 		bl	CyEnterCriticalSection
 480              	.LVL29:
 401:Generated_Source\PSoC4/PWM_MOT.c ****     PWM_MOT_CONTROL_REG |= ((uint32)((oneShotEnable & PWM_MOT_1BIT_MASK) <<
 481              		.loc 1 401 0
 482 0008 064B     		ldr	r3, .L25
 483 000a 074A     		ldr	r2, .L25+4
 484 000c 1968     		ldr	r1, [r3]
ARM GAS  C:\Users\g\AppData\Local\Temp\ccC7fujn.s 			page 34


 406:Generated_Source\PSoC4/PWM_MOT.c **** 
 485              		.loc 1 406 0
 486              		@ sp needed
 401:Generated_Source\PSoC4/PWM_MOT.c ****     PWM_MOT_CONTROL_REG |= ((uint32)((oneShotEnable & PWM_MOT_1BIT_MASK) <<
 487              		.loc 1 401 0
 488 000e 0A40     		and	r2, r1
 402:Generated_Source\PSoC4/PWM_MOT.c ****                                                                PWM_MOT_ONESHOT_SHIFT));
 489              		.loc 1 402 0
 490 0010 0121     		mov	r1, #1
 401:Generated_Source\PSoC4/PWM_MOT.c ****     PWM_MOT_CONTROL_REG |= ((uint32)((oneShotEnable & PWM_MOT_1BIT_MASK) <<
 491              		.loc 1 401 0
 492 0012 1A60     		str	r2, [r3]
 402:Generated_Source\PSoC4/PWM_MOT.c ****                                                                PWM_MOT_ONESHOT_SHIFT));
 493              		.loc 1 402 0
 494 0014 1A68     		ldr	r2, [r3]
 495 0016 0C40     		and	r4, r1
 496              	.LVL30:
 497 0018 A404     		lsl	r4, r4, #18
 498 001a 1443     		orr	r4, r2
 499 001c 1C60     		str	r4, [r3]
 405:Generated_Source\PSoC4/PWM_MOT.c **** }
 500              		.loc 1 405 0
 501 001e FFF7FEFF 		bl	CyExitCriticalSection
 502              	.LVL31:
 406:Generated_Source\PSoC4/PWM_MOT.c **** 
 503              		.loc 1 406 0
 504 0022 10BD     		pop	{r4, pc}
 505              	.L26:
 506              		.align	2
 507              	.L25:
 508 0024 00010540 		.word	1074069760
 509 0028 FFFFFBFF 		.word	-262145
 510              		.cfi_endproc
 511              	.LFE7:
 512              		.size	PWM_MOT_SetOneShot, .-PWM_MOT_SetOneShot
 513              		.section	.text.PWM_MOT_SetPWMMode,"ax",%progbits
 514              		.align	2
 515              		.global	PWM_MOT_SetPWMMode
 516              		.code	16
 517              		.thumb_func
 518              		.type	PWM_MOT_SetPWMMode, %function
 519              	PWM_MOT_SetPWMMode:
 520              	.LFB8:
 450:Generated_Source\PSoC4/PWM_MOT.c ****     PWM_MOT_TRIG_CONTROL2_REG = (modeMask & PWM_MOT_6BIT_MASK);
 521              		.loc 1 450 0
 522              		.cfi_startproc
 523              	.LVL32:
 451:Generated_Source\PSoC4/PWM_MOT.c **** }
 524              		.loc 1 451 0
 525 0000 3F23     		mov	r3, #63
 526 0002 1840     		and	r0, r3
 527              	.LVL33:
 528 0004 014B     		ldr	r3, .L28
 452:Generated_Source\PSoC4/PWM_MOT.c **** 
 529              		.loc 1 452 0
 530              		@ sp needed
 451:Generated_Source\PSoC4/PWM_MOT.c **** }
ARM GAS  C:\Users\g\AppData\Local\Temp\ccC7fujn.s 			page 35


 531              		.loc 1 451 0
 532 0006 1860     		str	r0, [r3]
 452:Generated_Source\PSoC4/PWM_MOT.c **** 
 533              		.loc 1 452 0
 534 0008 7047     		bx	lr
 535              	.L29:
 536 000a C046     		.align	2
 537              	.L28:
 538 000c 28010540 		.word	1074069800
 539              		.cfi_endproc
 540              	.LFE8:
 541              		.size	PWM_MOT_SetPWMMode, .-PWM_MOT_SetPWMMode
 542              		.section	.text.PWM_MOT_SetPWMSyncKill,"ax",%progbits
 543              		.align	2
 544              		.global	PWM_MOT_SetPWMSyncKill
 545              		.code	16
 546              		.thumb_func
 547              		.type	PWM_MOT_SetPWMSyncKill, %function
 548              	PWM_MOT_SetPWMSyncKill:
 549              	.LFB9:
 486:Generated_Source\PSoC4/PWM_MOT.c ****     uint8 enableInterrupts;
 550              		.loc 1 486 0
 551              		.cfi_startproc
 552              	.LVL34:
 553 0000 10B5     		push	{r4, lr}
 554              		.cfi_def_cfa_offset 8
 555              		.cfi_offset 4, -8
 556              		.cfi_offset 14, -4
 486:Generated_Source\PSoC4/PWM_MOT.c ****     uint8 enableInterrupts;
 557              		.loc 1 486 0
 558 0002 041C     		mov	r4, r0
 489:Generated_Source\PSoC4/PWM_MOT.c **** 
 559              		.loc 1 489 0
 560 0004 FFF7FEFF 		bl	CyEnterCriticalSection
 561              	.LVL35:
 491:Generated_Source\PSoC4/PWM_MOT.c ****     PWM_MOT_CONTROL_REG |= ((uint32)((syncKillEnable & PWM_MOT_1BIT_MASK)  <<
 562              		.loc 1 491 0
 563 0008 0421     		mov	r1, #4
 564 000a 064B     		ldr	r3, .L31
 496:Generated_Source\PSoC4/PWM_MOT.c **** 
 565              		.loc 1 496 0
 566              		@ sp needed
 491:Generated_Source\PSoC4/PWM_MOT.c ****     PWM_MOT_CONTROL_REG |= ((uint32)((syncKillEnable & PWM_MOT_1BIT_MASK)  <<
 567              		.loc 1 491 0
 568 000c 1A68     		ldr	r2, [r3]
 569 000e 8A43     		bic	r2, r1
 570 0010 1A60     		str	r2, [r3]
 492:Generated_Source\PSoC4/PWM_MOT.c ****                                                PWM_MOT_PWM_SYNC_KILL_SHIFT));
 571              		.loc 1 492 0
 572 0012 0339     		sub	r1, r1, #3
 573 0014 1A68     		ldr	r2, [r3]
 574 0016 0C40     		and	r4, r1
 575              	.LVL36:
 576 0018 A400     		lsl	r4, r4, #2
 577 001a 1443     		orr	r4, r2
 578 001c 1C60     		str	r4, [r3]
 495:Generated_Source\PSoC4/PWM_MOT.c **** }
ARM GAS  C:\Users\g\AppData\Local\Temp\ccC7fujn.s 			page 36


 579              		.loc 1 495 0
 580 001e FFF7FEFF 		bl	CyExitCriticalSection
 581              	.LVL37:
 496:Generated_Source\PSoC4/PWM_MOT.c **** 
 582              		.loc 1 496 0
 583 0022 10BD     		pop	{r4, pc}
 584              	.L32:
 585              		.align	2
 586              	.L31:
 587 0024 00010540 		.word	1074069760
 588              		.cfi_endproc
 589              	.LFE9:
 590              		.size	PWM_MOT_SetPWMSyncKill, .-PWM_MOT_SetPWMSyncKill
 591              		.section	.text.PWM_MOT_SetPWMStopOnKill,"ax",%progbits
 592              		.align	2
 593              		.global	PWM_MOT_SetPWMStopOnKill
 594              		.code	16
 595              		.thumb_func
 596              		.type	PWM_MOT_SetPWMStopOnKill, %function
 597              	PWM_MOT_SetPWMStopOnKill:
 598              	.LFB10:
 520:Generated_Source\PSoC4/PWM_MOT.c ****     uint8 enableInterrupts;
 599              		.loc 1 520 0
 600              		.cfi_startproc
 601              	.LVL38:
 602 0000 10B5     		push	{r4, lr}
 603              		.cfi_def_cfa_offset 8
 604              		.cfi_offset 4, -8
 605              		.cfi_offset 14, -4
 520:Generated_Source\PSoC4/PWM_MOT.c ****     uint8 enableInterrupts;
 606              		.loc 1 520 0
 607 0002 041C     		mov	r4, r0
 523:Generated_Source\PSoC4/PWM_MOT.c **** 
 608              		.loc 1 523 0
 609 0004 FFF7FEFF 		bl	CyEnterCriticalSection
 610              	.LVL39:
 525:Generated_Source\PSoC4/PWM_MOT.c ****     PWM_MOT_CONTROL_REG |= ((uint32)((stopOnKillEnable & PWM_MOT_1BIT_MASK)  <<
 611              		.loc 1 525 0
 612 0008 0821     		mov	r1, #8
 613 000a 064B     		ldr	r3, .L34
 530:Generated_Source\PSoC4/PWM_MOT.c **** 
 614              		.loc 1 530 0
 615              		@ sp needed
 525:Generated_Source\PSoC4/PWM_MOT.c ****     PWM_MOT_CONTROL_REG |= ((uint32)((stopOnKillEnable & PWM_MOT_1BIT_MASK)  <<
 616              		.loc 1 525 0
 617 000c 1A68     		ldr	r2, [r3]
 618 000e 8A43     		bic	r2, r1
 619 0010 1A60     		str	r2, [r3]
 526:Generated_Source\PSoC4/PWM_MOT.c ****                                                          PWM_MOT_PWM_STOP_KILL_SHIFT));
 620              		.loc 1 526 0
 621 0012 0739     		sub	r1, r1, #7
 622 0014 1A68     		ldr	r2, [r3]
 623 0016 0C40     		and	r4, r1
 624              	.LVL40:
 625 0018 E400     		lsl	r4, r4, #3
 626 001a 1443     		orr	r4, r2
 627 001c 1C60     		str	r4, [r3]
ARM GAS  C:\Users\g\AppData\Local\Temp\ccC7fujn.s 			page 37


 529:Generated_Source\PSoC4/PWM_MOT.c **** }
 628              		.loc 1 529 0
 629 001e FFF7FEFF 		bl	CyExitCriticalSection
 630              	.LVL41:
 530:Generated_Source\PSoC4/PWM_MOT.c **** 
 631              		.loc 1 530 0
 632 0022 10BD     		pop	{r4, pc}
 633              	.L35:
 634              		.align	2
 635              	.L34:
 636 0024 00010540 		.word	1074069760
 637              		.cfi_endproc
 638              	.LFE10:
 639              		.size	PWM_MOT_SetPWMStopOnKill, .-PWM_MOT_SetPWMStopOnKill
 640              		.section	.text.PWM_MOT_SetPWMDeadTime,"ax",%progbits
 641              		.align	2
 642              		.global	PWM_MOT_SetPWMDeadTime
 643              		.code	16
 644              		.thumb_func
 645              		.type	PWM_MOT_SetPWMDeadTime, %function
 646              	PWM_MOT_SetPWMDeadTime:
 647              	.LFB11:
 553:Generated_Source\PSoC4/PWM_MOT.c ****     uint8 enableInterrupts;
 648              		.loc 1 553 0
 649              		.cfi_startproc
 650              	.LVL42:
 651 0000 10B5     		push	{r4, lr}
 652              		.cfi_def_cfa_offset 8
 653              		.cfi_offset 4, -8
 654              		.cfi_offset 14, -4
 553:Generated_Source\PSoC4/PWM_MOT.c ****     uint8 enableInterrupts;
 655              		.loc 1 553 0
 656 0002 041C     		mov	r4, r0
 556:Generated_Source\PSoC4/PWM_MOT.c **** 
 657              		.loc 1 556 0
 658 0004 FFF7FEFF 		bl	CyEnterCriticalSection
 659              	.LVL43:
 558:Generated_Source\PSoC4/PWM_MOT.c ****     PWM_MOT_CONTROL_REG |= ((uint32)((deadTime & PWM_MOT_8BIT_MASK) <<
 660              		.loc 1 558 0
 661 0008 064B     		ldr	r3, .L37
 662 000a 074A     		ldr	r2, .L37+4
 663 000c 1968     		ldr	r1, [r3]
 559:Generated_Source\PSoC4/PWM_MOT.c ****                                                           PWM_MOT_PRESCALER_SHIFT));
 664              		.loc 1 559 0
 665 000e 2406     		lsl	r4, r4, #24
 666              	.LVL44:
 558:Generated_Source\PSoC4/PWM_MOT.c ****     PWM_MOT_CONTROL_REG |= ((uint32)((deadTime & PWM_MOT_8BIT_MASK) <<
 667              		.loc 1 558 0
 668 0010 0A40     		and	r2, r1
 669 0012 1A60     		str	r2, [r3]
 559:Generated_Source\PSoC4/PWM_MOT.c ****                                                           PWM_MOT_PRESCALER_SHIFT));
 670              		.loc 1 559 0
 671 0014 1A68     		ldr	r2, [r3]
 672 0016 240C     		lsr	r4, r4, #16
 673 0018 1443     		orr	r4, r2
 674 001a 1C60     		str	r4, [r3]
 562:Generated_Source\PSoC4/PWM_MOT.c **** }
ARM GAS  C:\Users\g\AppData\Local\Temp\ccC7fujn.s 			page 38


 675              		.loc 1 562 0
 676 001c FFF7FEFF 		bl	CyExitCriticalSection
 677              	.LVL45:
 563:Generated_Source\PSoC4/PWM_MOT.c **** 
 678              		.loc 1 563 0
 679              		@ sp needed
 680 0020 10BD     		pop	{r4, pc}
 681              	.L38:
 682 0022 C046     		.align	2
 683              	.L37:
 684 0024 00010540 		.word	1074069760
 685 0028 FF00FFFF 		.word	-65281
 686              		.cfi_endproc
 687              	.LFE11:
 688              		.size	PWM_MOT_SetPWMDeadTime, .-PWM_MOT_SetPWMDeadTime
 689              		.section	.text.PWM_MOT_SetPWMInvert,"ax",%progbits
 690              		.align	2
 691              		.global	PWM_MOT_SetPWMInvert
 692              		.code	16
 693              		.thumb_func
 694              		.type	PWM_MOT_SetPWMInvert, %function
 695              	PWM_MOT_SetPWMInvert:
 696              	.LFB12:
 586:Generated_Source\PSoC4/PWM_MOT.c ****     uint8 enableInterrupts;
 697              		.loc 1 586 0
 698              		.cfi_startproc
 699              	.LVL46:
 700 0000 10B5     		push	{r4, lr}
 701              		.cfi_def_cfa_offset 8
 702              		.cfi_offset 4, -8
 703              		.cfi_offset 14, -4
 586:Generated_Source\PSoC4/PWM_MOT.c ****     uint8 enableInterrupts;
 704              		.loc 1 586 0
 705 0002 041C     		mov	r4, r0
 589:Generated_Source\PSoC4/PWM_MOT.c **** 
 706              		.loc 1 589 0
 707 0004 FFF7FEFF 		bl	CyEnterCriticalSection
 708              	.LVL47:
 591:Generated_Source\PSoC4/PWM_MOT.c ****     PWM_MOT_CONTROL_REG |= mask;
 709              		.loc 1 591 0
 710 0008 054B     		ldr	r3, .L40
 711 000a 064A     		ldr	r2, .L40+4
 712 000c 1968     		ldr	r1, [r3]
 595:Generated_Source\PSoC4/PWM_MOT.c **** 
 713              		.loc 1 595 0
 714              		@ sp needed
 591:Generated_Source\PSoC4/PWM_MOT.c ****     PWM_MOT_CONTROL_REG |= mask;
 715              		.loc 1 591 0
 716 000e 0A40     		and	r2, r1
 717 0010 1A60     		str	r2, [r3]
 592:Generated_Source\PSoC4/PWM_MOT.c **** 
 718              		.loc 1 592 0
 719 0012 1A68     		ldr	r2, [r3]
 720 0014 2243     		orr	r2, r4
 721 0016 1A60     		str	r2, [r3]
 594:Generated_Source\PSoC4/PWM_MOT.c **** }
 722              		.loc 1 594 0
ARM GAS  C:\Users\g\AppData\Local\Temp\ccC7fujn.s 			page 39


 723 0018 FFF7FEFF 		bl	CyExitCriticalSection
 724              	.LVL48:
 725              	.LVL49:
 595:Generated_Source\PSoC4/PWM_MOT.c **** 
 726              		.loc 1 595 0
 727 001c 10BD     		pop	{r4, pc}
 728              	.L41:
 729 001e C046     		.align	2
 730              	.L40:
 731 0020 00010540 		.word	1074069760
 732 0024 FFFFCFFF 		.word	-3145729
 733              		.cfi_endproc
 734              	.LFE12:
 735              		.size	PWM_MOT_SetPWMInvert, .-PWM_MOT_SetPWMInvert
 736              		.section	.text.PWM_MOT_WriteCounter,"ax",%progbits
 737              		.align	2
 738              		.global	PWM_MOT_WriteCounter
 739              		.code	16
 740              		.thumb_func
 741              		.type	PWM_MOT_WriteCounter, %function
 742              	PWM_MOT_WriteCounter:
 743              	.LFB13:
 616:Generated_Source\PSoC4/PWM_MOT.c ****     PWM_MOT_COUNTER_REG = (count & PWM_MOT_16BIT_MASK);
 744              		.loc 1 616 0
 745              		.cfi_startproc
 746              	.LVL50:
 617:Generated_Source\PSoC4/PWM_MOT.c **** }
 747              		.loc 1 617 0
 748 0000 024B     		ldr	r3, .L43
 749 0002 0004     		lsl	r0, r0, #16
 750              	.LVL51:
 751 0004 000C     		lsr	r0, r0, #16
 752 0006 1860     		str	r0, [r3]
 618:Generated_Source\PSoC4/PWM_MOT.c **** 
 753              		.loc 1 618 0
 754              		@ sp needed
 755 0008 7047     		bx	lr
 756              	.L44:
 757 000a C046     		.align	2
 758              	.L43:
 759 000c 08010540 		.word	1074069768
 760              		.cfi_endproc
 761              	.LFE13:
 762              		.size	PWM_MOT_WriteCounter, .-PWM_MOT_WriteCounter
 763              		.section	.text.PWM_MOT_ReadCounter,"ax",%progbits
 764              		.align	2
 765              		.global	PWM_MOT_ReadCounter
 766              		.code	16
 767              		.thumb_func
 768              		.type	PWM_MOT_ReadCounter, %function
 769              	PWM_MOT_ReadCounter:
 770              	.LFB14:
 636:Generated_Source\PSoC4/PWM_MOT.c ****     return (PWM_MOT_COUNTER_REG & PWM_MOT_16BIT_MASK);
 771              		.loc 1 636 0
 772              		.cfi_startproc
 637:Generated_Source\PSoC4/PWM_MOT.c **** }
 773              		.loc 1 637 0
ARM GAS  C:\Users\g\AppData\Local\Temp\ccC7fujn.s 			page 40


 774 0000 024B     		ldr	r3, .L46
 638:Generated_Source\PSoC4/PWM_MOT.c **** 
 775              		.loc 1 638 0
 776              		@ sp needed
 637:Generated_Source\PSoC4/PWM_MOT.c **** }
 777              		.loc 1 637 0
 778 0002 1868     		ldr	r0, [r3]
 779 0004 0004     		lsl	r0, r0, #16
 780 0006 000C     		lsr	r0, r0, #16
 638:Generated_Source\PSoC4/PWM_MOT.c **** 
 781              		.loc 1 638 0
 782 0008 7047     		bx	lr
 783              	.L47:
 784 000a C046     		.align	2
 785              	.L46:
 786 000c 08010540 		.word	1074069768
 787              		.cfi_endproc
 788              	.LFE14:
 789              		.size	PWM_MOT_ReadCounter, .-PWM_MOT_ReadCounter
 790              		.section	.text.PWM_MOT_SetCounterMode,"ax",%progbits
 791              		.align	2
 792              		.global	PWM_MOT_SetCounterMode
 793              		.code	16
 794              		.thumb_func
 795              		.type	PWM_MOT_SetCounterMode, %function
 796              	PWM_MOT_SetCounterMode:
 797              	.LFB15:
 665:Generated_Source\PSoC4/PWM_MOT.c ****     uint8 enableInterrupts;
 798              		.loc 1 665 0
 799              		.cfi_startproc
 800              	.LVL52:
 801 0000 10B5     		push	{r4, lr}
 802              		.cfi_def_cfa_offset 8
 803              		.cfi_offset 4, -8
 804              		.cfi_offset 14, -4
 665:Generated_Source\PSoC4/PWM_MOT.c ****     uint8 enableInterrupts;
 805              		.loc 1 665 0
 806 0002 041C     		mov	r4, r0
 668:Generated_Source\PSoC4/PWM_MOT.c **** 
 807              		.loc 1 668 0
 808 0004 FFF7FEFF 		bl	CyEnterCriticalSection
 809              	.LVL53:
 670:Generated_Source\PSoC4/PWM_MOT.c ****     PWM_MOT_CONTROL_REG |= counterMode;
 810              		.loc 1 670 0
 811 0008 054B     		ldr	r3, .L49
 812 000a 064A     		ldr	r2, .L49+4
 813 000c 1968     		ldr	r1, [r3]
 674:Generated_Source\PSoC4/PWM_MOT.c **** 
 814              		.loc 1 674 0
 815              		@ sp needed
 670:Generated_Source\PSoC4/PWM_MOT.c ****     PWM_MOT_CONTROL_REG |= counterMode;
 816              		.loc 1 670 0
 817 000e 0A40     		and	r2, r1
 818 0010 1A60     		str	r2, [r3]
 671:Generated_Source\PSoC4/PWM_MOT.c **** 
 819              		.loc 1 671 0
 820 0012 1A68     		ldr	r2, [r3]
ARM GAS  C:\Users\g\AppData\Local\Temp\ccC7fujn.s 			page 41


 821 0014 2243     		orr	r2, r4
 822 0016 1A60     		str	r2, [r3]
 673:Generated_Source\PSoC4/PWM_MOT.c **** }
 823              		.loc 1 673 0
 824 0018 FFF7FEFF 		bl	CyExitCriticalSection
 825              	.LVL54:
 826              	.LVL55:
 674:Generated_Source\PSoC4/PWM_MOT.c **** 
 827              		.loc 1 674 0
 828 001c 10BD     		pop	{r4, pc}
 829              	.L50:
 830 001e C046     		.align	2
 831              	.L49:
 832 0020 00010540 		.word	1074069760
 833 0024 FFFFFCFF 		.word	-196609
 834              		.cfi_endproc
 835              	.LFE15:
 836              		.size	PWM_MOT_SetCounterMode, .-PWM_MOT_SetCounterMode
 837              		.section	.text.PWM_MOT_WritePeriod,"ax",%progbits
 838              		.align	2
 839              		.global	PWM_MOT_WritePeriod
 840              		.code	16
 841              		.thumb_func
 842              		.type	PWM_MOT_WritePeriod, %function
 843              	PWM_MOT_WritePeriod:
 844              	.LFB16:
 694:Generated_Source\PSoC4/PWM_MOT.c ****     PWM_MOT_PERIOD_REG = (period & PWM_MOT_16BIT_MASK);
 845              		.loc 1 694 0
 846              		.cfi_startproc
 847              	.LVL56:
 695:Generated_Source\PSoC4/PWM_MOT.c **** }
 848              		.loc 1 695 0
 849 0000 024B     		ldr	r3, .L52
 850 0002 0004     		lsl	r0, r0, #16
 851              	.LVL57:
 852 0004 000C     		lsr	r0, r0, #16
 853 0006 1860     		str	r0, [r3]
 696:Generated_Source\PSoC4/PWM_MOT.c **** 
 854              		.loc 1 696 0
 855              		@ sp needed
 856 0008 7047     		bx	lr
 857              	.L53:
 858 000a C046     		.align	2
 859              	.L52:
 860 000c 14010540 		.word	1074069780
 861              		.cfi_endproc
 862              	.LFE16:
 863              		.size	PWM_MOT_WritePeriod, .-PWM_MOT_WritePeriod
 864              		.section	.text.PWM_MOT_ReadPeriod,"ax",%progbits
 865              		.align	2
 866              		.global	PWM_MOT_ReadPeriod
 867              		.code	16
 868              		.thumb_func
 869              		.type	PWM_MOT_ReadPeriod, %function
 870              	PWM_MOT_ReadPeriod:
 871              	.LFB17:
 714:Generated_Source\PSoC4/PWM_MOT.c ****     return (PWM_MOT_PERIOD_REG & PWM_MOT_16BIT_MASK);
ARM GAS  C:\Users\g\AppData\Local\Temp\ccC7fujn.s 			page 42


 872              		.loc 1 714 0
 873              		.cfi_startproc
 715:Generated_Source\PSoC4/PWM_MOT.c **** }
 874              		.loc 1 715 0
 875 0000 024B     		ldr	r3, .L55
 716:Generated_Source\PSoC4/PWM_MOT.c **** 
 876              		.loc 1 716 0
 877              		@ sp needed
 715:Generated_Source\PSoC4/PWM_MOT.c **** }
 878              		.loc 1 715 0
 879 0002 1868     		ldr	r0, [r3]
 880 0004 0004     		lsl	r0, r0, #16
 881 0006 000C     		lsr	r0, r0, #16
 716:Generated_Source\PSoC4/PWM_MOT.c **** 
 882              		.loc 1 716 0
 883 0008 7047     		bx	lr
 884              	.L56:
 885 000a C046     		.align	2
 886              	.L55:
 887 000c 14010540 		.word	1074069780
 888              		.cfi_endproc
 889              	.LFE17:
 890              		.size	PWM_MOT_ReadPeriod, .-PWM_MOT_ReadPeriod
 891              		.section	.text.PWM_MOT_SetCompareSwap,"ax",%progbits
 892              		.align	2
 893              		.global	PWM_MOT_SetCompareSwap
 894              		.code	16
 895              		.thumb_func
 896              		.type	PWM_MOT_SetCompareSwap, %function
 897              	PWM_MOT_SetCompareSwap:
 898              	.LFB18:
 740:Generated_Source\PSoC4/PWM_MOT.c ****     uint8 enableInterrupts;
 899              		.loc 1 740 0
 900              		.cfi_startproc
 901              	.LVL58:
 902 0000 10B5     		push	{r4, lr}
 903              		.cfi_def_cfa_offset 8
 904              		.cfi_offset 4, -8
 905              		.cfi_offset 14, -4
 740:Generated_Source\PSoC4/PWM_MOT.c ****     uint8 enableInterrupts;
 906              		.loc 1 740 0
 907 0002 041C     		mov	r4, r0
 743:Generated_Source\PSoC4/PWM_MOT.c **** 
 908              		.loc 1 743 0
 909 0004 FFF7FEFF 		bl	CyEnterCriticalSection
 910              	.LVL59:
 745:Generated_Source\PSoC4/PWM_MOT.c ****     PWM_MOT_CONTROL_REG |= (swapEnable & PWM_MOT_1BIT_MASK);
 911              		.loc 1 745 0
 912 0008 0122     		mov	r2, #1
 913 000a 054B     		ldr	r3, .L58
 749:Generated_Source\PSoC4/PWM_MOT.c **** 
 914              		.loc 1 749 0
 915              		@ sp needed
 745:Generated_Source\PSoC4/PWM_MOT.c ****     PWM_MOT_CONTROL_REG |= (swapEnable & PWM_MOT_1BIT_MASK);
 916              		.loc 1 745 0
 917 000c 1968     		ldr	r1, [r3]
 918 000e 9143     		bic	r1, r2
ARM GAS  C:\Users\g\AppData\Local\Temp\ccC7fujn.s 			page 43


 919 0010 1960     		str	r1, [r3]
 746:Generated_Source\PSoC4/PWM_MOT.c **** 
 920              		.loc 1 746 0
 921 0012 1968     		ldr	r1, [r3]
 922 0014 2240     		and	r2, r4
 923 0016 0A43     		orr	r2, r1
 924 0018 1A60     		str	r2, [r3]
 748:Generated_Source\PSoC4/PWM_MOT.c **** }
 925              		.loc 1 748 0
 926 001a FFF7FEFF 		bl	CyExitCriticalSection
 927              	.LVL60:
 928              	.LVL61:
 749:Generated_Source\PSoC4/PWM_MOT.c **** 
 929              		.loc 1 749 0
 930 001e 10BD     		pop	{r4, pc}
 931              	.L59:
 932              		.align	2
 933              	.L58:
 934 0020 00010540 		.word	1074069760
 935              		.cfi_endproc
 936              	.LFE18:
 937              		.size	PWM_MOT_SetCompareSwap, .-PWM_MOT_SetCompareSwap
 938              		.section	.text.PWM_MOT_WritePeriodBuf,"ax",%progbits
 939              		.align	2
 940              		.global	PWM_MOT_WritePeriodBuf
 941              		.code	16
 942              		.thumb_func
 943              		.type	PWM_MOT_WritePeriodBuf, %function
 944              	PWM_MOT_WritePeriodBuf:
 945              	.LFB19:
 767:Generated_Source\PSoC4/PWM_MOT.c ****     PWM_MOT_PERIOD_BUF_REG = (periodBuf & PWM_MOT_16BIT_MASK);
 946              		.loc 1 767 0
 947              		.cfi_startproc
 948              	.LVL62:
 768:Generated_Source\PSoC4/PWM_MOT.c **** }
 949              		.loc 1 768 0
 950 0000 024B     		ldr	r3, .L61
 951 0002 0004     		lsl	r0, r0, #16
 952              	.LVL63:
 953 0004 000C     		lsr	r0, r0, #16
 954 0006 1860     		str	r0, [r3]
 769:Generated_Source\PSoC4/PWM_MOT.c **** 
 955              		.loc 1 769 0
 956              		@ sp needed
 957 0008 7047     		bx	lr
 958              	.L62:
 959 000a C046     		.align	2
 960              	.L61:
 961 000c 18010540 		.word	1074069784
 962              		.cfi_endproc
 963              	.LFE19:
 964              		.size	PWM_MOT_WritePeriodBuf, .-PWM_MOT_WritePeriodBuf
 965              		.section	.text.PWM_MOT_ReadPeriodBuf,"ax",%progbits
 966              		.align	2
 967              		.global	PWM_MOT_ReadPeriodBuf
 968              		.code	16
 969              		.thumb_func
ARM GAS  C:\Users\g\AppData\Local\Temp\ccC7fujn.s 			page 44


 970              		.type	PWM_MOT_ReadPeriodBuf, %function
 971              	PWM_MOT_ReadPeriodBuf:
 972              	.LFB20:
 787:Generated_Source\PSoC4/PWM_MOT.c ****     return (PWM_MOT_PERIOD_BUF_REG & PWM_MOT_16BIT_MASK);
 973              		.loc 1 787 0
 974              		.cfi_startproc
 788:Generated_Source\PSoC4/PWM_MOT.c **** }
 975              		.loc 1 788 0
 976 0000 024B     		ldr	r3, .L64
 789:Generated_Source\PSoC4/PWM_MOT.c **** 
 977              		.loc 1 789 0
 978              		@ sp needed
 788:Generated_Source\PSoC4/PWM_MOT.c **** }
 979              		.loc 1 788 0
 980 0002 1868     		ldr	r0, [r3]
 981 0004 0004     		lsl	r0, r0, #16
 982 0006 000C     		lsr	r0, r0, #16
 789:Generated_Source\PSoC4/PWM_MOT.c **** 
 983              		.loc 1 789 0
 984 0008 7047     		bx	lr
 985              	.L65:
 986 000a C046     		.align	2
 987              	.L64:
 988 000c 18010540 		.word	1074069784
 989              		.cfi_endproc
 990              	.LFE20:
 991              		.size	PWM_MOT_ReadPeriodBuf, .-PWM_MOT_ReadPeriodBuf
 992              		.section	.text.PWM_MOT_SetPeriodSwap,"ax",%progbits
 993              		.align	2
 994              		.global	PWM_MOT_SetPeriodSwap
 995              		.code	16
 996              		.thumb_func
 997              		.type	PWM_MOT_SetPeriodSwap, %function
 998              	PWM_MOT_SetPeriodSwap:
 999              	.LFB21:
 813:Generated_Source\PSoC4/PWM_MOT.c ****     uint8 enableInterrupts;
 1000              		.loc 1 813 0
 1001              		.cfi_startproc
 1002              	.LVL64:
 1003 0000 10B5     		push	{r4, lr}
 1004              		.cfi_def_cfa_offset 8
 1005              		.cfi_offset 4, -8
 1006              		.cfi_offset 14, -4
 813:Generated_Source\PSoC4/PWM_MOT.c ****     uint8 enableInterrupts;
 1007              		.loc 1 813 0
 1008 0002 041C     		mov	r4, r0
 816:Generated_Source\PSoC4/PWM_MOT.c **** 
 1009              		.loc 1 816 0
 1010 0004 FFF7FEFF 		bl	CyEnterCriticalSection
 1011              	.LVL65:
 818:Generated_Source\PSoC4/PWM_MOT.c ****     PWM_MOT_CONTROL_REG |= ((uint32)((swapEnable & PWM_MOT_1BIT_MASK) <<
 1012              		.loc 1 818 0
 1013 0008 0221     		mov	r1, #2
 1014 000a 064B     		ldr	r3, .L67
 823:Generated_Source\PSoC4/PWM_MOT.c **** 
 1015              		.loc 1 823 0
 1016              		@ sp needed
ARM GAS  C:\Users\g\AppData\Local\Temp\ccC7fujn.s 			page 45


 818:Generated_Source\PSoC4/PWM_MOT.c ****     PWM_MOT_CONTROL_REG |= ((uint32)((swapEnable & PWM_MOT_1BIT_MASK) <<
 1017              		.loc 1 818 0
 1018 000c 1A68     		ldr	r2, [r3]
 1019 000e 8A43     		bic	r2, r1
 1020 0010 1A60     		str	r2, [r3]
 819:Generated_Source\PSoC4/PWM_MOT.c ****                                                             PWM_MOT_RELOAD_PERIOD_SHIFT));
 1021              		.loc 1 819 0
 1022 0012 0139     		sub	r1, r1, #1
 1023 0014 1A68     		ldr	r2, [r3]
 1024 0016 0C40     		and	r4, r1
 1025              	.LVL66:
 1026 0018 6400     		lsl	r4, r4, #1
 1027 001a 1443     		orr	r4, r2
 1028 001c 1C60     		str	r4, [r3]
 822:Generated_Source\PSoC4/PWM_MOT.c **** }
 1029              		.loc 1 822 0
 1030 001e FFF7FEFF 		bl	CyExitCriticalSection
 1031              	.LVL67:
 823:Generated_Source\PSoC4/PWM_MOT.c **** 
 1032              		.loc 1 823 0
 1033 0022 10BD     		pop	{r4, pc}
 1034              	.L68:
 1035              		.align	2
 1036              	.L67:
 1037 0024 00010540 		.word	1074069760
 1038              		.cfi_endproc
 1039              	.LFE21:
 1040              		.size	PWM_MOT_SetPeriodSwap, .-PWM_MOT_SetPeriodSwap
 1041              		.section	.text.PWM_MOT_WriteCompare,"ax",%progbits
 1042              		.align	2
 1043              		.global	PWM_MOT_WriteCompare
 1044              		.code	16
 1045              		.thumb_func
 1046              		.type	PWM_MOT_WriteCompare, %function
 1047              	PWM_MOT_WriteCompare:
 1048              	.LFB22:
 850:Generated_Source\PSoC4/PWM_MOT.c ****     #if (PWM_MOT_CY_TCPWM_4000)
 1049              		.loc 1 850 0
 1050              		.cfi_startproc
 1051              	.LVL68:
 873:Generated_Source\PSoC4/PWM_MOT.c **** }
 1052              		.loc 1 873 0
 1053 0000 024B     		ldr	r3, .L70
 1054 0002 0004     		lsl	r0, r0, #16
 1055              	.LVL69:
 1056 0004 000C     		lsr	r0, r0, #16
 1057 0006 1860     		str	r0, [r3]
 874:Generated_Source\PSoC4/PWM_MOT.c **** 
 1058              		.loc 1 874 0
 1059              		@ sp needed
 1060 0008 7047     		bx	lr
 1061              	.L71:
 1062 000a C046     		.align	2
 1063              	.L70:
 1064 000c 0C010540 		.word	1074069772
 1065              		.cfi_endproc
 1066              	.LFE22:
ARM GAS  C:\Users\g\AppData\Local\Temp\ccC7fujn.s 			page 46


 1067              		.size	PWM_MOT_WriteCompare, .-PWM_MOT_WriteCompare
 1068              		.section	.text.PWM_MOT_ReadCompare,"ax",%progbits
 1069              		.align	2
 1070              		.global	PWM_MOT_ReadCompare
 1071              		.code	16
 1072              		.thumb_func
 1073              		.type	PWM_MOT_ReadCompare, %function
 1074              	PWM_MOT_ReadCompare:
 1075              	.LFB23:
 901:Generated_Source\PSoC4/PWM_MOT.c ****     #if (PWM_MOT_CY_TCPWM_4000)
 1076              		.loc 1 901 0
 1077              		.cfi_startproc
 926:Generated_Source\PSoC4/PWM_MOT.c ****     #endif /* (PWM_MOT_CY_TCPWM_4000) */
 1078              		.loc 1 926 0
 1079 0000 024B     		ldr	r3, .L73
 928:Generated_Source\PSoC4/PWM_MOT.c **** 
 1080              		.loc 1 928 0
 1081              		@ sp needed
 926:Generated_Source\PSoC4/PWM_MOT.c ****     #endif /* (PWM_MOT_CY_TCPWM_4000) */
 1082              		.loc 1 926 0
 1083 0002 1868     		ldr	r0, [r3]
 1084 0004 0004     		lsl	r0, r0, #16
 1085 0006 000C     		lsr	r0, r0, #16
 928:Generated_Source\PSoC4/PWM_MOT.c **** 
 1086              		.loc 1 928 0
 1087 0008 7047     		bx	lr
 1088              	.L74:
 1089 000a C046     		.align	2
 1090              	.L73:
 1091 000c 0C010540 		.word	1074069772
 1092              		.cfi_endproc
 1093              	.LFE23:
 1094              		.size	PWM_MOT_ReadCompare, .-PWM_MOT_ReadCompare
 1095              		.section	.text.PWM_MOT_WriteCompareBuf,"ax",%progbits
 1096              		.align	2
 1097              		.global	PWM_MOT_WriteCompareBuf
 1098              		.code	16
 1099              		.thumb_func
 1100              		.type	PWM_MOT_WriteCompareBuf, %function
 1101              	PWM_MOT_WriteCompareBuf:
 1102              	.LFB24:
 955:Generated_Source\PSoC4/PWM_MOT.c ****     #if (PWM_MOT_CY_TCPWM_4000)
 1103              		.loc 1 955 0
 1104              		.cfi_startproc
 1105              	.LVL70:
 976:Generated_Source\PSoC4/PWM_MOT.c **** }
 1106              		.loc 1 976 0
 1107 0000 024B     		ldr	r3, .L76
 1108 0002 0004     		lsl	r0, r0, #16
 1109              	.LVL71:
 1110 0004 000C     		lsr	r0, r0, #16
 1111 0006 1860     		str	r0, [r3]
 977:Generated_Source\PSoC4/PWM_MOT.c **** 
 1112              		.loc 1 977 0
 1113              		@ sp needed
 1114 0008 7047     		bx	lr
 1115              	.L77:
ARM GAS  C:\Users\g\AppData\Local\Temp\ccC7fujn.s 			page 47


 1116 000a C046     		.align	2
 1117              	.L76:
 1118 000c 10010540 		.word	1074069776
 1119              		.cfi_endproc
 1120              	.LFE24:
 1121              		.size	PWM_MOT_WriteCompareBuf, .-PWM_MOT_WriteCompareBuf
 1122              		.section	.text.PWM_MOT_ReadCompareBuf,"ax",%progbits
 1123              		.align	2
 1124              		.global	PWM_MOT_ReadCompareBuf
 1125              		.code	16
 1126              		.thumb_func
 1127              		.type	PWM_MOT_ReadCompareBuf, %function
 1128              	PWM_MOT_ReadCompareBuf:
 1129              	.LFB25:
1001:Generated_Source\PSoC4/PWM_MOT.c ****     #if (PWM_MOT_CY_TCPWM_4000)
 1130              		.loc 1 1001 0
 1131              		.cfi_startproc
1026:Generated_Source\PSoC4/PWM_MOT.c ****     #endif /* (PWM_MOT_CY_TCPWM_4000) */
 1132              		.loc 1 1026 0
 1133 0000 024B     		ldr	r3, .L79
1028:Generated_Source\PSoC4/PWM_MOT.c **** 
 1134              		.loc 1 1028 0
 1135              		@ sp needed
1026:Generated_Source\PSoC4/PWM_MOT.c ****     #endif /* (PWM_MOT_CY_TCPWM_4000) */
 1136              		.loc 1 1026 0
 1137 0002 1868     		ldr	r0, [r3]
 1138 0004 0004     		lsl	r0, r0, #16
 1139 0006 000C     		lsr	r0, r0, #16
1028:Generated_Source\PSoC4/PWM_MOT.c **** 
 1140              		.loc 1 1028 0
 1141 0008 7047     		bx	lr
 1142              	.L80:
 1143 000a C046     		.align	2
 1144              	.L79:
 1145 000c 10010540 		.word	1074069776
 1146              		.cfi_endproc
 1147              	.LFE25:
 1148              		.size	PWM_MOT_ReadCompareBuf, .-PWM_MOT_ReadCompareBuf
 1149              		.section	.text.PWM_MOT_ReadCapture,"ax",%progbits
 1150              		.align	2
 1151              		.global	PWM_MOT_ReadCapture
 1152              		.code	16
 1153              		.thumb_func
 1154              		.type	PWM_MOT_ReadCapture, %function
 1155              	PWM_MOT_ReadCapture:
 1156              	.LFB26:
1047:Generated_Source\PSoC4/PWM_MOT.c ****     return (PWM_MOT_COMP_CAP_REG & PWM_MOT_16BIT_MASK);
 1157              		.loc 1 1047 0
 1158              		.cfi_startproc
1048:Generated_Source\PSoC4/PWM_MOT.c **** }
 1159              		.loc 1 1048 0
 1160 0000 024B     		ldr	r3, .L82
1049:Generated_Source\PSoC4/PWM_MOT.c **** 
 1161              		.loc 1 1049 0
 1162              		@ sp needed
1048:Generated_Source\PSoC4/PWM_MOT.c **** }
 1163              		.loc 1 1048 0
ARM GAS  C:\Users\g\AppData\Local\Temp\ccC7fujn.s 			page 48


 1164 0002 1868     		ldr	r0, [r3]
 1165 0004 0004     		lsl	r0, r0, #16
 1166 0006 000C     		lsr	r0, r0, #16
1049:Generated_Source\PSoC4/PWM_MOT.c **** 
 1167              		.loc 1 1049 0
 1168 0008 7047     		bx	lr
 1169              	.L83:
 1170 000a C046     		.align	2
 1171              	.L82:
 1172 000c 0C010540 		.word	1074069772
 1173              		.cfi_endproc
 1174              	.LFE26:
 1175              		.size	PWM_MOT_ReadCapture, .-PWM_MOT_ReadCapture
 1176              		.section	.text.PWM_MOT_ReadCaptureBuf,"ax",%progbits
 1177              		.align	2
 1178              		.global	PWM_MOT_ReadCaptureBuf
 1179              		.code	16
 1180              		.thumb_func
 1181              		.type	PWM_MOT_ReadCaptureBuf, %function
 1182              	PWM_MOT_ReadCaptureBuf:
 1183              	.LFB27:
1068:Generated_Source\PSoC4/PWM_MOT.c ****     return (PWM_MOT_COMP_CAP_BUF_REG & PWM_MOT_16BIT_MASK);
 1184              		.loc 1 1068 0
 1185              		.cfi_startproc
1069:Generated_Source\PSoC4/PWM_MOT.c **** }
 1186              		.loc 1 1069 0
 1187 0000 024B     		ldr	r3, .L85
1070:Generated_Source\PSoC4/PWM_MOT.c **** 
 1188              		.loc 1 1070 0
 1189              		@ sp needed
1069:Generated_Source\PSoC4/PWM_MOT.c **** }
 1190              		.loc 1 1069 0
 1191 0002 1868     		ldr	r0, [r3]
 1192 0004 0004     		lsl	r0, r0, #16
 1193 0006 000C     		lsr	r0, r0, #16
1070:Generated_Source\PSoC4/PWM_MOT.c **** 
 1194              		.loc 1 1070 0
 1195 0008 7047     		bx	lr
 1196              	.L86:
 1197 000a C046     		.align	2
 1198              	.L85:
 1199 000c 10010540 		.word	1074069776
 1200              		.cfi_endproc
 1201              	.LFE27:
 1202              		.size	PWM_MOT_ReadCaptureBuf, .-PWM_MOT_ReadCaptureBuf
 1203              		.section	.text.PWM_MOT_SetCaptureMode,"ax",%progbits
 1204              		.align	2
 1205              		.global	PWM_MOT_SetCaptureMode
 1206              		.code	16
 1207              		.thumb_func
 1208              		.type	PWM_MOT_SetCaptureMode, %function
 1209              	PWM_MOT_SetCaptureMode:
 1210              	.LFB28:
1095:Generated_Source\PSoC4/PWM_MOT.c ****     uint8 enableInterrupts;
 1211              		.loc 1 1095 0
 1212              		.cfi_startproc
 1213              	.LVL72:
ARM GAS  C:\Users\g\AppData\Local\Temp\ccC7fujn.s 			page 49


 1214 0000 10B5     		push	{r4, lr}
 1215              		.cfi_def_cfa_offset 8
 1216              		.cfi_offset 4, -8
 1217              		.cfi_offset 14, -4
1095:Generated_Source\PSoC4/PWM_MOT.c ****     uint8 enableInterrupts;
 1218              		.loc 1 1095 0
 1219 0002 041C     		mov	r4, r0
1098:Generated_Source\PSoC4/PWM_MOT.c **** 
 1220              		.loc 1 1098 0
 1221 0004 FFF7FEFF 		bl	CyEnterCriticalSection
 1222              	.LVL73:
1100:Generated_Source\PSoC4/PWM_MOT.c ****     PWM_MOT_TRIG_CONTROL1_REG |= triggerMode;
 1223              		.loc 1 1100 0
 1224 0008 0321     		mov	r1, #3
 1225 000a 054B     		ldr	r3, .L88
1104:Generated_Source\PSoC4/PWM_MOT.c **** 
 1226              		.loc 1 1104 0
 1227              		@ sp needed
1100:Generated_Source\PSoC4/PWM_MOT.c ****     PWM_MOT_TRIG_CONTROL1_REG |= triggerMode;
 1228              		.loc 1 1100 0
 1229 000c 1A68     		ldr	r2, [r3]
 1230 000e 8A43     		bic	r2, r1
 1231 0010 1A60     		str	r2, [r3]
1101:Generated_Source\PSoC4/PWM_MOT.c **** 
 1232              		.loc 1 1101 0
 1233 0012 1A68     		ldr	r2, [r3]
 1234 0014 2243     		orr	r2, r4
 1235 0016 1A60     		str	r2, [r3]
1103:Generated_Source\PSoC4/PWM_MOT.c **** }
 1236              		.loc 1 1103 0
 1237 0018 FFF7FEFF 		bl	CyExitCriticalSection
 1238              	.LVL74:
 1239              	.LVL75:
1104:Generated_Source\PSoC4/PWM_MOT.c **** 
 1240              		.loc 1 1104 0
 1241 001c 10BD     		pop	{r4, pc}
 1242              	.L89:
 1243 001e C046     		.align	2
 1244              	.L88:
 1245 0020 24010540 		.word	1074069796
 1246              		.cfi_endproc
 1247              	.LFE28:
 1248              		.size	PWM_MOT_SetCaptureMode, .-PWM_MOT_SetCaptureMode
 1249              		.section	.text.PWM_MOT_SetReloadMode,"ax",%progbits
 1250              		.align	2
 1251              		.global	PWM_MOT_SetReloadMode
 1252              		.code	16
 1253              		.thumb_func
 1254              		.type	PWM_MOT_SetReloadMode, %function
 1255              	PWM_MOT_SetReloadMode:
 1256              	.LFB29:
1128:Generated_Source\PSoC4/PWM_MOT.c ****     uint8 enableInterrupts;
 1257              		.loc 1 1128 0
 1258              		.cfi_startproc
 1259              	.LVL76:
 1260 0000 10B5     		push	{r4, lr}
 1261              		.cfi_def_cfa_offset 8
ARM GAS  C:\Users\g\AppData\Local\Temp\ccC7fujn.s 			page 50


 1262              		.cfi_offset 4, -8
 1263              		.cfi_offset 14, -4
1128:Generated_Source\PSoC4/PWM_MOT.c ****     uint8 enableInterrupts;
 1264              		.loc 1 1128 0
 1265 0002 041C     		mov	r4, r0
1131:Generated_Source\PSoC4/PWM_MOT.c **** 
 1266              		.loc 1 1131 0
 1267 0004 FFF7FEFF 		bl	CyEnterCriticalSection
 1268              	.LVL77:
1133:Generated_Source\PSoC4/PWM_MOT.c ****     PWM_MOT_TRIG_CONTROL1_REG |= ((uint32)(triggerMode << PWM_MOT_RELOAD_SHIFT));
 1269              		.loc 1 1133 0
 1270 0008 3021     		mov	r1, #48
 1271 000a 054B     		ldr	r3, .L91
1137:Generated_Source\PSoC4/PWM_MOT.c **** 
 1272              		.loc 1 1137 0
 1273              		@ sp needed
1133:Generated_Source\PSoC4/PWM_MOT.c ****     PWM_MOT_TRIG_CONTROL1_REG |= ((uint32)(triggerMode << PWM_MOT_RELOAD_SHIFT));
 1274              		.loc 1 1133 0
 1275 000c 1A68     		ldr	r2, [r3]
 1276 000e 8A43     		bic	r2, r1
 1277 0010 1A60     		str	r2, [r3]
1134:Generated_Source\PSoC4/PWM_MOT.c **** 
 1278              		.loc 1 1134 0
 1279 0012 1968     		ldr	r1, [r3]
 1280 0014 2201     		lsl	r2, r4, #4
 1281 0016 0A43     		orr	r2, r1
 1282 0018 1A60     		str	r2, [r3]
1136:Generated_Source\PSoC4/PWM_MOT.c **** }
 1283              		.loc 1 1136 0
 1284 001a FFF7FEFF 		bl	CyExitCriticalSection
 1285              	.LVL78:
 1286              	.LVL79:
1137:Generated_Source\PSoC4/PWM_MOT.c **** 
 1287              		.loc 1 1137 0
 1288 001e 10BD     		pop	{r4, pc}
 1289              	.L92:
 1290              		.align	2
 1291              	.L91:
 1292 0020 24010540 		.word	1074069796
 1293              		.cfi_endproc
 1294              	.LFE29:
 1295              		.size	PWM_MOT_SetReloadMode, .-PWM_MOT_SetReloadMode
 1296              		.section	.text.PWM_MOT_SetStartMode,"ax",%progbits
 1297              		.align	2
 1298              		.global	PWM_MOT_SetStartMode
 1299              		.code	16
 1300              		.thumb_func
 1301              		.type	PWM_MOT_SetStartMode, %function
 1302              	PWM_MOT_SetStartMode:
 1303              	.LFB30:
1161:Generated_Source\PSoC4/PWM_MOT.c ****     uint8 enableInterrupts;
 1304              		.loc 1 1161 0
 1305              		.cfi_startproc
 1306              	.LVL80:
 1307 0000 10B5     		push	{r4, lr}
 1308              		.cfi_def_cfa_offset 8
 1309              		.cfi_offset 4, -8
ARM GAS  C:\Users\g\AppData\Local\Temp\ccC7fujn.s 			page 51


 1310              		.cfi_offset 14, -4
1161:Generated_Source\PSoC4/PWM_MOT.c ****     uint8 enableInterrupts;
 1311              		.loc 1 1161 0
 1312 0002 041C     		mov	r4, r0
1164:Generated_Source\PSoC4/PWM_MOT.c **** 
 1313              		.loc 1 1164 0
 1314 0004 FFF7FEFF 		bl	CyEnterCriticalSection
 1315              	.LVL81:
1166:Generated_Source\PSoC4/PWM_MOT.c ****     PWM_MOT_TRIG_CONTROL1_REG |= ((uint32)(triggerMode << PWM_MOT_START_SHIFT));
 1316              		.loc 1 1166 0
 1317 0008 054B     		ldr	r3, .L94
 1318 000a 064A     		ldr	r2, .L94+4
 1319 000c 1968     		ldr	r1, [r3]
1170:Generated_Source\PSoC4/PWM_MOT.c **** 
 1320              		.loc 1 1170 0
 1321              		@ sp needed
1166:Generated_Source\PSoC4/PWM_MOT.c ****     PWM_MOT_TRIG_CONTROL1_REG |= ((uint32)(triggerMode << PWM_MOT_START_SHIFT));
 1322              		.loc 1 1166 0
 1323 000e 0A40     		and	r2, r1
 1324 0010 1A60     		str	r2, [r3]
1167:Generated_Source\PSoC4/PWM_MOT.c **** 
 1325              		.loc 1 1167 0
 1326 0012 1968     		ldr	r1, [r3]
 1327 0014 2202     		lsl	r2, r4, #8
 1328 0016 0A43     		orr	r2, r1
 1329 0018 1A60     		str	r2, [r3]
1169:Generated_Source\PSoC4/PWM_MOT.c **** }
 1330              		.loc 1 1169 0
 1331 001a FFF7FEFF 		bl	CyExitCriticalSection
 1332              	.LVL82:
 1333              	.LVL83:
1170:Generated_Source\PSoC4/PWM_MOT.c **** 
 1334              		.loc 1 1170 0
 1335 001e 10BD     		pop	{r4, pc}
 1336              	.L95:
 1337              		.align	2
 1338              	.L94:
 1339 0020 24010540 		.word	1074069796
 1340 0024 FFFCFFFF 		.word	-769
 1341              		.cfi_endproc
 1342              	.LFE30:
 1343              		.size	PWM_MOT_SetStartMode, .-PWM_MOT_SetStartMode
 1344              		.section	.text.PWM_MOT_SetStopMode,"ax",%progbits
 1345              		.align	2
 1346              		.global	PWM_MOT_SetStopMode
 1347              		.code	16
 1348              		.thumb_func
 1349              		.type	PWM_MOT_SetStopMode, %function
 1350              	PWM_MOT_SetStopMode:
 1351              	.LFB31:
1193:Generated_Source\PSoC4/PWM_MOT.c ****     uint8 enableInterrupts;
 1352              		.loc 1 1193 0
 1353              		.cfi_startproc
 1354              	.LVL84:
 1355 0000 10B5     		push	{r4, lr}
 1356              		.cfi_def_cfa_offset 8
 1357              		.cfi_offset 4, -8
ARM GAS  C:\Users\g\AppData\Local\Temp\ccC7fujn.s 			page 52


 1358              		.cfi_offset 14, -4
1193:Generated_Source\PSoC4/PWM_MOT.c ****     uint8 enableInterrupts;
 1359              		.loc 1 1193 0
 1360 0002 041C     		mov	r4, r0
1196:Generated_Source\PSoC4/PWM_MOT.c **** 
 1361              		.loc 1 1196 0
 1362 0004 FFF7FEFF 		bl	CyEnterCriticalSection
 1363              	.LVL85:
1198:Generated_Source\PSoC4/PWM_MOT.c ****     PWM_MOT_TRIG_CONTROL1_REG |= ((uint32)(triggerMode << PWM_MOT_STOP_SHIFT));
 1364              		.loc 1 1198 0
 1365 0008 C021     		mov	r1, #192
 1366 000a 054B     		ldr	r3, .L97
1202:Generated_Source\PSoC4/PWM_MOT.c **** 
 1367              		.loc 1 1202 0
 1368              		@ sp needed
1198:Generated_Source\PSoC4/PWM_MOT.c ****     PWM_MOT_TRIG_CONTROL1_REG |= ((uint32)(triggerMode << PWM_MOT_STOP_SHIFT));
 1369              		.loc 1 1198 0
 1370 000c 1A68     		ldr	r2, [r3]
 1371 000e 8A43     		bic	r2, r1
 1372 0010 1A60     		str	r2, [r3]
1199:Generated_Source\PSoC4/PWM_MOT.c **** 
 1373              		.loc 1 1199 0
 1374 0012 1968     		ldr	r1, [r3]
 1375 0014 A201     		lsl	r2, r4, #6
 1376 0016 0A43     		orr	r2, r1
 1377 0018 1A60     		str	r2, [r3]
1201:Generated_Source\PSoC4/PWM_MOT.c **** }
 1378              		.loc 1 1201 0
 1379 001a FFF7FEFF 		bl	CyExitCriticalSection
 1380              	.LVL86:
 1381              	.LVL87:
1202:Generated_Source\PSoC4/PWM_MOT.c **** 
 1382              		.loc 1 1202 0
 1383 001e 10BD     		pop	{r4, pc}
 1384              	.L98:
 1385              		.align	2
 1386              	.L97:
 1387 0020 24010540 		.word	1074069796
 1388              		.cfi_endproc
 1389              	.LFE31:
 1390              		.size	PWM_MOT_SetStopMode, .-PWM_MOT_SetStopMode
 1391              		.section	.text.PWM_MOT_SetCountMode,"ax",%progbits
 1392              		.align	2
 1393              		.global	PWM_MOT_SetCountMode
 1394              		.code	16
 1395              		.thumb_func
 1396              		.type	PWM_MOT_SetCountMode, %function
 1397              	PWM_MOT_SetCountMode:
 1398              	.LFB32:
1226:Generated_Source\PSoC4/PWM_MOT.c ****     uint8 enableInterrupts;
 1399              		.loc 1 1226 0
 1400              		.cfi_startproc
 1401              	.LVL88:
 1402 0000 10B5     		push	{r4, lr}
 1403              		.cfi_def_cfa_offset 8
 1404              		.cfi_offset 4, -8
 1405              		.cfi_offset 14, -4
ARM GAS  C:\Users\g\AppData\Local\Temp\ccC7fujn.s 			page 53


1226:Generated_Source\PSoC4/PWM_MOT.c ****     uint8 enableInterrupts;
 1406              		.loc 1 1226 0
 1407 0002 041C     		mov	r4, r0
1229:Generated_Source\PSoC4/PWM_MOT.c **** 
 1408              		.loc 1 1229 0
 1409 0004 FFF7FEFF 		bl	CyEnterCriticalSection
 1410              	.LVL89:
1231:Generated_Source\PSoC4/PWM_MOT.c ****     PWM_MOT_TRIG_CONTROL1_REG |= ((uint32)(triggerMode << PWM_MOT_COUNT_SHIFT));
 1411              		.loc 1 1231 0
 1412 0008 0C21     		mov	r1, #12
 1413 000a 054B     		ldr	r3, .L100
1235:Generated_Source\PSoC4/PWM_MOT.c **** 
 1414              		.loc 1 1235 0
 1415              		@ sp needed
1231:Generated_Source\PSoC4/PWM_MOT.c ****     PWM_MOT_TRIG_CONTROL1_REG |= ((uint32)(triggerMode << PWM_MOT_COUNT_SHIFT));
 1416              		.loc 1 1231 0
 1417 000c 1A68     		ldr	r2, [r3]
 1418 000e 8A43     		bic	r2, r1
 1419 0010 1A60     		str	r2, [r3]
1232:Generated_Source\PSoC4/PWM_MOT.c **** 
 1420              		.loc 1 1232 0
 1421 0012 1968     		ldr	r1, [r3]
 1422 0014 A200     		lsl	r2, r4, #2
 1423 0016 0A43     		orr	r2, r1
 1424 0018 1A60     		str	r2, [r3]
1234:Generated_Source\PSoC4/PWM_MOT.c **** }
 1425              		.loc 1 1234 0
 1426 001a FFF7FEFF 		bl	CyExitCriticalSection
 1427              	.LVL90:
 1428              	.LVL91:
1235:Generated_Source\PSoC4/PWM_MOT.c **** 
 1429              		.loc 1 1235 0
 1430 001e 10BD     		pop	{r4, pc}
 1431              	.L101:
 1432              		.align	2
 1433              	.L100:
 1434 0020 24010540 		.word	1074069796
 1435              		.cfi_endproc
 1436              	.LFE32:
 1437              		.size	PWM_MOT_SetCountMode, .-PWM_MOT_SetCountMode
 1438              		.section	.text.PWM_MOT_TriggerCommand,"ax",%progbits
 1439              		.align	2
 1440              		.global	PWM_MOT_TriggerCommand
 1441              		.code	16
 1442              		.thumb_func
 1443              		.type	PWM_MOT_TriggerCommand, %function
 1444              	PWM_MOT_TriggerCommand:
 1445              	.LFB33:
1266:Generated_Source\PSoC4/PWM_MOT.c ****     uint8 enableInterrupts;
 1446              		.loc 1 1266 0
 1447              		.cfi_startproc
 1448              	.LVL92:
 1449 0000 38B5     		push	{r3, r4, r5, lr}
 1450              		.cfi_def_cfa_offset 16
 1451              		.cfi_offset 3, -16
 1452              		.cfi_offset 4, -12
 1453              		.cfi_offset 5, -8
ARM GAS  C:\Users\g\AppData\Local\Temp\ccC7fujn.s 			page 54


 1454              		.cfi_offset 14, -4
1266:Generated_Source\PSoC4/PWM_MOT.c ****     uint8 enableInterrupts;
 1455              		.loc 1 1266 0
 1456 0002 0D1C     		mov	r5, r1
 1457 0004 041C     		mov	r4, r0
1271:Generated_Source\PSoC4/PWM_MOT.c **** 
 1458              		.loc 1 1271 0
 1459 0006 AC40     		lsl	r4, r4, r5
1269:Generated_Source\PSoC4/PWM_MOT.c **** 
 1460              		.loc 1 1269 0
 1461 0008 FFF7FEFF 		bl	CyEnterCriticalSection
 1462              	.LVL93:
1271:Generated_Source\PSoC4/PWM_MOT.c **** 
 1463              		.loc 1 1271 0
 1464 000c 024B     		ldr	r3, .L103
1274:Generated_Source\PSoC4/PWM_MOT.c **** 
 1465              		.loc 1 1274 0
 1466              		@ sp needed
1271:Generated_Source\PSoC4/PWM_MOT.c **** 
 1467              		.loc 1 1271 0
 1468 000e 1C60     		str	r4, [r3]
1273:Generated_Source\PSoC4/PWM_MOT.c **** }
 1469              		.loc 1 1273 0
 1470 0010 FFF7FEFF 		bl	CyExitCriticalSection
 1471              	.LVL94:
 1472              	.LVL95:
1274:Generated_Source\PSoC4/PWM_MOT.c **** 
 1473              		.loc 1 1274 0
 1474 0014 38BD     		pop	{r3, r4, r5, pc}
 1475              	.L104:
 1476 0016 C046     		.align	2
 1477              	.L103:
 1478 0018 08000540 		.word	1074069512
 1479              		.cfi_endproc
 1480              	.LFE33:
 1481              		.size	PWM_MOT_TriggerCommand, .-PWM_MOT_TriggerCommand
 1482              		.section	.text.PWM_MOT_ReadStatus,"ax",%progbits
 1483              		.align	2
 1484              		.global	PWM_MOT_ReadStatus
 1485              		.code	16
 1486              		.thumb_func
 1487              		.type	PWM_MOT_ReadStatus, %function
 1488              	PWM_MOT_ReadStatus:
 1489              	.LFB34:
1295:Generated_Source\PSoC4/PWM_MOT.c ****     return ((PWM_MOT_STATUS_REG >> PWM_MOT_RUNNING_STATUS_SHIFT) |
 1490              		.loc 1 1295 0
 1491              		.cfi_startproc
1297:Generated_Source\PSoC4/PWM_MOT.c **** }
 1492              		.loc 1 1297 0
 1493 0000 0120     		mov	r0, #1
1296:Generated_Source\PSoC4/PWM_MOT.c ****             (PWM_MOT_STATUS_REG & PWM_MOT_STATUS_DOWN));
 1494              		.loc 1 1296 0
 1495 0002 034A     		ldr	r2, .L106
1298:Generated_Source\PSoC4/PWM_MOT.c **** 
 1496              		.loc 1 1298 0
 1497              		@ sp needed
1296:Generated_Source\PSoC4/PWM_MOT.c ****             (PWM_MOT_STATUS_REG & PWM_MOT_STATUS_DOWN));
ARM GAS  C:\Users\g\AppData\Local\Temp\ccC7fujn.s 			page 55


 1498              		.loc 1 1296 0
 1499 0004 1368     		ldr	r3, [r2]
1297:Generated_Source\PSoC4/PWM_MOT.c **** }
 1500              		.loc 1 1297 0
 1501 0006 1268     		ldr	r2, [r2]
1296:Generated_Source\PSoC4/PWM_MOT.c ****             (PWM_MOT_STATUS_REG & PWM_MOT_STATUS_DOWN));
 1502              		.loc 1 1296 0
 1503 0008 9B0F     		lsr	r3, r3, #30
1297:Generated_Source\PSoC4/PWM_MOT.c **** }
 1504              		.loc 1 1297 0
 1505 000a 1040     		and	r0, r2
1296:Generated_Source\PSoC4/PWM_MOT.c ****             (PWM_MOT_STATUS_REG & PWM_MOT_STATUS_DOWN));
 1506              		.loc 1 1296 0
 1507 000c 1843     		orr	r0, r3
1298:Generated_Source\PSoC4/PWM_MOT.c **** 
 1508              		.loc 1 1298 0
 1509 000e 7047     		bx	lr
 1510              	.L107:
 1511              		.align	2
 1512              	.L106:
 1513 0010 04010540 		.word	1074069764
 1514              		.cfi_endproc
 1515              	.LFE34:
 1516              		.size	PWM_MOT_ReadStatus, .-PWM_MOT_ReadStatus
 1517              		.section	.text.PWM_MOT_SetInterruptMode,"ax",%progbits
 1518              		.align	2
 1519              		.global	PWM_MOT_SetInterruptMode
 1520              		.code	16
 1521              		.thumb_func
 1522              		.type	PWM_MOT_SetInterruptMode, %function
 1523              	PWM_MOT_SetInterruptMode:
 1524              	.LFB35:
1320:Generated_Source\PSoC4/PWM_MOT.c ****     PWM_MOT_INTERRUPT_MASK_REG =  interruptMask;
 1525              		.loc 1 1320 0
 1526              		.cfi_startproc
 1527              	.LVL96:
 1528              		.loc 1 1321 0
 1529 0000 014B     		ldr	r3, .L109
1322:Generated_Source\PSoC4/PWM_MOT.c **** }
 1530              		.loc 1 1322 0
 1531              		@ sp needed
1321:Generated_Source\PSoC4/PWM_MOT.c **** }
 1532              		.loc 1 1321 0
 1533 0002 1860     		str	r0, [r3]
 1534              		.loc 1 1322 0
 1535 0004 7047     		bx	lr
 1536              	.L110:
 1537 0006 C046     		.align	2
 1538              	.L109:
 1539 0008 38010540 		.word	1074069816
 1540              		.cfi_endproc
 1541              	.LFE35:
 1542              		.size	PWM_MOT_SetInterruptMode, .-PWM_MOT_SetInterruptMode
 1543              		.section	.text.PWM_MOT_GetInterruptSourceMasked,"ax",%progbits
 1544              		.align	2
 1545              		.global	PWM_MOT_GetInterruptSourceMasked
 1546              		.code	16
ARM GAS  C:\Users\g\AppData\Local\Temp\ccC7fujn.s 			page 56


 1547              		.thumb_func
 1548              		.type	PWM_MOT_GetInterruptSourceMasked, %function
 1549              	PWM_MOT_GetInterruptSourceMasked:
 1550              	.LFB36:
1323:Generated_Source\PSoC4/PWM_MOT.c **** 
1324:Generated_Source\PSoC4/PWM_MOT.c **** 
1325:Generated_Source\PSoC4/PWM_MOT.c **** /*******************************************************************************
1326:Generated_Source\PSoC4/PWM_MOT.c **** * Function Name: PWM_MOT_GetInterruptSourceMasked
1327:Generated_Source\PSoC4/PWM_MOT.c **** ********************************************************************************
1328:Generated_Source\PSoC4/PWM_MOT.c **** *
1329:Generated_Source\PSoC4/PWM_MOT.c **** * Summary:
1330:Generated_Source\PSoC4/PWM_MOT.c **** *  Gets the interrupt requests masked by the interrupt mask.
1331:Generated_Source\PSoC4/PWM_MOT.c **** *
1332:Generated_Source\PSoC4/PWM_MOT.c **** * Parameters:
1333:Generated_Source\PSoC4/PWM_MOT.c **** *   None
1334:Generated_Source\PSoC4/PWM_MOT.c **** *
1335:Generated_Source\PSoC4/PWM_MOT.c **** * Return:
1336:Generated_Source\PSoC4/PWM_MOT.c **** *  Masked interrupt source
1337:Generated_Source\PSoC4/PWM_MOT.c **** *   Values:
1338:Generated_Source\PSoC4/PWM_MOT.c **** *     - PWM_MOT_INTR_MASK_TC       - Terminal count mask
1339:Generated_Source\PSoC4/PWM_MOT.c **** *     - PWM_MOT_INTR_MASK_CC_MATCH - Compare count / capture mask
1340:Generated_Source\PSoC4/PWM_MOT.c **** *
1341:Generated_Source\PSoC4/PWM_MOT.c **** *******************************************************************************/
1342:Generated_Source\PSoC4/PWM_MOT.c **** uint32 PWM_MOT_GetInterruptSourceMasked(void)
1343:Generated_Source\PSoC4/PWM_MOT.c **** {
 1551              		.loc 1 1343 0
 1552              		.cfi_startproc
1344:Generated_Source\PSoC4/PWM_MOT.c ****     return (PWM_MOT_INTERRUPT_MASKED_REG);
 1553              		.loc 1 1344 0
 1554 0000 014B     		ldr	r3, .L112
1345:Generated_Source\PSoC4/PWM_MOT.c **** }
 1555              		.loc 1 1345 0
 1556              		@ sp needed
1344:Generated_Source\PSoC4/PWM_MOT.c ****     return (PWM_MOT_INTERRUPT_MASKED_REG);
 1557              		.loc 1 1344 0
 1558 0002 1868     		ldr	r0, [r3]
 1559              		.loc 1 1345 0
 1560 0004 7047     		bx	lr
 1561              	.L113:
 1562 0006 C046     		.align	2
 1563              	.L112:
 1564 0008 3C010540 		.word	1074069820
 1565              		.cfi_endproc
 1566              	.LFE36:
 1567              		.size	PWM_MOT_GetInterruptSourceMasked, .-PWM_MOT_GetInterruptSourceMasked
 1568              		.section	.text.PWM_MOT_GetInterruptSource,"ax",%progbits
 1569              		.align	2
 1570              		.global	PWM_MOT_GetInterruptSource
 1571              		.code	16
 1572              		.thumb_func
 1573              		.type	PWM_MOT_GetInterruptSource, %function
 1574              	PWM_MOT_GetInterruptSource:
 1575              	.LFB37:
1346:Generated_Source\PSoC4/PWM_MOT.c **** 
1347:Generated_Source\PSoC4/PWM_MOT.c **** 
1348:Generated_Source\PSoC4/PWM_MOT.c **** /*******************************************************************************
1349:Generated_Source\PSoC4/PWM_MOT.c **** * Function Name: PWM_MOT_GetInterruptSource
ARM GAS  C:\Users\g\AppData\Local\Temp\ccC7fujn.s 			page 57


1350:Generated_Source\PSoC4/PWM_MOT.c **** ********************************************************************************
1351:Generated_Source\PSoC4/PWM_MOT.c **** *
1352:Generated_Source\PSoC4/PWM_MOT.c **** * Summary:
1353:Generated_Source\PSoC4/PWM_MOT.c **** *  Gets the interrupt requests (without masking).
1354:Generated_Source\PSoC4/PWM_MOT.c **** *
1355:Generated_Source\PSoC4/PWM_MOT.c **** * Parameters:
1356:Generated_Source\PSoC4/PWM_MOT.c **** *  None
1357:Generated_Source\PSoC4/PWM_MOT.c **** *
1358:Generated_Source\PSoC4/PWM_MOT.c **** * Return:
1359:Generated_Source\PSoC4/PWM_MOT.c **** *  Interrupt request value
1360:Generated_Source\PSoC4/PWM_MOT.c **** *   Values:
1361:Generated_Source\PSoC4/PWM_MOT.c **** *     - PWM_MOT_INTR_MASK_TC       - Terminal count mask
1362:Generated_Source\PSoC4/PWM_MOT.c **** *     - PWM_MOT_INTR_MASK_CC_MATCH - Compare count / capture mask
1363:Generated_Source\PSoC4/PWM_MOT.c **** *
1364:Generated_Source\PSoC4/PWM_MOT.c **** *******************************************************************************/
1365:Generated_Source\PSoC4/PWM_MOT.c **** uint32 PWM_MOT_GetInterruptSource(void)
1366:Generated_Source\PSoC4/PWM_MOT.c **** {
 1576              		.loc 1 1366 0
 1577              		.cfi_startproc
1367:Generated_Source\PSoC4/PWM_MOT.c ****     return (PWM_MOT_INTERRUPT_REQ_REG);
 1578              		.loc 1 1367 0
 1579 0000 014B     		ldr	r3, .L115
1368:Generated_Source\PSoC4/PWM_MOT.c **** }
 1580              		.loc 1 1368 0
 1581              		@ sp needed
1367:Generated_Source\PSoC4/PWM_MOT.c ****     return (PWM_MOT_INTERRUPT_REQ_REG);
 1582              		.loc 1 1367 0
 1583 0002 1868     		ldr	r0, [r3]
 1584              		.loc 1 1368 0
 1585 0004 7047     		bx	lr
 1586              	.L116:
 1587 0006 C046     		.align	2
 1588              	.L115:
 1589 0008 30010540 		.word	1074069808
 1590              		.cfi_endproc
 1591              	.LFE37:
 1592              		.size	PWM_MOT_GetInterruptSource, .-PWM_MOT_GetInterruptSource
 1593              		.section	.text.PWM_MOT_ClearInterrupt,"ax",%progbits
 1594              		.align	2
 1595              		.global	PWM_MOT_ClearInterrupt
 1596              		.code	16
 1597              		.thumb_func
 1598              		.type	PWM_MOT_ClearInterrupt, %function
 1599              	PWM_MOT_ClearInterrupt:
 1600              	.LFB38:
1369:Generated_Source\PSoC4/PWM_MOT.c **** 
1370:Generated_Source\PSoC4/PWM_MOT.c **** 
1371:Generated_Source\PSoC4/PWM_MOT.c **** /*******************************************************************************
1372:Generated_Source\PSoC4/PWM_MOT.c **** * Function Name: PWM_MOT_ClearInterrupt
1373:Generated_Source\PSoC4/PWM_MOT.c **** ********************************************************************************
1374:Generated_Source\PSoC4/PWM_MOT.c **** *
1375:Generated_Source\PSoC4/PWM_MOT.c **** * Summary:
1376:Generated_Source\PSoC4/PWM_MOT.c **** *  Clears the interrupt request.
1377:Generated_Source\PSoC4/PWM_MOT.c **** *
1378:Generated_Source\PSoC4/PWM_MOT.c **** * Parameters:
1379:Generated_Source\PSoC4/PWM_MOT.c **** *   interruptMask: Mask of interrupts to clear
1380:Generated_Source\PSoC4/PWM_MOT.c **** *   Values:
ARM GAS  C:\Users\g\AppData\Local\Temp\ccC7fujn.s 			page 58


1381:Generated_Source\PSoC4/PWM_MOT.c **** *     - PWM_MOT_INTR_MASK_TC       - Terminal count mask
1382:Generated_Source\PSoC4/PWM_MOT.c **** *     - PWM_MOT_INTR_MASK_CC_MATCH - Compare count / capture mask
1383:Generated_Source\PSoC4/PWM_MOT.c **** *
1384:Generated_Source\PSoC4/PWM_MOT.c **** * Return:
1385:Generated_Source\PSoC4/PWM_MOT.c **** *  None
1386:Generated_Source\PSoC4/PWM_MOT.c **** *
1387:Generated_Source\PSoC4/PWM_MOT.c **** *******************************************************************************/
1388:Generated_Source\PSoC4/PWM_MOT.c **** void PWM_MOT_ClearInterrupt(uint32 interruptMask)
1389:Generated_Source\PSoC4/PWM_MOT.c **** {
 1601              		.loc 1 1389 0
 1602              		.cfi_startproc
 1603              	.LVL97:
1390:Generated_Source\PSoC4/PWM_MOT.c ****     PWM_MOT_INTERRUPT_REQ_REG = interruptMask;
 1604              		.loc 1 1390 0
 1605 0000 014B     		ldr	r3, .L118
1391:Generated_Source\PSoC4/PWM_MOT.c **** }
 1606              		.loc 1 1391 0
 1607              		@ sp needed
1390:Generated_Source\PSoC4/PWM_MOT.c ****     PWM_MOT_INTERRUPT_REQ_REG = interruptMask;
 1608              		.loc 1 1390 0
 1609 0002 1860     		str	r0, [r3]
 1610              		.loc 1 1391 0
 1611 0004 7047     		bx	lr
 1612              	.L119:
 1613 0006 C046     		.align	2
 1614              	.L118:
 1615 0008 30010540 		.word	1074069808
 1616              		.cfi_endproc
 1617              	.LFE38:
 1618              		.size	PWM_MOT_ClearInterrupt, .-PWM_MOT_ClearInterrupt
 1619              		.section	.text.PWM_MOT_SetInterrupt,"ax",%progbits
 1620              		.align	2
 1621              		.global	PWM_MOT_SetInterrupt
 1622              		.code	16
 1623              		.thumb_func
 1624              		.type	PWM_MOT_SetInterrupt, %function
 1625              	PWM_MOT_SetInterrupt:
 1626              	.LFB39:
1392:Generated_Source\PSoC4/PWM_MOT.c **** 
1393:Generated_Source\PSoC4/PWM_MOT.c **** 
1394:Generated_Source\PSoC4/PWM_MOT.c **** /*******************************************************************************
1395:Generated_Source\PSoC4/PWM_MOT.c **** * Function Name: PWM_MOT_SetInterrupt
1396:Generated_Source\PSoC4/PWM_MOT.c **** ********************************************************************************
1397:Generated_Source\PSoC4/PWM_MOT.c **** *
1398:Generated_Source\PSoC4/PWM_MOT.c **** * Summary:
1399:Generated_Source\PSoC4/PWM_MOT.c **** *  Sets a software interrupt request.
1400:Generated_Source\PSoC4/PWM_MOT.c **** *
1401:Generated_Source\PSoC4/PWM_MOT.c **** * Parameters:
1402:Generated_Source\PSoC4/PWM_MOT.c **** *   interruptMask: Mask of interrupts to set
1403:Generated_Source\PSoC4/PWM_MOT.c **** *   Values:
1404:Generated_Source\PSoC4/PWM_MOT.c **** *     - PWM_MOT_INTR_MASK_TC       - Terminal count mask
1405:Generated_Source\PSoC4/PWM_MOT.c **** *     - PWM_MOT_INTR_MASK_CC_MATCH - Compare count / capture mask
1406:Generated_Source\PSoC4/PWM_MOT.c **** *
1407:Generated_Source\PSoC4/PWM_MOT.c **** * Return:
1408:Generated_Source\PSoC4/PWM_MOT.c **** *  None
1409:Generated_Source\PSoC4/PWM_MOT.c **** *
1410:Generated_Source\PSoC4/PWM_MOT.c **** *******************************************************************************/
ARM GAS  C:\Users\g\AppData\Local\Temp\ccC7fujn.s 			page 59


1411:Generated_Source\PSoC4/PWM_MOT.c **** void PWM_MOT_SetInterrupt(uint32 interruptMask)
1412:Generated_Source\PSoC4/PWM_MOT.c **** {
 1627              		.loc 1 1412 0
 1628              		.cfi_startproc
 1629              	.LVL98:
1413:Generated_Source\PSoC4/PWM_MOT.c ****     PWM_MOT_INTERRUPT_SET_REG = interruptMask;
 1630              		.loc 1 1413 0
 1631 0000 014B     		ldr	r3, .L121
1414:Generated_Source\PSoC4/PWM_MOT.c **** }
 1632              		.loc 1 1414 0
 1633              		@ sp needed
1413:Generated_Source\PSoC4/PWM_MOT.c ****     PWM_MOT_INTERRUPT_SET_REG = interruptMask;
 1634              		.loc 1 1413 0
 1635 0002 1860     		str	r0, [r3]
 1636              		.loc 1 1414 0
 1637 0004 7047     		bx	lr
 1638              	.L122:
 1639 0006 C046     		.align	2
 1640              	.L121:
 1641 0008 34010540 		.word	1074069812
 1642              		.cfi_endproc
 1643              	.LFE39:
 1644              		.size	PWM_MOT_SetInterrupt, .-PWM_MOT_SetInterrupt
 1645              		.global	PWM_MOT_initVar
 1646              		.bss
 1647              		.set	.LANCHOR0,. + 0
 1648              		.type	PWM_MOT_initVar, %object
 1649              		.size	PWM_MOT_initVar, 1
 1650              	PWM_MOT_initVar:
 1651 0000 00       		.space	1
 1652              		.text
 1653              	.Letext0:
 1654              		.file 2 "Generated_Source\\PSoC4\\cytypes.h"
 1655              		.file 3 "Generated_Source\\PSoC4\\CyLib.h"
 1656              		.section	.debug_info,"",%progbits
 1657              	.Ldebug_info0:
 1658 0000 270A0000 		.4byte	0xa27
 1659 0004 0400     		.2byte	0x4
 1660 0006 00000000 		.4byte	.Ldebug_abbrev0
 1661 000a 04       		.byte	0x4
 1662 000b 01       		.uleb128 0x1
 1663 000c 9E030000 		.4byte	.LASF75
 1664 0010 01       		.byte	0x1
 1665 0011 45000000 		.4byte	.LASF76
 1666 0015 6D000000 		.4byte	.LASF77
 1667 0019 20000000 		.4byte	.Ldebug_ranges0+0x20
 1668 001d 00000000 		.4byte	0
 1669 0021 00000000 		.4byte	.Ldebug_line0
 1670 0025 02       		.uleb128 0x2
 1671 0026 01       		.byte	0x1
 1672 0027 06       		.byte	0x6
 1673 0028 FD000000 		.4byte	.LASF0
 1674 002c 02       		.uleb128 0x2
 1675 002d 01       		.byte	0x1
 1676 002e 08       		.byte	0x8
 1677 002f 7F030000 		.4byte	.LASF1
 1678 0033 02       		.uleb128 0x2
ARM GAS  C:\Users\g\AppData\Local\Temp\ccC7fujn.s 			page 60


 1679 0034 02       		.byte	0x2
 1680 0035 05       		.byte	0x5
 1681 0036 37040000 		.4byte	.LASF2
 1682 003a 02       		.uleb128 0x2
 1683 003b 02       		.byte	0x2
 1684 003c 07       		.byte	0x7
 1685 003d AB020000 		.4byte	.LASF3
 1686 0041 02       		.uleb128 0x2
 1687 0042 04       		.byte	0x4
 1688 0043 05       		.byte	0x5
 1689 0044 32010000 		.4byte	.LASF4
 1690 0048 02       		.uleb128 0x2
 1691 0049 04       		.byte	0x4
 1692 004a 07       		.byte	0x7
 1693 004b 35020000 		.4byte	.LASF5
 1694 004f 02       		.uleb128 0x2
 1695 0050 08       		.byte	0x8
 1696 0051 05       		.byte	0x5
 1697 0052 EF000000 		.4byte	.LASF6
 1698 0056 02       		.uleb128 0x2
 1699 0057 08       		.byte	0x8
 1700 0058 07       		.byte	0x7
 1701 0059 93000000 		.4byte	.LASF7
 1702 005d 03       		.uleb128 0x3
 1703 005e 04       		.byte	0x4
 1704 005f 05       		.byte	0x5
 1705 0060 696E7400 		.ascii	"int\000"
 1706 0064 02       		.uleb128 0x2
 1707 0065 04       		.byte	0x4
 1708 0066 07       		.byte	0x7
 1709 0067 0D020000 		.4byte	.LASF8
 1710 006b 04       		.uleb128 0x4
 1711 006c 3B010000 		.4byte	.LASF9
 1712 0070 02       		.byte	0x2
 1713 0071 9801     		.2byte	0x198
 1714 0073 2C000000 		.4byte	0x2c
 1715 0077 04       		.uleb128 0x4
 1716 0078 90010000 		.4byte	.LASF10
 1717 007c 02       		.byte	0x2
 1718 007d 9A01     		.2byte	0x19a
 1719 007f 48000000 		.4byte	0x48
 1720 0083 02       		.uleb128 0x2
 1721 0084 04       		.byte	0x4
 1722 0085 04       		.byte	0x4
 1723 0086 6F030000 		.4byte	.LASF11
 1724 008a 02       		.uleb128 0x2
 1725 008b 08       		.byte	0x8
 1726 008c 04       		.byte	0x4
 1727 008d 51010000 		.4byte	.LASF12
 1728 0091 02       		.uleb128 0x2
 1729 0092 01       		.byte	0x1
 1730 0093 08       		.byte	0x8
 1731 0094 F2040000 		.4byte	.LASF13
 1732 0098 04       		.uleb128 0x4
 1733 0099 E2020000 		.4byte	.LASF14
 1734 009d 02       		.byte	0x2
 1735 009e 4402     		.2byte	0x244
ARM GAS  C:\Users\g\AppData\Local\Temp\ccC7fujn.s 			page 61


 1736 00a0 A4000000 		.4byte	0xa4
 1737 00a4 05       		.uleb128 0x5
 1738 00a5 77000000 		.4byte	0x77
 1739 00a9 02       		.uleb128 0x2
 1740 00aa 04       		.byte	0x4
 1741 00ab 07       		.byte	0x7
 1742 00ac E8020000 		.4byte	.LASF15
 1743 00b0 06       		.uleb128 0x6
 1744 00b1 B2050000 		.4byte	.LASF18
 1745 00b5 01       		.byte	0x1
 1746 00b6 F104     		.2byte	0x4f1
 1747 00b8 01       		.byte	0x1
 1748 00b9 E2000000 		.4byte	0xe2
 1749 00bd 07       		.uleb128 0x7
 1750 00be B0010000 		.4byte	.LASF16
 1751 00c2 01       		.byte	0x1
 1752 00c3 F104     		.2byte	0x4f1
 1753 00c5 77000000 		.4byte	0x77
 1754 00c9 07       		.uleb128 0x7
 1755 00ca 2D020000 		.4byte	.LASF17
 1756 00ce 01       		.byte	0x1
 1757 00cf F104     		.2byte	0x4f1
 1758 00d1 77000000 		.4byte	0x77
 1759 00d5 08       		.uleb128 0x8
 1760 00d6 4E050000 		.4byte	.LASF30
 1761 00da 01       		.byte	0x1
 1762 00db F304     		.2byte	0x4f3
 1763 00dd 6B000000 		.4byte	0x6b
 1764 00e1 00       		.byte	0
 1765 00e2 06       		.uleb128 0x6
 1766 00e3 7A040000 		.4byte	.LASF19
 1767 00e7 01       		.byte	0x1
 1768 00e8 6702     		.2byte	0x267
 1769 00ea 01       		.byte	0x1
 1770 00eb FC000000 		.4byte	0xfc
 1771 00ef 07       		.uleb128 0x7
 1772 00f0 00000000 		.4byte	.LASF20
 1773 00f4 01       		.byte	0x1
 1774 00f5 6702     		.2byte	0x267
 1775 00f7 77000000 		.4byte	0x77
 1776 00fb 00       		.byte	0
 1777 00fc 06       		.uleb128 0x6
 1778 00fd D6000000 		.4byte	.LASF21
 1779 0101 01       		.byte	0x1
 1780 0102 2705     		.2byte	0x527
 1781 0104 01       		.byte	0x1
 1782 0105 16010000 		.4byte	0x116
 1783 0109 07       		.uleb128 0x7
 1784 010a 8F040000 		.4byte	.LASF22
 1785 010e 01       		.byte	0x1
 1786 010f 2705     		.2byte	0x527
 1787 0111 77000000 		.4byte	0x77
 1788 0115 00       		.byte	0
 1789 0116 06       		.uleb128 0x6
 1790 0117 09010000 		.4byte	.LASF23
 1791 011b 01       		.byte	0x1
 1792 011c B502     		.2byte	0x2b5
ARM GAS  C:\Users\g\AppData\Local\Temp\ccC7fujn.s 			page 62


 1793 011e 01       		.byte	0x1
 1794 011f 30010000 		.4byte	0x130
 1795 0123 07       		.uleb128 0x7
 1796 0124 66000000 		.4byte	.LASF24
 1797 0128 01       		.byte	0x1
 1798 0129 B502     		.2byte	0x2b5
 1799 012b 77000000 		.4byte	0x77
 1800 012f 00       		.byte	0
 1801 0130 06       		.uleb128 0x6
 1802 0131 47030000 		.4byte	.LASF25
 1803 0135 01       		.byte	0x1
 1804 0136 5103     		.2byte	0x351
 1805 0138 01       		.byte	0x1
 1806 0139 4A010000 		.4byte	0x14a
 1807 013d 07       		.uleb128 0x7
 1808 013e 28030000 		.4byte	.LASF26
 1809 0142 01       		.byte	0x1
 1810 0143 5103     		.2byte	0x351
 1811 0145 77000000 		.4byte	0x77
 1812 0149 00       		.byte	0
 1813 014a 09       		.uleb128 0x9
 1814 014b 41040000 		.4byte	.LASF78
 1815 014f 01       		.byte	0x1
 1816 0150 26       		.byte	0x26
 1817 0151 01       		.byte	0x1
 1818 0152 0A       		.uleb128 0xa
 1819 0153 4A010000 		.4byte	0x14a
 1820 0157 00000000 		.4byte	.LFB0
 1821 015b 5C000000 		.4byte	.LFE0-.LFB0
 1822 015f 01       		.uleb128 0x1
 1823 0160 9C       		.byte	0x9c
 1824 0161 CB010000 		.4byte	0x1cb
 1825 0165 0B       		.uleb128 0xb
 1826 0166 E2000000 		.4byte	0xe2
 1827 016a 10000000 		.4byte	.LBB22
 1828 016e 00000000 		.4byte	.Ldebug_ranges0+0
 1829 0172 01       		.byte	0x1
 1830 0173 67       		.byte	0x67
 1831 0174 7F010000 		.4byte	0x17f
 1832 0178 0C       		.uleb128 0xc
 1833 0179 EF000000 		.4byte	0xef
 1834 017d 00       		.byte	0
 1835 017e 00       		.byte	0
 1836 017f 0D       		.uleb128 0xd
 1837 0180 FC000000 		.4byte	0xfc
 1838 0184 26000000 		.4byte	.LBB28
 1839 0188 06000000 		.4byte	.LBE28-.LBB28
 1840 018c 01       		.byte	0x1
 1841 018d 77       		.byte	0x77
 1842 018e 99010000 		.4byte	0x199
 1843 0192 0C       		.uleb128 0xc
 1844 0193 09010000 		.4byte	0x109
 1845 0197 01       		.byte	0x1
 1846 0198 00       		.byte	0
 1847 0199 0D       		.uleb128 0xd
 1848 019a 16010000 		.4byte	0x116
 1849 019e 30000000 		.4byte	.LBB30
ARM GAS  C:\Users\g\AppData\Local\Temp\ccC7fujn.s 			page 63


 1850 01a2 08000000 		.4byte	.LBE30-.LBB30
 1851 01a6 01       		.byte	0x1
 1852 01a7 92       		.byte	0x92
 1853 01a8 B4010000 		.4byte	0x1b4
 1854 01ac 0E       		.uleb128 0xe
 1855 01ad 23010000 		.4byte	0x123
 1856 01b1 0010     		.2byte	0x1000
 1857 01b3 00       		.byte	0
 1858 01b4 0F       		.uleb128 0xf
 1859 01b5 30010000 		.4byte	0x130
 1860 01b9 38000000 		.4byte	.LBB32
 1861 01bd 04000000 		.4byte	.LBE32-.LBB32
 1862 01c1 01       		.byte	0x1
 1863 01c2 93       		.byte	0x93
 1864 01c3 0C       		.uleb128 0xc
 1865 01c4 3D010000 		.4byte	0x13d
 1866 01c8 01       		.byte	0x1
 1867 01c9 00       		.byte	0
 1868 01ca 00       		.byte	0
 1869 01cb 10       		.uleb128 0x10
 1870 01cc AA000000 		.4byte	.LASF27
 1871 01d0 01       		.byte	0x1
 1872 01d1 B1       		.byte	0xb1
 1873 01d2 00000000 		.4byte	.LFB1
 1874 01d6 30000000 		.4byte	.LFE1-.LFB1
 1875 01da 01       		.uleb128 0x1
 1876 01db 9C       		.byte	0x9c
 1877 01dc 47020000 		.4byte	0x247
 1878 01e0 11       		.uleb128 0x11
 1879 01e1 4E050000 		.4byte	.LASF30
 1880 01e5 01       		.byte	0x1
 1881 01e6 B3       		.byte	0xb3
 1882 01e7 6B000000 		.4byte	0x6b
 1883 01eb 00000000 		.4byte	.LLST0
 1884 01ef 0D       		.uleb128 0xd
 1885 01f0 B0000000 		.4byte	0xb0
 1886 01f4 14000000 		.4byte	.LBB34
 1887 01f8 10000000 		.4byte	.LBE34-.LBB34
 1888 01fc 01       		.byte	0x1
 1889 01fd BC       		.byte	0xbc
 1890 01fe 34020000 		.4byte	0x234
 1891 0202 0C       		.uleb128 0xc
 1892 0203 C9000000 		.4byte	0xc9
 1893 0207 18       		.byte	0x18
 1894 0208 0C       		.uleb128 0xc
 1895 0209 BD000000 		.4byte	0xbd
 1896 020d 01       		.byte	0x1
 1897 020e 12       		.uleb128 0x12
 1898 020f 14000000 		.4byte	.LBB35
 1899 0213 10000000 		.4byte	.LBE35-.LBB35
 1900 0217 13       		.uleb128 0x13
 1901 0218 D5000000 		.4byte	0xd5
 1902 021c 13000000 		.4byte	.LLST1
 1903 0220 14       		.uleb128 0x14
 1904 0221 18000000 		.4byte	.LVL6
 1905 0225 120A0000 		.4byte	0xa12
 1906 0229 14       		.uleb128 0x14
ARM GAS  C:\Users\g\AppData\Local\Temp\ccC7fujn.s 			page 64


 1907 022a 24000000 		.4byte	.LVL7
 1908 022e 1D0A0000 		.4byte	0xa1d
 1909 0232 00       		.byte	0
 1910 0233 00       		.byte	0
 1911 0234 14       		.uleb128 0x14
 1912 0235 06000000 		.4byte	.LVL4
 1913 0239 120A0000 		.4byte	0xa12
 1914 023d 14       		.uleb128 0x14
 1915 023e 14000000 		.4byte	.LVL5
 1916 0242 1D0A0000 		.4byte	0xa1d
 1917 0246 00       		.byte	0
 1918 0247 10       		.uleb128 0x10
 1919 0248 CB010000 		.4byte	.LASF28
 1920 024c 01       		.byte	0x1
 1921 024d E6       		.byte	0xe6
 1922 024e 00000000 		.4byte	.LFB2
 1923 0252 6C000000 		.4byte	.LFE2-.LFB2
 1924 0256 01       		.uleb128 0x1
 1925 0257 9C       		.byte	0x9c
 1926 0258 EA020000 		.4byte	0x2ea
 1927 025c 0D       		.uleb128 0xd
 1928 025d 4A010000 		.4byte	0x14a
 1929 0261 0A000000 		.4byte	.LBB36
 1930 0265 3A000000 		.4byte	.LBE36-.LBB36
 1931 0269 01       		.byte	0x1
 1932 026a EA       		.byte	0xea
 1933 026b E0020000 		.4byte	0x2e0
 1934 026f 0D       		.uleb128 0xd
 1935 0270 E2000000 		.4byte	0xe2
 1936 0274 1C000000 		.4byte	.LBB38
 1937 0278 04000000 		.4byte	.LBE38-.LBB38
 1938 027c 01       		.byte	0x1
 1939 027d 67       		.byte	0x67
 1940 027e 8C020000 		.4byte	0x28c
 1941 0282 15       		.uleb128 0x15
 1942 0283 EF000000 		.4byte	0xef
 1943 0287 26000000 		.4byte	.LLST2
 1944 028b 00       		.byte	0
 1945 028c 0D       		.uleb128 0xd
 1946 028d FC000000 		.4byte	0xfc
 1947 0291 2E000000 		.4byte	.LBB40
 1948 0295 06000000 		.4byte	.LBE40-.LBB40
 1949 0299 01       		.byte	0x1
 1950 029a 77       		.byte	0x77
 1951 029b A9020000 		.4byte	0x2a9
 1952 029f 15       		.uleb128 0x15
 1953 02a0 09010000 		.4byte	0x109
 1954 02a4 3A000000 		.4byte	.LLST3
 1955 02a8 00       		.byte	0
 1956 02a9 0D       		.uleb128 0xd
 1957 02aa 16010000 		.4byte	0x116
 1958 02ae 38000000 		.4byte	.LBB42
 1959 02b2 08000000 		.4byte	.LBE42-.LBB42
 1960 02b6 01       		.byte	0x1
 1961 02b7 92       		.byte	0x92
 1962 02b8 C6020000 		.4byte	0x2c6
 1963 02bc 15       		.uleb128 0x15
ARM GAS  C:\Users\g\AppData\Local\Temp\ccC7fujn.s 			page 65


 1964 02bd 23010000 		.4byte	0x123
 1965 02c1 4E000000 		.4byte	.LLST4
 1966 02c5 00       		.byte	0
 1967 02c6 0F       		.uleb128 0xf
 1968 02c7 30010000 		.4byte	0x130
 1969 02cb 40000000 		.4byte	.LBB44
 1970 02cf 04000000 		.4byte	.LBE44-.LBB44
 1971 02d3 01       		.byte	0x1
 1972 02d4 93       		.byte	0x93
 1973 02d5 15       		.uleb128 0x15
 1974 02d6 3D010000 		.4byte	0x13d
 1975 02da 64000000 		.4byte	.LLST5
 1976 02de 00       		.byte	0
 1977 02df 00       		.byte	0
 1978 02e0 14       		.uleb128 0x14
 1979 02e1 4A000000 		.4byte	.LVL13
 1980 02e5 CB010000 		.4byte	0x1cb
 1981 02e9 00       		.byte	0
 1982 02ea 16       		.uleb128 0x16
 1983 02eb 97010000 		.4byte	.LASF29
 1984 02ef 01       		.byte	0x1
 1985 02f0 0001     		.2byte	0x100
 1986 02f2 00000000 		.4byte	.LFB3
 1987 02f6 1C000000 		.4byte	.LFE3-.LFB3
 1988 02fa 01       		.uleb128 0x1
 1989 02fb 9C       		.byte	0x9c
 1990 02fc 23030000 		.4byte	0x323
 1991 0300 17       		.uleb128 0x17
 1992 0301 4E050000 		.4byte	.LASF30
 1993 0305 01       		.byte	0x1
 1994 0306 0201     		.2byte	0x102
 1995 0308 6B000000 		.4byte	0x6b
 1996 030c 78000000 		.4byte	.LLST6
 1997 0310 14       		.uleb128 0x14
 1998 0311 06000000 		.4byte	.LVL14
 1999 0315 120A0000 		.4byte	0xa12
 2000 0319 14       		.uleb128 0x14
 2001 031a 14000000 		.4byte	.LVL15
 2002 031e 1D0A0000 		.4byte	0xa1d
 2003 0322 00       		.byte	0
 2004 0323 16       		.uleb128 0x16
 2005 0324 41010000 		.4byte	.LASF31
 2006 0328 01       		.byte	0x1
 2007 0329 2501     		.2byte	0x125
 2008 032b 00000000 		.4byte	.LFB4
 2009 032f 28000000 		.4byte	.LFE4-.LFB4
 2010 0333 01       		.uleb128 0x1
 2011 0334 9C       		.byte	0x9c
 2012 0335 6C030000 		.4byte	0x36c
 2013 0339 18       		.uleb128 0x18
 2014 033a F7040000 		.4byte	.LASF33
 2015 033e 01       		.byte	0x1
 2016 033f 2501     		.2byte	0x125
 2017 0341 77000000 		.4byte	0x77
 2018 0345 8B000000 		.4byte	.LLST7
 2019 0349 17       		.uleb128 0x17
 2020 034a 4E050000 		.4byte	.LASF30
ARM GAS  C:\Users\g\AppData\Local\Temp\ccC7fujn.s 			page 66


 2021 034e 01       		.byte	0x1
 2022 034f 2701     		.2byte	0x127
 2023 0351 6B000000 		.4byte	0x6b
 2024 0355 B7000000 		.4byte	.LLST8
 2025 0359 14       		.uleb128 0x14
 2026 035a 08000000 		.4byte	.LVL17
 2027 035e 120A0000 		.4byte	0xa12
 2028 0362 14       		.uleb128 0x14
 2029 0363 1C000000 		.4byte	.LVL18
 2030 0367 1D0A0000 		.4byte	0xa1d
 2031 036b 00       		.byte	0
 2032 036c 16       		.uleb128 0x16
 2033 036d 99020000 		.4byte	.LASF32
 2034 0371 01       		.byte	0x1
 2035 0372 4601     		.2byte	0x146
 2036 0374 00000000 		.4byte	.LFB5
 2037 0378 28000000 		.4byte	.LFE5-.LFB5
 2038 037c 01       		.uleb128 0x1
 2039 037d 9C       		.byte	0x9c
 2040 037e B5030000 		.4byte	0x3b5
 2041 0382 18       		.uleb128 0x18
 2042 0383 CF000000 		.4byte	.LASF34
 2043 0387 01       		.byte	0x1
 2044 0388 4601     		.2byte	0x146
 2045 038a 77000000 		.4byte	0x77
 2046 038e CA000000 		.4byte	.LLST9
 2047 0392 17       		.uleb128 0x17
 2048 0393 4E050000 		.4byte	.LASF30
 2049 0397 01       		.byte	0x1
 2050 0398 4801     		.2byte	0x148
 2051 039a 6B000000 		.4byte	0x6b
 2052 039e F6000000 		.4byte	.LLST10
 2053 03a2 14       		.uleb128 0x14
 2054 03a3 08000000 		.4byte	.LVL21
 2055 03a7 120A0000 		.4byte	0xa12
 2056 03ab 14       		.uleb128 0x14
 2057 03ac 1C000000 		.4byte	.LVL22
 2058 03b0 1D0A0000 		.4byte	0xa1d
 2059 03b4 00       		.byte	0
 2060 03b5 16       		.uleb128 0x16
 2061 03b6 65040000 		.4byte	.LASF35
 2062 03ba 01       		.byte	0x1
 2063 03bb 6B01     		.2byte	0x16b
 2064 03bd 00000000 		.4byte	.LFB6
 2065 03c1 28000000 		.4byte	.LFE6-.LFB6
 2066 03c5 01       		.uleb128 0x1
 2067 03c6 9C       		.byte	0x9c
 2068 03c7 FE030000 		.4byte	0x3fe
 2069 03cb 18       		.uleb128 0x18
 2070 03cc 75030000 		.4byte	.LASF36
 2071 03d0 01       		.byte	0x1
 2072 03d1 6B01     		.2byte	0x16b
 2073 03d3 77000000 		.4byte	0x77
 2074 03d7 09010000 		.4byte	.LLST11
 2075 03db 17       		.uleb128 0x17
 2076 03dc 4E050000 		.4byte	.LASF30
 2077 03e0 01       		.byte	0x1
ARM GAS  C:\Users\g\AppData\Local\Temp\ccC7fujn.s 			page 67


 2078 03e1 6D01     		.2byte	0x16d
 2079 03e3 6B000000 		.4byte	0x6b
 2080 03e7 35010000 		.4byte	.LLST12
 2081 03eb 14       		.uleb128 0x14
 2082 03ec 08000000 		.4byte	.LVL25
 2083 03f0 120A0000 		.4byte	0xa12
 2084 03f4 14       		.uleb128 0x14
 2085 03f5 1C000000 		.4byte	.LVL26
 2086 03f9 1D0A0000 		.4byte	0xa1d
 2087 03fd 00       		.byte	0
 2088 03fe 16       		.uleb128 0x16
 2089 03ff 5C030000 		.4byte	.LASF37
 2090 0403 01       		.byte	0x1
 2091 0404 8B01     		.2byte	0x18b
 2092 0406 00000000 		.4byte	.LFB7
 2093 040a 2C000000 		.4byte	.LFE7-.LFB7
 2094 040e 01       		.uleb128 0x1
 2095 040f 9C       		.byte	0x9c
 2096 0410 47040000 		.4byte	0x447
 2097 0414 18       		.uleb128 0x18
 2098 0415 BE020000 		.4byte	.LASF38
 2099 0419 01       		.byte	0x1
 2100 041a 8B01     		.2byte	0x18b
 2101 041c 77000000 		.4byte	0x77
 2102 0420 48010000 		.4byte	.LLST13
 2103 0424 17       		.uleb128 0x17
 2104 0425 4E050000 		.4byte	.LASF30
 2105 0429 01       		.byte	0x1
 2106 042a 8D01     		.2byte	0x18d
 2107 042c 6B000000 		.4byte	0x6b
 2108 0430 74010000 		.4byte	.LLST14
 2109 0434 14       		.uleb128 0x14
 2110 0435 08000000 		.4byte	.LVL29
 2111 0439 120A0000 		.4byte	0xa12
 2112 043d 14       		.uleb128 0x14
 2113 043e 22000000 		.4byte	.LVL31
 2114 0442 1D0A0000 		.4byte	0xa1d
 2115 0446 00       		.byte	0
 2116 0447 16       		.uleb128 0x16
 2117 0448 B1040000 		.4byte	.LASF39
 2118 044c 01       		.byte	0x1
 2119 044d C101     		.2byte	0x1c1
 2120 044f 00000000 		.4byte	.LFB8
 2121 0453 10000000 		.4byte	.LFE8-.LFB8
 2122 0457 01       		.uleb128 0x1
 2123 0458 9C       		.byte	0x9c
 2124 0459 6E040000 		.4byte	0x46e
 2125 045d 18       		.uleb128 0x18
 2126 045e 47020000 		.4byte	.LASF40
 2127 0462 01       		.byte	0x1
 2128 0463 C101     		.2byte	0x1c1
 2129 0465 77000000 		.4byte	0x77
 2130 0469 87010000 		.4byte	.LLST15
 2131 046d 00       		.byte	0
 2132 046e 16       		.uleb128 0x16
 2133 046f 30030000 		.4byte	.LASF41
 2134 0473 01       		.byte	0x1
ARM GAS  C:\Users\g\AppData\Local\Temp\ccC7fujn.s 			page 68


 2135 0474 E501     		.2byte	0x1e5
 2136 0476 00000000 		.4byte	.LFB9
 2137 047a 28000000 		.4byte	.LFE9-.LFB9
 2138 047e 01       		.uleb128 0x1
 2139 047f 9C       		.byte	0x9c
 2140 0480 B7040000 		.4byte	0x4b7
 2141 0484 18       		.uleb128 0x18
 2142 0485 F1020000 		.4byte	.LASF42
 2143 0489 01       		.byte	0x1
 2144 048a E501     		.2byte	0x1e5
 2145 048c 77000000 		.4byte	0x77
 2146 0490 A8010000 		.4byte	.LLST16
 2147 0494 17       		.uleb128 0x17
 2148 0495 4E050000 		.4byte	.LASF30
 2149 0499 01       		.byte	0x1
 2150 049a E701     		.2byte	0x1e7
 2151 049c 6B000000 		.4byte	0x6b
 2152 04a0 D4010000 		.4byte	.LLST17
 2153 04a4 14       		.uleb128 0x14
 2154 04a5 08000000 		.4byte	.LVL35
 2155 04a9 120A0000 		.4byte	0xa12
 2156 04ad 14       		.uleb128 0x14
 2157 04ae 22000000 		.4byte	.LVL37
 2158 04b2 1D0A0000 		.4byte	0xa1d
 2159 04b6 00       		.byte	0
 2160 04b7 16       		.uleb128 0x16
 2161 04b8 5F050000 		.4byte	.LASF43
 2162 04bc 01       		.byte	0x1
 2163 04bd 0702     		.2byte	0x207
 2164 04bf 00000000 		.4byte	.LFB10
 2165 04c3 28000000 		.4byte	.LFE10-.LFB10
 2166 04c7 01       		.uleb128 0x1
 2167 04c8 9C       		.byte	0x9c
 2168 04c9 00050000 		.4byte	0x500
 2169 04cd 18       		.uleb128 0x18
 2170 04ce 8D030000 		.4byte	.LASF44
 2171 04d2 01       		.byte	0x1
 2172 04d3 0702     		.2byte	0x207
 2173 04d5 77000000 		.4byte	0x77
 2174 04d9 E7010000 		.4byte	.LLST18
 2175 04dd 17       		.uleb128 0x17
 2176 04de 4E050000 		.4byte	.LASF30
 2177 04e2 01       		.byte	0x1
 2178 04e3 0902     		.2byte	0x209
 2179 04e5 6B000000 		.4byte	0x6b
 2180 04e9 13020000 		.4byte	.LLST19
 2181 04ed 14       		.uleb128 0x14
 2182 04ee 08000000 		.4byte	.LVL39
 2183 04f2 120A0000 		.4byte	0xa12
 2184 04f6 14       		.uleb128 0x14
 2185 04f7 22000000 		.4byte	.LVL41
 2186 04fb 1D0A0000 		.4byte	0xa1d
 2187 04ff 00       		.byte	0
 2188 0500 16       		.uleb128 0x16
 2189 0501 37050000 		.4byte	.LASF45
 2190 0505 01       		.byte	0x1
 2191 0506 2802     		.2byte	0x228
ARM GAS  C:\Users\g\AppData\Local\Temp\ccC7fujn.s 			page 69


 2192 0508 00000000 		.4byte	.LFB11
 2193 050c 2C000000 		.4byte	.LFE11-.LFB11
 2194 0510 01       		.uleb128 0x1
 2195 0511 9C       		.byte	0x9c
 2196 0512 49050000 		.4byte	0x549
 2197 0516 18       		.uleb128 0x18
 2198 0517 D9010000 		.4byte	.LASF46
 2199 051b 01       		.byte	0x1
 2200 051c 2802     		.2byte	0x228
 2201 051e 77000000 		.4byte	0x77
 2202 0522 26020000 		.4byte	.LLST20
 2203 0526 17       		.uleb128 0x17
 2204 0527 4E050000 		.4byte	.LASF30
 2205 052b 01       		.byte	0x1
 2206 052c 2A02     		.2byte	0x22a
 2207 052e 6B000000 		.4byte	0x6b
 2208 0532 52020000 		.4byte	.LLST21
 2209 0536 14       		.uleb128 0x14
 2210 0537 08000000 		.4byte	.LVL43
 2211 053b 120A0000 		.4byte	0xa12
 2212 053f 14       		.uleb128 0x14
 2213 0540 20000000 		.4byte	.LVL45
 2214 0544 1D0A0000 		.4byte	0xa1d
 2215 0548 00       		.byte	0
 2216 0549 16       		.uleb128 0x16
 2217 054a 00030000 		.4byte	.LASF47
 2218 054e 01       		.byte	0x1
 2219 054f 4902     		.2byte	0x249
 2220 0551 00000000 		.4byte	.LFB12
 2221 0555 28000000 		.4byte	.LFE12-.LFB12
 2222 0559 01       		.uleb128 0x1
 2223 055a 9C       		.byte	0x9c
 2224 055b 92050000 		.4byte	0x592
 2225 055f 18       		.uleb128 0x18
 2226 0560 B0010000 		.4byte	.LASF16
 2227 0564 01       		.byte	0x1
 2228 0565 4902     		.2byte	0x249
 2229 0567 77000000 		.4byte	0x77
 2230 056b 65020000 		.4byte	.LLST22
 2231 056f 17       		.uleb128 0x17
 2232 0570 4E050000 		.4byte	.LASF30
 2233 0574 01       		.byte	0x1
 2234 0575 4B02     		.2byte	0x24b
 2235 0577 6B000000 		.4byte	0x6b
 2236 057b 91020000 		.4byte	.LLST23
 2237 057f 14       		.uleb128 0x14
 2238 0580 08000000 		.4byte	.LVL47
 2239 0584 120A0000 		.4byte	0xa12
 2240 0588 14       		.uleb128 0x14
 2241 0589 1C000000 		.4byte	.LVL48
 2242 058d 1D0A0000 		.4byte	0xa1d
 2243 0591 00       		.byte	0
 2244 0592 0A       		.uleb128 0xa
 2245 0593 E2000000 		.4byte	0xe2
 2246 0597 00000000 		.4byte	.LFB13
 2247 059b 10000000 		.4byte	.LFE13-.LFB13
 2248 059f 01       		.uleb128 0x1
ARM GAS  C:\Users\g\AppData\Local\Temp\ccC7fujn.s 			page 70


 2249 05a0 9C       		.byte	0x9c
 2250 05a1 AF050000 		.4byte	0x5af
 2251 05a5 15       		.uleb128 0x15
 2252 05a6 EF000000 		.4byte	0xef
 2253 05aa A4020000 		.4byte	.LLST24
 2254 05ae 00       		.byte	0
 2255 05af 19       		.uleb128 0x19
 2256 05b0 18050000 		.4byte	.LASF50
 2257 05b4 01       		.byte	0x1
 2258 05b5 7B02     		.2byte	0x27b
 2259 05b7 77000000 		.4byte	0x77
 2260 05bb 00000000 		.4byte	.LFB14
 2261 05bf 10000000 		.4byte	.LFE14-.LFB14
 2262 05c3 01       		.uleb128 0x1
 2263 05c4 9C       		.byte	0x9c
 2264 05c5 16       		.uleb128 0x16
 2265 05c6 9B050000 		.4byte	.LASF48
 2266 05ca 01       		.byte	0x1
 2267 05cb 9802     		.2byte	0x298
 2268 05cd 00000000 		.4byte	.LFB15
 2269 05d1 28000000 		.4byte	.LFE15-.LFB15
 2270 05d5 01       		.uleb128 0x1
 2271 05d6 9C       		.byte	0x9c
 2272 05d7 0E060000 		.4byte	0x60e
 2273 05db 18       		.uleb128 0x18
 2274 05dc FC040000 		.4byte	.LASF49
 2275 05e0 01       		.byte	0x1
 2276 05e1 9802     		.2byte	0x298
 2277 05e3 77000000 		.4byte	0x77
 2278 05e7 C5020000 		.4byte	.LLST25
 2279 05eb 17       		.uleb128 0x17
 2280 05ec 4E050000 		.4byte	.LASF30
 2281 05f0 01       		.byte	0x1
 2282 05f1 9A02     		.2byte	0x29a
 2283 05f3 6B000000 		.4byte	0x6b
 2284 05f7 F1020000 		.4byte	.LLST26
 2285 05fb 14       		.uleb128 0x14
 2286 05fc 08000000 		.4byte	.LVL53
 2287 0600 120A0000 		.4byte	0xa12
 2288 0604 14       		.uleb128 0x14
 2289 0605 1C000000 		.4byte	.LVL54
 2290 0609 1D0A0000 		.4byte	0xa1d
 2291 060d 00       		.byte	0
 2292 060e 0A       		.uleb128 0xa
 2293 060f 16010000 		.4byte	0x116
 2294 0613 00000000 		.4byte	.LFB16
 2295 0617 10000000 		.4byte	.LFE16-.LFB16
 2296 061b 01       		.uleb128 0x1
 2297 061c 9C       		.byte	0x9c
 2298 061d 2B060000 		.4byte	0x62b
 2299 0621 15       		.uleb128 0x15
 2300 0622 23010000 		.4byte	0x123
 2301 0626 04030000 		.4byte	.LLST27
 2302 062a 00       		.byte	0
 2303 062b 19       		.uleb128 0x19
 2304 062c 15030000 		.4byte	.LASF51
 2305 0630 01       		.byte	0x1
ARM GAS  C:\Users\g\AppData\Local\Temp\ccC7fujn.s 			page 71


 2306 0631 C902     		.2byte	0x2c9
 2307 0633 77000000 		.4byte	0x77
 2308 0637 00000000 		.4byte	.LFB17
 2309 063b 10000000 		.4byte	.LFE17-.LFB17
 2310 063f 01       		.uleb128 0x1
 2311 0640 9C       		.byte	0x9c
 2312 0641 16       		.uleb128 0x16
 2313 0642 DB040000 		.4byte	.LASF52
 2314 0646 01       		.byte	0x1
 2315 0647 E302     		.2byte	0x2e3
 2316 0649 00000000 		.4byte	.LFB18
 2317 064d 24000000 		.4byte	.LFE18-.LFB18
 2318 0651 01       		.uleb128 0x1
 2319 0652 9C       		.byte	0x9c
 2320 0653 8A060000 		.4byte	0x68a
 2321 0657 18       		.uleb128 0x18
 2322 0658 90050000 		.4byte	.LASF53
 2323 065c 01       		.byte	0x1
 2324 065d E302     		.2byte	0x2e3
 2325 065f 77000000 		.4byte	0x77
 2326 0663 25030000 		.4byte	.LLST28
 2327 0667 17       		.uleb128 0x17
 2328 0668 4E050000 		.4byte	.LASF30
 2329 066c 01       		.byte	0x1
 2330 066d E502     		.2byte	0x2e5
 2331 066f 6B000000 		.4byte	0x6b
 2332 0673 51030000 		.4byte	.LLST29
 2333 0677 14       		.uleb128 0x14
 2334 0678 08000000 		.4byte	.LVL59
 2335 067c 120A0000 		.4byte	0xa12
 2336 0680 14       		.uleb128 0x14
 2337 0681 1E000000 		.4byte	.LVL60
 2338 0685 1D0A0000 		.4byte	0xa1d
 2339 0689 00       		.byte	0
 2340 068a 16       		.uleb128 0x16
 2341 068b 79010000 		.4byte	.LASF54
 2342 068f 01       		.byte	0x1
 2343 0690 FE02     		.2byte	0x2fe
 2344 0692 00000000 		.4byte	.LFB19
 2345 0696 10000000 		.4byte	.LFE19-.LFB19
 2346 069a 01       		.uleb128 0x1
 2347 069b 9C       		.byte	0x9c
 2348 069c B1060000 		.4byte	0x6b1
 2349 06a0 18       		.uleb128 0x18
 2350 06a1 DE050000 		.4byte	.LASF55
 2351 06a5 01       		.byte	0x1
 2352 06a6 FE02     		.2byte	0x2fe
 2353 06a8 77000000 		.4byte	0x77
 2354 06ac 64030000 		.4byte	.LLST30
 2355 06b0 00       		.byte	0
 2356 06b1 19       		.uleb128 0x19
 2357 06b2 CC020000 		.4byte	.LASF56
 2358 06b6 01       		.byte	0x1
 2359 06b7 1203     		.2byte	0x312
 2360 06b9 77000000 		.4byte	0x77
 2361 06bd 00000000 		.4byte	.LFB20
 2362 06c1 10000000 		.4byte	.LFE20-.LFB20
ARM GAS  C:\Users\g\AppData\Local\Temp\ccC7fujn.s 			page 72


 2363 06c5 01       		.uleb128 0x1
 2364 06c6 9C       		.byte	0x9c
 2365 06c7 16       		.uleb128 0x16
 2366 06c8 B9000000 		.4byte	.LASF57
 2367 06cc 01       		.byte	0x1
 2368 06cd 2C03     		.2byte	0x32c
 2369 06cf 00000000 		.4byte	.LFB21
 2370 06d3 28000000 		.4byte	.LFE21-.LFB21
 2371 06d7 01       		.uleb128 0x1
 2372 06d8 9C       		.byte	0x9c
 2373 06d9 10070000 		.4byte	0x710
 2374 06dd 18       		.uleb128 0x18
 2375 06de 90050000 		.4byte	.LASF53
 2376 06e2 01       		.byte	0x1
 2377 06e3 2C03     		.2byte	0x32c
 2378 06e5 77000000 		.4byte	0x77
 2379 06e9 85030000 		.4byte	.LLST31
 2380 06ed 17       		.uleb128 0x17
 2381 06ee 4E050000 		.4byte	.LASF30
 2382 06f2 01       		.byte	0x1
 2383 06f3 2E03     		.2byte	0x32e
 2384 06f5 6B000000 		.4byte	0x6b
 2385 06f9 B1030000 		.4byte	.LLST32
 2386 06fd 14       		.uleb128 0x14
 2387 06fe 08000000 		.4byte	.LVL65
 2388 0702 120A0000 		.4byte	0xa12
 2389 0706 14       		.uleb128 0x14
 2390 0707 22000000 		.4byte	.LVL67
 2391 070b 1D0A0000 		.4byte	0xa1d
 2392 070f 00       		.byte	0
 2393 0710 0A       		.uleb128 0xa
 2394 0711 30010000 		.4byte	0x130
 2395 0715 00000000 		.4byte	.LFB22
 2396 0719 10000000 		.4byte	.LFE22-.LFB22
 2397 071d 01       		.uleb128 0x1
 2398 071e 9C       		.byte	0x9c
 2399 071f 2D070000 		.4byte	0x72d
 2400 0723 15       		.uleb128 0x15
 2401 0724 3D010000 		.4byte	0x13d
 2402 0728 C4030000 		.4byte	.LLST33
 2403 072c 00       		.byte	0
 2404 072d 19       		.uleb128 0x19
 2405 072e 9D040000 		.4byte	.LASF58
 2406 0732 01       		.byte	0x1
 2407 0733 8403     		.2byte	0x384
 2408 0735 77000000 		.4byte	0x77
 2409 0739 00000000 		.4byte	.LFB23
 2410 073d 10000000 		.4byte	.LFE23-.LFB23
 2411 0741 01       		.uleb128 0x1
 2412 0742 9C       		.byte	0x9c
 2413 0743 16       		.uleb128 0x16
 2414 0744 78050000 		.4byte	.LASF59
 2415 0748 01       		.byte	0x1
 2416 0749 BA03     		.2byte	0x3ba
 2417 074b 00000000 		.4byte	.LFB24
 2418 074f 10000000 		.4byte	.LFE24-.LFB24
 2419 0753 01       		.uleb128 0x1
ARM GAS  C:\Users\g\AppData\Local\Temp\ccC7fujn.s 			page 73


 2420 0754 9C       		.byte	0x9c
 2421 0755 6A070000 		.4byte	0x76a
 2422 0759 18       		.uleb128 0x18
 2423 075a 2C050000 		.4byte	.LASF60
 2424 075e 01       		.byte	0x1
 2425 075f BA03     		.2byte	0x3ba
 2426 0761 77000000 		.4byte	0x77
 2427 0765 E5030000 		.4byte	.LLST34
 2428 0769 00       		.byte	0
 2429 076a 19       		.uleb128 0x19
 2430 076b C4040000 		.4byte	.LASF61
 2431 076f 01       		.byte	0x1
 2432 0770 E803     		.2byte	0x3e8
 2433 0772 77000000 		.4byte	0x77
 2434 0776 00000000 		.4byte	.LFB25
 2435 077a 10000000 		.4byte	.LFE25-.LFB25
 2436 077e 01       		.uleb128 0x1
 2437 077f 9C       		.byte	0x9c
 2438 0780 19       		.uleb128 0x19
 2439 0781 E2010000 		.4byte	.LASF62
 2440 0785 01       		.byte	0x1
 2441 0786 1604     		.2byte	0x416
 2442 0788 77000000 		.4byte	0x77
 2443 078c 00000000 		.4byte	.LFB26
 2444 0790 10000000 		.4byte	.LFE26-.LFB26
 2445 0794 01       		.uleb128 0x1
 2446 0795 9C       		.byte	0x9c
 2447 0796 19       		.uleb128 0x19
 2448 0797 6B020000 		.4byte	.LASF63
 2449 079b 01       		.byte	0x1
 2450 079c 2B04     		.2byte	0x42b
 2451 079e 77000000 		.4byte	0x77
 2452 07a2 00000000 		.4byte	.LFB27
 2453 07a6 10000000 		.4byte	.LFE27-.LFB27
 2454 07aa 01       		.uleb128 0x1
 2455 07ab 9C       		.byte	0x9c
 2456 07ac 16       		.uleb128 0x16
 2457 07ad F6010000 		.4byte	.LASF64
 2458 07b1 01       		.byte	0x1
 2459 07b2 4604     		.2byte	0x446
 2460 07b4 00000000 		.4byte	.LFB28
 2461 07b8 24000000 		.4byte	.LFE28-.LFB28
 2462 07bc 01       		.uleb128 0x1
 2463 07bd 9C       		.byte	0x9c
 2464 07be F5070000 		.4byte	0x7f5
 2465 07c2 18       		.uleb128 0x18
 2466 07c3 A4010000 		.4byte	.LASF65
 2467 07c7 01       		.byte	0x1
 2468 07c8 4604     		.2byte	0x446
 2469 07ca 77000000 		.4byte	0x77
 2470 07ce 06040000 		.4byte	.LLST35
 2471 07d2 17       		.uleb128 0x17
 2472 07d3 4E050000 		.4byte	.LASF30
 2473 07d7 01       		.byte	0x1
 2474 07d8 4804     		.2byte	0x448
 2475 07da 6B000000 		.4byte	0x6b
 2476 07de 32040000 		.4byte	.LLST36
ARM GAS  C:\Users\g\AppData\Local\Temp\ccC7fujn.s 			page 74


 2477 07e2 14       		.uleb128 0x14
 2478 07e3 08000000 		.4byte	.LVL73
 2479 07e7 120A0000 		.4byte	0xa12
 2480 07eb 14       		.uleb128 0x14
 2481 07ec 1C000000 		.4byte	.LVL74
 2482 07f0 1D0A0000 		.4byte	0xa1d
 2483 07f4 00       		.byte	0
 2484 07f5 16       		.uleb128 0x16
 2485 07f6 B5010000 		.4byte	.LASF66
 2486 07fa 01       		.byte	0x1
 2487 07fb 6704     		.2byte	0x467
 2488 07fd 00000000 		.4byte	.LFB29
 2489 0801 24000000 		.4byte	.LFE29-.LFB29
 2490 0805 01       		.uleb128 0x1
 2491 0806 9C       		.byte	0x9c
 2492 0807 3E080000 		.4byte	0x83e
 2493 080b 18       		.uleb128 0x18
 2494 080c A4010000 		.4byte	.LASF65
 2495 0810 01       		.byte	0x1
 2496 0811 6704     		.2byte	0x467
 2497 0813 77000000 		.4byte	0x77
 2498 0817 45040000 		.4byte	.LLST37
 2499 081b 17       		.uleb128 0x17
 2500 081c 4E050000 		.4byte	.LASF30
 2501 0820 01       		.byte	0x1
 2502 0821 6904     		.2byte	0x469
 2503 0823 6B000000 		.4byte	0x6b
 2504 0827 71040000 		.4byte	.LLST38
 2505 082b 14       		.uleb128 0x14
 2506 082c 08000000 		.4byte	.LVL77
 2507 0830 120A0000 		.4byte	0xa12
 2508 0834 14       		.uleb128 0x14
 2509 0835 1E000000 		.4byte	.LVL78
 2510 0839 1D0A0000 		.4byte	0xa1d
 2511 083d 00       		.byte	0
 2512 083e 16       		.uleb128 0x16
 2513 083f C9050000 		.4byte	.LASF67
 2514 0843 01       		.byte	0x1
 2515 0844 8804     		.2byte	0x488
 2516 0846 00000000 		.4byte	.LFB30
 2517 084a 28000000 		.4byte	.LFE30-.LFB30
 2518 084e 01       		.uleb128 0x1
 2519 084f 9C       		.byte	0x9c
 2520 0850 87080000 		.4byte	0x887
 2521 0854 18       		.uleb128 0x18
 2522 0855 A4010000 		.4byte	.LASF65
 2523 0859 01       		.byte	0x1
 2524 085a 8804     		.2byte	0x488
 2525 085c 77000000 		.4byte	0x77
 2526 0860 84040000 		.4byte	.LLST39
 2527 0864 17       		.uleb128 0x17
 2528 0865 4E050000 		.4byte	.LASF30
 2529 0869 01       		.byte	0x1
 2530 086a 8A04     		.2byte	0x48a
 2531 086c 6B000000 		.4byte	0x6b
 2532 0870 B0040000 		.4byte	.LLST40
 2533 0874 14       		.uleb128 0x14
ARM GAS  C:\Users\g\AppData\Local\Temp\ccC7fujn.s 			page 75


 2534 0875 08000000 		.4byte	.LVL81
 2535 0879 120A0000 		.4byte	0xa12
 2536 087d 14       		.uleb128 0x14
 2537 087e 1E000000 		.4byte	.LVL82
 2538 0882 1D0A0000 		.4byte	0xa1d
 2539 0886 00       		.byte	0
 2540 0887 16       		.uleb128 0x16
 2541 0888 06000000 		.4byte	.LASF68
 2542 088c 01       		.byte	0x1
 2543 088d A804     		.2byte	0x4a8
 2544 088f 00000000 		.4byte	.LFB31
 2545 0893 24000000 		.4byte	.LFE31-.LFB31
 2546 0897 01       		.uleb128 0x1
 2547 0898 9C       		.byte	0x9c
 2548 0899 D0080000 		.4byte	0x8d0
 2549 089d 18       		.uleb128 0x18
 2550 089e A4010000 		.4byte	.LASF65
 2551 08a2 01       		.byte	0x1
 2552 08a3 A804     		.2byte	0x4a8
 2553 08a5 77000000 		.4byte	0x77
 2554 08a9 C3040000 		.4byte	.LLST41
 2555 08ad 17       		.uleb128 0x17
 2556 08ae 4E050000 		.4byte	.LASF30
 2557 08b2 01       		.byte	0x1
 2558 08b3 AA04     		.2byte	0x4aa
 2559 08b5 6B000000 		.4byte	0x6b
 2560 08b9 EF040000 		.4byte	.LLST42
 2561 08bd 14       		.uleb128 0x14
 2562 08be 08000000 		.4byte	.LVL85
 2563 08c2 120A0000 		.4byte	0xa12
 2564 08c6 14       		.uleb128 0x14
 2565 08c7 1E000000 		.4byte	.LVL86
 2566 08cb 1D0A0000 		.4byte	0xa1d
 2567 08cf 00       		.byte	0
 2568 08d0 16       		.uleb128 0x16
 2569 08d1 1D010000 		.4byte	.LASF69
 2570 08d5 01       		.byte	0x1
 2571 08d6 C904     		.2byte	0x4c9
 2572 08d8 00000000 		.4byte	.LFB32
 2573 08dc 24000000 		.4byte	.LFE32-.LFB32
 2574 08e0 01       		.uleb128 0x1
 2575 08e1 9C       		.byte	0x9c
 2576 08e2 19090000 		.4byte	0x919
 2577 08e6 18       		.uleb128 0x18
 2578 08e7 A4010000 		.4byte	.LASF65
 2579 08eb 01       		.byte	0x1
 2580 08ec C904     		.2byte	0x4c9
 2581 08ee 77000000 		.4byte	0x77
 2582 08f2 02050000 		.4byte	.LLST43
 2583 08f6 17       		.uleb128 0x17
 2584 08f7 4E050000 		.4byte	.LASF30
 2585 08fb 01       		.byte	0x1
 2586 08fc CB04     		.2byte	0x4cb
 2587 08fe 6B000000 		.4byte	0x6b
 2588 0902 2E050000 		.4byte	.LLST44
 2589 0906 14       		.uleb128 0x14
 2590 0907 08000000 		.4byte	.LVL89
ARM GAS  C:\Users\g\AppData\Local\Temp\ccC7fujn.s 			page 76


 2591 090b 120A0000 		.4byte	0xa12
 2592 090f 14       		.uleb128 0x14
 2593 0910 1E000000 		.4byte	.LVL90
 2594 0914 1D0A0000 		.4byte	0xa1d
 2595 0918 00       		.byte	0
 2596 0919 0A       		.uleb128 0xa
 2597 091a B0000000 		.4byte	0xb0
 2598 091e 00000000 		.4byte	.LFB33
 2599 0922 1C000000 		.4byte	.LFE33-.LFB33
 2600 0926 01       		.uleb128 0x1
 2601 0927 9C       		.byte	0x9c
 2602 0928 5A090000 		.4byte	0x95a
 2603 092c 15       		.uleb128 0x15
 2604 092d BD000000 		.4byte	0xbd
 2605 0931 41050000 		.4byte	.LLST45
 2606 0935 15       		.uleb128 0x15
 2607 0936 C9000000 		.4byte	0xc9
 2608 093a 62050000 		.4byte	.LLST46
 2609 093e 13       		.uleb128 0x13
 2610 093f D5000000 		.4byte	0xd5
 2611 0943 8E050000 		.4byte	.LLST47
 2612 0947 14       		.uleb128 0x14
 2613 0948 0C000000 		.4byte	.LVL93
 2614 094c 120A0000 		.4byte	0xa12
 2615 0950 14       		.uleb128 0x14
 2616 0951 14000000 		.4byte	.LVL94
 2617 0955 1D0A0000 		.4byte	0xa1d
 2618 0959 00       		.byte	0
 2619 095a 19       		.uleb128 0x19
 2620 095b 1A020000 		.4byte	.LASF70
 2621 095f 01       		.byte	0x1
 2622 0960 0E05     		.2byte	0x50e
 2623 0962 77000000 		.4byte	0x77
 2624 0966 00000000 		.4byte	.LFB34
 2625 096a 14000000 		.4byte	.LFE34-.LFB34
 2626 096e 01       		.uleb128 0x1
 2627 096f 9C       		.byte	0x9c
 2628 0970 0A       		.uleb128 0xa
 2629 0971 FC000000 		.4byte	0xfc
 2630 0975 00000000 		.4byte	.LFB35
 2631 0979 0C000000 		.4byte	.LFE35-.LFB35
 2632 097d 01       		.uleb128 0x1
 2633 097e 9C       		.byte	0x9c
 2634 097f 8B090000 		.4byte	0x98b
 2635 0983 1A       		.uleb128 0x1a
 2636 0984 09010000 		.4byte	0x109
 2637 0988 01       		.uleb128 0x1
 2638 0989 50       		.byte	0x50
 2639 098a 00       		.byte	0
 2640 098b 19       		.uleb128 0x19
 2641 098c 58010000 		.4byte	.LASF71
 2642 0990 01       		.byte	0x1
 2643 0991 3E05     		.2byte	0x53e
 2644 0993 77000000 		.4byte	0x77
 2645 0997 00000000 		.4byte	.LFB36
 2646 099b 0C000000 		.4byte	.LFE36-.LFB36
 2647 099f 01       		.uleb128 0x1
ARM GAS  C:\Users\g\AppData\Local\Temp\ccC7fujn.s 			page 77


 2648 09a0 9C       		.byte	0x9c
 2649 09a1 19       		.uleb128 0x19
 2650 09a2 50020000 		.4byte	.LASF72
 2651 09a6 01       		.byte	0x1
 2652 09a7 5505     		.2byte	0x555
 2653 09a9 77000000 		.4byte	0x77
 2654 09ad 00000000 		.4byte	.LFB37
 2655 09b1 0C000000 		.4byte	.LFE37-.LFB37
 2656 09b5 01       		.uleb128 0x1
 2657 09b6 9C       		.byte	0x9c
 2658 09b7 16       		.uleb128 0x16
 2659 09b8 4E040000 		.4byte	.LASF73
 2660 09bc 01       		.byte	0x1
 2661 09bd 6C05     		.2byte	0x56c
 2662 09bf 00000000 		.4byte	.LFB38
 2663 09c3 0C000000 		.4byte	.LFE38-.LFB38
 2664 09c7 01       		.uleb128 0x1
 2665 09c8 9C       		.byte	0x9c
 2666 09c9 DC090000 		.4byte	0x9dc
 2667 09cd 1B       		.uleb128 0x1b
 2668 09ce 8F040000 		.4byte	.LASF22
 2669 09d2 01       		.byte	0x1
 2670 09d3 6C05     		.2byte	0x56c
 2671 09d5 77000000 		.4byte	0x77
 2672 09d9 01       		.uleb128 0x1
 2673 09da 50       		.byte	0x50
 2674 09db 00       		.byte	0
 2675 09dc 16       		.uleb128 0x16
 2676 09dd 30000000 		.4byte	.LASF74
 2677 09e1 01       		.byte	0x1
 2678 09e2 8305     		.2byte	0x583
 2679 09e4 00000000 		.4byte	.LFB39
 2680 09e8 0C000000 		.4byte	.LFE39-.LFB39
 2681 09ec 01       		.uleb128 0x1
 2682 09ed 9C       		.byte	0x9c
 2683 09ee 010A0000 		.4byte	0xa01
 2684 09f2 1B       		.uleb128 0x1b
 2685 09f3 8F040000 		.4byte	.LASF22
 2686 09f7 01       		.byte	0x1
 2687 09f8 8305     		.2byte	0x583
 2688 09fa 77000000 		.4byte	0x77
 2689 09fe 01       		.uleb128 0x1
 2690 09ff 50       		.byte	0x50
 2691 0a00 00       		.byte	0
 2692 0a01 1C       		.uleb128 0x1c
 2693 0a02 08050000 		.4byte	.LASF79
 2694 0a06 01       		.byte	0x1
 2695 0a07 15       		.byte	0x15
 2696 0a08 6B000000 		.4byte	0x6b
 2697 0a0c 05       		.uleb128 0x5
 2698 0a0d 03       		.byte	0x3
 2699 0a0e 00000000 		.4byte	PWM_MOT_initVar
 2700 0a12 1D       		.uleb128 0x1d
 2701 0a13 82020000 		.4byte	.LASF80
 2702 0a17 03       		.byte	0x3
 2703 0a18 E3       		.byte	0xe3
 2704 0a19 6B000000 		.4byte	0x6b
ARM GAS  C:\Users\g\AppData\Local\Temp\ccC7fujn.s 			page 78


 2705 0a1d 1E       		.uleb128 0x1e
 2706 0a1e 1A000000 		.4byte	.LASF81
 2707 0a22 03       		.byte	0x3
 2708 0a23 E4       		.byte	0xe4
 2709 0a24 1F       		.uleb128 0x1f
 2710 0a25 6B000000 		.4byte	0x6b
 2711 0a29 00       		.byte	0
 2712 0a2a 00       		.byte	0
 2713              		.section	.debug_abbrev,"",%progbits
 2714              	.Ldebug_abbrev0:
 2715 0000 01       		.uleb128 0x1
 2716 0001 11       		.uleb128 0x11
 2717 0002 01       		.byte	0x1
 2718 0003 25       		.uleb128 0x25
 2719 0004 0E       		.uleb128 0xe
 2720 0005 13       		.uleb128 0x13
 2721 0006 0B       		.uleb128 0xb
 2722 0007 03       		.uleb128 0x3
 2723 0008 0E       		.uleb128 0xe
 2724 0009 1B       		.uleb128 0x1b
 2725 000a 0E       		.uleb128 0xe
 2726 000b 55       		.uleb128 0x55
 2727 000c 17       		.uleb128 0x17
 2728 000d 11       		.uleb128 0x11
 2729 000e 01       		.uleb128 0x1
 2730 000f 10       		.uleb128 0x10
 2731 0010 17       		.uleb128 0x17
 2732 0011 00       		.byte	0
 2733 0012 00       		.byte	0
 2734 0013 02       		.uleb128 0x2
 2735 0014 24       		.uleb128 0x24
 2736 0015 00       		.byte	0
 2737 0016 0B       		.uleb128 0xb
 2738 0017 0B       		.uleb128 0xb
 2739 0018 3E       		.uleb128 0x3e
 2740 0019 0B       		.uleb128 0xb
 2741 001a 03       		.uleb128 0x3
 2742 001b 0E       		.uleb128 0xe
 2743 001c 00       		.byte	0
 2744 001d 00       		.byte	0
 2745 001e 03       		.uleb128 0x3
 2746 001f 24       		.uleb128 0x24
 2747 0020 00       		.byte	0
 2748 0021 0B       		.uleb128 0xb
 2749 0022 0B       		.uleb128 0xb
 2750 0023 3E       		.uleb128 0x3e
 2751 0024 0B       		.uleb128 0xb
 2752 0025 03       		.uleb128 0x3
 2753 0026 08       		.uleb128 0x8
 2754 0027 00       		.byte	0
 2755 0028 00       		.byte	0
 2756 0029 04       		.uleb128 0x4
 2757 002a 16       		.uleb128 0x16
 2758 002b 00       		.byte	0
 2759 002c 03       		.uleb128 0x3
 2760 002d 0E       		.uleb128 0xe
 2761 002e 3A       		.uleb128 0x3a
ARM GAS  C:\Users\g\AppData\Local\Temp\ccC7fujn.s 			page 79


 2762 002f 0B       		.uleb128 0xb
 2763 0030 3B       		.uleb128 0x3b
 2764 0031 05       		.uleb128 0x5
 2765 0032 49       		.uleb128 0x49
 2766 0033 13       		.uleb128 0x13
 2767 0034 00       		.byte	0
 2768 0035 00       		.byte	0
 2769 0036 05       		.uleb128 0x5
 2770 0037 35       		.uleb128 0x35
 2771 0038 00       		.byte	0
 2772 0039 49       		.uleb128 0x49
 2773 003a 13       		.uleb128 0x13
 2774 003b 00       		.byte	0
 2775 003c 00       		.byte	0
 2776 003d 06       		.uleb128 0x6
 2777 003e 2E       		.uleb128 0x2e
 2778 003f 01       		.byte	0x1
 2779 0040 3F       		.uleb128 0x3f
 2780 0041 19       		.uleb128 0x19
 2781 0042 03       		.uleb128 0x3
 2782 0043 0E       		.uleb128 0xe
 2783 0044 3A       		.uleb128 0x3a
 2784 0045 0B       		.uleb128 0xb
 2785 0046 3B       		.uleb128 0x3b
 2786 0047 05       		.uleb128 0x5
 2787 0048 27       		.uleb128 0x27
 2788 0049 19       		.uleb128 0x19
 2789 004a 20       		.uleb128 0x20
 2790 004b 0B       		.uleb128 0xb
 2791 004c 01       		.uleb128 0x1
 2792 004d 13       		.uleb128 0x13
 2793 004e 00       		.byte	0
 2794 004f 00       		.byte	0
 2795 0050 07       		.uleb128 0x7
 2796 0051 05       		.uleb128 0x5
 2797 0052 00       		.byte	0
 2798 0053 03       		.uleb128 0x3
 2799 0054 0E       		.uleb128 0xe
 2800 0055 3A       		.uleb128 0x3a
 2801 0056 0B       		.uleb128 0xb
 2802 0057 3B       		.uleb128 0x3b
 2803 0058 05       		.uleb128 0x5
 2804 0059 49       		.uleb128 0x49
 2805 005a 13       		.uleb128 0x13
 2806 005b 00       		.byte	0
 2807 005c 00       		.byte	0
 2808 005d 08       		.uleb128 0x8
 2809 005e 34       		.uleb128 0x34
 2810 005f 00       		.byte	0
 2811 0060 03       		.uleb128 0x3
 2812 0061 0E       		.uleb128 0xe
 2813 0062 3A       		.uleb128 0x3a
 2814 0063 0B       		.uleb128 0xb
 2815 0064 3B       		.uleb128 0x3b
 2816 0065 05       		.uleb128 0x5
 2817 0066 49       		.uleb128 0x49
 2818 0067 13       		.uleb128 0x13
ARM GAS  C:\Users\g\AppData\Local\Temp\ccC7fujn.s 			page 80


 2819 0068 00       		.byte	0
 2820 0069 00       		.byte	0
 2821 006a 09       		.uleb128 0x9
 2822 006b 2E       		.uleb128 0x2e
 2823 006c 00       		.byte	0
 2824 006d 3F       		.uleb128 0x3f
 2825 006e 19       		.uleb128 0x19
 2826 006f 03       		.uleb128 0x3
 2827 0070 0E       		.uleb128 0xe
 2828 0071 3A       		.uleb128 0x3a
 2829 0072 0B       		.uleb128 0xb
 2830 0073 3B       		.uleb128 0x3b
 2831 0074 0B       		.uleb128 0xb
 2832 0075 27       		.uleb128 0x27
 2833 0076 19       		.uleb128 0x19
 2834 0077 20       		.uleb128 0x20
 2835 0078 0B       		.uleb128 0xb
 2836 0079 00       		.byte	0
 2837 007a 00       		.byte	0
 2838 007b 0A       		.uleb128 0xa
 2839 007c 2E       		.uleb128 0x2e
 2840 007d 01       		.byte	0x1
 2841 007e 31       		.uleb128 0x31
 2842 007f 13       		.uleb128 0x13
 2843 0080 11       		.uleb128 0x11
 2844 0081 01       		.uleb128 0x1
 2845 0082 12       		.uleb128 0x12
 2846 0083 06       		.uleb128 0x6
 2847 0084 40       		.uleb128 0x40
 2848 0085 18       		.uleb128 0x18
 2849 0086 9742     		.uleb128 0x2117
 2850 0088 19       		.uleb128 0x19
 2851 0089 01       		.uleb128 0x1
 2852 008a 13       		.uleb128 0x13
 2853 008b 00       		.byte	0
 2854 008c 00       		.byte	0
 2855 008d 0B       		.uleb128 0xb
 2856 008e 1D       		.uleb128 0x1d
 2857 008f 01       		.byte	0x1
 2858 0090 31       		.uleb128 0x31
 2859 0091 13       		.uleb128 0x13
 2860 0092 52       		.uleb128 0x52
 2861 0093 01       		.uleb128 0x1
 2862 0094 55       		.uleb128 0x55
 2863 0095 17       		.uleb128 0x17
 2864 0096 58       		.uleb128 0x58
 2865 0097 0B       		.uleb128 0xb
 2866 0098 59       		.uleb128 0x59
 2867 0099 0B       		.uleb128 0xb
 2868 009a 01       		.uleb128 0x1
 2869 009b 13       		.uleb128 0x13
 2870 009c 00       		.byte	0
 2871 009d 00       		.byte	0
 2872 009e 0C       		.uleb128 0xc
 2873 009f 05       		.uleb128 0x5
 2874 00a0 00       		.byte	0
 2875 00a1 31       		.uleb128 0x31
ARM GAS  C:\Users\g\AppData\Local\Temp\ccC7fujn.s 			page 81


 2876 00a2 13       		.uleb128 0x13
 2877 00a3 1C       		.uleb128 0x1c
 2878 00a4 0B       		.uleb128 0xb
 2879 00a5 00       		.byte	0
 2880 00a6 00       		.byte	0
 2881 00a7 0D       		.uleb128 0xd
 2882 00a8 1D       		.uleb128 0x1d
 2883 00a9 01       		.byte	0x1
 2884 00aa 31       		.uleb128 0x31
 2885 00ab 13       		.uleb128 0x13
 2886 00ac 11       		.uleb128 0x11
 2887 00ad 01       		.uleb128 0x1
 2888 00ae 12       		.uleb128 0x12
 2889 00af 06       		.uleb128 0x6
 2890 00b0 58       		.uleb128 0x58
 2891 00b1 0B       		.uleb128 0xb
 2892 00b2 59       		.uleb128 0x59
 2893 00b3 0B       		.uleb128 0xb
 2894 00b4 01       		.uleb128 0x1
 2895 00b5 13       		.uleb128 0x13
 2896 00b6 00       		.byte	0
 2897 00b7 00       		.byte	0
 2898 00b8 0E       		.uleb128 0xe
 2899 00b9 05       		.uleb128 0x5
 2900 00ba 00       		.byte	0
 2901 00bb 31       		.uleb128 0x31
 2902 00bc 13       		.uleb128 0x13
 2903 00bd 1C       		.uleb128 0x1c
 2904 00be 05       		.uleb128 0x5
 2905 00bf 00       		.byte	0
 2906 00c0 00       		.byte	0
 2907 00c1 0F       		.uleb128 0xf
 2908 00c2 1D       		.uleb128 0x1d
 2909 00c3 01       		.byte	0x1
 2910 00c4 31       		.uleb128 0x31
 2911 00c5 13       		.uleb128 0x13
 2912 00c6 11       		.uleb128 0x11
 2913 00c7 01       		.uleb128 0x1
 2914 00c8 12       		.uleb128 0x12
 2915 00c9 06       		.uleb128 0x6
 2916 00ca 58       		.uleb128 0x58
 2917 00cb 0B       		.uleb128 0xb
 2918 00cc 59       		.uleb128 0x59
 2919 00cd 0B       		.uleb128 0xb
 2920 00ce 00       		.byte	0
 2921 00cf 00       		.byte	0
 2922 00d0 10       		.uleb128 0x10
 2923 00d1 2E       		.uleb128 0x2e
 2924 00d2 01       		.byte	0x1
 2925 00d3 3F       		.uleb128 0x3f
 2926 00d4 19       		.uleb128 0x19
 2927 00d5 03       		.uleb128 0x3
 2928 00d6 0E       		.uleb128 0xe
 2929 00d7 3A       		.uleb128 0x3a
 2930 00d8 0B       		.uleb128 0xb
 2931 00d9 3B       		.uleb128 0x3b
 2932 00da 0B       		.uleb128 0xb
ARM GAS  C:\Users\g\AppData\Local\Temp\ccC7fujn.s 			page 82


 2933 00db 27       		.uleb128 0x27
 2934 00dc 19       		.uleb128 0x19
 2935 00dd 11       		.uleb128 0x11
 2936 00de 01       		.uleb128 0x1
 2937 00df 12       		.uleb128 0x12
 2938 00e0 06       		.uleb128 0x6
 2939 00e1 40       		.uleb128 0x40
 2940 00e2 18       		.uleb128 0x18
 2941 00e3 9742     		.uleb128 0x2117
 2942 00e5 19       		.uleb128 0x19
 2943 00e6 01       		.uleb128 0x1
 2944 00e7 13       		.uleb128 0x13
 2945 00e8 00       		.byte	0
 2946 00e9 00       		.byte	0
 2947 00ea 11       		.uleb128 0x11
 2948 00eb 34       		.uleb128 0x34
 2949 00ec 00       		.byte	0
 2950 00ed 03       		.uleb128 0x3
 2951 00ee 0E       		.uleb128 0xe
 2952 00ef 3A       		.uleb128 0x3a
 2953 00f0 0B       		.uleb128 0xb
 2954 00f1 3B       		.uleb128 0x3b
 2955 00f2 0B       		.uleb128 0xb
 2956 00f3 49       		.uleb128 0x49
 2957 00f4 13       		.uleb128 0x13
 2958 00f5 02       		.uleb128 0x2
 2959 00f6 17       		.uleb128 0x17
 2960 00f7 00       		.byte	0
 2961 00f8 00       		.byte	0
 2962 00f9 12       		.uleb128 0x12
 2963 00fa 0B       		.uleb128 0xb
 2964 00fb 01       		.byte	0x1
 2965 00fc 11       		.uleb128 0x11
 2966 00fd 01       		.uleb128 0x1
 2967 00fe 12       		.uleb128 0x12
 2968 00ff 06       		.uleb128 0x6
 2969 0100 00       		.byte	0
 2970 0101 00       		.byte	0
 2971 0102 13       		.uleb128 0x13
 2972 0103 34       		.uleb128 0x34
 2973 0104 00       		.byte	0
 2974 0105 31       		.uleb128 0x31
 2975 0106 13       		.uleb128 0x13
 2976 0107 02       		.uleb128 0x2
 2977 0108 17       		.uleb128 0x17
 2978 0109 00       		.byte	0
 2979 010a 00       		.byte	0
 2980 010b 14       		.uleb128 0x14
 2981 010c 898201   		.uleb128 0x4109
 2982 010f 00       		.byte	0
 2983 0110 11       		.uleb128 0x11
 2984 0111 01       		.uleb128 0x1
 2985 0112 31       		.uleb128 0x31
 2986 0113 13       		.uleb128 0x13
 2987 0114 00       		.byte	0
 2988 0115 00       		.byte	0
 2989 0116 15       		.uleb128 0x15
ARM GAS  C:\Users\g\AppData\Local\Temp\ccC7fujn.s 			page 83


 2990 0117 05       		.uleb128 0x5
 2991 0118 00       		.byte	0
 2992 0119 31       		.uleb128 0x31
 2993 011a 13       		.uleb128 0x13
 2994 011b 02       		.uleb128 0x2
 2995 011c 17       		.uleb128 0x17
 2996 011d 00       		.byte	0
 2997 011e 00       		.byte	0
 2998 011f 16       		.uleb128 0x16
 2999 0120 2E       		.uleb128 0x2e
 3000 0121 01       		.byte	0x1
 3001 0122 3F       		.uleb128 0x3f
 3002 0123 19       		.uleb128 0x19
 3003 0124 03       		.uleb128 0x3
 3004 0125 0E       		.uleb128 0xe
 3005 0126 3A       		.uleb128 0x3a
 3006 0127 0B       		.uleb128 0xb
 3007 0128 3B       		.uleb128 0x3b
 3008 0129 05       		.uleb128 0x5
 3009 012a 27       		.uleb128 0x27
 3010 012b 19       		.uleb128 0x19
 3011 012c 11       		.uleb128 0x11
 3012 012d 01       		.uleb128 0x1
 3013 012e 12       		.uleb128 0x12
 3014 012f 06       		.uleb128 0x6
 3015 0130 40       		.uleb128 0x40
 3016 0131 18       		.uleb128 0x18
 3017 0132 9742     		.uleb128 0x2117
 3018 0134 19       		.uleb128 0x19
 3019 0135 01       		.uleb128 0x1
 3020 0136 13       		.uleb128 0x13
 3021 0137 00       		.byte	0
 3022 0138 00       		.byte	0
 3023 0139 17       		.uleb128 0x17
 3024 013a 34       		.uleb128 0x34
 3025 013b 00       		.byte	0
 3026 013c 03       		.uleb128 0x3
 3027 013d 0E       		.uleb128 0xe
 3028 013e 3A       		.uleb128 0x3a
 3029 013f 0B       		.uleb128 0xb
 3030 0140 3B       		.uleb128 0x3b
 3031 0141 05       		.uleb128 0x5
 3032 0142 49       		.uleb128 0x49
 3033 0143 13       		.uleb128 0x13
 3034 0144 02       		.uleb128 0x2
 3035 0145 17       		.uleb128 0x17
 3036 0146 00       		.byte	0
 3037 0147 00       		.byte	0
 3038 0148 18       		.uleb128 0x18
 3039 0149 05       		.uleb128 0x5
 3040 014a 00       		.byte	0
 3041 014b 03       		.uleb128 0x3
 3042 014c 0E       		.uleb128 0xe
 3043 014d 3A       		.uleb128 0x3a
 3044 014e 0B       		.uleb128 0xb
 3045 014f 3B       		.uleb128 0x3b
 3046 0150 05       		.uleb128 0x5
ARM GAS  C:\Users\g\AppData\Local\Temp\ccC7fujn.s 			page 84


 3047 0151 49       		.uleb128 0x49
 3048 0152 13       		.uleb128 0x13
 3049 0153 02       		.uleb128 0x2
 3050 0154 17       		.uleb128 0x17
 3051 0155 00       		.byte	0
 3052 0156 00       		.byte	0
 3053 0157 19       		.uleb128 0x19
 3054 0158 2E       		.uleb128 0x2e
 3055 0159 00       		.byte	0
 3056 015a 3F       		.uleb128 0x3f
 3057 015b 19       		.uleb128 0x19
 3058 015c 03       		.uleb128 0x3
 3059 015d 0E       		.uleb128 0xe
 3060 015e 3A       		.uleb128 0x3a
 3061 015f 0B       		.uleb128 0xb
 3062 0160 3B       		.uleb128 0x3b
 3063 0161 05       		.uleb128 0x5
 3064 0162 27       		.uleb128 0x27
 3065 0163 19       		.uleb128 0x19
 3066 0164 49       		.uleb128 0x49
 3067 0165 13       		.uleb128 0x13
 3068 0166 11       		.uleb128 0x11
 3069 0167 01       		.uleb128 0x1
 3070 0168 12       		.uleb128 0x12
 3071 0169 06       		.uleb128 0x6
 3072 016a 40       		.uleb128 0x40
 3073 016b 18       		.uleb128 0x18
 3074 016c 9742     		.uleb128 0x2117
 3075 016e 19       		.uleb128 0x19
 3076 016f 00       		.byte	0
 3077 0170 00       		.byte	0
 3078 0171 1A       		.uleb128 0x1a
 3079 0172 05       		.uleb128 0x5
 3080 0173 00       		.byte	0
 3081 0174 31       		.uleb128 0x31
 3082 0175 13       		.uleb128 0x13
 3083 0176 02       		.uleb128 0x2
 3084 0177 18       		.uleb128 0x18
 3085 0178 00       		.byte	0
 3086 0179 00       		.byte	0
 3087 017a 1B       		.uleb128 0x1b
 3088 017b 05       		.uleb128 0x5
 3089 017c 00       		.byte	0
 3090 017d 03       		.uleb128 0x3
 3091 017e 0E       		.uleb128 0xe
 3092 017f 3A       		.uleb128 0x3a
 3093 0180 0B       		.uleb128 0xb
 3094 0181 3B       		.uleb128 0x3b
 3095 0182 05       		.uleb128 0x5
 3096 0183 49       		.uleb128 0x49
 3097 0184 13       		.uleb128 0x13
 3098 0185 02       		.uleb128 0x2
 3099 0186 18       		.uleb128 0x18
 3100 0187 00       		.byte	0
 3101 0188 00       		.byte	0
 3102 0189 1C       		.uleb128 0x1c
 3103 018a 34       		.uleb128 0x34
ARM GAS  C:\Users\g\AppData\Local\Temp\ccC7fujn.s 			page 85


 3104 018b 00       		.byte	0
 3105 018c 03       		.uleb128 0x3
 3106 018d 0E       		.uleb128 0xe
 3107 018e 3A       		.uleb128 0x3a
 3108 018f 0B       		.uleb128 0xb
 3109 0190 3B       		.uleb128 0x3b
 3110 0191 0B       		.uleb128 0xb
 3111 0192 49       		.uleb128 0x49
 3112 0193 13       		.uleb128 0x13
 3113 0194 3F       		.uleb128 0x3f
 3114 0195 19       		.uleb128 0x19
 3115 0196 02       		.uleb128 0x2
 3116 0197 18       		.uleb128 0x18
 3117 0198 00       		.byte	0
 3118 0199 00       		.byte	0
 3119 019a 1D       		.uleb128 0x1d
 3120 019b 2E       		.uleb128 0x2e
 3121 019c 00       		.byte	0
 3122 019d 3F       		.uleb128 0x3f
 3123 019e 19       		.uleb128 0x19
 3124 019f 03       		.uleb128 0x3
 3125 01a0 0E       		.uleb128 0xe
 3126 01a1 3A       		.uleb128 0x3a
 3127 01a2 0B       		.uleb128 0xb
 3128 01a3 3B       		.uleb128 0x3b
 3129 01a4 0B       		.uleb128 0xb
 3130 01a5 27       		.uleb128 0x27
 3131 01a6 19       		.uleb128 0x19
 3132 01a7 49       		.uleb128 0x49
 3133 01a8 13       		.uleb128 0x13
 3134 01a9 3C       		.uleb128 0x3c
 3135 01aa 19       		.uleb128 0x19
 3136 01ab 00       		.byte	0
 3137 01ac 00       		.byte	0
 3138 01ad 1E       		.uleb128 0x1e
 3139 01ae 2E       		.uleb128 0x2e
 3140 01af 01       		.byte	0x1
 3141 01b0 3F       		.uleb128 0x3f
 3142 01b1 19       		.uleb128 0x19
 3143 01b2 03       		.uleb128 0x3
 3144 01b3 0E       		.uleb128 0xe
 3145 01b4 3A       		.uleb128 0x3a
 3146 01b5 0B       		.uleb128 0xb
 3147 01b6 3B       		.uleb128 0x3b
 3148 01b7 0B       		.uleb128 0xb
 3149 01b8 27       		.uleb128 0x27
 3150 01b9 19       		.uleb128 0x19
 3151 01ba 3C       		.uleb128 0x3c
 3152 01bb 19       		.uleb128 0x19
 3153 01bc 00       		.byte	0
 3154 01bd 00       		.byte	0
 3155 01be 1F       		.uleb128 0x1f
 3156 01bf 05       		.uleb128 0x5
 3157 01c0 00       		.byte	0
 3158 01c1 49       		.uleb128 0x49
 3159 01c2 13       		.uleb128 0x13
 3160 01c3 00       		.byte	0
ARM GAS  C:\Users\g\AppData\Local\Temp\ccC7fujn.s 			page 86


 3161 01c4 00       		.byte	0
 3162 01c5 00       		.byte	0
 3163              		.section	.debug_loc,"",%progbits
 3164              	.Ldebug_loc0:
 3165              	.LLST0:
 3166 0000 06000000 		.4byte	.LVL4
 3167 0004 13000000 		.4byte	.LVL5-1
 3168 0008 0100     		.2byte	0x1
 3169 000a 50       		.byte	0x50
 3170 000b 00000000 		.4byte	0
 3171 000f 00000000 		.4byte	0
 3172              	.LLST1:
 3173 0013 18000000 		.4byte	.LVL6
 3174 0017 23000000 		.4byte	.LVL7-1
 3175 001b 0100     		.2byte	0x1
 3176 001d 50       		.byte	0x50
 3177 001e 00000000 		.4byte	0
 3178 0022 00000000 		.4byte	0
 3179              	.LLST2:
 3180 0026 1C000000 		.4byte	.LVL8
 3181 002a 46000000 		.4byte	.LVL12
 3182 002e 0200     		.2byte	0x2
 3183 0030 30       		.byte	0x30
 3184 0031 9F       		.byte	0x9f
 3185 0032 00000000 		.4byte	0
 3186 0036 00000000 		.4byte	0
 3187              	.LLST3:
 3188 003a 2E000000 		.4byte	.LVL9
 3189 003e 46000000 		.4byte	.LVL12
 3190 0042 0200     		.2byte	0x2
 3191 0044 31       		.byte	0x31
 3192 0045 9F       		.byte	0x9f
 3193 0046 00000000 		.4byte	0
 3194 004a 00000000 		.4byte	0
 3195              	.LLST4:
 3196 004e 38000000 		.4byte	.LVL10
 3197 0052 46000000 		.4byte	.LVL12
 3198 0056 0400     		.2byte	0x4
 3199 0058 0A       		.byte	0xa
 3200 0059 0010     		.2byte	0x1000
 3201 005b 9F       		.byte	0x9f
 3202 005c 00000000 		.4byte	0
 3203 0060 00000000 		.4byte	0
 3204              	.LLST5:
 3205 0064 40000000 		.4byte	.LVL11
 3206 0068 46000000 		.4byte	.LVL12
 3207 006c 0200     		.2byte	0x2
 3208 006e 31       		.byte	0x31
 3209 006f 9F       		.byte	0x9f
 3210 0070 00000000 		.4byte	0
 3211 0074 00000000 		.4byte	0
 3212              	.LLST6:
 3213 0078 06000000 		.4byte	.LVL14
 3214 007c 13000000 		.4byte	.LVL15-1
 3215 0080 0100     		.2byte	0x1
 3216 0082 50       		.byte	0x50
 3217 0083 00000000 		.4byte	0
ARM GAS  C:\Users\g\AppData\Local\Temp\ccC7fujn.s 			page 87


 3218 0087 00000000 		.4byte	0
 3219              	.LLST7:
 3220 008b 00000000 		.4byte	.LVL16
 3221 008f 07000000 		.4byte	.LVL17-1
 3222 0093 0100     		.2byte	0x1
 3223 0095 50       		.byte	0x50
 3224 0096 07000000 		.4byte	.LVL17-1
 3225 009a 1C000000 		.4byte	.LVL19
 3226 009e 0100     		.2byte	0x1
 3227 00a0 54       		.byte	0x54
 3228 00a1 1C000000 		.4byte	.LVL19
 3229 00a5 28000000 		.4byte	.LFE4
 3230 00a9 0400     		.2byte	0x4
 3231 00ab F3       		.byte	0xf3
 3232 00ac 01       		.uleb128 0x1
 3233 00ad 50       		.byte	0x50
 3234 00ae 9F       		.byte	0x9f
 3235 00af 00000000 		.4byte	0
 3236 00b3 00000000 		.4byte	0
 3237              	.LLST8:
 3238 00b7 08000000 		.4byte	.LVL17
 3239 00bb 1B000000 		.4byte	.LVL18-1
 3240 00bf 0100     		.2byte	0x1
 3241 00c1 50       		.byte	0x50
 3242 00c2 00000000 		.4byte	0
 3243 00c6 00000000 		.4byte	0
 3244              	.LLST9:
 3245 00ca 00000000 		.4byte	.LVL20
 3246 00ce 07000000 		.4byte	.LVL21-1
 3247 00d2 0100     		.2byte	0x1
 3248 00d4 50       		.byte	0x50
 3249 00d5 07000000 		.4byte	.LVL21-1
 3250 00d9 1C000000 		.4byte	.LVL23
 3251 00dd 0100     		.2byte	0x1
 3252 00df 54       		.byte	0x54
 3253 00e0 1C000000 		.4byte	.LVL23
 3254 00e4 28000000 		.4byte	.LFE5
 3255 00e8 0400     		.2byte	0x4
 3256 00ea F3       		.byte	0xf3
 3257 00eb 01       		.uleb128 0x1
 3258 00ec 50       		.byte	0x50
 3259 00ed 9F       		.byte	0x9f
 3260 00ee 00000000 		.4byte	0
 3261 00f2 00000000 		.4byte	0
 3262              	.LLST10:
 3263 00f6 08000000 		.4byte	.LVL21
 3264 00fa 1B000000 		.4byte	.LVL22-1
 3265 00fe 0100     		.2byte	0x1
 3266 0100 50       		.byte	0x50
 3267 0101 00000000 		.4byte	0
 3268 0105 00000000 		.4byte	0
 3269              	.LLST11:
 3270 0109 00000000 		.4byte	.LVL24
 3271 010d 07000000 		.4byte	.LVL25-1
 3272 0111 0100     		.2byte	0x1
 3273 0113 50       		.byte	0x50
 3274 0114 07000000 		.4byte	.LVL25-1
ARM GAS  C:\Users\g\AppData\Local\Temp\ccC7fujn.s 			page 88


 3275 0118 1C000000 		.4byte	.LVL27
 3276 011c 0100     		.2byte	0x1
 3277 011e 54       		.byte	0x54
 3278 011f 1C000000 		.4byte	.LVL27
 3279 0123 28000000 		.4byte	.LFE6
 3280 0127 0400     		.2byte	0x4
 3281 0129 F3       		.byte	0xf3
 3282 012a 01       		.uleb128 0x1
 3283 012b 50       		.byte	0x50
 3284 012c 9F       		.byte	0x9f
 3285 012d 00000000 		.4byte	0
 3286 0131 00000000 		.4byte	0
 3287              	.LLST12:
 3288 0135 08000000 		.4byte	.LVL25
 3289 0139 1B000000 		.4byte	.LVL26-1
 3290 013d 0100     		.2byte	0x1
 3291 013f 50       		.byte	0x50
 3292 0140 00000000 		.4byte	0
 3293 0144 00000000 		.4byte	0
 3294              	.LLST13:
 3295 0148 00000000 		.4byte	.LVL28
 3296 014c 07000000 		.4byte	.LVL29-1
 3297 0150 0100     		.2byte	0x1
 3298 0152 50       		.byte	0x50
 3299 0153 07000000 		.4byte	.LVL29-1
 3300 0157 18000000 		.4byte	.LVL30
 3301 015b 0100     		.2byte	0x1
 3302 015d 54       		.byte	0x54
 3303 015e 18000000 		.4byte	.LVL30
 3304 0162 2C000000 		.4byte	.LFE7
 3305 0166 0400     		.2byte	0x4
 3306 0168 F3       		.byte	0xf3
 3307 0169 01       		.uleb128 0x1
 3308 016a 50       		.byte	0x50
 3309 016b 9F       		.byte	0x9f
 3310 016c 00000000 		.4byte	0
 3311 0170 00000000 		.4byte	0
 3312              	.LLST14:
 3313 0174 08000000 		.4byte	.LVL29
 3314 0178 21000000 		.4byte	.LVL31-1
 3315 017c 0100     		.2byte	0x1
 3316 017e 50       		.byte	0x50
 3317 017f 00000000 		.4byte	0
 3318 0183 00000000 		.4byte	0
 3319              	.LLST15:
 3320 0187 00000000 		.4byte	.LVL32
 3321 018b 04000000 		.4byte	.LVL33
 3322 018f 0100     		.2byte	0x1
 3323 0191 50       		.byte	0x50
 3324 0192 04000000 		.4byte	.LVL33
 3325 0196 10000000 		.4byte	.LFE8
 3326 019a 0400     		.2byte	0x4
 3327 019c F3       		.byte	0xf3
 3328 019d 01       		.uleb128 0x1
 3329 019e 50       		.byte	0x50
 3330 019f 9F       		.byte	0x9f
 3331 01a0 00000000 		.4byte	0
ARM GAS  C:\Users\g\AppData\Local\Temp\ccC7fujn.s 			page 89


 3332 01a4 00000000 		.4byte	0
 3333              	.LLST16:
 3334 01a8 00000000 		.4byte	.LVL34
 3335 01ac 07000000 		.4byte	.LVL35-1
 3336 01b0 0100     		.2byte	0x1
 3337 01b2 50       		.byte	0x50
 3338 01b3 07000000 		.4byte	.LVL35-1
 3339 01b7 18000000 		.4byte	.LVL36
 3340 01bb 0100     		.2byte	0x1
 3341 01bd 54       		.byte	0x54
 3342 01be 18000000 		.4byte	.LVL36
 3343 01c2 28000000 		.4byte	.LFE9
 3344 01c6 0400     		.2byte	0x4
 3345 01c8 F3       		.byte	0xf3
 3346 01c9 01       		.uleb128 0x1
 3347 01ca 50       		.byte	0x50
 3348 01cb 9F       		.byte	0x9f
 3349 01cc 00000000 		.4byte	0
 3350 01d0 00000000 		.4byte	0
 3351              	.LLST17:
 3352 01d4 08000000 		.4byte	.LVL35
 3353 01d8 21000000 		.4byte	.LVL37-1
 3354 01dc 0100     		.2byte	0x1
 3355 01de 50       		.byte	0x50
 3356 01df 00000000 		.4byte	0
 3357 01e3 00000000 		.4byte	0
 3358              	.LLST18:
 3359 01e7 00000000 		.4byte	.LVL38
 3360 01eb 07000000 		.4byte	.LVL39-1
 3361 01ef 0100     		.2byte	0x1
 3362 01f1 50       		.byte	0x50
 3363 01f2 07000000 		.4byte	.LVL39-1
 3364 01f6 18000000 		.4byte	.LVL40
 3365 01fa 0100     		.2byte	0x1
 3366 01fc 54       		.byte	0x54
 3367 01fd 18000000 		.4byte	.LVL40
 3368 0201 28000000 		.4byte	.LFE10
 3369 0205 0400     		.2byte	0x4
 3370 0207 F3       		.byte	0xf3
 3371 0208 01       		.uleb128 0x1
 3372 0209 50       		.byte	0x50
 3373 020a 9F       		.byte	0x9f
 3374 020b 00000000 		.4byte	0
 3375 020f 00000000 		.4byte	0
 3376              	.LLST19:
 3377 0213 08000000 		.4byte	.LVL39
 3378 0217 21000000 		.4byte	.LVL41-1
 3379 021b 0100     		.2byte	0x1
 3380 021d 50       		.byte	0x50
 3381 021e 00000000 		.4byte	0
 3382 0222 00000000 		.4byte	0
 3383              	.LLST20:
 3384 0226 00000000 		.4byte	.LVL42
 3385 022a 07000000 		.4byte	.LVL43-1
 3386 022e 0100     		.2byte	0x1
 3387 0230 50       		.byte	0x50
 3388 0231 07000000 		.4byte	.LVL43-1
ARM GAS  C:\Users\g\AppData\Local\Temp\ccC7fujn.s 			page 90


 3389 0235 10000000 		.4byte	.LVL44
 3390 0239 0100     		.2byte	0x1
 3391 023b 54       		.byte	0x54
 3392 023c 10000000 		.4byte	.LVL44
 3393 0240 2C000000 		.4byte	.LFE11
 3394 0244 0400     		.2byte	0x4
 3395 0246 F3       		.byte	0xf3
 3396 0247 01       		.uleb128 0x1
 3397 0248 50       		.byte	0x50
 3398 0249 9F       		.byte	0x9f
 3399 024a 00000000 		.4byte	0
 3400 024e 00000000 		.4byte	0
 3401              	.LLST21:
 3402 0252 08000000 		.4byte	.LVL43
 3403 0256 1F000000 		.4byte	.LVL45-1
 3404 025a 0100     		.2byte	0x1
 3405 025c 50       		.byte	0x50
 3406 025d 00000000 		.4byte	0
 3407 0261 00000000 		.4byte	0
 3408              	.LLST22:
 3409 0265 00000000 		.4byte	.LVL46
 3410 0269 07000000 		.4byte	.LVL47-1
 3411 026d 0100     		.2byte	0x1
 3412 026f 50       		.byte	0x50
 3413 0270 07000000 		.4byte	.LVL47-1
 3414 0274 1C000000 		.4byte	.LVL49
 3415 0278 0100     		.2byte	0x1
 3416 027a 54       		.byte	0x54
 3417 027b 1C000000 		.4byte	.LVL49
 3418 027f 28000000 		.4byte	.LFE12
 3419 0283 0400     		.2byte	0x4
 3420 0285 F3       		.byte	0xf3
 3421 0286 01       		.uleb128 0x1
 3422 0287 50       		.byte	0x50
 3423 0288 9F       		.byte	0x9f
 3424 0289 00000000 		.4byte	0
 3425 028d 00000000 		.4byte	0
 3426              	.LLST23:
 3427 0291 08000000 		.4byte	.LVL47
 3428 0295 1B000000 		.4byte	.LVL48-1
 3429 0299 0100     		.2byte	0x1
 3430 029b 50       		.byte	0x50
 3431 029c 00000000 		.4byte	0
 3432 02a0 00000000 		.4byte	0
 3433              	.LLST24:
 3434 02a4 00000000 		.4byte	.LVL50
 3435 02a8 04000000 		.4byte	.LVL51
 3436 02ac 0100     		.2byte	0x1
 3437 02ae 50       		.byte	0x50
 3438 02af 04000000 		.4byte	.LVL51
 3439 02b3 10000000 		.4byte	.LFE13
 3440 02b7 0400     		.2byte	0x4
 3441 02b9 F3       		.byte	0xf3
 3442 02ba 01       		.uleb128 0x1
 3443 02bb 50       		.byte	0x50
 3444 02bc 9F       		.byte	0x9f
 3445 02bd 00000000 		.4byte	0
ARM GAS  C:\Users\g\AppData\Local\Temp\ccC7fujn.s 			page 91


 3446 02c1 00000000 		.4byte	0
 3447              	.LLST25:
 3448 02c5 00000000 		.4byte	.LVL52
 3449 02c9 07000000 		.4byte	.LVL53-1
 3450 02cd 0100     		.2byte	0x1
 3451 02cf 50       		.byte	0x50
 3452 02d0 07000000 		.4byte	.LVL53-1
 3453 02d4 1C000000 		.4byte	.LVL55
 3454 02d8 0100     		.2byte	0x1
 3455 02da 54       		.byte	0x54
 3456 02db 1C000000 		.4byte	.LVL55
 3457 02df 28000000 		.4byte	.LFE15
 3458 02e3 0400     		.2byte	0x4
 3459 02e5 F3       		.byte	0xf3
 3460 02e6 01       		.uleb128 0x1
 3461 02e7 50       		.byte	0x50
 3462 02e8 9F       		.byte	0x9f
 3463 02e9 00000000 		.4byte	0
 3464 02ed 00000000 		.4byte	0
 3465              	.LLST26:
 3466 02f1 08000000 		.4byte	.LVL53
 3467 02f5 1B000000 		.4byte	.LVL54-1
 3468 02f9 0100     		.2byte	0x1
 3469 02fb 50       		.byte	0x50
 3470 02fc 00000000 		.4byte	0
 3471 0300 00000000 		.4byte	0
 3472              	.LLST27:
 3473 0304 00000000 		.4byte	.LVL56
 3474 0308 04000000 		.4byte	.LVL57
 3475 030c 0100     		.2byte	0x1
 3476 030e 50       		.byte	0x50
 3477 030f 04000000 		.4byte	.LVL57
 3478 0313 10000000 		.4byte	.LFE16
 3479 0317 0400     		.2byte	0x4
 3480 0319 F3       		.byte	0xf3
 3481 031a 01       		.uleb128 0x1
 3482 031b 50       		.byte	0x50
 3483 031c 9F       		.byte	0x9f
 3484 031d 00000000 		.4byte	0
 3485 0321 00000000 		.4byte	0
 3486              	.LLST28:
 3487 0325 00000000 		.4byte	.LVL58
 3488 0329 07000000 		.4byte	.LVL59-1
 3489 032d 0100     		.2byte	0x1
 3490 032f 50       		.byte	0x50
 3491 0330 07000000 		.4byte	.LVL59-1
 3492 0334 1E000000 		.4byte	.LVL61
 3493 0338 0100     		.2byte	0x1
 3494 033a 54       		.byte	0x54
 3495 033b 1E000000 		.4byte	.LVL61
 3496 033f 24000000 		.4byte	.LFE18
 3497 0343 0400     		.2byte	0x4
 3498 0345 F3       		.byte	0xf3
 3499 0346 01       		.uleb128 0x1
 3500 0347 50       		.byte	0x50
 3501 0348 9F       		.byte	0x9f
 3502 0349 00000000 		.4byte	0
ARM GAS  C:\Users\g\AppData\Local\Temp\ccC7fujn.s 			page 92


 3503 034d 00000000 		.4byte	0
 3504              	.LLST29:
 3505 0351 08000000 		.4byte	.LVL59
 3506 0355 1D000000 		.4byte	.LVL60-1
 3507 0359 0100     		.2byte	0x1
 3508 035b 50       		.byte	0x50
 3509 035c 00000000 		.4byte	0
 3510 0360 00000000 		.4byte	0
 3511              	.LLST30:
 3512 0364 00000000 		.4byte	.LVL62
 3513 0368 04000000 		.4byte	.LVL63
 3514 036c 0100     		.2byte	0x1
 3515 036e 50       		.byte	0x50
 3516 036f 04000000 		.4byte	.LVL63
 3517 0373 10000000 		.4byte	.LFE19
 3518 0377 0400     		.2byte	0x4
 3519 0379 F3       		.byte	0xf3
 3520 037a 01       		.uleb128 0x1
 3521 037b 50       		.byte	0x50
 3522 037c 9F       		.byte	0x9f
 3523 037d 00000000 		.4byte	0
 3524 0381 00000000 		.4byte	0
 3525              	.LLST31:
 3526 0385 00000000 		.4byte	.LVL64
 3527 0389 07000000 		.4byte	.LVL65-1
 3528 038d 0100     		.2byte	0x1
 3529 038f 50       		.byte	0x50
 3530 0390 07000000 		.4byte	.LVL65-1
 3531 0394 18000000 		.4byte	.LVL66
 3532 0398 0100     		.2byte	0x1
 3533 039a 54       		.byte	0x54
 3534 039b 18000000 		.4byte	.LVL66
 3535 039f 28000000 		.4byte	.LFE21
 3536 03a3 0400     		.2byte	0x4
 3537 03a5 F3       		.byte	0xf3
 3538 03a6 01       		.uleb128 0x1
 3539 03a7 50       		.byte	0x50
 3540 03a8 9F       		.byte	0x9f
 3541 03a9 00000000 		.4byte	0
 3542 03ad 00000000 		.4byte	0
 3543              	.LLST32:
 3544 03b1 08000000 		.4byte	.LVL65
 3545 03b5 21000000 		.4byte	.LVL67-1
 3546 03b9 0100     		.2byte	0x1
 3547 03bb 50       		.byte	0x50
 3548 03bc 00000000 		.4byte	0
 3549 03c0 00000000 		.4byte	0
 3550              	.LLST33:
 3551 03c4 00000000 		.4byte	.LVL68
 3552 03c8 04000000 		.4byte	.LVL69
 3553 03cc 0100     		.2byte	0x1
 3554 03ce 50       		.byte	0x50
 3555 03cf 04000000 		.4byte	.LVL69
 3556 03d3 10000000 		.4byte	.LFE22
 3557 03d7 0400     		.2byte	0x4
 3558 03d9 F3       		.byte	0xf3
 3559 03da 01       		.uleb128 0x1
ARM GAS  C:\Users\g\AppData\Local\Temp\ccC7fujn.s 			page 93


 3560 03db 50       		.byte	0x50
 3561 03dc 9F       		.byte	0x9f
 3562 03dd 00000000 		.4byte	0
 3563 03e1 00000000 		.4byte	0
 3564              	.LLST34:
 3565 03e5 00000000 		.4byte	.LVL70
 3566 03e9 04000000 		.4byte	.LVL71
 3567 03ed 0100     		.2byte	0x1
 3568 03ef 50       		.byte	0x50
 3569 03f0 04000000 		.4byte	.LVL71
 3570 03f4 10000000 		.4byte	.LFE24
 3571 03f8 0400     		.2byte	0x4
 3572 03fa F3       		.byte	0xf3
 3573 03fb 01       		.uleb128 0x1
 3574 03fc 50       		.byte	0x50
 3575 03fd 9F       		.byte	0x9f
 3576 03fe 00000000 		.4byte	0
 3577 0402 00000000 		.4byte	0
 3578              	.LLST35:
 3579 0406 00000000 		.4byte	.LVL72
 3580 040a 07000000 		.4byte	.LVL73-1
 3581 040e 0100     		.2byte	0x1
 3582 0410 50       		.byte	0x50
 3583 0411 07000000 		.4byte	.LVL73-1
 3584 0415 1C000000 		.4byte	.LVL75
 3585 0419 0100     		.2byte	0x1
 3586 041b 54       		.byte	0x54
 3587 041c 1C000000 		.4byte	.LVL75
 3588 0420 24000000 		.4byte	.LFE28
 3589 0424 0400     		.2byte	0x4
 3590 0426 F3       		.byte	0xf3
 3591 0427 01       		.uleb128 0x1
 3592 0428 50       		.byte	0x50
 3593 0429 9F       		.byte	0x9f
 3594 042a 00000000 		.4byte	0
 3595 042e 00000000 		.4byte	0
 3596              	.LLST36:
 3597 0432 08000000 		.4byte	.LVL73
 3598 0436 1B000000 		.4byte	.LVL74-1
 3599 043a 0100     		.2byte	0x1
 3600 043c 50       		.byte	0x50
 3601 043d 00000000 		.4byte	0
 3602 0441 00000000 		.4byte	0
 3603              	.LLST37:
 3604 0445 00000000 		.4byte	.LVL76
 3605 0449 07000000 		.4byte	.LVL77-1
 3606 044d 0100     		.2byte	0x1
 3607 044f 50       		.byte	0x50
 3608 0450 07000000 		.4byte	.LVL77-1
 3609 0454 1E000000 		.4byte	.LVL79
 3610 0458 0100     		.2byte	0x1
 3611 045a 54       		.byte	0x54
 3612 045b 1E000000 		.4byte	.LVL79
 3613 045f 24000000 		.4byte	.LFE29
 3614 0463 0400     		.2byte	0x4
 3615 0465 F3       		.byte	0xf3
 3616 0466 01       		.uleb128 0x1
ARM GAS  C:\Users\g\AppData\Local\Temp\ccC7fujn.s 			page 94


 3617 0467 50       		.byte	0x50
 3618 0468 9F       		.byte	0x9f
 3619 0469 00000000 		.4byte	0
 3620 046d 00000000 		.4byte	0
 3621              	.LLST38:
 3622 0471 08000000 		.4byte	.LVL77
 3623 0475 1D000000 		.4byte	.LVL78-1
 3624 0479 0100     		.2byte	0x1
 3625 047b 50       		.byte	0x50
 3626 047c 00000000 		.4byte	0
 3627 0480 00000000 		.4byte	0
 3628              	.LLST39:
 3629 0484 00000000 		.4byte	.LVL80
 3630 0488 07000000 		.4byte	.LVL81-1
 3631 048c 0100     		.2byte	0x1
 3632 048e 50       		.byte	0x50
 3633 048f 07000000 		.4byte	.LVL81-1
 3634 0493 1E000000 		.4byte	.LVL83
 3635 0497 0100     		.2byte	0x1
 3636 0499 54       		.byte	0x54
 3637 049a 1E000000 		.4byte	.LVL83
 3638 049e 28000000 		.4byte	.LFE30
 3639 04a2 0400     		.2byte	0x4
 3640 04a4 F3       		.byte	0xf3
 3641 04a5 01       		.uleb128 0x1
 3642 04a6 50       		.byte	0x50
 3643 04a7 9F       		.byte	0x9f
 3644 04a8 00000000 		.4byte	0
 3645 04ac 00000000 		.4byte	0
 3646              	.LLST40:
 3647 04b0 08000000 		.4byte	.LVL81
 3648 04b4 1D000000 		.4byte	.LVL82-1
 3649 04b8 0100     		.2byte	0x1
 3650 04ba 50       		.byte	0x50
 3651 04bb 00000000 		.4byte	0
 3652 04bf 00000000 		.4byte	0
 3653              	.LLST41:
 3654 04c3 00000000 		.4byte	.LVL84
 3655 04c7 07000000 		.4byte	.LVL85-1
 3656 04cb 0100     		.2byte	0x1
 3657 04cd 50       		.byte	0x50
 3658 04ce 07000000 		.4byte	.LVL85-1
 3659 04d2 1E000000 		.4byte	.LVL87
 3660 04d6 0100     		.2byte	0x1
 3661 04d8 54       		.byte	0x54
 3662 04d9 1E000000 		.4byte	.LVL87
 3663 04dd 24000000 		.4byte	.LFE31
 3664 04e1 0400     		.2byte	0x4
 3665 04e3 F3       		.byte	0xf3
 3666 04e4 01       		.uleb128 0x1
 3667 04e5 50       		.byte	0x50
 3668 04e6 9F       		.byte	0x9f
 3669 04e7 00000000 		.4byte	0
 3670 04eb 00000000 		.4byte	0
 3671              	.LLST42:
 3672 04ef 08000000 		.4byte	.LVL85
 3673 04f3 1D000000 		.4byte	.LVL86-1
ARM GAS  C:\Users\g\AppData\Local\Temp\ccC7fujn.s 			page 95


 3674 04f7 0100     		.2byte	0x1
 3675 04f9 50       		.byte	0x50
 3676 04fa 00000000 		.4byte	0
 3677 04fe 00000000 		.4byte	0
 3678              	.LLST43:
 3679 0502 00000000 		.4byte	.LVL88
 3680 0506 07000000 		.4byte	.LVL89-1
 3681 050a 0100     		.2byte	0x1
 3682 050c 50       		.byte	0x50
 3683 050d 07000000 		.4byte	.LVL89-1
 3684 0511 1E000000 		.4byte	.LVL91
 3685 0515 0100     		.2byte	0x1
 3686 0517 54       		.byte	0x54
 3687 0518 1E000000 		.4byte	.LVL91
 3688 051c 24000000 		.4byte	.LFE32
 3689 0520 0400     		.2byte	0x4
 3690 0522 F3       		.byte	0xf3
 3691 0523 01       		.uleb128 0x1
 3692 0524 50       		.byte	0x50
 3693 0525 9F       		.byte	0x9f
 3694 0526 00000000 		.4byte	0
 3695 052a 00000000 		.4byte	0
 3696              	.LLST44:
 3697 052e 08000000 		.4byte	.LVL89
 3698 0532 1D000000 		.4byte	.LVL90-1
 3699 0536 0100     		.2byte	0x1
 3700 0538 50       		.byte	0x50
 3701 0539 00000000 		.4byte	0
 3702 053d 00000000 		.4byte	0
 3703              	.LLST45:
 3704 0541 00000000 		.4byte	.LVL92
 3705 0545 0B000000 		.4byte	.LVL93-1
 3706 0549 0100     		.2byte	0x1
 3707 054b 50       		.byte	0x50
 3708 054c 0B000000 		.4byte	.LVL93-1
 3709 0550 1C000000 		.4byte	.LFE33
 3710 0554 0400     		.2byte	0x4
 3711 0556 F3       		.byte	0xf3
 3712 0557 01       		.uleb128 0x1
 3713 0558 50       		.byte	0x50
 3714 0559 9F       		.byte	0x9f
 3715 055a 00000000 		.4byte	0
 3716 055e 00000000 		.4byte	0
 3717              	.LLST46:
 3718 0562 00000000 		.4byte	.LVL92
 3719 0566 0B000000 		.4byte	.LVL93-1
 3720 056a 0100     		.2byte	0x1
 3721 056c 51       		.byte	0x51
 3722 056d 0B000000 		.4byte	.LVL93-1
 3723 0571 14000000 		.4byte	.LVL95
 3724 0575 0100     		.2byte	0x1
 3725 0577 55       		.byte	0x55
 3726 0578 14000000 		.4byte	.LVL95
 3727 057c 1C000000 		.4byte	.LFE33
 3728 0580 0400     		.2byte	0x4
 3729 0582 F3       		.byte	0xf3
 3730 0583 01       		.uleb128 0x1
ARM GAS  C:\Users\g\AppData\Local\Temp\ccC7fujn.s 			page 96


 3731 0584 51       		.byte	0x51
 3732 0585 9F       		.byte	0x9f
 3733 0586 00000000 		.4byte	0
 3734 058a 00000000 		.4byte	0
 3735              	.LLST47:
 3736 058e 0C000000 		.4byte	.LVL93
 3737 0592 13000000 		.4byte	.LVL94-1
 3738 0596 0100     		.2byte	0x1
 3739 0598 50       		.byte	0x50
 3740 0599 00000000 		.4byte	0
 3741 059d 00000000 		.4byte	0
 3742              		.section	.debug_aranges,"",%progbits
 3743 0000 54010000 		.4byte	0x154
 3744 0004 0200     		.2byte	0x2
 3745 0006 00000000 		.4byte	.Ldebug_info0
 3746 000a 04       		.byte	0x4
 3747 000b 00       		.byte	0
 3748 000c 0000     		.2byte	0
 3749 000e 0000     		.2byte	0
 3750 0010 00000000 		.4byte	.LFB0
 3751 0014 5C000000 		.4byte	.LFE0-.LFB0
 3752 0018 00000000 		.4byte	.LFB1
 3753 001c 30000000 		.4byte	.LFE1-.LFB1
 3754 0020 00000000 		.4byte	.LFB2
 3755 0024 6C000000 		.4byte	.LFE2-.LFB2
 3756 0028 00000000 		.4byte	.LFB3
 3757 002c 1C000000 		.4byte	.LFE3-.LFB3
 3758 0030 00000000 		.4byte	.LFB4
 3759 0034 28000000 		.4byte	.LFE4-.LFB4
 3760 0038 00000000 		.4byte	.LFB5
 3761 003c 28000000 		.4byte	.LFE5-.LFB5
 3762 0040 00000000 		.4byte	.LFB6
 3763 0044 28000000 		.4byte	.LFE6-.LFB6
 3764 0048 00000000 		.4byte	.LFB7
 3765 004c 2C000000 		.4byte	.LFE7-.LFB7
 3766 0050 00000000 		.4byte	.LFB8
 3767 0054 10000000 		.4byte	.LFE8-.LFB8
 3768 0058 00000000 		.4byte	.LFB9
 3769 005c 28000000 		.4byte	.LFE9-.LFB9
 3770 0060 00000000 		.4byte	.LFB10
 3771 0064 28000000 		.4byte	.LFE10-.LFB10
 3772 0068 00000000 		.4byte	.LFB11
 3773 006c 2C000000 		.4byte	.LFE11-.LFB11
 3774 0070 00000000 		.4byte	.LFB12
 3775 0074 28000000 		.4byte	.LFE12-.LFB12
 3776 0078 00000000 		.4byte	.LFB13
 3777 007c 10000000 		.4byte	.LFE13-.LFB13
 3778 0080 00000000 		.4byte	.LFB14
 3779 0084 10000000 		.4byte	.LFE14-.LFB14
 3780 0088 00000000 		.4byte	.LFB15
 3781 008c 28000000 		.4byte	.LFE15-.LFB15
 3782 0090 00000000 		.4byte	.LFB16
 3783 0094 10000000 		.4byte	.LFE16-.LFB16
 3784 0098 00000000 		.4byte	.LFB17
 3785 009c 10000000 		.4byte	.LFE17-.LFB17
 3786 00a0 00000000 		.4byte	.LFB18
 3787 00a4 24000000 		.4byte	.LFE18-.LFB18
ARM GAS  C:\Users\g\AppData\Local\Temp\ccC7fujn.s 			page 97


 3788 00a8 00000000 		.4byte	.LFB19
 3789 00ac 10000000 		.4byte	.LFE19-.LFB19
 3790 00b0 00000000 		.4byte	.LFB20
 3791 00b4 10000000 		.4byte	.LFE20-.LFB20
 3792 00b8 00000000 		.4byte	.LFB21
 3793 00bc 28000000 		.4byte	.LFE21-.LFB21
 3794 00c0 00000000 		.4byte	.LFB22
 3795 00c4 10000000 		.4byte	.LFE22-.LFB22
 3796 00c8 00000000 		.4byte	.LFB23
 3797 00cc 10000000 		.4byte	.LFE23-.LFB23
 3798 00d0 00000000 		.4byte	.LFB24
 3799 00d4 10000000 		.4byte	.LFE24-.LFB24
 3800 00d8 00000000 		.4byte	.LFB25
 3801 00dc 10000000 		.4byte	.LFE25-.LFB25
 3802 00e0 00000000 		.4byte	.LFB26
 3803 00e4 10000000 		.4byte	.LFE26-.LFB26
 3804 00e8 00000000 		.4byte	.LFB27
 3805 00ec 10000000 		.4byte	.LFE27-.LFB27
 3806 00f0 00000000 		.4byte	.LFB28
 3807 00f4 24000000 		.4byte	.LFE28-.LFB28
 3808 00f8 00000000 		.4byte	.LFB29
 3809 00fc 24000000 		.4byte	.LFE29-.LFB29
 3810 0100 00000000 		.4byte	.LFB30
 3811 0104 28000000 		.4byte	.LFE30-.LFB30
 3812 0108 00000000 		.4byte	.LFB31
 3813 010c 24000000 		.4byte	.LFE31-.LFB31
 3814 0110 00000000 		.4byte	.LFB32
 3815 0114 24000000 		.4byte	.LFE32-.LFB32
 3816 0118 00000000 		.4byte	.LFB33
 3817 011c 1C000000 		.4byte	.LFE33-.LFB33
 3818 0120 00000000 		.4byte	.LFB34
 3819 0124 14000000 		.4byte	.LFE34-.LFB34
 3820 0128 00000000 		.4byte	.LFB35
 3821 012c 0C000000 		.4byte	.LFE35-.LFB35
 3822 0130 00000000 		.4byte	.LFB36
 3823 0134 0C000000 		.4byte	.LFE36-.LFB36
 3824 0138 00000000 		.4byte	.LFB37
 3825 013c 0C000000 		.4byte	.LFE37-.LFB37
 3826 0140 00000000 		.4byte	.LFB38
 3827 0144 0C000000 		.4byte	.LFE38-.LFB38
 3828 0148 00000000 		.4byte	.LFB39
 3829 014c 0C000000 		.4byte	.LFE39-.LFB39
 3830 0150 00000000 		.4byte	0
 3831 0154 00000000 		.4byte	0
 3832              		.section	.debug_ranges,"",%progbits
 3833              	.Ldebug_ranges0:
 3834 0000 10000000 		.4byte	.LBB22
 3835 0004 12000000 		.4byte	.LBE22
 3836 0008 14000000 		.4byte	.LBB26
 3837 000c 16000000 		.4byte	.LBE26
 3838 0010 16000000 		.4byte	.LBB27
 3839 0014 18000000 		.4byte	.LBE27
 3840 0018 00000000 		.4byte	0
 3841 001c 00000000 		.4byte	0
 3842 0020 00000000 		.4byte	.LFB0
 3843 0024 5C000000 		.4byte	.LFE0
 3844 0028 00000000 		.4byte	.LFB1
ARM GAS  C:\Users\g\AppData\Local\Temp\ccC7fujn.s 			page 98


 3845 002c 30000000 		.4byte	.LFE1
 3846 0030 00000000 		.4byte	.LFB2
 3847 0034 6C000000 		.4byte	.LFE2
 3848 0038 00000000 		.4byte	.LFB3
 3849 003c 1C000000 		.4byte	.LFE3
 3850 0040 00000000 		.4byte	.LFB4
 3851 0044 28000000 		.4byte	.LFE4
 3852 0048 00000000 		.4byte	.LFB5
 3853 004c 28000000 		.4byte	.LFE5
 3854 0050 00000000 		.4byte	.LFB6
 3855 0054 28000000 		.4byte	.LFE6
 3856 0058 00000000 		.4byte	.LFB7
 3857 005c 2C000000 		.4byte	.LFE7
 3858 0060 00000000 		.4byte	.LFB8
 3859 0064 10000000 		.4byte	.LFE8
 3860 0068 00000000 		.4byte	.LFB9
 3861 006c 28000000 		.4byte	.LFE9
 3862 0070 00000000 		.4byte	.LFB10
 3863 0074 28000000 		.4byte	.LFE10
 3864 0078 00000000 		.4byte	.LFB11
 3865 007c 2C000000 		.4byte	.LFE11
 3866 0080 00000000 		.4byte	.LFB12
 3867 0084 28000000 		.4byte	.LFE12
 3868 0088 00000000 		.4byte	.LFB13
 3869 008c 10000000 		.4byte	.LFE13
 3870 0090 00000000 		.4byte	.LFB14
 3871 0094 10000000 		.4byte	.LFE14
 3872 0098 00000000 		.4byte	.LFB15
 3873 009c 28000000 		.4byte	.LFE15
 3874 00a0 00000000 		.4byte	.LFB16
 3875 00a4 10000000 		.4byte	.LFE16
 3876 00a8 00000000 		.4byte	.LFB17
 3877 00ac 10000000 		.4byte	.LFE17
 3878 00b0 00000000 		.4byte	.LFB18
 3879 00b4 24000000 		.4byte	.LFE18
 3880 00b8 00000000 		.4byte	.LFB19
 3881 00bc 10000000 		.4byte	.LFE19
 3882 00c0 00000000 		.4byte	.LFB20
 3883 00c4 10000000 		.4byte	.LFE20
 3884 00c8 00000000 		.4byte	.LFB21
 3885 00cc 28000000 		.4byte	.LFE21
 3886 00d0 00000000 		.4byte	.LFB22
 3887 00d4 10000000 		.4byte	.LFE22
 3888 00d8 00000000 		.4byte	.LFB23
 3889 00dc 10000000 		.4byte	.LFE23
 3890 00e0 00000000 		.4byte	.LFB24
 3891 00e4 10000000 		.4byte	.LFE24
 3892 00e8 00000000 		.4byte	.LFB25
 3893 00ec 10000000 		.4byte	.LFE25
 3894 00f0 00000000 		.4byte	.LFB26
 3895 00f4 10000000 		.4byte	.LFE26
 3896 00f8 00000000 		.4byte	.LFB27
 3897 00fc 10000000 		.4byte	.LFE27
 3898 0100 00000000 		.4byte	.LFB28
 3899 0104 24000000 		.4byte	.LFE28
 3900 0108 00000000 		.4byte	.LFB29
 3901 010c 24000000 		.4byte	.LFE29
ARM GAS  C:\Users\g\AppData\Local\Temp\ccC7fujn.s 			page 99


 3902 0110 00000000 		.4byte	.LFB30
 3903 0114 28000000 		.4byte	.LFE30
 3904 0118 00000000 		.4byte	.LFB31
 3905 011c 24000000 		.4byte	.LFE31
 3906 0120 00000000 		.4byte	.LFB32
 3907 0124 24000000 		.4byte	.LFE32
 3908 0128 00000000 		.4byte	.LFB33
 3909 012c 1C000000 		.4byte	.LFE33
 3910 0130 00000000 		.4byte	.LFB34
 3911 0134 14000000 		.4byte	.LFE34
 3912 0138 00000000 		.4byte	.LFB35
 3913 013c 0C000000 		.4byte	.LFE35
 3914 0140 00000000 		.4byte	.LFB36
 3915 0144 0C000000 		.4byte	.LFE36
 3916 0148 00000000 		.4byte	.LFB37
 3917 014c 0C000000 		.4byte	.LFE37
 3918 0150 00000000 		.4byte	.LFB38
 3919 0154 0C000000 		.4byte	.LFE38
 3920 0158 00000000 		.4byte	.LFB39
 3921 015c 0C000000 		.4byte	.LFE39
 3922 0160 00000000 		.4byte	0
 3923 0164 00000000 		.4byte	0
 3924              		.section	.debug_line,"",%progbits
 3925              	.Ldebug_line0:
 3926 0000 2F040000 		.section	.debug_str,"MS",%progbits,1
 3926      02004F00 
 3926      00000201 
 3926      FB0E0D00 
 3926      01010101 
 3927              	.LASF20:
 3928 0000 636F756E 		.ascii	"count\000"
 3928      7400
 3929              	.LASF68:
 3930 0006 50574D5F 		.ascii	"PWM_MOT_SetStopMode\000"
 3930      4D4F545F 
 3930      53657453 
 3930      746F704D 
 3930      6F646500 
 3931              	.LASF81:
 3932 001a 43794578 		.ascii	"CyExitCriticalSection\000"
 3932      69744372 
 3932      69746963 
 3932      616C5365 
 3932      6374696F 
 3933              	.LASF74:
 3934 0030 50574D5F 		.ascii	"PWM_MOT_SetInterrupt\000"
 3934      4D4F545F 
 3934      53657449 
 3934      6E746572 
 3934      72757074 
 3935              	.LASF76:
 3936 0045 47656E65 		.ascii	"Generated_Source\\PSoC4\\PWM_MOT.c\000"
 3936      72617465 
 3936      645F536F 
 3936      75726365 
 3936      5C50536F 
 3937              	.LASF24:
ARM GAS  C:\Users\g\AppData\Local\Temp\ccC7fujn.s 			page 100


 3938 0066 70657269 		.ascii	"period\000"
 3938      6F6400
 3939              	.LASF77:
 3940 006d 443A5C63 		.ascii	"D:\\code\\cypress\\Tarocco\\Tarocco.cydsn\000"
 3940      6F64655C 
 3940      63797072 
 3940      6573735C 
 3940      5461726F 
 3941              	.LASF7:
 3942 0093 6C6F6E67 		.ascii	"long long unsigned int\000"
 3942      206C6F6E 
 3942      6720756E 
 3942      7369676E 
 3942      65642069 
 3943              	.LASF27:
 3944 00aa 50574D5F 		.ascii	"PWM_MOT_Enable\000"
 3944      4D4F545F 
 3944      456E6162 
 3944      6C6500
 3945              	.LASF57:
 3946 00b9 50574D5F 		.ascii	"PWM_MOT_SetPeriodSwap\000"
 3946      4D4F545F 
 3946      53657450 
 3946      6572696F 
 3946      64537761 
 3947              	.LASF34:
 3948 00cf 71644D6F 		.ascii	"qdMode\000"
 3948      646500
 3949              	.LASF21:
 3950 00d6 50574D5F 		.ascii	"PWM_MOT_SetInterruptMode\000"
 3950      4D4F545F 
 3950      53657449 
 3950      6E746572 
 3950      72757074 
 3951              	.LASF6:
 3952 00ef 6C6F6E67 		.ascii	"long long int\000"
 3952      206C6F6E 
 3952      6720696E 
 3952      7400
 3953              	.LASF0:
 3954 00fd 7369676E 		.ascii	"signed char\000"
 3954      65642063 
 3954      68617200 
 3955              	.LASF23:
 3956 0109 50574D5F 		.ascii	"PWM_MOT_WritePeriod\000"
 3956      4D4F545F 
 3956      57726974 
 3956      65506572 
 3956      696F6400 
 3957              	.LASF69:
 3958 011d 50574D5F 		.ascii	"PWM_MOT_SetCountMode\000"
 3958      4D4F545F 
 3958      53657443 
 3958      6F756E74 
 3958      4D6F6465 
 3959              	.LASF4:
 3960 0132 6C6F6E67 		.ascii	"long int\000"
ARM GAS  C:\Users\g\AppData\Local\Temp\ccC7fujn.s 			page 101


 3960      20696E74 
 3960      00
 3961              	.LASF9:
 3962 013b 75696E74 		.ascii	"uint8\000"
 3962      3800
 3963              	.LASF31:
 3964 0141 50574D5F 		.ascii	"PWM_MOT_SetMode\000"
 3964      4D4F545F 
 3964      5365744D 
 3964      6F646500 
 3965              	.LASF12:
 3966 0151 646F7562 		.ascii	"double\000"
 3966      6C6500
 3967              	.LASF71:
 3968 0158 50574D5F 		.ascii	"PWM_MOT_GetInterruptSourceMasked\000"
 3968      4D4F545F 
 3968      47657449 
 3968      6E746572 
 3968      72757074 
 3969              	.LASF54:
 3970 0179 50574D5F 		.ascii	"PWM_MOT_WritePeriodBuf\000"
 3970      4D4F545F 
 3970      57726974 
 3970      65506572 
 3970      696F6442 
 3971              	.LASF10:
 3972 0190 75696E74 		.ascii	"uint32\000"
 3972      333200
 3973              	.LASF29:
 3974 0197 50574D5F 		.ascii	"PWM_MOT_Stop\000"
 3974      4D4F545F 
 3974      53746F70 
 3974      00
 3975              	.LASF65:
 3976 01a4 74726967 		.ascii	"triggerMode\000"
 3976      6765724D 
 3976      6F646500 
 3977              	.LASF16:
 3978 01b0 6D61736B 		.ascii	"mask\000"
 3978      00
 3979              	.LASF66:
 3980 01b5 50574D5F 		.ascii	"PWM_MOT_SetReloadMode\000"
 3980      4D4F545F 
 3980      53657452 
 3980      656C6F61 
 3980      644D6F64 
 3981              	.LASF28:
 3982 01cb 50574D5F 		.ascii	"PWM_MOT_Start\000"
 3982      4D4F545F 
 3982      53746172 
 3982      7400
 3983              	.LASF46:
 3984 01d9 64656164 		.ascii	"deadTime\000"
 3984      54696D65 
 3984      00
 3985              	.LASF62:
 3986 01e2 50574D5F 		.ascii	"PWM_MOT_ReadCapture\000"
ARM GAS  C:\Users\g\AppData\Local\Temp\ccC7fujn.s 			page 102


 3986      4D4F545F 
 3986      52656164 
 3986      43617074 
 3986      75726500 
 3987              	.LASF64:
 3988 01f6 50574D5F 		.ascii	"PWM_MOT_SetCaptureMode\000"
 3988      4D4F545F 
 3988      53657443 
 3988      61707475 
 3988      72654D6F 
 3989              	.LASF8:
 3990 020d 756E7369 		.ascii	"unsigned int\000"
 3990      676E6564 
 3990      20696E74 
 3990      00
 3991              	.LASF70:
 3992 021a 50574D5F 		.ascii	"PWM_MOT_ReadStatus\000"
 3992      4D4F545F 
 3992      52656164 
 3992      53746174 
 3992      757300
 3993              	.LASF17:
 3994 022d 636F6D6D 		.ascii	"command\000"
 3994      616E6400 
 3995              	.LASF5:
 3996 0235 6C6F6E67 		.ascii	"long unsigned int\000"
 3996      20756E73 
 3996      69676E65 
 3996      6420696E 
 3996      7400
 3997              	.LASF40:
 3998 0247 6D6F6465 		.ascii	"modeMask\000"
 3998      4D61736B 
 3998      00
 3999              	.LASF72:
 4000 0250 50574D5F 		.ascii	"PWM_MOT_GetInterruptSource\000"
 4000      4D4F545F 
 4000      47657449 
 4000      6E746572 
 4000      72757074 
 4001              	.LASF63:
 4002 026b 50574D5F 		.ascii	"PWM_MOT_ReadCaptureBuf\000"
 4002      4D4F545F 
 4002      52656164 
 4002      43617074 
 4002      75726542 
 4003              	.LASF80:
 4004 0282 4379456E 		.ascii	"CyEnterCriticalSection\000"
 4004      74657243 
 4004      72697469 
 4004      63616C53 
 4004      65637469 
 4005              	.LASF32:
 4006 0299 50574D5F 		.ascii	"PWM_MOT_SetQDMode\000"
 4006      4D4F545F 
 4006      53657451 
 4006      444D6F64 
ARM GAS  C:\Users\g\AppData\Local\Temp\ccC7fujn.s 			page 103


 4006      6500
 4007              	.LASF3:
 4008 02ab 73686F72 		.ascii	"short unsigned int\000"
 4008      7420756E 
 4008      7369676E 
 4008      65642069 
 4008      6E7400
 4009              	.LASF38:
 4010 02be 6F6E6553 		.ascii	"oneShotEnable\000"
 4010      686F7445 
 4010      6E61626C 
 4010      6500
 4011              	.LASF56:
 4012 02cc 50574D5F 		.ascii	"PWM_MOT_ReadPeriodBuf\000"
 4012      4D4F545F 
 4012      52656164 
 4012      50657269 
 4012      6F644275 
 4013              	.LASF14:
 4014 02e2 72656733 		.ascii	"reg32\000"
 4014      3200
 4015              	.LASF15:
 4016 02e8 73697A65 		.ascii	"sizetype\000"
 4016      74797065 
 4016      00
 4017              	.LASF42:
 4018 02f1 73796E63 		.ascii	"syncKillEnable\000"
 4018      4B696C6C 
 4018      456E6162 
 4018      6C6500
 4019              	.LASF47:
 4020 0300 50574D5F 		.ascii	"PWM_MOT_SetPWMInvert\000"
 4020      4D4F545F 
 4020      53657450 
 4020      574D496E 
 4020      76657274 
 4021              	.LASF51:
 4022 0315 50574D5F 		.ascii	"PWM_MOT_ReadPeriod\000"
 4022      4D4F545F 
 4022      52656164 
 4022      50657269 
 4022      6F6400
 4023              	.LASF26:
 4024 0328 636F6D70 		.ascii	"compare\000"
 4024      61726500 
 4025              	.LASF41:
 4026 0330 50574D5F 		.ascii	"PWM_MOT_SetPWMSyncKill\000"
 4026      4D4F545F 
 4026      53657450 
 4026      574D5379 
 4026      6E634B69 
 4027              	.LASF25:
 4028 0347 50574D5F 		.ascii	"PWM_MOT_WriteCompare\000"
 4028      4D4F545F 
 4028      57726974 
 4028      65436F6D 
 4028      70617265 
ARM GAS  C:\Users\g\AppData\Local\Temp\ccC7fujn.s 			page 104


 4029              	.LASF37:
 4030 035c 50574D5F 		.ascii	"PWM_MOT_SetOneShot\000"
 4030      4D4F545F 
 4030      5365744F 
 4030      6E655368 
 4030      6F7400
 4031              	.LASF11:
 4032 036f 666C6F61 		.ascii	"float\000"
 4032      7400
 4033              	.LASF36:
 4034 0375 70726573 		.ascii	"prescaler\000"
 4034      63616C65 
 4034      7200
 4035              	.LASF1:
 4036 037f 756E7369 		.ascii	"unsigned char\000"
 4036      676E6564 
 4036      20636861 
 4036      7200
 4037              	.LASF44:
 4038 038d 73746F70 		.ascii	"stopOnKillEnable\000"
 4038      4F6E4B69 
 4038      6C6C456E 
 4038      61626C65 
 4038      00
 4039              	.LASF75:
 4040 039e 474E5520 		.ascii	"GNU C 4.9.3 20150303 (release) [ARM/embedded-4_9-br"
 4040      4320342E 
 4040      392E3320 
 4040      32303135 
 4040      30333033 
 4041 03d1 616E6368 		.ascii	"anch revision 221220] -mcpu=cortex-m0 -mthumb -g -O"
 4041      20726576 
 4041      6973696F 
 4041      6E203232 
 4041      31323230 
 4042 0404 32202D73 		.ascii	"2 -std=gnu99 -ffunction-sections -ffat-lto-objects\000"
 4042      74643D67 
 4042      6E753939 
 4042      202D6666 
 4042      756E6374 
 4043              	.LASF2:
 4044 0437 73686F72 		.ascii	"short int\000"
 4044      7420696E 
 4044      7400
 4045              	.LASF78:
 4046 0441 50574D5F 		.ascii	"PWM_MOT_Init\000"
 4046      4D4F545F 
 4046      496E6974 
 4046      00
 4047              	.LASF73:
 4048 044e 50574D5F 		.ascii	"PWM_MOT_ClearInterrupt\000"
 4048      4D4F545F 
 4048      436C6561 
 4048      72496E74 
 4048      65727275 
 4049              	.LASF35:
 4050 0465 50574D5F 		.ascii	"PWM_MOT_SetPrescaler\000"
ARM GAS  C:\Users\g\AppData\Local\Temp\ccC7fujn.s 			page 105


 4050      4D4F545F 
 4050      53657450 
 4050      72657363 
 4050      616C6572 
 4051              	.LASF19:
 4052 047a 50574D5F 		.ascii	"PWM_MOT_WriteCounter\000"
 4052      4D4F545F 
 4052      57726974 
 4052      65436F75 
 4052      6E746572 
 4053              	.LASF22:
 4054 048f 696E7465 		.ascii	"interruptMask\000"
 4054      72727570 
 4054      744D6173 
 4054      6B00
 4055              	.LASF58:
 4056 049d 50574D5F 		.ascii	"PWM_MOT_ReadCompare\000"
 4056      4D4F545F 
 4056      52656164 
 4056      436F6D70 
 4056      61726500 
 4057              	.LASF39:
 4058 04b1 50574D5F 		.ascii	"PWM_MOT_SetPWMMode\000"
 4058      4D4F545F 
 4058      53657450 
 4058      574D4D6F 
 4058      646500
 4059              	.LASF61:
 4060 04c4 50574D5F 		.ascii	"PWM_MOT_ReadCompareBuf\000"
 4060      4D4F545F 
 4060      52656164 
 4060      436F6D70 
 4060      61726542 
 4061              	.LASF52:
 4062 04db 50574D5F 		.ascii	"PWM_MOT_SetCompareSwap\000"
 4062      4D4F545F 
 4062      53657443 
 4062      6F6D7061 
 4062      72655377 
 4063              	.LASF13:
 4064 04f2 63686172 		.ascii	"char\000"
 4064      00
 4065              	.LASF33:
 4066 04f7 6D6F6465 		.ascii	"mode\000"
 4066      00
 4067              	.LASF49:
 4068 04fc 636F756E 		.ascii	"counterMode\000"
 4068      7465724D 
 4068      6F646500 
 4069              	.LASF79:
 4070 0508 50574D5F 		.ascii	"PWM_MOT_initVar\000"
 4070      4D4F545F 
 4070      696E6974 
 4070      56617200 
 4071              	.LASF50:
 4072 0518 50574D5F 		.ascii	"PWM_MOT_ReadCounter\000"
 4072      4D4F545F 
ARM GAS  C:\Users\g\AppData\Local\Temp\ccC7fujn.s 			page 106


 4072      52656164 
 4072      436F756E 
 4072      74657200 
 4073              	.LASF60:
 4074 052c 636F6D70 		.ascii	"compareBuf\000"
 4074      61726542 
 4074      756600
 4075              	.LASF45:
 4076 0537 50574D5F 		.ascii	"PWM_MOT_SetPWMDeadTime\000"
 4076      4D4F545F 
 4076      53657450 
 4076      574D4465 
 4076      61645469 
 4077              	.LASF30:
 4078 054e 656E6162 		.ascii	"enableInterrupts\000"
 4078      6C65496E 
 4078      74657272 
 4078      75707473 
 4078      00
 4079              	.LASF43:
 4080 055f 50574D5F 		.ascii	"PWM_MOT_SetPWMStopOnKill\000"
 4080      4D4F545F 
 4080      53657450 
 4080      574D5374 
 4080      6F704F6E 
 4081              	.LASF59:
 4082 0578 50574D5F 		.ascii	"PWM_MOT_WriteCompareBuf\000"
 4082      4D4F545F 
 4082      57726974 
 4082      65436F6D 
 4082      70617265 
 4083              	.LASF53:
 4084 0590 73776170 		.ascii	"swapEnable\000"
 4084      456E6162 
 4084      6C6500
 4085              	.LASF48:
 4086 059b 50574D5F 		.ascii	"PWM_MOT_SetCounterMode\000"
 4086      4D4F545F 
 4086      53657443 
 4086      6F756E74 
 4086      65724D6F 
 4087              	.LASF18:
 4088 05b2 50574D5F 		.ascii	"PWM_MOT_TriggerCommand\000"
 4088      4D4F545F 
 4088      54726967 
 4088      67657243 
 4088      6F6D6D61 
 4089              	.LASF67:
 4090 05c9 50574D5F 		.ascii	"PWM_MOT_SetStartMode\000"
 4090      4D4F545F 
 4090      53657453 
 4090      74617274 
 4090      4D6F6465 
 4091              	.LASF55:
 4092 05de 70657269 		.ascii	"periodBuf\000"
 4092      6F644275 
 4092      6600
ARM GAS  C:\Users\g\AppData\Local\Temp\ccC7fujn.s 			page 107


 4093              		.ident	"GCC: (GNU Tools for ARM Embedded Processors) 4.9.3 20150303 (release) [ARM/embedded-4_9-br
