ARM GAS  C:\Users\g\AppData\Local\Temp\ccIVY2Cy.s 			page 1


   1              		.cpu cortex-m0
   2              		.fpu softvfp
   3              		.eabi_attribute 20, 1
   4              		.eabi_attribute 21, 1
   5              		.eabi_attribute 23, 3
   6              		.eabi_attribute 24, 1
   7              		.eabi_attribute 25, 1
   8              		.eabi_attribute 26, 1
   9              		.eabi_attribute 30, 2
  10              		.eabi_attribute 34, 0
  11              		.eabi_attribute 18, 4
  12              		.code	16
  13              		.file	"TX_SEND.c"
  14              		.text
  15              	.Ltext0:
  16              		.cfi_sections	.debug_frame
  17              		.section	.text.TX_SEND_Init,"ax",%progbits
  18              		.align	2
  19              		.global	TX_SEND_Init
  20              		.code	16
  21              		.thumb_func
  22              		.type	TX_SEND_Init, %function
  23              	TX_SEND_Init:
  24              	.LFB0:
  25              		.file 1 "Generated_Source\\PSoC4\\TX_SEND.c"
   1:Generated_Source\PSoC4/TX_SEND.c **** /*******************************************************************************
   2:Generated_Source\PSoC4/TX_SEND.c **** * File Name: TX_SEND.c
   3:Generated_Source\PSoC4/TX_SEND.c **** * Version 2.10
   4:Generated_Source\PSoC4/TX_SEND.c **** *
   5:Generated_Source\PSoC4/TX_SEND.c **** * Description:
   6:Generated_Source\PSoC4/TX_SEND.c **** *  This file provides the source code to the API for the TX_SEND
   7:Generated_Source\PSoC4/TX_SEND.c **** *  component
   8:Generated_Source\PSoC4/TX_SEND.c **** *
   9:Generated_Source\PSoC4/TX_SEND.c **** * Note:
  10:Generated_Source\PSoC4/TX_SEND.c **** *  None
  11:Generated_Source\PSoC4/TX_SEND.c **** *
  12:Generated_Source\PSoC4/TX_SEND.c **** ********************************************************************************
  13:Generated_Source\PSoC4/TX_SEND.c **** * Copyright 2013-2015, Cypress Semiconductor Corporation.  All rights reserved.
  14:Generated_Source\PSoC4/TX_SEND.c **** * You may use this file only in accordance with the license, terms, conditions,
  15:Generated_Source\PSoC4/TX_SEND.c **** * disclaimers, and limitations in the end user license agreement accompanying
  16:Generated_Source\PSoC4/TX_SEND.c **** * the software package with which this file was provided.
  17:Generated_Source\PSoC4/TX_SEND.c **** *******************************************************************************/
  18:Generated_Source\PSoC4/TX_SEND.c **** 
  19:Generated_Source\PSoC4/TX_SEND.c **** #include "TX_SEND.h"
  20:Generated_Source\PSoC4/TX_SEND.c **** 
  21:Generated_Source\PSoC4/TX_SEND.c **** uint8 TX_SEND_initVar = 0u;
  22:Generated_Source\PSoC4/TX_SEND.c **** 
  23:Generated_Source\PSoC4/TX_SEND.c **** 
  24:Generated_Source\PSoC4/TX_SEND.c **** /*******************************************************************************
  25:Generated_Source\PSoC4/TX_SEND.c **** * Function Name: TX_SEND_Init
  26:Generated_Source\PSoC4/TX_SEND.c **** ********************************************************************************
  27:Generated_Source\PSoC4/TX_SEND.c **** *
  28:Generated_Source\PSoC4/TX_SEND.c **** * Summary:
  29:Generated_Source\PSoC4/TX_SEND.c **** *  Initialize/Restore default TX_SEND configuration.
  30:Generated_Source\PSoC4/TX_SEND.c **** *
  31:Generated_Source\PSoC4/TX_SEND.c **** * Parameters:
  32:Generated_Source\PSoC4/TX_SEND.c **** *  None
ARM GAS  C:\Users\g\AppData\Local\Temp\ccIVY2Cy.s 			page 2


  33:Generated_Source\PSoC4/TX_SEND.c **** *
  34:Generated_Source\PSoC4/TX_SEND.c **** * Return:
  35:Generated_Source\PSoC4/TX_SEND.c **** *  None
  36:Generated_Source\PSoC4/TX_SEND.c **** *
  37:Generated_Source\PSoC4/TX_SEND.c **** *******************************************************************************/
  38:Generated_Source\PSoC4/TX_SEND.c **** void TX_SEND_Init(void)
  39:Generated_Source\PSoC4/TX_SEND.c **** {
  26              		.loc 1 39 0
  27              		.cfi_startproc
  40:Generated_Source\PSoC4/TX_SEND.c **** 
  41:Generated_Source\PSoC4/TX_SEND.c ****     /* Set values from customizer to CTRL */
  42:Generated_Source\PSoC4/TX_SEND.c ****     #if (TX_SEND__QUAD == TX_SEND_CONFIG)
  43:Generated_Source\PSoC4/TX_SEND.c ****         TX_SEND_CONTROL_REG = TX_SEND_CTRL_QUAD_BASE_CONFIG;
  44:Generated_Source\PSoC4/TX_SEND.c ****         
  45:Generated_Source\PSoC4/TX_SEND.c ****         /* Set values from customizer to CTRL1 */
  46:Generated_Source\PSoC4/TX_SEND.c ****         TX_SEND_TRIG_CONTROL1_REG  = TX_SEND_QUAD_SIGNALS_MODES;
  47:Generated_Source\PSoC4/TX_SEND.c **** 
  48:Generated_Source\PSoC4/TX_SEND.c ****         /* Set values from customizer to INTR */
  49:Generated_Source\PSoC4/TX_SEND.c ****         TX_SEND_SetInterruptMode(TX_SEND_QUAD_INTERRUPT_MASK);
  50:Generated_Source\PSoC4/TX_SEND.c ****         
  51:Generated_Source\PSoC4/TX_SEND.c ****          /* Set other values */
  52:Generated_Source\PSoC4/TX_SEND.c ****         TX_SEND_SetCounterMode(TX_SEND_COUNT_DOWN);
  53:Generated_Source\PSoC4/TX_SEND.c ****         TX_SEND_WritePeriod(TX_SEND_QUAD_PERIOD_INIT_VALUE);
  54:Generated_Source\PSoC4/TX_SEND.c ****         TX_SEND_WriteCounter(TX_SEND_QUAD_PERIOD_INIT_VALUE);
  55:Generated_Source\PSoC4/TX_SEND.c ****     #endif  /* (TX_SEND__QUAD == TX_SEND_CONFIG) */
  56:Generated_Source\PSoC4/TX_SEND.c **** 
  57:Generated_Source\PSoC4/TX_SEND.c ****     #if (TX_SEND__TIMER == TX_SEND_CONFIG)
  58:Generated_Source\PSoC4/TX_SEND.c ****         TX_SEND_CONTROL_REG = TX_SEND_CTRL_TIMER_BASE_CONFIG;
  28              		.loc 1 58 0
  29 0000 074A     		ldr	r2, .L2
  30 0002 084B     		ldr	r3, .L2+4
  31              	.LBB18:
  32              	.LBB19:
  59:Generated_Source\PSoC4/TX_SEND.c ****         
  60:Generated_Source\PSoC4/TX_SEND.c ****         /* Set values from customizer to CTRL1 */
  61:Generated_Source\PSoC4/TX_SEND.c ****         TX_SEND_TRIG_CONTROL1_REG  = TX_SEND_TIMER_SIGNALS_MODES;
  62:Generated_Source\PSoC4/TX_SEND.c ****     
  63:Generated_Source\PSoC4/TX_SEND.c ****         /* Set values from customizer to INTR */
  64:Generated_Source\PSoC4/TX_SEND.c ****         TX_SEND_SetInterruptMode(TX_SEND_TC_INTERRUPT_MASK);
  65:Generated_Source\PSoC4/TX_SEND.c ****         
  66:Generated_Source\PSoC4/TX_SEND.c ****         /* Set other values from customizer */
  67:Generated_Source\PSoC4/TX_SEND.c ****         TX_SEND_WritePeriod(TX_SEND_TC_PERIOD_VALUE );
  68:Generated_Source\PSoC4/TX_SEND.c **** 
  69:Generated_Source\PSoC4/TX_SEND.c ****         #if (TX_SEND__COMPARE == TX_SEND_TC_COMP_CAP_MODE)
  70:Generated_Source\PSoC4/TX_SEND.c ****             TX_SEND_WriteCompare(TX_SEND_TC_COMPARE_VALUE);
  71:Generated_Source\PSoC4/TX_SEND.c **** 
  72:Generated_Source\PSoC4/TX_SEND.c ****             #if (1u == TX_SEND_TC_COMPARE_SWAP)
  73:Generated_Source\PSoC4/TX_SEND.c ****                 TX_SEND_SetCompareSwap(1u);
  74:Generated_Source\PSoC4/TX_SEND.c ****                 TX_SEND_WriteCompareBuf(TX_SEND_TC_COMPARE_BUF_VALUE);
  75:Generated_Source\PSoC4/TX_SEND.c ****             #endif  /* (1u == TX_SEND_TC_COMPARE_SWAP) */
  76:Generated_Source\PSoC4/TX_SEND.c ****         #endif  /* (TX_SEND__COMPARE == TX_SEND_TC_COMP_CAP_MODE) */
  77:Generated_Source\PSoC4/TX_SEND.c **** 
  78:Generated_Source\PSoC4/TX_SEND.c ****         /* Initialize counter value */
  79:Generated_Source\PSoC4/TX_SEND.c ****         #if (TX_SEND_CY_TCPWM_V2 && TX_SEND_TIMER_UPDOWN_CNT_USED && !TX_SEND_CY_TCPWM_4000)
  80:Generated_Source\PSoC4/TX_SEND.c ****             TX_SEND_WriteCounter(1u);
  81:Generated_Source\PSoC4/TX_SEND.c ****         #elif(TX_SEND__COUNT_DOWN == TX_SEND_TC_COUNTER_MODE)
  82:Generated_Source\PSoC4/TX_SEND.c ****             TX_SEND_WriteCounter(TX_SEND_TC_PERIOD_VALUE);
ARM GAS  C:\Users\g\AppData\Local\Temp\ccIVY2Cy.s 			page 3


  83:Generated_Source\PSoC4/TX_SEND.c ****         #else
  84:Generated_Source\PSoC4/TX_SEND.c ****             TX_SEND_WriteCounter(0u);
  85:Generated_Source\PSoC4/TX_SEND.c ****         #endif /* (TX_SEND_CY_TCPWM_V2 && TX_SEND_TIMER_UPDOWN_CNT_USED && !TX_SEND_CY_TCPWM_4000) 
  86:Generated_Source\PSoC4/TX_SEND.c ****     #endif  /* (TX_SEND__TIMER == TX_SEND_CONFIG) */
  87:Generated_Source\PSoC4/TX_SEND.c **** 
  88:Generated_Source\PSoC4/TX_SEND.c ****     #if (TX_SEND__PWM_SEL == TX_SEND_CONFIG)
  89:Generated_Source\PSoC4/TX_SEND.c ****         TX_SEND_CONTROL_REG = TX_SEND_CTRL_PWM_BASE_CONFIG;
  90:Generated_Source\PSoC4/TX_SEND.c **** 
  91:Generated_Source\PSoC4/TX_SEND.c ****         #if (TX_SEND__PWM_PR == TX_SEND_PWM_MODE)
  92:Generated_Source\PSoC4/TX_SEND.c ****             TX_SEND_CONTROL_REG |= TX_SEND_CTRL_PWM_RUN_MODE;
  93:Generated_Source\PSoC4/TX_SEND.c ****             TX_SEND_WriteCounter(TX_SEND_PWM_PR_INIT_VALUE);
  94:Generated_Source\PSoC4/TX_SEND.c ****         #else
  95:Generated_Source\PSoC4/TX_SEND.c ****             TX_SEND_CONTROL_REG |= TX_SEND_CTRL_PWM_ALIGN | TX_SEND_CTRL_PWM_KILL_EVENT;
  96:Generated_Source\PSoC4/TX_SEND.c ****             
  97:Generated_Source\PSoC4/TX_SEND.c ****             /* Initialize counter value */
  98:Generated_Source\PSoC4/TX_SEND.c ****             #if (TX_SEND_CY_TCPWM_V2 && TX_SEND_PWM_UPDOWN_CNT_USED && !TX_SEND_CY_TCPWM_4000)
  99:Generated_Source\PSoC4/TX_SEND.c ****                 TX_SEND_WriteCounter(1u);
 100:Generated_Source\PSoC4/TX_SEND.c ****             #elif (TX_SEND__RIGHT == TX_SEND_PWM_ALIGN)
 101:Generated_Source\PSoC4/TX_SEND.c ****                 TX_SEND_WriteCounter(TX_SEND_PWM_PERIOD_VALUE);
 102:Generated_Source\PSoC4/TX_SEND.c ****             #else 
 103:Generated_Source\PSoC4/TX_SEND.c ****                 TX_SEND_WriteCounter(0u);
 104:Generated_Source\PSoC4/TX_SEND.c ****             #endif  /* (TX_SEND_CY_TCPWM_V2 && TX_SEND_PWM_UPDOWN_CNT_USED && !TX_SEND_CY_TCPWM_400
 105:Generated_Source\PSoC4/TX_SEND.c ****         #endif  /* (TX_SEND__PWM_PR == TX_SEND_PWM_MODE) */
 106:Generated_Source\PSoC4/TX_SEND.c **** 
 107:Generated_Source\PSoC4/TX_SEND.c ****         #if (TX_SEND__PWM_DT == TX_SEND_PWM_MODE)
 108:Generated_Source\PSoC4/TX_SEND.c ****             TX_SEND_CONTROL_REG |= TX_SEND_CTRL_PWM_DEAD_TIME_CYCLE;
 109:Generated_Source\PSoC4/TX_SEND.c ****         #endif  /* (TX_SEND__PWM_DT == TX_SEND_PWM_MODE) */
 110:Generated_Source\PSoC4/TX_SEND.c **** 
 111:Generated_Source\PSoC4/TX_SEND.c ****         #if (TX_SEND__PWM == TX_SEND_PWM_MODE)
 112:Generated_Source\PSoC4/TX_SEND.c ****             TX_SEND_CONTROL_REG |= TX_SEND_CTRL_PWM_PRESCALER;
 113:Generated_Source\PSoC4/TX_SEND.c ****         #endif  /* (TX_SEND__PWM == TX_SEND_PWM_MODE) */
 114:Generated_Source\PSoC4/TX_SEND.c **** 
 115:Generated_Source\PSoC4/TX_SEND.c ****         /* Set values from customizer to CTRL1 */
 116:Generated_Source\PSoC4/TX_SEND.c ****         TX_SEND_TRIG_CONTROL1_REG  = TX_SEND_PWM_SIGNALS_MODES;
 117:Generated_Source\PSoC4/TX_SEND.c ****     
 118:Generated_Source\PSoC4/TX_SEND.c ****         /* Set values from customizer to INTR */
 119:Generated_Source\PSoC4/TX_SEND.c ****         TX_SEND_SetInterruptMode(TX_SEND_PWM_INTERRUPT_MASK);
 120:Generated_Source\PSoC4/TX_SEND.c **** 
 121:Generated_Source\PSoC4/TX_SEND.c ****         /* Set values from customizer to CTRL2 */
 122:Generated_Source\PSoC4/TX_SEND.c ****         #if (TX_SEND__PWM_PR == TX_SEND_PWM_MODE)
 123:Generated_Source\PSoC4/TX_SEND.c ****             TX_SEND_TRIG_CONTROL2_REG =
 124:Generated_Source\PSoC4/TX_SEND.c ****                     (TX_SEND_CC_MATCH_NO_CHANGE    |
 125:Generated_Source\PSoC4/TX_SEND.c ****                     TX_SEND_OVERLOW_NO_CHANGE      |
 126:Generated_Source\PSoC4/TX_SEND.c ****                     TX_SEND_UNDERFLOW_NO_CHANGE);
 127:Generated_Source\PSoC4/TX_SEND.c ****         #else
 128:Generated_Source\PSoC4/TX_SEND.c ****             #if (TX_SEND__LEFT == TX_SEND_PWM_ALIGN)
 129:Generated_Source\PSoC4/TX_SEND.c ****                 TX_SEND_TRIG_CONTROL2_REG = TX_SEND_PWM_MODE_LEFT;
 130:Generated_Source\PSoC4/TX_SEND.c ****             #endif  /* ( TX_SEND_PWM_LEFT == TX_SEND_PWM_ALIGN) */
 131:Generated_Source\PSoC4/TX_SEND.c **** 
 132:Generated_Source\PSoC4/TX_SEND.c ****             #if (TX_SEND__RIGHT == TX_SEND_PWM_ALIGN)
 133:Generated_Source\PSoC4/TX_SEND.c ****                 TX_SEND_TRIG_CONTROL2_REG = TX_SEND_PWM_MODE_RIGHT;
 134:Generated_Source\PSoC4/TX_SEND.c ****             #endif  /* ( TX_SEND_PWM_RIGHT == TX_SEND_PWM_ALIGN) */
 135:Generated_Source\PSoC4/TX_SEND.c **** 
 136:Generated_Source\PSoC4/TX_SEND.c ****             #if (TX_SEND__CENTER == TX_SEND_PWM_ALIGN)
 137:Generated_Source\PSoC4/TX_SEND.c ****                 TX_SEND_TRIG_CONTROL2_REG = TX_SEND_PWM_MODE_CENTER;
 138:Generated_Source\PSoC4/TX_SEND.c ****             #endif  /* ( TX_SEND_PWM_CENTER == TX_SEND_PWM_ALIGN) */
 139:Generated_Source\PSoC4/TX_SEND.c **** 
ARM GAS  C:\Users\g\AppData\Local\Temp\ccIVY2Cy.s 			page 4


 140:Generated_Source\PSoC4/TX_SEND.c ****             #if (TX_SEND__ASYMMETRIC == TX_SEND_PWM_ALIGN)
 141:Generated_Source\PSoC4/TX_SEND.c ****                 TX_SEND_TRIG_CONTROL2_REG = TX_SEND_PWM_MODE_ASYM;
 142:Generated_Source\PSoC4/TX_SEND.c ****             #endif  /* (TX_SEND__ASYMMETRIC == TX_SEND_PWM_ALIGN) */
 143:Generated_Source\PSoC4/TX_SEND.c ****         #endif  /* (TX_SEND__PWM_PR == TX_SEND_PWM_MODE) */
 144:Generated_Source\PSoC4/TX_SEND.c **** 
 145:Generated_Source\PSoC4/TX_SEND.c ****         /* Set other values from customizer */
 146:Generated_Source\PSoC4/TX_SEND.c ****         TX_SEND_WritePeriod(TX_SEND_PWM_PERIOD_VALUE );
 147:Generated_Source\PSoC4/TX_SEND.c ****         TX_SEND_WriteCompare(TX_SEND_PWM_COMPARE_VALUE);
 148:Generated_Source\PSoC4/TX_SEND.c **** 
 149:Generated_Source\PSoC4/TX_SEND.c ****         #if (1u == TX_SEND_PWM_COMPARE_SWAP)
 150:Generated_Source\PSoC4/TX_SEND.c ****             TX_SEND_SetCompareSwap(1u);
 151:Generated_Source\PSoC4/TX_SEND.c ****             TX_SEND_WriteCompareBuf(TX_SEND_PWM_COMPARE_BUF_VALUE);
 152:Generated_Source\PSoC4/TX_SEND.c ****         #endif  /* (1u == TX_SEND_PWM_COMPARE_SWAP) */
 153:Generated_Source\PSoC4/TX_SEND.c **** 
 154:Generated_Source\PSoC4/TX_SEND.c ****         #if (1u == TX_SEND_PWM_PERIOD_SWAP)
 155:Generated_Source\PSoC4/TX_SEND.c ****             TX_SEND_SetPeriodSwap(1u);
 156:Generated_Source\PSoC4/TX_SEND.c ****             TX_SEND_WritePeriodBuf(TX_SEND_PWM_PERIOD_BUF_VALUE);
 157:Generated_Source\PSoC4/TX_SEND.c ****         #endif  /* (1u == TX_SEND_PWM_PERIOD_SWAP) */
 158:Generated_Source\PSoC4/TX_SEND.c ****     #endif  /* (TX_SEND__PWM_SEL == TX_SEND_CONFIG) */
 159:Generated_Source\PSoC4/TX_SEND.c ****     
 160:Generated_Source\PSoC4/TX_SEND.c **** }
 161:Generated_Source\PSoC4/TX_SEND.c **** 
 162:Generated_Source\PSoC4/TX_SEND.c **** 
 163:Generated_Source\PSoC4/TX_SEND.c **** /*******************************************************************************
 164:Generated_Source\PSoC4/TX_SEND.c **** * Function Name: TX_SEND_Enable
 165:Generated_Source\PSoC4/TX_SEND.c **** ********************************************************************************
 166:Generated_Source\PSoC4/TX_SEND.c **** *
 167:Generated_Source\PSoC4/TX_SEND.c **** * Summary:
 168:Generated_Source\PSoC4/TX_SEND.c **** *  Enables the TX_SEND.
 169:Generated_Source\PSoC4/TX_SEND.c **** *
 170:Generated_Source\PSoC4/TX_SEND.c **** * Parameters:
 171:Generated_Source\PSoC4/TX_SEND.c **** *  None
 172:Generated_Source\PSoC4/TX_SEND.c **** *
 173:Generated_Source\PSoC4/TX_SEND.c **** * Return:
 174:Generated_Source\PSoC4/TX_SEND.c **** *  None
 175:Generated_Source\PSoC4/TX_SEND.c **** *
 176:Generated_Source\PSoC4/TX_SEND.c **** *******************************************************************************/
 177:Generated_Source\PSoC4/TX_SEND.c **** void TX_SEND_Enable(void)
 178:Generated_Source\PSoC4/TX_SEND.c **** {
 179:Generated_Source\PSoC4/TX_SEND.c ****     uint8 enableInterrupts;
 180:Generated_Source\PSoC4/TX_SEND.c **** 
 181:Generated_Source\PSoC4/TX_SEND.c ****     enableInterrupts = CyEnterCriticalSection();
 182:Generated_Source\PSoC4/TX_SEND.c ****     TX_SEND_BLOCK_CONTROL_REG |= TX_SEND_MASK;
 183:Generated_Source\PSoC4/TX_SEND.c ****     CyExitCriticalSection(enableInterrupts);
 184:Generated_Source\PSoC4/TX_SEND.c **** 
 185:Generated_Source\PSoC4/TX_SEND.c ****     /* Start Timer or PWM if start input is absent */
 186:Generated_Source\PSoC4/TX_SEND.c ****     #if (TX_SEND__PWM_SEL == TX_SEND_CONFIG)
 187:Generated_Source\PSoC4/TX_SEND.c ****         #if (0u == TX_SEND_PWM_START_SIGNAL_PRESENT)
 188:Generated_Source\PSoC4/TX_SEND.c ****             TX_SEND_TriggerCommand(TX_SEND_MASK, TX_SEND_CMD_START);
 189:Generated_Source\PSoC4/TX_SEND.c ****         #endif /* (0u == TX_SEND_PWM_START_SIGNAL_PRESENT) */
 190:Generated_Source\PSoC4/TX_SEND.c ****     #endif /* (TX_SEND__PWM_SEL == TX_SEND_CONFIG) */
 191:Generated_Source\PSoC4/TX_SEND.c **** 
 192:Generated_Source\PSoC4/TX_SEND.c ****     #if (TX_SEND__TIMER == TX_SEND_CONFIG)
 193:Generated_Source\PSoC4/TX_SEND.c ****         #if (0u == TX_SEND_TC_START_SIGNAL_PRESENT)
 194:Generated_Source\PSoC4/TX_SEND.c ****             TX_SEND_TriggerCommand(TX_SEND_MASK, TX_SEND_CMD_START);
 195:Generated_Source\PSoC4/TX_SEND.c ****         #endif /* (0u == TX_SEND_TC_START_SIGNAL_PRESENT) */
 196:Generated_Source\PSoC4/TX_SEND.c ****     #endif /* (TX_SEND__TIMER == TX_SEND_CONFIG) */
ARM GAS  C:\Users\g\AppData\Local\Temp\ccIVY2Cy.s 			page 5


 197:Generated_Source\PSoC4/TX_SEND.c ****     
 198:Generated_Source\PSoC4/TX_SEND.c ****     #if (TX_SEND__QUAD == TX_SEND_CONFIG)
 199:Generated_Source\PSoC4/TX_SEND.c ****         #if (0u != TX_SEND_QUAD_AUTO_START)
 200:Generated_Source\PSoC4/TX_SEND.c ****             TX_SEND_TriggerCommand(TX_SEND_MASK, TX_SEND_CMD_RELOAD);
 201:Generated_Source\PSoC4/TX_SEND.c ****         #endif /* (0u != TX_SEND_QUAD_AUTO_START) */
 202:Generated_Source\PSoC4/TX_SEND.c ****     #endif  /* (TX_SEND__QUAD == TX_SEND_CONFIG) */
 203:Generated_Source\PSoC4/TX_SEND.c **** }
 204:Generated_Source\PSoC4/TX_SEND.c **** 
 205:Generated_Source\PSoC4/TX_SEND.c **** 
 206:Generated_Source\PSoC4/TX_SEND.c **** /*******************************************************************************
 207:Generated_Source\PSoC4/TX_SEND.c **** * Function Name: TX_SEND_Start
 208:Generated_Source\PSoC4/TX_SEND.c **** ********************************************************************************
 209:Generated_Source\PSoC4/TX_SEND.c **** *
 210:Generated_Source\PSoC4/TX_SEND.c **** * Summary:
 211:Generated_Source\PSoC4/TX_SEND.c **** *  Initializes the TX_SEND with default customizer
 212:Generated_Source\PSoC4/TX_SEND.c **** *  values when called the first time and enables the TX_SEND.
 213:Generated_Source\PSoC4/TX_SEND.c **** *  For subsequent calls the configuration is left unchanged and the component is
 214:Generated_Source\PSoC4/TX_SEND.c **** *  just enabled.
 215:Generated_Source\PSoC4/TX_SEND.c **** *
 216:Generated_Source\PSoC4/TX_SEND.c **** * Parameters:
 217:Generated_Source\PSoC4/TX_SEND.c **** *  None
 218:Generated_Source\PSoC4/TX_SEND.c **** *
 219:Generated_Source\PSoC4/TX_SEND.c **** * Return:
 220:Generated_Source\PSoC4/TX_SEND.c **** *  None
 221:Generated_Source\PSoC4/TX_SEND.c **** *
 222:Generated_Source\PSoC4/TX_SEND.c **** * Global variables:
 223:Generated_Source\PSoC4/TX_SEND.c **** *  TX_SEND_initVar: global variable is used to indicate initial
 224:Generated_Source\PSoC4/TX_SEND.c **** *  configuration of this component.  The variable is initialized to zero and set
 225:Generated_Source\PSoC4/TX_SEND.c **** *  to 1 the first time TX_SEND_Start() is called. This allows
 226:Generated_Source\PSoC4/TX_SEND.c **** *  enabling/disabling a component without re-initialization in all subsequent
 227:Generated_Source\PSoC4/TX_SEND.c **** *  calls to the TX_SEND_Start() routine.
 228:Generated_Source\PSoC4/TX_SEND.c **** *
 229:Generated_Source\PSoC4/TX_SEND.c **** *******************************************************************************/
 230:Generated_Source\PSoC4/TX_SEND.c **** void TX_SEND_Start(void)
 231:Generated_Source\PSoC4/TX_SEND.c **** {
 232:Generated_Source\PSoC4/TX_SEND.c ****     if (0u == TX_SEND_initVar)
 233:Generated_Source\PSoC4/TX_SEND.c ****     {
 234:Generated_Source\PSoC4/TX_SEND.c ****         TX_SEND_Init();
 235:Generated_Source\PSoC4/TX_SEND.c ****         TX_SEND_initVar = 1u;
 236:Generated_Source\PSoC4/TX_SEND.c ****     }
 237:Generated_Source\PSoC4/TX_SEND.c **** 
 238:Generated_Source\PSoC4/TX_SEND.c ****     TX_SEND_Enable();
 239:Generated_Source\PSoC4/TX_SEND.c **** }
 240:Generated_Source\PSoC4/TX_SEND.c **** 
 241:Generated_Source\PSoC4/TX_SEND.c **** 
 242:Generated_Source\PSoC4/TX_SEND.c **** /*******************************************************************************
 243:Generated_Source\PSoC4/TX_SEND.c **** * Function Name: TX_SEND_Stop
 244:Generated_Source\PSoC4/TX_SEND.c **** ********************************************************************************
 245:Generated_Source\PSoC4/TX_SEND.c **** *
 246:Generated_Source\PSoC4/TX_SEND.c **** * Summary:
 247:Generated_Source\PSoC4/TX_SEND.c **** *  Disables the TX_SEND.
 248:Generated_Source\PSoC4/TX_SEND.c **** *
 249:Generated_Source\PSoC4/TX_SEND.c **** * Parameters:
 250:Generated_Source\PSoC4/TX_SEND.c **** *  None
 251:Generated_Source\PSoC4/TX_SEND.c **** *
 252:Generated_Source\PSoC4/TX_SEND.c **** * Return:
 253:Generated_Source\PSoC4/TX_SEND.c **** *  None
ARM GAS  C:\Users\g\AppData\Local\Temp\ccIVY2Cy.s 			page 6


 254:Generated_Source\PSoC4/TX_SEND.c **** *
 255:Generated_Source\PSoC4/TX_SEND.c **** *******************************************************************************/
 256:Generated_Source\PSoC4/TX_SEND.c **** void TX_SEND_Stop(void)
 257:Generated_Source\PSoC4/TX_SEND.c **** {
 258:Generated_Source\PSoC4/TX_SEND.c ****     uint8 enableInterrupts;
 259:Generated_Source\PSoC4/TX_SEND.c **** 
 260:Generated_Source\PSoC4/TX_SEND.c ****     enableInterrupts = CyEnterCriticalSection();
 261:Generated_Source\PSoC4/TX_SEND.c **** 
 262:Generated_Source\PSoC4/TX_SEND.c ****     TX_SEND_BLOCK_CONTROL_REG &= (uint32)~TX_SEND_MASK;
 263:Generated_Source\PSoC4/TX_SEND.c **** 
 264:Generated_Source\PSoC4/TX_SEND.c ****     CyExitCriticalSection(enableInterrupts);
 265:Generated_Source\PSoC4/TX_SEND.c **** }
 266:Generated_Source\PSoC4/TX_SEND.c **** 
 267:Generated_Source\PSoC4/TX_SEND.c **** 
 268:Generated_Source\PSoC4/TX_SEND.c **** /*******************************************************************************
 269:Generated_Source\PSoC4/TX_SEND.c **** * Function Name: TX_SEND_SetMode
 270:Generated_Source\PSoC4/TX_SEND.c **** ********************************************************************************
 271:Generated_Source\PSoC4/TX_SEND.c **** *
 272:Generated_Source\PSoC4/TX_SEND.c **** * Summary:
 273:Generated_Source\PSoC4/TX_SEND.c **** *  Sets the operation mode of the TX_SEND. This function is used when
 274:Generated_Source\PSoC4/TX_SEND.c **** *  configured as a generic TX_SEND and the actual mode of operation is
 275:Generated_Source\PSoC4/TX_SEND.c **** *  set at runtime. The mode must be set while the component is disabled.
 276:Generated_Source\PSoC4/TX_SEND.c **** *
 277:Generated_Source\PSoC4/TX_SEND.c **** * Parameters:
 278:Generated_Source\PSoC4/TX_SEND.c **** *  mode: Mode for the TX_SEND to operate in
 279:Generated_Source\PSoC4/TX_SEND.c **** *   Values:
 280:Generated_Source\PSoC4/TX_SEND.c **** *   - TX_SEND_MODE_TIMER_COMPARE - Timer / Counter with
 281:Generated_Source\PSoC4/TX_SEND.c **** *                                                 compare capability
 282:Generated_Source\PSoC4/TX_SEND.c **** *         - TX_SEND_MODE_TIMER_CAPTURE - Timer / Counter with
 283:Generated_Source\PSoC4/TX_SEND.c **** *                                                 capture capability
 284:Generated_Source\PSoC4/TX_SEND.c **** *         - TX_SEND_MODE_QUAD - Quadrature decoder
 285:Generated_Source\PSoC4/TX_SEND.c **** *         - TX_SEND_MODE_PWM - PWM
 286:Generated_Source\PSoC4/TX_SEND.c **** *         - TX_SEND_MODE_PWM_DT - PWM with dead time
 287:Generated_Source\PSoC4/TX_SEND.c **** *         - TX_SEND_MODE_PWM_PR - PWM with pseudo random capability
 288:Generated_Source\PSoC4/TX_SEND.c **** *
 289:Generated_Source\PSoC4/TX_SEND.c **** * Return:
 290:Generated_Source\PSoC4/TX_SEND.c **** *  None
 291:Generated_Source\PSoC4/TX_SEND.c **** *
 292:Generated_Source\PSoC4/TX_SEND.c **** *******************************************************************************/
 293:Generated_Source\PSoC4/TX_SEND.c **** void TX_SEND_SetMode(uint32 mode)
 294:Generated_Source\PSoC4/TX_SEND.c **** {
 295:Generated_Source\PSoC4/TX_SEND.c ****     uint8 enableInterrupts;
 296:Generated_Source\PSoC4/TX_SEND.c **** 
 297:Generated_Source\PSoC4/TX_SEND.c ****     enableInterrupts = CyEnterCriticalSection();
 298:Generated_Source\PSoC4/TX_SEND.c **** 
 299:Generated_Source\PSoC4/TX_SEND.c ****     TX_SEND_CONTROL_REG &= (uint32)~TX_SEND_MODE_MASK;
 300:Generated_Source\PSoC4/TX_SEND.c ****     TX_SEND_CONTROL_REG |= mode;
 301:Generated_Source\PSoC4/TX_SEND.c **** 
 302:Generated_Source\PSoC4/TX_SEND.c ****     CyExitCriticalSection(enableInterrupts);
 303:Generated_Source\PSoC4/TX_SEND.c **** }
 304:Generated_Source\PSoC4/TX_SEND.c **** 
 305:Generated_Source\PSoC4/TX_SEND.c **** 
 306:Generated_Source\PSoC4/TX_SEND.c **** /*******************************************************************************
 307:Generated_Source\PSoC4/TX_SEND.c **** * Function Name: TX_SEND_SetQDMode
 308:Generated_Source\PSoC4/TX_SEND.c **** ********************************************************************************
 309:Generated_Source\PSoC4/TX_SEND.c **** *
 310:Generated_Source\PSoC4/TX_SEND.c **** * Summary:
ARM GAS  C:\Users\g\AppData\Local\Temp\ccIVY2Cy.s 			page 7


 311:Generated_Source\PSoC4/TX_SEND.c **** *  Sets the the Quadrature Decoder to one of the 3 supported modes.
 312:Generated_Source\PSoC4/TX_SEND.c **** *  Its functionality is only applicable to Quadrature Decoder operation.
 313:Generated_Source\PSoC4/TX_SEND.c **** *
 314:Generated_Source\PSoC4/TX_SEND.c **** * Parameters:
 315:Generated_Source\PSoC4/TX_SEND.c **** *  qdMode: Quadrature Decoder mode
 316:Generated_Source\PSoC4/TX_SEND.c **** *   Values:
 317:Generated_Source\PSoC4/TX_SEND.c **** *         - TX_SEND_MODE_X1 - Counts on phi 1 rising
 318:Generated_Source\PSoC4/TX_SEND.c **** *         - TX_SEND_MODE_X2 - Counts on both edges of phi1 (2x faster)
 319:Generated_Source\PSoC4/TX_SEND.c **** *         - TX_SEND_MODE_X4 - Counts on both edges of phi1 and phi2
 320:Generated_Source\PSoC4/TX_SEND.c **** *                                        (4x faster)
 321:Generated_Source\PSoC4/TX_SEND.c **** *
 322:Generated_Source\PSoC4/TX_SEND.c **** * Return:
 323:Generated_Source\PSoC4/TX_SEND.c **** *  None
 324:Generated_Source\PSoC4/TX_SEND.c **** *
 325:Generated_Source\PSoC4/TX_SEND.c **** *******************************************************************************/
 326:Generated_Source\PSoC4/TX_SEND.c **** void TX_SEND_SetQDMode(uint32 qdMode)
 327:Generated_Source\PSoC4/TX_SEND.c **** {
 328:Generated_Source\PSoC4/TX_SEND.c ****     uint8 enableInterrupts;
 329:Generated_Source\PSoC4/TX_SEND.c **** 
 330:Generated_Source\PSoC4/TX_SEND.c ****     enableInterrupts = CyEnterCriticalSection();
 331:Generated_Source\PSoC4/TX_SEND.c **** 
 332:Generated_Source\PSoC4/TX_SEND.c ****     TX_SEND_CONTROL_REG &= (uint32)~TX_SEND_QUAD_MODE_MASK;
 333:Generated_Source\PSoC4/TX_SEND.c ****     TX_SEND_CONTROL_REG |= qdMode;
 334:Generated_Source\PSoC4/TX_SEND.c **** 
 335:Generated_Source\PSoC4/TX_SEND.c ****     CyExitCriticalSection(enableInterrupts);
 336:Generated_Source\PSoC4/TX_SEND.c **** }
 337:Generated_Source\PSoC4/TX_SEND.c **** 
 338:Generated_Source\PSoC4/TX_SEND.c **** 
 339:Generated_Source\PSoC4/TX_SEND.c **** /*******************************************************************************
 340:Generated_Source\PSoC4/TX_SEND.c **** * Function Name: TX_SEND_SetPrescaler
 341:Generated_Source\PSoC4/TX_SEND.c **** ********************************************************************************
 342:Generated_Source\PSoC4/TX_SEND.c **** *
 343:Generated_Source\PSoC4/TX_SEND.c **** * Summary:
 344:Generated_Source\PSoC4/TX_SEND.c **** *  Sets the prescaler value that is applied to the clock input.  Not applicable
 345:Generated_Source\PSoC4/TX_SEND.c **** *  to a PWM with the dead time mode or Quadrature Decoder mode.
 346:Generated_Source\PSoC4/TX_SEND.c **** *
 347:Generated_Source\PSoC4/TX_SEND.c **** * Parameters:
 348:Generated_Source\PSoC4/TX_SEND.c **** *  prescaler: Prescaler divider value
 349:Generated_Source\PSoC4/TX_SEND.c **** *   Values:
 350:Generated_Source\PSoC4/TX_SEND.c **** *         - TX_SEND_PRESCALE_DIVBY1    - Divide by 1 (no prescaling)
 351:Generated_Source\PSoC4/TX_SEND.c **** *         - TX_SEND_PRESCALE_DIVBY2    - Divide by 2
 352:Generated_Source\PSoC4/TX_SEND.c **** *         - TX_SEND_PRESCALE_DIVBY4    - Divide by 4
 353:Generated_Source\PSoC4/TX_SEND.c **** *         - TX_SEND_PRESCALE_DIVBY8    - Divide by 8
 354:Generated_Source\PSoC4/TX_SEND.c **** *         - TX_SEND_PRESCALE_DIVBY16   - Divide by 16
 355:Generated_Source\PSoC4/TX_SEND.c **** *         - TX_SEND_PRESCALE_DIVBY32   - Divide by 32
 356:Generated_Source\PSoC4/TX_SEND.c **** *         - TX_SEND_PRESCALE_DIVBY64   - Divide by 64
 357:Generated_Source\PSoC4/TX_SEND.c **** *         - TX_SEND_PRESCALE_DIVBY128  - Divide by 128
 358:Generated_Source\PSoC4/TX_SEND.c **** *
 359:Generated_Source\PSoC4/TX_SEND.c **** * Return:
 360:Generated_Source\PSoC4/TX_SEND.c **** *  None
 361:Generated_Source\PSoC4/TX_SEND.c **** *
 362:Generated_Source\PSoC4/TX_SEND.c **** *******************************************************************************/
 363:Generated_Source\PSoC4/TX_SEND.c **** void TX_SEND_SetPrescaler(uint32 prescaler)
 364:Generated_Source\PSoC4/TX_SEND.c **** {
 365:Generated_Source\PSoC4/TX_SEND.c ****     uint8 enableInterrupts;
 366:Generated_Source\PSoC4/TX_SEND.c **** 
 367:Generated_Source\PSoC4/TX_SEND.c ****     enableInterrupts = CyEnterCriticalSection();
ARM GAS  C:\Users\g\AppData\Local\Temp\ccIVY2Cy.s 			page 8


 368:Generated_Source\PSoC4/TX_SEND.c **** 
 369:Generated_Source\PSoC4/TX_SEND.c ****     TX_SEND_CONTROL_REG &= (uint32)~TX_SEND_PRESCALER_MASK;
 370:Generated_Source\PSoC4/TX_SEND.c ****     TX_SEND_CONTROL_REG |= prescaler;
 371:Generated_Source\PSoC4/TX_SEND.c **** 
 372:Generated_Source\PSoC4/TX_SEND.c ****     CyExitCriticalSection(enableInterrupts);
 373:Generated_Source\PSoC4/TX_SEND.c **** }
 374:Generated_Source\PSoC4/TX_SEND.c **** 
 375:Generated_Source\PSoC4/TX_SEND.c **** 
 376:Generated_Source\PSoC4/TX_SEND.c **** /*******************************************************************************
 377:Generated_Source\PSoC4/TX_SEND.c **** * Function Name: TX_SEND_SetOneShot
 378:Generated_Source\PSoC4/TX_SEND.c **** ********************************************************************************
 379:Generated_Source\PSoC4/TX_SEND.c **** *
 380:Generated_Source\PSoC4/TX_SEND.c **** * Summary:
 381:Generated_Source\PSoC4/TX_SEND.c **** *  Writes the register that controls whether the TX_SEND runs
 382:Generated_Source\PSoC4/TX_SEND.c **** *  continuously or stops when terminal count is reached.  By default the
 383:Generated_Source\PSoC4/TX_SEND.c **** *  TX_SEND operates in the continuous mode.
 384:Generated_Source\PSoC4/TX_SEND.c **** *
 385:Generated_Source\PSoC4/TX_SEND.c **** * Parameters:
 386:Generated_Source\PSoC4/TX_SEND.c **** *  oneShotEnable
 387:Generated_Source\PSoC4/TX_SEND.c **** *   Values:
 388:Generated_Source\PSoC4/TX_SEND.c **** *     - 0 - Continuous
 389:Generated_Source\PSoC4/TX_SEND.c **** *     - 1 - Enable One Shot
 390:Generated_Source\PSoC4/TX_SEND.c **** *
 391:Generated_Source\PSoC4/TX_SEND.c **** * Return:
 392:Generated_Source\PSoC4/TX_SEND.c **** *  None
 393:Generated_Source\PSoC4/TX_SEND.c **** *
 394:Generated_Source\PSoC4/TX_SEND.c **** *******************************************************************************/
 395:Generated_Source\PSoC4/TX_SEND.c **** void TX_SEND_SetOneShot(uint32 oneShotEnable)
 396:Generated_Source\PSoC4/TX_SEND.c **** {
 397:Generated_Source\PSoC4/TX_SEND.c ****     uint8 enableInterrupts;
 398:Generated_Source\PSoC4/TX_SEND.c **** 
 399:Generated_Source\PSoC4/TX_SEND.c ****     enableInterrupts = CyEnterCriticalSection();
 400:Generated_Source\PSoC4/TX_SEND.c **** 
 401:Generated_Source\PSoC4/TX_SEND.c ****     TX_SEND_CONTROL_REG &= (uint32)~TX_SEND_ONESHOT_MASK;
 402:Generated_Source\PSoC4/TX_SEND.c ****     TX_SEND_CONTROL_REG |= ((uint32)((oneShotEnable & TX_SEND_1BIT_MASK) <<
 403:Generated_Source\PSoC4/TX_SEND.c ****                                                                TX_SEND_ONESHOT_SHIFT));
 404:Generated_Source\PSoC4/TX_SEND.c **** 
 405:Generated_Source\PSoC4/TX_SEND.c ****     CyExitCriticalSection(enableInterrupts);
 406:Generated_Source\PSoC4/TX_SEND.c **** }
 407:Generated_Source\PSoC4/TX_SEND.c **** 
 408:Generated_Source\PSoC4/TX_SEND.c **** 
 409:Generated_Source\PSoC4/TX_SEND.c **** /*******************************************************************************
 410:Generated_Source\PSoC4/TX_SEND.c **** * Function Name: TX_SEND_SetPWMMode
 411:Generated_Source\PSoC4/TX_SEND.c **** ********************************************************************************
 412:Generated_Source\PSoC4/TX_SEND.c **** *
 413:Generated_Source\PSoC4/TX_SEND.c **** * Summary:
 414:Generated_Source\PSoC4/TX_SEND.c **** *  Writes the control register that determines what mode of operation the PWM
 415:Generated_Source\PSoC4/TX_SEND.c **** *  output lines are driven in.  There is a setting for what to do on a
 416:Generated_Source\PSoC4/TX_SEND.c **** *  comparison match (CC_MATCH), on an overflow (OVERFLOW) and on an underflow
 417:Generated_Source\PSoC4/TX_SEND.c **** *  (UNDERFLOW).  The value for each of the three must be ORed together to form
 418:Generated_Source\PSoC4/TX_SEND.c **** *  the mode.
 419:Generated_Source\PSoC4/TX_SEND.c **** *
 420:Generated_Source\PSoC4/TX_SEND.c **** * Parameters:
 421:Generated_Source\PSoC4/TX_SEND.c **** *  modeMask: A combination of three mode settings.  Mask must include a value
 422:Generated_Source\PSoC4/TX_SEND.c **** *  for each of the three or use one of the preconfigured PWM settings.
 423:Generated_Source\PSoC4/TX_SEND.c **** *   Values:
 424:Generated_Source\PSoC4/TX_SEND.c **** *     - CC_MATCH_SET        - Set on comparison match
ARM GAS  C:\Users\g\AppData\Local\Temp\ccIVY2Cy.s 			page 9


 425:Generated_Source\PSoC4/TX_SEND.c **** *     - CC_MATCH_CLEAR      - Clear on comparison match
 426:Generated_Source\PSoC4/TX_SEND.c **** *     - CC_MATCH_INVERT     - Invert on comparison match
 427:Generated_Source\PSoC4/TX_SEND.c **** *     - CC_MATCH_NO_CHANGE  - No change on comparison match
 428:Generated_Source\PSoC4/TX_SEND.c **** *     - OVERLOW_SET         - Set on overflow
 429:Generated_Source\PSoC4/TX_SEND.c **** *     - OVERLOW_CLEAR       - Clear on  overflow
 430:Generated_Source\PSoC4/TX_SEND.c **** *     - OVERLOW_INVERT      - Invert on overflow
 431:Generated_Source\PSoC4/TX_SEND.c **** *     - OVERLOW_NO_CHANGE   - No change on overflow
 432:Generated_Source\PSoC4/TX_SEND.c **** *     - UNDERFLOW_SET       - Set on underflow
 433:Generated_Source\PSoC4/TX_SEND.c **** *     - UNDERFLOW_CLEAR     - Clear on underflow
 434:Generated_Source\PSoC4/TX_SEND.c **** *     - UNDERFLOW_INVERT    - Invert on underflow
 435:Generated_Source\PSoC4/TX_SEND.c **** *     - UNDERFLOW_NO_CHANGE - No change on underflow
 436:Generated_Source\PSoC4/TX_SEND.c **** *     - PWM_MODE_LEFT       - Setting for left aligned PWM.  Should be combined
 437:Generated_Source\PSoC4/TX_SEND.c **** *                             with up counting mode
 438:Generated_Source\PSoC4/TX_SEND.c **** *     - PWM_MODE_RIGHT      - Setting for right aligned PWM.  Should be combined
 439:Generated_Source\PSoC4/TX_SEND.c **** *                             with down counting mode
 440:Generated_Source\PSoC4/TX_SEND.c **** *     - PWM_MODE_CENTER     - Setting for center aligned PWM.  Should be
 441:Generated_Source\PSoC4/TX_SEND.c **** *                             combined with up/down 0 mode
 442:Generated_Source\PSoC4/TX_SEND.c **** *     - PWM_MODE_ASYM       - Setting for asymmetric PWM.  Should be combined
 443:Generated_Source\PSoC4/TX_SEND.c **** *                             with up/down 1 mode
 444:Generated_Source\PSoC4/TX_SEND.c **** *
 445:Generated_Source\PSoC4/TX_SEND.c **** * Return:
 446:Generated_Source\PSoC4/TX_SEND.c **** *  None
 447:Generated_Source\PSoC4/TX_SEND.c **** *
 448:Generated_Source\PSoC4/TX_SEND.c **** *******************************************************************************/
 449:Generated_Source\PSoC4/TX_SEND.c **** void TX_SEND_SetPWMMode(uint32 modeMask)
 450:Generated_Source\PSoC4/TX_SEND.c **** {
 451:Generated_Source\PSoC4/TX_SEND.c ****     TX_SEND_TRIG_CONTROL2_REG = (modeMask & TX_SEND_6BIT_MASK);
 452:Generated_Source\PSoC4/TX_SEND.c **** }
 453:Generated_Source\PSoC4/TX_SEND.c **** 
 454:Generated_Source\PSoC4/TX_SEND.c **** 
 455:Generated_Source\PSoC4/TX_SEND.c **** 
 456:Generated_Source\PSoC4/TX_SEND.c **** /*******************************************************************************
 457:Generated_Source\PSoC4/TX_SEND.c **** * Function Name: TX_SEND_SetPWMSyncKill
 458:Generated_Source\PSoC4/TX_SEND.c **** ********************************************************************************
 459:Generated_Source\PSoC4/TX_SEND.c **** *
 460:Generated_Source\PSoC4/TX_SEND.c **** * Summary:
 461:Generated_Source\PSoC4/TX_SEND.c **** *  Writes the register that controls whether the PWM kill signal (stop input)
 462:Generated_Source\PSoC4/TX_SEND.c **** *  causes asynchronous or synchronous kill operation.  By default the kill
 463:Generated_Source\PSoC4/TX_SEND.c **** *  operation is asynchronous.  This functionality is only applicable to the PWM
 464:Generated_Source\PSoC4/TX_SEND.c **** *  and PWM with dead time modes.
 465:Generated_Source\PSoC4/TX_SEND.c **** *
 466:Generated_Source\PSoC4/TX_SEND.c **** *  For Synchronous mode the kill signal disables both the line and line_n
 467:Generated_Source\PSoC4/TX_SEND.c **** *  signals until the next terminal count.
 468:Generated_Source\PSoC4/TX_SEND.c **** *
 469:Generated_Source\PSoC4/TX_SEND.c **** *  For Asynchronous mode the kill signal disables both the line and line_n
 470:Generated_Source\PSoC4/TX_SEND.c **** *  signals when the kill signal is present.  This mode should only be used
 471:Generated_Source\PSoC4/TX_SEND.c **** *  when the kill signal (stop input) is configured in the pass through mode
 472:Generated_Source\PSoC4/TX_SEND.c **** *  (Level sensitive signal).
 473:Generated_Source\PSoC4/TX_SEND.c **** 
 474:Generated_Source\PSoC4/TX_SEND.c **** *
 475:Generated_Source\PSoC4/TX_SEND.c **** * Parameters:
 476:Generated_Source\PSoC4/TX_SEND.c **** *  syncKillEnable
 477:Generated_Source\PSoC4/TX_SEND.c **** *   Values:
 478:Generated_Source\PSoC4/TX_SEND.c **** *     - 0 - Asynchronous
 479:Generated_Source\PSoC4/TX_SEND.c **** *     - 1 - Synchronous
 480:Generated_Source\PSoC4/TX_SEND.c **** *
 481:Generated_Source\PSoC4/TX_SEND.c **** * Return:
ARM GAS  C:\Users\g\AppData\Local\Temp\ccIVY2Cy.s 			page 10


 482:Generated_Source\PSoC4/TX_SEND.c **** *  None
 483:Generated_Source\PSoC4/TX_SEND.c **** *
 484:Generated_Source\PSoC4/TX_SEND.c **** *******************************************************************************/
 485:Generated_Source\PSoC4/TX_SEND.c **** void TX_SEND_SetPWMSyncKill(uint32 syncKillEnable)
 486:Generated_Source\PSoC4/TX_SEND.c **** {
 487:Generated_Source\PSoC4/TX_SEND.c ****     uint8 enableInterrupts;
 488:Generated_Source\PSoC4/TX_SEND.c **** 
 489:Generated_Source\PSoC4/TX_SEND.c ****     enableInterrupts = CyEnterCriticalSection();
 490:Generated_Source\PSoC4/TX_SEND.c **** 
 491:Generated_Source\PSoC4/TX_SEND.c ****     TX_SEND_CONTROL_REG &= (uint32)~TX_SEND_PWM_SYNC_KILL_MASK;
 492:Generated_Source\PSoC4/TX_SEND.c ****     TX_SEND_CONTROL_REG |= ((uint32)((syncKillEnable & TX_SEND_1BIT_MASK)  <<
 493:Generated_Source\PSoC4/TX_SEND.c ****                                                TX_SEND_PWM_SYNC_KILL_SHIFT));
 494:Generated_Source\PSoC4/TX_SEND.c **** 
 495:Generated_Source\PSoC4/TX_SEND.c ****     CyExitCriticalSection(enableInterrupts);
 496:Generated_Source\PSoC4/TX_SEND.c **** }
 497:Generated_Source\PSoC4/TX_SEND.c **** 
 498:Generated_Source\PSoC4/TX_SEND.c **** 
 499:Generated_Source\PSoC4/TX_SEND.c **** /*******************************************************************************
 500:Generated_Source\PSoC4/TX_SEND.c **** * Function Name: TX_SEND_SetPWMStopOnKill
 501:Generated_Source\PSoC4/TX_SEND.c **** ********************************************************************************
 502:Generated_Source\PSoC4/TX_SEND.c **** *
 503:Generated_Source\PSoC4/TX_SEND.c **** * Summary:
 504:Generated_Source\PSoC4/TX_SEND.c **** *  Writes the register that controls whether the PWM kill signal (stop input)
 505:Generated_Source\PSoC4/TX_SEND.c **** *  causes the PWM counter to stop.  By default the kill operation does not stop
 506:Generated_Source\PSoC4/TX_SEND.c **** *  the counter.  This functionality is only applicable to the three PWM modes.
 507:Generated_Source\PSoC4/TX_SEND.c **** *
 508:Generated_Source\PSoC4/TX_SEND.c **** *
 509:Generated_Source\PSoC4/TX_SEND.c **** * Parameters:
 510:Generated_Source\PSoC4/TX_SEND.c **** *  stopOnKillEnable
 511:Generated_Source\PSoC4/TX_SEND.c **** *   Values:
 512:Generated_Source\PSoC4/TX_SEND.c **** *     - 0 - Don't stop
 513:Generated_Source\PSoC4/TX_SEND.c **** *     - 1 - Stop
 514:Generated_Source\PSoC4/TX_SEND.c **** *
 515:Generated_Source\PSoC4/TX_SEND.c **** * Return:
 516:Generated_Source\PSoC4/TX_SEND.c **** *  None
 517:Generated_Source\PSoC4/TX_SEND.c **** *
 518:Generated_Source\PSoC4/TX_SEND.c **** *******************************************************************************/
 519:Generated_Source\PSoC4/TX_SEND.c **** void TX_SEND_SetPWMStopOnKill(uint32 stopOnKillEnable)
 520:Generated_Source\PSoC4/TX_SEND.c **** {
 521:Generated_Source\PSoC4/TX_SEND.c ****     uint8 enableInterrupts;
 522:Generated_Source\PSoC4/TX_SEND.c **** 
 523:Generated_Source\PSoC4/TX_SEND.c ****     enableInterrupts = CyEnterCriticalSection();
 524:Generated_Source\PSoC4/TX_SEND.c **** 
 525:Generated_Source\PSoC4/TX_SEND.c ****     TX_SEND_CONTROL_REG &= (uint32)~TX_SEND_PWM_STOP_KILL_MASK;
 526:Generated_Source\PSoC4/TX_SEND.c ****     TX_SEND_CONTROL_REG |= ((uint32)((stopOnKillEnable & TX_SEND_1BIT_MASK)  <<
 527:Generated_Source\PSoC4/TX_SEND.c ****                                                          TX_SEND_PWM_STOP_KILL_SHIFT));
 528:Generated_Source\PSoC4/TX_SEND.c **** 
 529:Generated_Source\PSoC4/TX_SEND.c ****     CyExitCriticalSection(enableInterrupts);
 530:Generated_Source\PSoC4/TX_SEND.c **** }
 531:Generated_Source\PSoC4/TX_SEND.c **** 
 532:Generated_Source\PSoC4/TX_SEND.c **** 
 533:Generated_Source\PSoC4/TX_SEND.c **** /*******************************************************************************
 534:Generated_Source\PSoC4/TX_SEND.c **** * Function Name: TX_SEND_SetPWMDeadTime
 535:Generated_Source\PSoC4/TX_SEND.c **** ********************************************************************************
 536:Generated_Source\PSoC4/TX_SEND.c **** *
 537:Generated_Source\PSoC4/TX_SEND.c **** * Summary:
 538:Generated_Source\PSoC4/TX_SEND.c **** *  Writes the dead time control value.  This value delays the rising edge of
ARM GAS  C:\Users\g\AppData\Local\Temp\ccIVY2Cy.s 			page 11


 539:Generated_Source\PSoC4/TX_SEND.c **** *  both the line and line_n signals the designated number of cycles resulting
 540:Generated_Source\PSoC4/TX_SEND.c **** *  in both signals being inactive for that many cycles.  This functionality is
 541:Generated_Source\PSoC4/TX_SEND.c **** *  only applicable to the PWM in the dead time mode.
 542:Generated_Source\PSoC4/TX_SEND.c **** 
 543:Generated_Source\PSoC4/TX_SEND.c **** *
 544:Generated_Source\PSoC4/TX_SEND.c **** * Parameters:
 545:Generated_Source\PSoC4/TX_SEND.c **** *  Dead time to insert
 546:Generated_Source\PSoC4/TX_SEND.c **** *   Values: 0 to 255
 547:Generated_Source\PSoC4/TX_SEND.c **** *
 548:Generated_Source\PSoC4/TX_SEND.c **** * Return:
 549:Generated_Source\PSoC4/TX_SEND.c **** *  None
 550:Generated_Source\PSoC4/TX_SEND.c **** *
 551:Generated_Source\PSoC4/TX_SEND.c **** *******************************************************************************/
 552:Generated_Source\PSoC4/TX_SEND.c **** void TX_SEND_SetPWMDeadTime(uint32 deadTime)
 553:Generated_Source\PSoC4/TX_SEND.c **** {
 554:Generated_Source\PSoC4/TX_SEND.c ****     uint8 enableInterrupts;
 555:Generated_Source\PSoC4/TX_SEND.c **** 
 556:Generated_Source\PSoC4/TX_SEND.c ****     enableInterrupts = CyEnterCriticalSection();
 557:Generated_Source\PSoC4/TX_SEND.c **** 
 558:Generated_Source\PSoC4/TX_SEND.c ****     TX_SEND_CONTROL_REG &= (uint32)~TX_SEND_PRESCALER_MASK;
 559:Generated_Source\PSoC4/TX_SEND.c ****     TX_SEND_CONTROL_REG |= ((uint32)((deadTime & TX_SEND_8BIT_MASK) <<
 560:Generated_Source\PSoC4/TX_SEND.c ****                                                           TX_SEND_PRESCALER_SHIFT));
 561:Generated_Source\PSoC4/TX_SEND.c **** 
 562:Generated_Source\PSoC4/TX_SEND.c ****     CyExitCriticalSection(enableInterrupts);
 563:Generated_Source\PSoC4/TX_SEND.c **** }
 564:Generated_Source\PSoC4/TX_SEND.c **** 
 565:Generated_Source\PSoC4/TX_SEND.c **** 
 566:Generated_Source\PSoC4/TX_SEND.c **** /*******************************************************************************
 567:Generated_Source\PSoC4/TX_SEND.c **** * Function Name: TX_SEND_SetPWMInvert
 568:Generated_Source\PSoC4/TX_SEND.c **** ********************************************************************************
 569:Generated_Source\PSoC4/TX_SEND.c **** *
 570:Generated_Source\PSoC4/TX_SEND.c **** * Summary:
 571:Generated_Source\PSoC4/TX_SEND.c **** *  Writes the bits that control whether the line and line_n outputs are
 572:Generated_Source\PSoC4/TX_SEND.c **** *  inverted from their normal output values.  This functionality is only
 573:Generated_Source\PSoC4/TX_SEND.c **** *  applicable to the three PWM modes.
 574:Generated_Source\PSoC4/TX_SEND.c **** *
 575:Generated_Source\PSoC4/TX_SEND.c **** * Parameters:
 576:Generated_Source\PSoC4/TX_SEND.c **** *  mask: Mask of outputs to invert.
 577:Generated_Source\PSoC4/TX_SEND.c **** *   Values:
 578:Generated_Source\PSoC4/TX_SEND.c **** *         - TX_SEND_INVERT_LINE   - Inverts the line output
 579:Generated_Source\PSoC4/TX_SEND.c **** *         - TX_SEND_INVERT_LINE_N - Inverts the line_n output
 580:Generated_Source\PSoC4/TX_SEND.c **** *
 581:Generated_Source\PSoC4/TX_SEND.c **** * Return:
 582:Generated_Source\PSoC4/TX_SEND.c **** *  None
 583:Generated_Source\PSoC4/TX_SEND.c **** *
 584:Generated_Source\PSoC4/TX_SEND.c **** *******************************************************************************/
 585:Generated_Source\PSoC4/TX_SEND.c **** void TX_SEND_SetPWMInvert(uint32 mask)
 586:Generated_Source\PSoC4/TX_SEND.c **** {
 587:Generated_Source\PSoC4/TX_SEND.c ****     uint8 enableInterrupts;
 588:Generated_Source\PSoC4/TX_SEND.c **** 
 589:Generated_Source\PSoC4/TX_SEND.c ****     enableInterrupts = CyEnterCriticalSection();
 590:Generated_Source\PSoC4/TX_SEND.c **** 
 591:Generated_Source\PSoC4/TX_SEND.c ****     TX_SEND_CONTROL_REG &= (uint32)~TX_SEND_INV_OUT_MASK;
 592:Generated_Source\PSoC4/TX_SEND.c ****     TX_SEND_CONTROL_REG |= mask;
 593:Generated_Source\PSoC4/TX_SEND.c **** 
 594:Generated_Source\PSoC4/TX_SEND.c ****     CyExitCriticalSection(enableInterrupts);
 595:Generated_Source\PSoC4/TX_SEND.c **** }
ARM GAS  C:\Users\g\AppData\Local\Temp\ccIVY2Cy.s 			page 12


 596:Generated_Source\PSoC4/TX_SEND.c **** 
 597:Generated_Source\PSoC4/TX_SEND.c **** 
 598:Generated_Source\PSoC4/TX_SEND.c **** 
 599:Generated_Source\PSoC4/TX_SEND.c **** /*******************************************************************************
 600:Generated_Source\PSoC4/TX_SEND.c **** * Function Name: TX_SEND_WriteCounter
 601:Generated_Source\PSoC4/TX_SEND.c **** ********************************************************************************
 602:Generated_Source\PSoC4/TX_SEND.c **** *
 603:Generated_Source\PSoC4/TX_SEND.c **** * Summary:
 604:Generated_Source\PSoC4/TX_SEND.c **** *  Writes a new 16bit counter value directly into the counter register, thus
 605:Generated_Source\PSoC4/TX_SEND.c **** *  setting the counter (not the period) to the value written. It is not
 606:Generated_Source\PSoC4/TX_SEND.c **** *  advised to write to this field when the counter is running.
 607:Generated_Source\PSoC4/TX_SEND.c **** *
 608:Generated_Source\PSoC4/TX_SEND.c **** * Parameters:
 609:Generated_Source\PSoC4/TX_SEND.c **** *  count: value to write
 610:Generated_Source\PSoC4/TX_SEND.c **** *
 611:Generated_Source\PSoC4/TX_SEND.c **** * Return:
 612:Generated_Source\PSoC4/TX_SEND.c **** *  None
 613:Generated_Source\PSoC4/TX_SEND.c **** *
 614:Generated_Source\PSoC4/TX_SEND.c **** *******************************************************************************/
 615:Generated_Source\PSoC4/TX_SEND.c **** void TX_SEND_WriteCounter(uint32 count)
 616:Generated_Source\PSoC4/TX_SEND.c **** {
 617:Generated_Source\PSoC4/TX_SEND.c ****     TX_SEND_COUNTER_REG = (count & TX_SEND_16BIT_MASK);
 618:Generated_Source\PSoC4/TX_SEND.c **** }
 619:Generated_Source\PSoC4/TX_SEND.c **** 
 620:Generated_Source\PSoC4/TX_SEND.c **** 
 621:Generated_Source\PSoC4/TX_SEND.c **** /*******************************************************************************
 622:Generated_Source\PSoC4/TX_SEND.c **** * Function Name: TX_SEND_ReadCounter
 623:Generated_Source\PSoC4/TX_SEND.c **** ********************************************************************************
 624:Generated_Source\PSoC4/TX_SEND.c **** *
 625:Generated_Source\PSoC4/TX_SEND.c **** * Summary:
 626:Generated_Source\PSoC4/TX_SEND.c **** *  Reads the current counter value.
 627:Generated_Source\PSoC4/TX_SEND.c **** *
 628:Generated_Source\PSoC4/TX_SEND.c **** * Parameters:
 629:Generated_Source\PSoC4/TX_SEND.c **** *  None
 630:Generated_Source\PSoC4/TX_SEND.c **** *
 631:Generated_Source\PSoC4/TX_SEND.c **** * Return:
 632:Generated_Source\PSoC4/TX_SEND.c **** *  Current counter value
 633:Generated_Source\PSoC4/TX_SEND.c **** *
 634:Generated_Source\PSoC4/TX_SEND.c **** *******************************************************************************/
 635:Generated_Source\PSoC4/TX_SEND.c **** uint32 TX_SEND_ReadCounter(void)
 636:Generated_Source\PSoC4/TX_SEND.c **** {
 637:Generated_Source\PSoC4/TX_SEND.c ****     return (TX_SEND_COUNTER_REG & TX_SEND_16BIT_MASK);
 638:Generated_Source\PSoC4/TX_SEND.c **** }
 639:Generated_Source\PSoC4/TX_SEND.c **** 
 640:Generated_Source\PSoC4/TX_SEND.c **** 
 641:Generated_Source\PSoC4/TX_SEND.c **** /*******************************************************************************
 642:Generated_Source\PSoC4/TX_SEND.c **** * Function Name: TX_SEND_SetCounterMode
 643:Generated_Source\PSoC4/TX_SEND.c **** ********************************************************************************
 644:Generated_Source\PSoC4/TX_SEND.c **** *
 645:Generated_Source\PSoC4/TX_SEND.c **** * Summary:
 646:Generated_Source\PSoC4/TX_SEND.c **** *  Sets the counter mode.  Applicable to all modes except Quadrature Decoder
 647:Generated_Source\PSoC4/TX_SEND.c **** *  and the PWM with a pseudo random output.
 648:Generated_Source\PSoC4/TX_SEND.c **** *
 649:Generated_Source\PSoC4/TX_SEND.c **** * Parameters:
 650:Generated_Source\PSoC4/TX_SEND.c **** *  counterMode: Enumerated counter type values
 651:Generated_Source\PSoC4/TX_SEND.c **** *   Values:
 652:Generated_Source\PSoC4/TX_SEND.c **** *     - TX_SEND_COUNT_UP       - Counts up
ARM GAS  C:\Users\g\AppData\Local\Temp\ccIVY2Cy.s 			page 13


 653:Generated_Source\PSoC4/TX_SEND.c **** *     - TX_SEND_COUNT_DOWN     - Counts down
 654:Generated_Source\PSoC4/TX_SEND.c **** *     - TX_SEND_COUNT_UPDOWN0  - Counts up and down. Terminal count
 655:Generated_Source\PSoC4/TX_SEND.c **** *                                         generated when counter reaches 0
 656:Generated_Source\PSoC4/TX_SEND.c **** *     - TX_SEND_COUNT_UPDOWN1  - Counts up and down. Terminal count
 657:Generated_Source\PSoC4/TX_SEND.c **** *                                         generated both when counter reaches 0
 658:Generated_Source\PSoC4/TX_SEND.c **** *                                         and period
 659:Generated_Source\PSoC4/TX_SEND.c **** *
 660:Generated_Source\PSoC4/TX_SEND.c **** * Return:
 661:Generated_Source\PSoC4/TX_SEND.c **** *  None
 662:Generated_Source\PSoC4/TX_SEND.c **** *
 663:Generated_Source\PSoC4/TX_SEND.c **** *******************************************************************************/
 664:Generated_Source\PSoC4/TX_SEND.c **** void TX_SEND_SetCounterMode(uint32 counterMode)
 665:Generated_Source\PSoC4/TX_SEND.c **** {
 666:Generated_Source\PSoC4/TX_SEND.c ****     uint8 enableInterrupts;
 667:Generated_Source\PSoC4/TX_SEND.c **** 
 668:Generated_Source\PSoC4/TX_SEND.c ****     enableInterrupts = CyEnterCriticalSection();
 669:Generated_Source\PSoC4/TX_SEND.c **** 
 670:Generated_Source\PSoC4/TX_SEND.c ****     TX_SEND_CONTROL_REG &= (uint32)~TX_SEND_UPDOWN_MASK;
 671:Generated_Source\PSoC4/TX_SEND.c ****     TX_SEND_CONTROL_REG |= counterMode;
 672:Generated_Source\PSoC4/TX_SEND.c **** 
 673:Generated_Source\PSoC4/TX_SEND.c ****     CyExitCriticalSection(enableInterrupts);
 674:Generated_Source\PSoC4/TX_SEND.c **** }
 675:Generated_Source\PSoC4/TX_SEND.c **** 
 676:Generated_Source\PSoC4/TX_SEND.c **** 
 677:Generated_Source\PSoC4/TX_SEND.c **** /*******************************************************************************
 678:Generated_Source\PSoC4/TX_SEND.c **** * Function Name: TX_SEND_WritePeriod
 679:Generated_Source\PSoC4/TX_SEND.c **** ********************************************************************************
 680:Generated_Source\PSoC4/TX_SEND.c **** *
 681:Generated_Source\PSoC4/TX_SEND.c **** * Summary:
 682:Generated_Source\PSoC4/TX_SEND.c **** *  Writes the 16 bit period register with the new period value.
 683:Generated_Source\PSoC4/TX_SEND.c **** *  To cause the counter to count for N cycles this register should be written
 684:Generated_Source\PSoC4/TX_SEND.c **** *  with N-1 (counts from 0 to period inclusive).
 685:Generated_Source\PSoC4/TX_SEND.c **** *
 686:Generated_Source\PSoC4/TX_SEND.c **** * Parameters:
 687:Generated_Source\PSoC4/TX_SEND.c **** *  period: Period value
 688:Generated_Source\PSoC4/TX_SEND.c **** *
 689:Generated_Source\PSoC4/TX_SEND.c **** * Return:
 690:Generated_Source\PSoC4/TX_SEND.c **** *  None
 691:Generated_Source\PSoC4/TX_SEND.c **** *
 692:Generated_Source\PSoC4/TX_SEND.c **** *******************************************************************************/
 693:Generated_Source\PSoC4/TX_SEND.c **** void TX_SEND_WritePeriod(uint32 period)
 694:Generated_Source\PSoC4/TX_SEND.c **** {
 695:Generated_Source\PSoC4/TX_SEND.c ****     TX_SEND_PERIOD_REG = (period & TX_SEND_16BIT_MASK);
  33              		.loc 1 695 0
  34 0004 0849     		ldr	r1, .L2+8
  35              	.LBE19:
  36              	.LBE18:
  58:Generated_Source\PSoC4/TX_SEND.c ****         
  37              		.loc 1 58 0
  38 0006 1A60     		str	r2, [r3]
  61:Generated_Source\PSoC4/TX_SEND.c ****     
  39              		.loc 1 61 0
  40 0008 0C22     		mov	r2, #12
  41 000a 084B     		ldr	r3, .L2+12
 160:Generated_Source\PSoC4/TX_SEND.c **** 
  42              		.loc 1 160 0
  43              		@ sp needed
ARM GAS  C:\Users\g\AppData\Local\Temp\ccIVY2Cy.s 			page 14


  61:Generated_Source\PSoC4/TX_SEND.c ****     
  44              		.loc 1 61 0
  45 000c 1A60     		str	r2, [r3]
  46              	.LVL0:
  47              	.LBB21:
  48              	.LBB22:
 696:Generated_Source\PSoC4/TX_SEND.c **** }
 697:Generated_Source\PSoC4/TX_SEND.c **** 
 698:Generated_Source\PSoC4/TX_SEND.c **** 
 699:Generated_Source\PSoC4/TX_SEND.c **** /*******************************************************************************
 700:Generated_Source\PSoC4/TX_SEND.c **** * Function Name: TX_SEND_ReadPeriod
 701:Generated_Source\PSoC4/TX_SEND.c **** ********************************************************************************
 702:Generated_Source\PSoC4/TX_SEND.c **** *
 703:Generated_Source\PSoC4/TX_SEND.c **** * Summary:
 704:Generated_Source\PSoC4/TX_SEND.c **** *  Reads the 16 bit period register.
 705:Generated_Source\PSoC4/TX_SEND.c **** *
 706:Generated_Source\PSoC4/TX_SEND.c **** * Parameters:
 707:Generated_Source\PSoC4/TX_SEND.c **** *  None
 708:Generated_Source\PSoC4/TX_SEND.c **** *
 709:Generated_Source\PSoC4/TX_SEND.c **** * Return:
 710:Generated_Source\PSoC4/TX_SEND.c **** *  Period value
 711:Generated_Source\PSoC4/TX_SEND.c **** *
 712:Generated_Source\PSoC4/TX_SEND.c **** *******************************************************************************/
 713:Generated_Source\PSoC4/TX_SEND.c **** uint32 TX_SEND_ReadPeriod(void)
 714:Generated_Source\PSoC4/TX_SEND.c **** {
 715:Generated_Source\PSoC4/TX_SEND.c ****     return (TX_SEND_PERIOD_REG & TX_SEND_16BIT_MASK);
 716:Generated_Source\PSoC4/TX_SEND.c **** }
 717:Generated_Source\PSoC4/TX_SEND.c **** 
 718:Generated_Source\PSoC4/TX_SEND.c **** 
 719:Generated_Source\PSoC4/TX_SEND.c **** /*******************************************************************************
 720:Generated_Source\PSoC4/TX_SEND.c **** * Function Name: TX_SEND_SetCompareSwap
 721:Generated_Source\PSoC4/TX_SEND.c **** ********************************************************************************
 722:Generated_Source\PSoC4/TX_SEND.c **** *
 723:Generated_Source\PSoC4/TX_SEND.c **** * Summary:
 724:Generated_Source\PSoC4/TX_SEND.c **** *  Writes the register that controls whether the compare registers are
 725:Generated_Source\PSoC4/TX_SEND.c **** *  swapped. When enabled in the Timer/Counter mode(without capture) the swap
 726:Generated_Source\PSoC4/TX_SEND.c **** *  occurs at a TC event. In the PWM mode the swap occurs at the next TC event
 727:Generated_Source\PSoC4/TX_SEND.c **** *  following a hardware switch event.
 728:Generated_Source\PSoC4/TX_SEND.c **** *
 729:Generated_Source\PSoC4/TX_SEND.c **** * Parameters:
 730:Generated_Source\PSoC4/TX_SEND.c **** *  swapEnable
 731:Generated_Source\PSoC4/TX_SEND.c **** *   Values:
 732:Generated_Source\PSoC4/TX_SEND.c **** *     - 0 - Disable swap
 733:Generated_Source\PSoC4/TX_SEND.c **** *     - 1 - Enable swap
 734:Generated_Source\PSoC4/TX_SEND.c **** *
 735:Generated_Source\PSoC4/TX_SEND.c **** * Return:
 736:Generated_Source\PSoC4/TX_SEND.c **** *  None
 737:Generated_Source\PSoC4/TX_SEND.c **** *
 738:Generated_Source\PSoC4/TX_SEND.c **** *******************************************************************************/
 739:Generated_Source\PSoC4/TX_SEND.c **** void TX_SEND_SetCompareSwap(uint32 swapEnable)
 740:Generated_Source\PSoC4/TX_SEND.c **** {
 741:Generated_Source\PSoC4/TX_SEND.c ****     uint8 enableInterrupts;
 742:Generated_Source\PSoC4/TX_SEND.c **** 
 743:Generated_Source\PSoC4/TX_SEND.c ****     enableInterrupts = CyEnterCriticalSection();
 744:Generated_Source\PSoC4/TX_SEND.c **** 
 745:Generated_Source\PSoC4/TX_SEND.c ****     TX_SEND_CONTROL_REG &= (uint32)~TX_SEND_RELOAD_CC_MASK;
 746:Generated_Source\PSoC4/TX_SEND.c ****     TX_SEND_CONTROL_REG |= (swapEnable & TX_SEND_1BIT_MASK);
ARM GAS  C:\Users\g\AppData\Local\Temp\ccIVY2Cy.s 			page 15


 747:Generated_Source\PSoC4/TX_SEND.c **** 
 748:Generated_Source\PSoC4/TX_SEND.c ****     CyExitCriticalSection(enableInterrupts);
 749:Generated_Source\PSoC4/TX_SEND.c **** }
 750:Generated_Source\PSoC4/TX_SEND.c **** 
 751:Generated_Source\PSoC4/TX_SEND.c **** 
 752:Generated_Source\PSoC4/TX_SEND.c **** /*******************************************************************************
 753:Generated_Source\PSoC4/TX_SEND.c **** * Function Name: TX_SEND_WritePeriodBuf
 754:Generated_Source\PSoC4/TX_SEND.c **** ********************************************************************************
 755:Generated_Source\PSoC4/TX_SEND.c **** *
 756:Generated_Source\PSoC4/TX_SEND.c **** * Summary:
 757:Generated_Source\PSoC4/TX_SEND.c **** *  Writes the 16 bit period buf register with the new period value.
 758:Generated_Source\PSoC4/TX_SEND.c **** *
 759:Generated_Source\PSoC4/TX_SEND.c **** * Parameters:
 760:Generated_Source\PSoC4/TX_SEND.c **** *  periodBuf: Period value
 761:Generated_Source\PSoC4/TX_SEND.c **** *
 762:Generated_Source\PSoC4/TX_SEND.c **** * Return:
 763:Generated_Source\PSoC4/TX_SEND.c **** *  None
 764:Generated_Source\PSoC4/TX_SEND.c **** *
 765:Generated_Source\PSoC4/TX_SEND.c **** *******************************************************************************/
 766:Generated_Source\PSoC4/TX_SEND.c **** void TX_SEND_WritePeriodBuf(uint32 periodBuf)
 767:Generated_Source\PSoC4/TX_SEND.c **** {
 768:Generated_Source\PSoC4/TX_SEND.c ****     TX_SEND_PERIOD_BUF_REG = (periodBuf & TX_SEND_16BIT_MASK);
 769:Generated_Source\PSoC4/TX_SEND.c **** }
 770:Generated_Source\PSoC4/TX_SEND.c **** 
 771:Generated_Source\PSoC4/TX_SEND.c **** 
 772:Generated_Source\PSoC4/TX_SEND.c **** /*******************************************************************************
 773:Generated_Source\PSoC4/TX_SEND.c **** * Function Name: TX_SEND_ReadPeriodBuf
 774:Generated_Source\PSoC4/TX_SEND.c **** ********************************************************************************
 775:Generated_Source\PSoC4/TX_SEND.c **** *
 776:Generated_Source\PSoC4/TX_SEND.c **** * Summary:
 777:Generated_Source\PSoC4/TX_SEND.c **** *  Reads the 16 bit period buf register.
 778:Generated_Source\PSoC4/TX_SEND.c **** *
 779:Generated_Source\PSoC4/TX_SEND.c **** * Parameters:
 780:Generated_Source\PSoC4/TX_SEND.c **** *  None
 781:Generated_Source\PSoC4/TX_SEND.c **** *
 782:Generated_Source\PSoC4/TX_SEND.c **** * Return:
 783:Generated_Source\PSoC4/TX_SEND.c **** *  Period value
 784:Generated_Source\PSoC4/TX_SEND.c **** *
 785:Generated_Source\PSoC4/TX_SEND.c **** *******************************************************************************/
 786:Generated_Source\PSoC4/TX_SEND.c **** uint32 TX_SEND_ReadPeriodBuf(void)
 787:Generated_Source\PSoC4/TX_SEND.c **** {
 788:Generated_Source\PSoC4/TX_SEND.c ****     return (TX_SEND_PERIOD_BUF_REG & TX_SEND_16BIT_MASK);
 789:Generated_Source\PSoC4/TX_SEND.c **** }
 790:Generated_Source\PSoC4/TX_SEND.c **** 
 791:Generated_Source\PSoC4/TX_SEND.c **** 
 792:Generated_Source\PSoC4/TX_SEND.c **** /*******************************************************************************
 793:Generated_Source\PSoC4/TX_SEND.c **** * Function Name: TX_SEND_SetPeriodSwap
 794:Generated_Source\PSoC4/TX_SEND.c **** ********************************************************************************
 795:Generated_Source\PSoC4/TX_SEND.c **** *
 796:Generated_Source\PSoC4/TX_SEND.c **** * Summary:
 797:Generated_Source\PSoC4/TX_SEND.c **** *  Writes the register that controls whether the period registers are
 798:Generated_Source\PSoC4/TX_SEND.c **** *  swapped. When enabled in Timer/Counter mode the swap occurs at a TC event.
 799:Generated_Source\PSoC4/TX_SEND.c **** *  In the PWM mode the swap occurs at the next TC event following a hardware
 800:Generated_Source\PSoC4/TX_SEND.c **** *  switch event.
 801:Generated_Source\PSoC4/TX_SEND.c **** *
 802:Generated_Source\PSoC4/TX_SEND.c **** * Parameters:
 803:Generated_Source\PSoC4/TX_SEND.c **** *  swapEnable
ARM GAS  C:\Users\g\AppData\Local\Temp\ccIVY2Cy.s 			page 16


 804:Generated_Source\PSoC4/TX_SEND.c **** *   Values:
 805:Generated_Source\PSoC4/TX_SEND.c **** *     - 0 - Disable swap
 806:Generated_Source\PSoC4/TX_SEND.c **** *     - 1 - Enable swap
 807:Generated_Source\PSoC4/TX_SEND.c **** *
 808:Generated_Source\PSoC4/TX_SEND.c **** * Return:
 809:Generated_Source\PSoC4/TX_SEND.c **** *  None
 810:Generated_Source\PSoC4/TX_SEND.c **** *
 811:Generated_Source\PSoC4/TX_SEND.c **** *******************************************************************************/
 812:Generated_Source\PSoC4/TX_SEND.c **** void TX_SEND_SetPeriodSwap(uint32 swapEnable)
 813:Generated_Source\PSoC4/TX_SEND.c **** {
 814:Generated_Source\PSoC4/TX_SEND.c ****     uint8 enableInterrupts;
 815:Generated_Source\PSoC4/TX_SEND.c **** 
 816:Generated_Source\PSoC4/TX_SEND.c ****     enableInterrupts = CyEnterCriticalSection();
 817:Generated_Source\PSoC4/TX_SEND.c **** 
 818:Generated_Source\PSoC4/TX_SEND.c ****     TX_SEND_CONTROL_REG &= (uint32)~TX_SEND_RELOAD_PERIOD_MASK;
 819:Generated_Source\PSoC4/TX_SEND.c ****     TX_SEND_CONTROL_REG |= ((uint32)((swapEnable & TX_SEND_1BIT_MASK) <<
 820:Generated_Source\PSoC4/TX_SEND.c ****                                                             TX_SEND_RELOAD_PERIOD_SHIFT));
 821:Generated_Source\PSoC4/TX_SEND.c **** 
 822:Generated_Source\PSoC4/TX_SEND.c ****     CyExitCriticalSection(enableInterrupts);
 823:Generated_Source\PSoC4/TX_SEND.c **** }
 824:Generated_Source\PSoC4/TX_SEND.c **** 
 825:Generated_Source\PSoC4/TX_SEND.c **** 
 826:Generated_Source\PSoC4/TX_SEND.c **** /*******************************************************************************
 827:Generated_Source\PSoC4/TX_SEND.c **** * Function Name: TX_SEND_WriteCompare
 828:Generated_Source\PSoC4/TX_SEND.c **** ********************************************************************************
 829:Generated_Source\PSoC4/TX_SEND.c **** *
 830:Generated_Source\PSoC4/TX_SEND.c **** * Summary:
 831:Generated_Source\PSoC4/TX_SEND.c **** *  Writes the 16 bit compare register with the new compare value. Not
 832:Generated_Source\PSoC4/TX_SEND.c **** *  applicable for Timer/Counter with Capture or in Quadrature Decoder modes.
 833:Generated_Source\PSoC4/TX_SEND.c **** *
 834:Generated_Source\PSoC4/TX_SEND.c **** * Parameters:
 835:Generated_Source\PSoC4/TX_SEND.c **** *  compare: Compare value
 836:Generated_Source\PSoC4/TX_SEND.c **** *
 837:Generated_Source\PSoC4/TX_SEND.c **** * Return:
 838:Generated_Source\PSoC4/TX_SEND.c **** *  None
 839:Generated_Source\PSoC4/TX_SEND.c **** *
 840:Generated_Source\PSoC4/TX_SEND.c **** * Note:
 841:Generated_Source\PSoC4/TX_SEND.c **** *  It is not recommended to use the value equal to "0" or equal to 
 842:Generated_Source\PSoC4/TX_SEND.c **** *  "period value" in Center or Asymmetric align PWM modes on the 
 843:Generated_Source\PSoC4/TX_SEND.c **** *  PSoC 4100/PSoC 4200 devices.
 844:Generated_Source\PSoC4/TX_SEND.c **** *  PSoC 4000 devices write the 16 bit compare register with the decremented 
 845:Generated_Source\PSoC4/TX_SEND.c **** *  compare value in the Up counting mode (except 0x0u), and the incremented 
 846:Generated_Source\PSoC4/TX_SEND.c **** *  compare value in the Down counting mode (except 0xFFFFu).
 847:Generated_Source\PSoC4/TX_SEND.c **** *
 848:Generated_Source\PSoC4/TX_SEND.c **** *******************************************************************************/
 849:Generated_Source\PSoC4/TX_SEND.c **** void TX_SEND_WriteCompare(uint32 compare)
 850:Generated_Source\PSoC4/TX_SEND.c **** {
 851:Generated_Source\PSoC4/TX_SEND.c ****     #if (TX_SEND_CY_TCPWM_4000)
 852:Generated_Source\PSoC4/TX_SEND.c ****         uint32 currentMode;
 853:Generated_Source\PSoC4/TX_SEND.c ****     #endif /* (TX_SEND_CY_TCPWM_4000) */
 854:Generated_Source\PSoC4/TX_SEND.c **** 
 855:Generated_Source\PSoC4/TX_SEND.c ****     #if (TX_SEND_CY_TCPWM_4000)
 856:Generated_Source\PSoC4/TX_SEND.c ****         currentMode = ((TX_SEND_CONTROL_REG & TX_SEND_UPDOWN_MASK) >> TX_SEND_UPDOWN_SHIFT);
 857:Generated_Source\PSoC4/TX_SEND.c **** 
 858:Generated_Source\PSoC4/TX_SEND.c ****         if (((uint32)TX_SEND__COUNT_DOWN == currentMode) && (0xFFFFu != compare))
 859:Generated_Source\PSoC4/TX_SEND.c ****         {
 860:Generated_Source\PSoC4/TX_SEND.c ****             compare++;
ARM GAS  C:\Users\g\AppData\Local\Temp\ccIVY2Cy.s 			page 17


 861:Generated_Source\PSoC4/TX_SEND.c ****         }
 862:Generated_Source\PSoC4/TX_SEND.c ****         else if (((uint32)TX_SEND__COUNT_UP == currentMode) && (0u != compare))
 863:Generated_Source\PSoC4/TX_SEND.c ****         {
 864:Generated_Source\PSoC4/TX_SEND.c ****             compare--;
 865:Generated_Source\PSoC4/TX_SEND.c ****         }
 866:Generated_Source\PSoC4/TX_SEND.c ****         else
 867:Generated_Source\PSoC4/TX_SEND.c ****         {
 868:Generated_Source\PSoC4/TX_SEND.c ****         }
 869:Generated_Source\PSoC4/TX_SEND.c ****         
 870:Generated_Source\PSoC4/TX_SEND.c ****     
 871:Generated_Source\PSoC4/TX_SEND.c ****     #endif /* (TX_SEND_CY_TCPWM_4000) */
 872:Generated_Source\PSoC4/TX_SEND.c ****     
 873:Generated_Source\PSoC4/TX_SEND.c ****     TX_SEND_COMP_CAP_REG = (compare & TX_SEND_16BIT_MASK);
 874:Generated_Source\PSoC4/TX_SEND.c **** }
 875:Generated_Source\PSoC4/TX_SEND.c **** 
 876:Generated_Source\PSoC4/TX_SEND.c **** 
 877:Generated_Source\PSoC4/TX_SEND.c **** /*******************************************************************************
 878:Generated_Source\PSoC4/TX_SEND.c **** * Function Name: TX_SEND_ReadCompare
 879:Generated_Source\PSoC4/TX_SEND.c **** ********************************************************************************
 880:Generated_Source\PSoC4/TX_SEND.c **** *
 881:Generated_Source\PSoC4/TX_SEND.c **** * Summary:
 882:Generated_Source\PSoC4/TX_SEND.c **** *  Reads the compare register. Not applicable for Timer/Counter with Capture
 883:Generated_Source\PSoC4/TX_SEND.c **** *  or in Quadrature Decoder modes.
 884:Generated_Source\PSoC4/TX_SEND.c **** *  PSoC 4000 devices read the incremented compare register value in the 
 885:Generated_Source\PSoC4/TX_SEND.c **** *  Up counting mode (except 0xFFFFu), and the decremented value in the 
 886:Generated_Source\PSoC4/TX_SEND.c **** *  Down counting mode (except 0x0u).
 887:Generated_Source\PSoC4/TX_SEND.c **** *
 888:Generated_Source\PSoC4/TX_SEND.c **** * Parameters:
 889:Generated_Source\PSoC4/TX_SEND.c **** *  None
 890:Generated_Source\PSoC4/TX_SEND.c **** *
 891:Generated_Source\PSoC4/TX_SEND.c **** * Return:
 892:Generated_Source\PSoC4/TX_SEND.c **** *  Compare value
 893:Generated_Source\PSoC4/TX_SEND.c **** *
 894:Generated_Source\PSoC4/TX_SEND.c **** * Note:
 895:Generated_Source\PSoC4/TX_SEND.c **** *  PSoC 4000 devices read the incremented compare register value in the 
 896:Generated_Source\PSoC4/TX_SEND.c **** *  Up counting mode (except 0xFFFFu), and the decremented value in the 
 897:Generated_Source\PSoC4/TX_SEND.c **** *  Down counting mode (except 0x0u).
 898:Generated_Source\PSoC4/TX_SEND.c **** *
 899:Generated_Source\PSoC4/TX_SEND.c **** *******************************************************************************/
 900:Generated_Source\PSoC4/TX_SEND.c **** uint32 TX_SEND_ReadCompare(void)
 901:Generated_Source\PSoC4/TX_SEND.c **** {
 902:Generated_Source\PSoC4/TX_SEND.c ****     #if (TX_SEND_CY_TCPWM_4000)
 903:Generated_Source\PSoC4/TX_SEND.c ****         uint32 currentMode;
 904:Generated_Source\PSoC4/TX_SEND.c ****         uint32 regVal;
 905:Generated_Source\PSoC4/TX_SEND.c ****     #endif /* (TX_SEND_CY_TCPWM_4000) */
 906:Generated_Source\PSoC4/TX_SEND.c **** 
 907:Generated_Source\PSoC4/TX_SEND.c ****     #if (TX_SEND_CY_TCPWM_4000)
 908:Generated_Source\PSoC4/TX_SEND.c ****         currentMode = ((TX_SEND_CONTROL_REG & TX_SEND_UPDOWN_MASK) >> TX_SEND_UPDOWN_SHIFT);
 909:Generated_Source\PSoC4/TX_SEND.c ****         
 910:Generated_Source\PSoC4/TX_SEND.c ****         regVal = TX_SEND_COMP_CAP_REG;
 911:Generated_Source\PSoC4/TX_SEND.c ****         
 912:Generated_Source\PSoC4/TX_SEND.c ****         if (((uint32)TX_SEND__COUNT_DOWN == currentMode) && (0u != regVal))
 913:Generated_Source\PSoC4/TX_SEND.c ****         {
 914:Generated_Source\PSoC4/TX_SEND.c ****             regVal--;
 915:Generated_Source\PSoC4/TX_SEND.c ****         }
 916:Generated_Source\PSoC4/TX_SEND.c ****         else if (((uint32)TX_SEND__COUNT_UP == currentMode) && (0xFFFFu != regVal))
 917:Generated_Source\PSoC4/TX_SEND.c ****         {
ARM GAS  C:\Users\g\AppData\Local\Temp\ccIVY2Cy.s 			page 18


 918:Generated_Source\PSoC4/TX_SEND.c ****             regVal++;
 919:Generated_Source\PSoC4/TX_SEND.c ****         }
 920:Generated_Source\PSoC4/TX_SEND.c ****         else
 921:Generated_Source\PSoC4/TX_SEND.c ****         {
 922:Generated_Source\PSoC4/TX_SEND.c ****         }
 923:Generated_Source\PSoC4/TX_SEND.c **** 
 924:Generated_Source\PSoC4/TX_SEND.c ****         return (regVal & TX_SEND_16BIT_MASK);
 925:Generated_Source\PSoC4/TX_SEND.c ****     #else
 926:Generated_Source\PSoC4/TX_SEND.c ****         return (TX_SEND_COMP_CAP_REG & TX_SEND_16BIT_MASK);
 927:Generated_Source\PSoC4/TX_SEND.c ****     #endif /* (TX_SEND_CY_TCPWM_4000) */
 928:Generated_Source\PSoC4/TX_SEND.c **** }
 929:Generated_Source\PSoC4/TX_SEND.c **** 
 930:Generated_Source\PSoC4/TX_SEND.c **** 
 931:Generated_Source\PSoC4/TX_SEND.c **** /*******************************************************************************
 932:Generated_Source\PSoC4/TX_SEND.c **** * Function Name: TX_SEND_WriteCompareBuf
 933:Generated_Source\PSoC4/TX_SEND.c **** ********************************************************************************
 934:Generated_Source\PSoC4/TX_SEND.c **** *
 935:Generated_Source\PSoC4/TX_SEND.c **** * Summary:
 936:Generated_Source\PSoC4/TX_SEND.c **** *  Writes the 16 bit compare buffer register with the new compare value. Not
 937:Generated_Source\PSoC4/TX_SEND.c **** *  applicable for Timer/Counter with Capture or in Quadrature Decoder modes.
 938:Generated_Source\PSoC4/TX_SEND.c **** *
 939:Generated_Source\PSoC4/TX_SEND.c **** * Parameters:
 940:Generated_Source\PSoC4/TX_SEND.c **** *  compareBuf: Compare value
 941:Generated_Source\PSoC4/TX_SEND.c **** *
 942:Generated_Source\PSoC4/TX_SEND.c **** * Return:
 943:Generated_Source\PSoC4/TX_SEND.c **** *  None
 944:Generated_Source\PSoC4/TX_SEND.c **** *
 945:Generated_Source\PSoC4/TX_SEND.c **** * Note:
 946:Generated_Source\PSoC4/TX_SEND.c **** *  It is not recommended to use the value equal to "0" or equal to 
 947:Generated_Source\PSoC4/TX_SEND.c **** *  "period value" in Center or Asymmetric align PWM modes on the 
 948:Generated_Source\PSoC4/TX_SEND.c **** *  PSoC 4100/PSoC 4200 devices.
 949:Generated_Source\PSoC4/TX_SEND.c **** *  PSoC 4000 devices write the 16 bit compare register with the decremented 
 950:Generated_Source\PSoC4/TX_SEND.c **** *  compare value in the Up counting mode (except 0x0u), and the incremented 
 951:Generated_Source\PSoC4/TX_SEND.c **** *  compare value in the Down counting mode (except 0xFFFFu).
 952:Generated_Source\PSoC4/TX_SEND.c **** *
 953:Generated_Source\PSoC4/TX_SEND.c **** *******************************************************************************/
 954:Generated_Source\PSoC4/TX_SEND.c **** void TX_SEND_WriteCompareBuf(uint32 compareBuf)
 955:Generated_Source\PSoC4/TX_SEND.c **** {
 956:Generated_Source\PSoC4/TX_SEND.c ****     #if (TX_SEND_CY_TCPWM_4000)
 957:Generated_Source\PSoC4/TX_SEND.c ****         uint32 currentMode;
 958:Generated_Source\PSoC4/TX_SEND.c ****     #endif /* (TX_SEND_CY_TCPWM_4000) */
 959:Generated_Source\PSoC4/TX_SEND.c **** 
 960:Generated_Source\PSoC4/TX_SEND.c ****     #if (TX_SEND_CY_TCPWM_4000)
 961:Generated_Source\PSoC4/TX_SEND.c ****         currentMode = ((TX_SEND_CONTROL_REG & TX_SEND_UPDOWN_MASK) >> TX_SEND_UPDOWN_SHIFT);
 962:Generated_Source\PSoC4/TX_SEND.c **** 
 963:Generated_Source\PSoC4/TX_SEND.c ****         if (((uint32)TX_SEND__COUNT_DOWN == currentMode) && (0xFFFFu != compareBuf))
 964:Generated_Source\PSoC4/TX_SEND.c ****         {
 965:Generated_Source\PSoC4/TX_SEND.c ****             compareBuf++;
 966:Generated_Source\PSoC4/TX_SEND.c ****         }
 967:Generated_Source\PSoC4/TX_SEND.c ****         else if (((uint32)TX_SEND__COUNT_UP == currentMode) && (0u != compareBuf))
 968:Generated_Source\PSoC4/TX_SEND.c ****         {
 969:Generated_Source\PSoC4/TX_SEND.c ****             compareBuf --;
 970:Generated_Source\PSoC4/TX_SEND.c ****         }
 971:Generated_Source\PSoC4/TX_SEND.c ****         else
 972:Generated_Source\PSoC4/TX_SEND.c ****         {
 973:Generated_Source\PSoC4/TX_SEND.c ****         }
 974:Generated_Source\PSoC4/TX_SEND.c ****     #endif /* (TX_SEND_CY_TCPWM_4000) */
ARM GAS  C:\Users\g\AppData\Local\Temp\ccIVY2Cy.s 			page 19


 975:Generated_Source\PSoC4/TX_SEND.c ****     
 976:Generated_Source\PSoC4/TX_SEND.c ****     TX_SEND_COMP_CAP_BUF_REG = (compareBuf & TX_SEND_16BIT_MASK);
 977:Generated_Source\PSoC4/TX_SEND.c **** }
 978:Generated_Source\PSoC4/TX_SEND.c **** 
 979:Generated_Source\PSoC4/TX_SEND.c **** 
 980:Generated_Source\PSoC4/TX_SEND.c **** /*******************************************************************************
 981:Generated_Source\PSoC4/TX_SEND.c **** * Function Name: TX_SEND_ReadCompareBuf
 982:Generated_Source\PSoC4/TX_SEND.c **** ********************************************************************************
 983:Generated_Source\PSoC4/TX_SEND.c **** *
 984:Generated_Source\PSoC4/TX_SEND.c **** * Summary:
 985:Generated_Source\PSoC4/TX_SEND.c **** *  Reads the compare buffer register. Not applicable for Timer/Counter with
 986:Generated_Source\PSoC4/TX_SEND.c **** *  Capture or in Quadrature Decoder modes.
 987:Generated_Source\PSoC4/TX_SEND.c **** *
 988:Generated_Source\PSoC4/TX_SEND.c **** * Parameters:
 989:Generated_Source\PSoC4/TX_SEND.c **** *  None
 990:Generated_Source\PSoC4/TX_SEND.c **** *
 991:Generated_Source\PSoC4/TX_SEND.c **** * Return:
 992:Generated_Source\PSoC4/TX_SEND.c **** *  Compare buffer value
 993:Generated_Source\PSoC4/TX_SEND.c **** *
 994:Generated_Source\PSoC4/TX_SEND.c **** * Note:
 995:Generated_Source\PSoC4/TX_SEND.c **** *  PSoC 4000 devices read the incremented compare register value in the 
 996:Generated_Source\PSoC4/TX_SEND.c **** *  Up counting mode (except 0xFFFFu), and the decremented value in the 
 997:Generated_Source\PSoC4/TX_SEND.c **** *  Down counting mode (except 0x0u).
 998:Generated_Source\PSoC4/TX_SEND.c **** *
 999:Generated_Source\PSoC4/TX_SEND.c **** *******************************************************************************/
1000:Generated_Source\PSoC4/TX_SEND.c **** uint32 TX_SEND_ReadCompareBuf(void)
1001:Generated_Source\PSoC4/TX_SEND.c **** {
1002:Generated_Source\PSoC4/TX_SEND.c ****     #if (TX_SEND_CY_TCPWM_4000)
1003:Generated_Source\PSoC4/TX_SEND.c ****         uint32 currentMode;
1004:Generated_Source\PSoC4/TX_SEND.c ****         uint32 regVal;
1005:Generated_Source\PSoC4/TX_SEND.c ****     #endif /* (TX_SEND_CY_TCPWM_4000) */
1006:Generated_Source\PSoC4/TX_SEND.c **** 
1007:Generated_Source\PSoC4/TX_SEND.c ****     #if (TX_SEND_CY_TCPWM_4000)
1008:Generated_Source\PSoC4/TX_SEND.c ****         currentMode = ((TX_SEND_CONTROL_REG & TX_SEND_UPDOWN_MASK) >> TX_SEND_UPDOWN_SHIFT);
1009:Generated_Source\PSoC4/TX_SEND.c **** 
1010:Generated_Source\PSoC4/TX_SEND.c ****         regVal = TX_SEND_COMP_CAP_BUF_REG;
1011:Generated_Source\PSoC4/TX_SEND.c ****         
1012:Generated_Source\PSoC4/TX_SEND.c ****         if (((uint32)TX_SEND__COUNT_DOWN == currentMode) && (0u != regVal))
1013:Generated_Source\PSoC4/TX_SEND.c ****         {
1014:Generated_Source\PSoC4/TX_SEND.c ****             regVal--;
1015:Generated_Source\PSoC4/TX_SEND.c ****         }
1016:Generated_Source\PSoC4/TX_SEND.c ****         else if (((uint32)TX_SEND__COUNT_UP == currentMode) && (0xFFFFu != regVal))
1017:Generated_Source\PSoC4/TX_SEND.c ****         {
1018:Generated_Source\PSoC4/TX_SEND.c ****             regVal++;
1019:Generated_Source\PSoC4/TX_SEND.c ****         }
1020:Generated_Source\PSoC4/TX_SEND.c ****         else
1021:Generated_Source\PSoC4/TX_SEND.c ****         {
1022:Generated_Source\PSoC4/TX_SEND.c ****         }
1023:Generated_Source\PSoC4/TX_SEND.c **** 
1024:Generated_Source\PSoC4/TX_SEND.c ****         return (regVal & TX_SEND_16BIT_MASK);
1025:Generated_Source\PSoC4/TX_SEND.c ****     #else
1026:Generated_Source\PSoC4/TX_SEND.c ****         return (TX_SEND_COMP_CAP_BUF_REG & TX_SEND_16BIT_MASK);
1027:Generated_Source\PSoC4/TX_SEND.c ****     #endif /* (TX_SEND_CY_TCPWM_4000) */
1028:Generated_Source\PSoC4/TX_SEND.c **** }
1029:Generated_Source\PSoC4/TX_SEND.c **** 
1030:Generated_Source\PSoC4/TX_SEND.c **** 
1031:Generated_Source\PSoC4/TX_SEND.c **** /*******************************************************************************
ARM GAS  C:\Users\g\AppData\Local\Temp\ccIVY2Cy.s 			page 20


1032:Generated_Source\PSoC4/TX_SEND.c **** * Function Name: TX_SEND_ReadCapture
1033:Generated_Source\PSoC4/TX_SEND.c **** ********************************************************************************
1034:Generated_Source\PSoC4/TX_SEND.c **** *
1035:Generated_Source\PSoC4/TX_SEND.c **** * Summary:
1036:Generated_Source\PSoC4/TX_SEND.c **** *  Reads the captured counter value. This API is applicable only for
1037:Generated_Source\PSoC4/TX_SEND.c **** *  Timer/Counter with the capture mode and Quadrature Decoder modes.
1038:Generated_Source\PSoC4/TX_SEND.c **** *
1039:Generated_Source\PSoC4/TX_SEND.c **** * Parameters:
1040:Generated_Source\PSoC4/TX_SEND.c **** *  None
1041:Generated_Source\PSoC4/TX_SEND.c **** *
1042:Generated_Source\PSoC4/TX_SEND.c **** * Return:
1043:Generated_Source\PSoC4/TX_SEND.c **** *  Capture value
1044:Generated_Source\PSoC4/TX_SEND.c **** *
1045:Generated_Source\PSoC4/TX_SEND.c **** *******************************************************************************/
1046:Generated_Source\PSoC4/TX_SEND.c **** uint32 TX_SEND_ReadCapture(void)
1047:Generated_Source\PSoC4/TX_SEND.c **** {
1048:Generated_Source\PSoC4/TX_SEND.c ****     return (TX_SEND_COMP_CAP_REG & TX_SEND_16BIT_MASK);
1049:Generated_Source\PSoC4/TX_SEND.c **** }
1050:Generated_Source\PSoC4/TX_SEND.c **** 
1051:Generated_Source\PSoC4/TX_SEND.c **** 
1052:Generated_Source\PSoC4/TX_SEND.c **** /*******************************************************************************
1053:Generated_Source\PSoC4/TX_SEND.c **** * Function Name: TX_SEND_ReadCaptureBuf
1054:Generated_Source\PSoC4/TX_SEND.c **** ********************************************************************************
1055:Generated_Source\PSoC4/TX_SEND.c **** *
1056:Generated_Source\PSoC4/TX_SEND.c **** * Summary:
1057:Generated_Source\PSoC4/TX_SEND.c **** *  Reads the capture buffer register. This API is applicable only for
1058:Generated_Source\PSoC4/TX_SEND.c **** *  Timer/Counter with the capture mode and Quadrature Decoder modes.
1059:Generated_Source\PSoC4/TX_SEND.c **** *
1060:Generated_Source\PSoC4/TX_SEND.c **** * Parameters:
1061:Generated_Source\PSoC4/TX_SEND.c **** *  None
1062:Generated_Source\PSoC4/TX_SEND.c **** *
1063:Generated_Source\PSoC4/TX_SEND.c **** * Return:
1064:Generated_Source\PSoC4/TX_SEND.c **** *  Capture buffer value
1065:Generated_Source\PSoC4/TX_SEND.c **** *
1066:Generated_Source\PSoC4/TX_SEND.c **** *******************************************************************************/
1067:Generated_Source\PSoC4/TX_SEND.c **** uint32 TX_SEND_ReadCaptureBuf(void)
1068:Generated_Source\PSoC4/TX_SEND.c **** {
1069:Generated_Source\PSoC4/TX_SEND.c ****     return (TX_SEND_COMP_CAP_BUF_REG & TX_SEND_16BIT_MASK);
1070:Generated_Source\PSoC4/TX_SEND.c **** }
1071:Generated_Source\PSoC4/TX_SEND.c **** 
1072:Generated_Source\PSoC4/TX_SEND.c **** 
1073:Generated_Source\PSoC4/TX_SEND.c **** /*******************************************************************************
1074:Generated_Source\PSoC4/TX_SEND.c **** * Function Name: TX_SEND_SetCaptureMode
1075:Generated_Source\PSoC4/TX_SEND.c **** ********************************************************************************
1076:Generated_Source\PSoC4/TX_SEND.c **** *
1077:Generated_Source\PSoC4/TX_SEND.c **** * Summary:
1078:Generated_Source\PSoC4/TX_SEND.c **** *  Sets the capture trigger mode. For PWM mode this is the switch input.
1079:Generated_Source\PSoC4/TX_SEND.c **** *  This input is not applicable to the Timer/Counter without Capture and
1080:Generated_Source\PSoC4/TX_SEND.c **** *  Quadrature Decoder modes.
1081:Generated_Source\PSoC4/TX_SEND.c **** *
1082:Generated_Source\PSoC4/TX_SEND.c **** * Parameters:
1083:Generated_Source\PSoC4/TX_SEND.c **** *  triggerMode: Enumerated trigger mode value
1084:Generated_Source\PSoC4/TX_SEND.c **** *   Values:
1085:Generated_Source\PSoC4/TX_SEND.c **** *     - TX_SEND_TRIG_LEVEL     - Level
1086:Generated_Source\PSoC4/TX_SEND.c **** *     - TX_SEND_TRIG_RISING    - Rising edge
1087:Generated_Source\PSoC4/TX_SEND.c **** *     - TX_SEND_TRIG_FALLING   - Falling edge
1088:Generated_Source\PSoC4/TX_SEND.c **** *     - TX_SEND_TRIG_BOTH      - Both rising and falling edge
ARM GAS  C:\Users\g\AppData\Local\Temp\ccIVY2Cy.s 			page 21


1089:Generated_Source\PSoC4/TX_SEND.c **** *
1090:Generated_Source\PSoC4/TX_SEND.c **** * Return:
1091:Generated_Source\PSoC4/TX_SEND.c **** *  None
1092:Generated_Source\PSoC4/TX_SEND.c **** *
1093:Generated_Source\PSoC4/TX_SEND.c **** *******************************************************************************/
1094:Generated_Source\PSoC4/TX_SEND.c **** void TX_SEND_SetCaptureMode(uint32 triggerMode)
1095:Generated_Source\PSoC4/TX_SEND.c **** {
1096:Generated_Source\PSoC4/TX_SEND.c ****     uint8 enableInterrupts;
1097:Generated_Source\PSoC4/TX_SEND.c **** 
1098:Generated_Source\PSoC4/TX_SEND.c ****     enableInterrupts = CyEnterCriticalSection();
1099:Generated_Source\PSoC4/TX_SEND.c **** 
1100:Generated_Source\PSoC4/TX_SEND.c ****     TX_SEND_TRIG_CONTROL1_REG &= (uint32)~TX_SEND_CAPTURE_MASK;
1101:Generated_Source\PSoC4/TX_SEND.c ****     TX_SEND_TRIG_CONTROL1_REG |= triggerMode;
1102:Generated_Source\PSoC4/TX_SEND.c **** 
1103:Generated_Source\PSoC4/TX_SEND.c ****     CyExitCriticalSection(enableInterrupts);
1104:Generated_Source\PSoC4/TX_SEND.c **** }
1105:Generated_Source\PSoC4/TX_SEND.c **** 
1106:Generated_Source\PSoC4/TX_SEND.c **** 
1107:Generated_Source\PSoC4/TX_SEND.c **** /*******************************************************************************
1108:Generated_Source\PSoC4/TX_SEND.c **** * Function Name: TX_SEND_SetReloadMode
1109:Generated_Source\PSoC4/TX_SEND.c **** ********************************************************************************
1110:Generated_Source\PSoC4/TX_SEND.c **** *
1111:Generated_Source\PSoC4/TX_SEND.c **** * Summary:
1112:Generated_Source\PSoC4/TX_SEND.c **** *  Sets the reload trigger mode. For Quadrature Decoder mode this is the index
1113:Generated_Source\PSoC4/TX_SEND.c **** *  input.
1114:Generated_Source\PSoC4/TX_SEND.c **** *
1115:Generated_Source\PSoC4/TX_SEND.c **** * Parameters:
1116:Generated_Source\PSoC4/TX_SEND.c **** *  triggerMode: Enumerated trigger mode value
1117:Generated_Source\PSoC4/TX_SEND.c **** *   Values:
1118:Generated_Source\PSoC4/TX_SEND.c **** *     - TX_SEND_TRIG_LEVEL     - Level
1119:Generated_Source\PSoC4/TX_SEND.c **** *     - TX_SEND_TRIG_RISING    - Rising edge
1120:Generated_Source\PSoC4/TX_SEND.c **** *     - TX_SEND_TRIG_FALLING   - Falling edge
1121:Generated_Source\PSoC4/TX_SEND.c **** *     - TX_SEND_TRIG_BOTH      - Both rising and falling edge
1122:Generated_Source\PSoC4/TX_SEND.c **** *
1123:Generated_Source\PSoC4/TX_SEND.c **** * Return:
1124:Generated_Source\PSoC4/TX_SEND.c **** *  None
1125:Generated_Source\PSoC4/TX_SEND.c **** *
1126:Generated_Source\PSoC4/TX_SEND.c **** *******************************************************************************/
1127:Generated_Source\PSoC4/TX_SEND.c **** void TX_SEND_SetReloadMode(uint32 triggerMode)
1128:Generated_Source\PSoC4/TX_SEND.c **** {
1129:Generated_Source\PSoC4/TX_SEND.c ****     uint8 enableInterrupts;
1130:Generated_Source\PSoC4/TX_SEND.c **** 
1131:Generated_Source\PSoC4/TX_SEND.c ****     enableInterrupts = CyEnterCriticalSection();
1132:Generated_Source\PSoC4/TX_SEND.c **** 
1133:Generated_Source\PSoC4/TX_SEND.c ****     TX_SEND_TRIG_CONTROL1_REG &= (uint32)~TX_SEND_RELOAD_MASK;
1134:Generated_Source\PSoC4/TX_SEND.c ****     TX_SEND_TRIG_CONTROL1_REG |= ((uint32)(triggerMode << TX_SEND_RELOAD_SHIFT));
1135:Generated_Source\PSoC4/TX_SEND.c **** 
1136:Generated_Source\PSoC4/TX_SEND.c ****     CyExitCriticalSection(enableInterrupts);
1137:Generated_Source\PSoC4/TX_SEND.c **** }
1138:Generated_Source\PSoC4/TX_SEND.c **** 
1139:Generated_Source\PSoC4/TX_SEND.c **** 
1140:Generated_Source\PSoC4/TX_SEND.c **** /*******************************************************************************
1141:Generated_Source\PSoC4/TX_SEND.c **** * Function Name: TX_SEND_SetStartMode
1142:Generated_Source\PSoC4/TX_SEND.c **** ********************************************************************************
1143:Generated_Source\PSoC4/TX_SEND.c **** *
1144:Generated_Source\PSoC4/TX_SEND.c **** * Summary:
1145:Generated_Source\PSoC4/TX_SEND.c **** *  Sets the start trigger mode. For Quadrature Decoder mode this is the
ARM GAS  C:\Users\g\AppData\Local\Temp\ccIVY2Cy.s 			page 22


1146:Generated_Source\PSoC4/TX_SEND.c **** *  phiB input.
1147:Generated_Source\PSoC4/TX_SEND.c **** *
1148:Generated_Source\PSoC4/TX_SEND.c **** * Parameters:
1149:Generated_Source\PSoC4/TX_SEND.c **** *  triggerMode: Enumerated trigger mode value
1150:Generated_Source\PSoC4/TX_SEND.c **** *   Values:
1151:Generated_Source\PSoC4/TX_SEND.c **** *     - TX_SEND_TRIG_LEVEL     - Level
1152:Generated_Source\PSoC4/TX_SEND.c **** *     - TX_SEND_TRIG_RISING    - Rising edge
1153:Generated_Source\PSoC4/TX_SEND.c **** *     - TX_SEND_TRIG_FALLING   - Falling edge
1154:Generated_Source\PSoC4/TX_SEND.c **** *     - TX_SEND_TRIG_BOTH      - Both rising and falling edge
1155:Generated_Source\PSoC4/TX_SEND.c **** *
1156:Generated_Source\PSoC4/TX_SEND.c **** * Return:
1157:Generated_Source\PSoC4/TX_SEND.c **** *  None
1158:Generated_Source\PSoC4/TX_SEND.c **** *
1159:Generated_Source\PSoC4/TX_SEND.c **** *******************************************************************************/
1160:Generated_Source\PSoC4/TX_SEND.c **** void TX_SEND_SetStartMode(uint32 triggerMode)
1161:Generated_Source\PSoC4/TX_SEND.c **** {
1162:Generated_Source\PSoC4/TX_SEND.c ****     uint8 enableInterrupts;
1163:Generated_Source\PSoC4/TX_SEND.c **** 
1164:Generated_Source\PSoC4/TX_SEND.c ****     enableInterrupts = CyEnterCriticalSection();
1165:Generated_Source\PSoC4/TX_SEND.c **** 
1166:Generated_Source\PSoC4/TX_SEND.c ****     TX_SEND_TRIG_CONTROL1_REG &= (uint32)~TX_SEND_START_MASK;
1167:Generated_Source\PSoC4/TX_SEND.c ****     TX_SEND_TRIG_CONTROL1_REG |= ((uint32)(triggerMode << TX_SEND_START_SHIFT));
1168:Generated_Source\PSoC4/TX_SEND.c **** 
1169:Generated_Source\PSoC4/TX_SEND.c ****     CyExitCriticalSection(enableInterrupts);
1170:Generated_Source\PSoC4/TX_SEND.c **** }
1171:Generated_Source\PSoC4/TX_SEND.c **** 
1172:Generated_Source\PSoC4/TX_SEND.c **** 
1173:Generated_Source\PSoC4/TX_SEND.c **** /*******************************************************************************
1174:Generated_Source\PSoC4/TX_SEND.c **** * Function Name: TX_SEND_SetStopMode
1175:Generated_Source\PSoC4/TX_SEND.c **** ********************************************************************************
1176:Generated_Source\PSoC4/TX_SEND.c **** *
1177:Generated_Source\PSoC4/TX_SEND.c **** * Summary:
1178:Generated_Source\PSoC4/TX_SEND.c **** *  Sets the stop trigger mode. For PWM mode this is the kill input.
1179:Generated_Source\PSoC4/TX_SEND.c **** *
1180:Generated_Source\PSoC4/TX_SEND.c **** * Parameters:
1181:Generated_Source\PSoC4/TX_SEND.c **** *  triggerMode: Enumerated trigger mode value
1182:Generated_Source\PSoC4/TX_SEND.c **** *   Values:
1183:Generated_Source\PSoC4/TX_SEND.c **** *     - TX_SEND_TRIG_LEVEL     - Level
1184:Generated_Source\PSoC4/TX_SEND.c **** *     - TX_SEND_TRIG_RISING    - Rising edge
1185:Generated_Source\PSoC4/TX_SEND.c **** *     - TX_SEND_TRIG_FALLING   - Falling edge
1186:Generated_Source\PSoC4/TX_SEND.c **** *     - TX_SEND_TRIG_BOTH      - Both rising and falling edge
1187:Generated_Source\PSoC4/TX_SEND.c **** *
1188:Generated_Source\PSoC4/TX_SEND.c **** * Return:
1189:Generated_Source\PSoC4/TX_SEND.c **** *  None
1190:Generated_Source\PSoC4/TX_SEND.c **** *
1191:Generated_Source\PSoC4/TX_SEND.c **** *******************************************************************************/
1192:Generated_Source\PSoC4/TX_SEND.c **** void TX_SEND_SetStopMode(uint32 triggerMode)
1193:Generated_Source\PSoC4/TX_SEND.c **** {
1194:Generated_Source\PSoC4/TX_SEND.c ****     uint8 enableInterrupts;
1195:Generated_Source\PSoC4/TX_SEND.c **** 
1196:Generated_Source\PSoC4/TX_SEND.c ****     enableInterrupts = CyEnterCriticalSection();
1197:Generated_Source\PSoC4/TX_SEND.c **** 
1198:Generated_Source\PSoC4/TX_SEND.c ****     TX_SEND_TRIG_CONTROL1_REG &= (uint32)~TX_SEND_STOP_MASK;
1199:Generated_Source\PSoC4/TX_SEND.c ****     TX_SEND_TRIG_CONTROL1_REG |= ((uint32)(triggerMode << TX_SEND_STOP_SHIFT));
1200:Generated_Source\PSoC4/TX_SEND.c **** 
1201:Generated_Source\PSoC4/TX_SEND.c ****     CyExitCriticalSection(enableInterrupts);
1202:Generated_Source\PSoC4/TX_SEND.c **** }
ARM GAS  C:\Users\g\AppData\Local\Temp\ccIVY2Cy.s 			page 23


1203:Generated_Source\PSoC4/TX_SEND.c **** 
1204:Generated_Source\PSoC4/TX_SEND.c **** 
1205:Generated_Source\PSoC4/TX_SEND.c **** /*******************************************************************************
1206:Generated_Source\PSoC4/TX_SEND.c **** * Function Name: TX_SEND_SetCountMode
1207:Generated_Source\PSoC4/TX_SEND.c **** ********************************************************************************
1208:Generated_Source\PSoC4/TX_SEND.c **** *
1209:Generated_Source\PSoC4/TX_SEND.c **** * Summary:
1210:Generated_Source\PSoC4/TX_SEND.c **** *  Sets the count trigger mode. For Quadrature Decoder mode this is the phiA
1211:Generated_Source\PSoC4/TX_SEND.c **** *  input.
1212:Generated_Source\PSoC4/TX_SEND.c **** *
1213:Generated_Source\PSoC4/TX_SEND.c **** * Parameters:
1214:Generated_Source\PSoC4/TX_SEND.c **** *  triggerMode: Enumerated trigger mode value
1215:Generated_Source\PSoC4/TX_SEND.c **** *   Values:
1216:Generated_Source\PSoC4/TX_SEND.c **** *     - TX_SEND_TRIG_LEVEL     - Level
1217:Generated_Source\PSoC4/TX_SEND.c **** *     - TX_SEND_TRIG_RISING    - Rising edge
1218:Generated_Source\PSoC4/TX_SEND.c **** *     - TX_SEND_TRIG_FALLING   - Falling edge
1219:Generated_Source\PSoC4/TX_SEND.c **** *     - TX_SEND_TRIG_BOTH      - Both rising and falling edge
1220:Generated_Source\PSoC4/TX_SEND.c **** *
1221:Generated_Source\PSoC4/TX_SEND.c **** * Return:
1222:Generated_Source\PSoC4/TX_SEND.c **** *  None
1223:Generated_Source\PSoC4/TX_SEND.c **** *
1224:Generated_Source\PSoC4/TX_SEND.c **** *******************************************************************************/
1225:Generated_Source\PSoC4/TX_SEND.c **** void TX_SEND_SetCountMode(uint32 triggerMode)
1226:Generated_Source\PSoC4/TX_SEND.c **** {
1227:Generated_Source\PSoC4/TX_SEND.c ****     uint8 enableInterrupts;
1228:Generated_Source\PSoC4/TX_SEND.c **** 
1229:Generated_Source\PSoC4/TX_SEND.c ****     enableInterrupts = CyEnterCriticalSection();
1230:Generated_Source\PSoC4/TX_SEND.c **** 
1231:Generated_Source\PSoC4/TX_SEND.c ****     TX_SEND_TRIG_CONTROL1_REG &= (uint32)~TX_SEND_COUNT_MASK;
1232:Generated_Source\PSoC4/TX_SEND.c ****     TX_SEND_TRIG_CONTROL1_REG |= ((uint32)(triggerMode << TX_SEND_COUNT_SHIFT));
1233:Generated_Source\PSoC4/TX_SEND.c **** 
1234:Generated_Source\PSoC4/TX_SEND.c ****     CyExitCriticalSection(enableInterrupts);
1235:Generated_Source\PSoC4/TX_SEND.c **** }
1236:Generated_Source\PSoC4/TX_SEND.c **** 
1237:Generated_Source\PSoC4/TX_SEND.c **** 
1238:Generated_Source\PSoC4/TX_SEND.c **** /*******************************************************************************
1239:Generated_Source\PSoC4/TX_SEND.c **** * Function Name: TX_SEND_TriggerCommand
1240:Generated_Source\PSoC4/TX_SEND.c **** ********************************************************************************
1241:Generated_Source\PSoC4/TX_SEND.c **** *
1242:Generated_Source\PSoC4/TX_SEND.c **** * Summary:
1243:Generated_Source\PSoC4/TX_SEND.c **** *  Triggers the designated command to occur on the designated TCPWM instances.
1244:Generated_Source\PSoC4/TX_SEND.c **** *  The mask can be used to apply this command simultaneously to more than one
1245:Generated_Source\PSoC4/TX_SEND.c **** *  instance.  This allows multiple TCPWM instances to be synchronized.
1246:Generated_Source\PSoC4/TX_SEND.c **** *
1247:Generated_Source\PSoC4/TX_SEND.c **** * Parameters:
1248:Generated_Source\PSoC4/TX_SEND.c **** *  mask: A combination of mask bits for each instance of the TCPWM that the
1249:Generated_Source\PSoC4/TX_SEND.c **** *        command should apply to.  This function from one instance can be used
1250:Generated_Source\PSoC4/TX_SEND.c **** *        to apply the command to any of the instances in the design.
1251:Generated_Source\PSoC4/TX_SEND.c **** *        The mask value for a specific instance is available with the MASK
1252:Generated_Source\PSoC4/TX_SEND.c **** *        define.
1253:Generated_Source\PSoC4/TX_SEND.c **** *  command: Enumerated command values. Capture command only applicable for
1254:Generated_Source\PSoC4/TX_SEND.c **** *           Timer/Counter with Capture and PWM modes.
1255:Generated_Source\PSoC4/TX_SEND.c **** *   Values:
1256:Generated_Source\PSoC4/TX_SEND.c **** *     - TX_SEND_CMD_CAPTURE    - Trigger Capture/Switch command
1257:Generated_Source\PSoC4/TX_SEND.c **** *     - TX_SEND_CMD_RELOAD     - Trigger Reload/Index command
1258:Generated_Source\PSoC4/TX_SEND.c **** *     - TX_SEND_CMD_STOP       - Trigger Stop/Kill command
1259:Generated_Source\PSoC4/TX_SEND.c **** *     - TX_SEND_CMD_START      - Trigger Start/phiB command
ARM GAS  C:\Users\g\AppData\Local\Temp\ccIVY2Cy.s 			page 24


1260:Generated_Source\PSoC4/TX_SEND.c **** *
1261:Generated_Source\PSoC4/TX_SEND.c **** * Return:
1262:Generated_Source\PSoC4/TX_SEND.c **** *  None
1263:Generated_Source\PSoC4/TX_SEND.c **** *
1264:Generated_Source\PSoC4/TX_SEND.c **** *******************************************************************************/
1265:Generated_Source\PSoC4/TX_SEND.c **** void TX_SEND_TriggerCommand(uint32 mask, uint32 command)
1266:Generated_Source\PSoC4/TX_SEND.c **** {
1267:Generated_Source\PSoC4/TX_SEND.c ****     uint8 enableInterrupts;
1268:Generated_Source\PSoC4/TX_SEND.c **** 
1269:Generated_Source\PSoC4/TX_SEND.c ****     enableInterrupts = CyEnterCriticalSection();
1270:Generated_Source\PSoC4/TX_SEND.c **** 
1271:Generated_Source\PSoC4/TX_SEND.c ****     TX_SEND_COMMAND_REG = ((uint32)(mask << command));
1272:Generated_Source\PSoC4/TX_SEND.c **** 
1273:Generated_Source\PSoC4/TX_SEND.c ****     CyExitCriticalSection(enableInterrupts);
1274:Generated_Source\PSoC4/TX_SEND.c **** }
1275:Generated_Source\PSoC4/TX_SEND.c **** 
1276:Generated_Source\PSoC4/TX_SEND.c **** 
1277:Generated_Source\PSoC4/TX_SEND.c **** /*******************************************************************************
1278:Generated_Source\PSoC4/TX_SEND.c **** * Function Name: TX_SEND_ReadStatus
1279:Generated_Source\PSoC4/TX_SEND.c **** ********************************************************************************
1280:Generated_Source\PSoC4/TX_SEND.c **** *
1281:Generated_Source\PSoC4/TX_SEND.c **** * Summary:
1282:Generated_Source\PSoC4/TX_SEND.c **** *  Reads the status of the TX_SEND.
1283:Generated_Source\PSoC4/TX_SEND.c **** *
1284:Generated_Source\PSoC4/TX_SEND.c **** * Parameters:
1285:Generated_Source\PSoC4/TX_SEND.c **** *  None
1286:Generated_Source\PSoC4/TX_SEND.c **** *
1287:Generated_Source\PSoC4/TX_SEND.c **** * Return:
1288:Generated_Source\PSoC4/TX_SEND.c **** *  Status
1289:Generated_Source\PSoC4/TX_SEND.c **** *   Values:
1290:Generated_Source\PSoC4/TX_SEND.c **** *     - TX_SEND_STATUS_DOWN    - Set if counting down
1291:Generated_Source\PSoC4/TX_SEND.c **** *     - TX_SEND_STATUS_RUNNING - Set if counter is running
1292:Generated_Source\PSoC4/TX_SEND.c **** *
1293:Generated_Source\PSoC4/TX_SEND.c **** *******************************************************************************/
1294:Generated_Source\PSoC4/TX_SEND.c **** uint32 TX_SEND_ReadStatus(void)
1295:Generated_Source\PSoC4/TX_SEND.c **** {
1296:Generated_Source\PSoC4/TX_SEND.c ****     return ((TX_SEND_STATUS_REG >> TX_SEND_RUNNING_STATUS_SHIFT) |
1297:Generated_Source\PSoC4/TX_SEND.c ****             (TX_SEND_STATUS_REG & TX_SEND_STATUS_DOWN));
1298:Generated_Source\PSoC4/TX_SEND.c **** }
1299:Generated_Source\PSoC4/TX_SEND.c **** 
1300:Generated_Source\PSoC4/TX_SEND.c **** 
1301:Generated_Source\PSoC4/TX_SEND.c **** /*******************************************************************************
1302:Generated_Source\PSoC4/TX_SEND.c **** * Function Name: TX_SEND_SetInterruptMode
1303:Generated_Source\PSoC4/TX_SEND.c **** ********************************************************************************
1304:Generated_Source\PSoC4/TX_SEND.c **** *
1305:Generated_Source\PSoC4/TX_SEND.c **** * Summary:
1306:Generated_Source\PSoC4/TX_SEND.c **** *  Sets the interrupt mask to control which interrupt
1307:Generated_Source\PSoC4/TX_SEND.c **** *  requests generate the interrupt signal.
1308:Generated_Source\PSoC4/TX_SEND.c **** *
1309:Generated_Source\PSoC4/TX_SEND.c **** * Parameters:
1310:Generated_Source\PSoC4/TX_SEND.c **** *   interruptMask: Mask of bits to be enabled
1311:Generated_Source\PSoC4/TX_SEND.c **** *   Values:
1312:Generated_Source\PSoC4/TX_SEND.c **** *     - TX_SEND_INTR_MASK_TC       - Terminal count mask
1313:Generated_Source\PSoC4/TX_SEND.c **** *     - TX_SEND_INTR_MASK_CC_MATCH - Compare count / capture mask
1314:Generated_Source\PSoC4/TX_SEND.c **** *
1315:Generated_Source\PSoC4/TX_SEND.c **** * Return:
1316:Generated_Source\PSoC4/TX_SEND.c **** *  None
ARM GAS  C:\Users\g\AppData\Local\Temp\ccIVY2Cy.s 			page 25


1317:Generated_Source\PSoC4/TX_SEND.c **** *
1318:Generated_Source\PSoC4/TX_SEND.c **** *******************************************************************************/
1319:Generated_Source\PSoC4/TX_SEND.c **** void TX_SEND_SetInterruptMode(uint32 interruptMask)
1320:Generated_Source\PSoC4/TX_SEND.c **** {
1321:Generated_Source\PSoC4/TX_SEND.c ****     TX_SEND_INTERRUPT_MASK_REG =  interruptMask;
  49              		.loc 1 1321 0
  50 000e 0023     		mov	r3, #0
  51 0010 074A     		ldr	r2, .L2+16
  52 0012 1360     		str	r3, [r2]
  53              	.LVL1:
  54              	.LBE22:
  55              	.LBE21:
  56              	.LBB23:
  57              	.LBB20:
 695:Generated_Source\PSoC4/TX_SEND.c **** }
  58              		.loc 1 695 0
  59 0014 074A     		ldr	r2, .L2+20
  60 0016 1160     		str	r1, [r2]
  61              	.LVL2:
  62              	.LBE20:
  63              	.LBE23:
  64              	.LBB24:
  65              	.LBB25:
 617:Generated_Source\PSoC4/TX_SEND.c **** }
  66              		.loc 1 617 0
  67 0018 074A     		ldr	r2, .L2+24
  68 001a 1360     		str	r3, [r2]
  69              	.LBE25:
  70              	.LBE24:
 160:Generated_Source\PSoC4/TX_SEND.c **** 
  71              		.loc 1 160 0
  72 001c 7047     		bx	lr
  73              	.L3:
  74 001e C046     		.align	2
  75              	.L2:
  76 0020 00060002 		.word	33555968
  77 0024 40010540 		.word	1074069824
  78 0028 53070000 		.word	1875
  79 002c 64010540 		.word	1074069860
  80 0030 78010540 		.word	1074069880
  81 0034 54010540 		.word	1074069844
  82 0038 48010540 		.word	1074069832
  83              		.cfi_endproc
  84              	.LFE0:
  85              		.size	TX_SEND_Init, .-TX_SEND_Init
  86              		.section	.text.TX_SEND_Enable,"ax",%progbits
  87              		.align	2
  88              		.global	TX_SEND_Enable
  89              		.code	16
  90              		.thumb_func
  91              		.type	TX_SEND_Enable, %function
  92              	TX_SEND_Enable:
  93              	.LFB1:
 178:Generated_Source\PSoC4/TX_SEND.c ****     uint8 enableInterrupts;
  94              		.loc 1 178 0
  95              		.cfi_startproc
  96 0000 08B5     		push	{r3, lr}
ARM GAS  C:\Users\g\AppData\Local\Temp\ccIVY2Cy.s 			page 26


  97              		.cfi_def_cfa_offset 8
  98              		.cfi_offset 3, -8
  99              		.cfi_offset 14, -4
 181:Generated_Source\PSoC4/TX_SEND.c ****     TX_SEND_BLOCK_CONTROL_REG |= TX_SEND_MASK;
 100              		.loc 1 181 0
 101 0002 FFF7FEFF 		bl	CyEnterCriticalSection
 102              	.LVL3:
 182:Generated_Source\PSoC4/TX_SEND.c ****     CyExitCriticalSection(enableInterrupts);
 103              		.loc 1 182 0
 104 0006 0223     		mov	r3, #2
 105 0008 074A     		ldr	r2, .L5
 203:Generated_Source\PSoC4/TX_SEND.c **** 
 106              		.loc 1 203 0
 107              		@ sp needed
 182:Generated_Source\PSoC4/TX_SEND.c ****     CyExitCriticalSection(enableInterrupts);
 108              		.loc 1 182 0
 109 000a 1168     		ldr	r1, [r2]
 110 000c 0B43     		orr	r3, r1
 111 000e 1360     		str	r3, [r2]
 183:Generated_Source\PSoC4/TX_SEND.c **** 
 112              		.loc 1 183 0
 113 0010 FFF7FEFF 		bl	CyExitCriticalSection
 114              	.LVL4:
 115              	.LBB26:
 116              	.LBB27:
1269:Generated_Source\PSoC4/TX_SEND.c **** 
 117              		.loc 1 1269 0
 118 0014 FFF7FEFF 		bl	CyEnterCriticalSection
 119              	.LVL5:
1271:Generated_Source\PSoC4/TX_SEND.c **** 
 120              		.loc 1 1271 0
 121 0018 8022     		mov	r2, #128
 122 001a 044B     		ldr	r3, .L5+4
 123 001c 9204     		lsl	r2, r2, #18
 124 001e 1A60     		str	r2, [r3]
1273:Generated_Source\PSoC4/TX_SEND.c **** }
 125              		.loc 1 1273 0
 126 0020 FFF7FEFF 		bl	CyExitCriticalSection
 127              	.LVL6:
 128              	.LBE27:
 129              	.LBE26:
 203:Generated_Source\PSoC4/TX_SEND.c **** 
 130              		.loc 1 203 0
 131 0024 08BD     		pop	{r3, pc}
 132              	.L6:
 133 0026 C046     		.align	2
 134              	.L5:
 135 0028 00000540 		.word	1074069504
 136 002c 08000540 		.word	1074069512
 137              		.cfi_endproc
 138              	.LFE1:
 139              		.size	TX_SEND_Enable, .-TX_SEND_Enable
 140              		.section	.text.TX_SEND_Start,"ax",%progbits
 141              		.align	2
 142              		.global	TX_SEND_Start
 143              		.code	16
 144              		.thumb_func
ARM GAS  C:\Users\g\AppData\Local\Temp\ccIVY2Cy.s 			page 27


 145              		.type	TX_SEND_Start, %function
 146              	TX_SEND_Start:
 147              	.LFB2:
 231:Generated_Source\PSoC4/TX_SEND.c ****     if (0u == TX_SEND_initVar)
 148              		.loc 1 231 0
 149              		.cfi_startproc
 150 0000 08B5     		push	{r3, lr}
 151              		.cfi_def_cfa_offset 8
 152              		.cfi_offset 3, -8
 153              		.cfi_offset 14, -4
 232:Generated_Source\PSoC4/TX_SEND.c ****     {
 154              		.loc 1 232 0
 155 0002 0B4A     		ldr	r2, .L10
 156 0004 1378     		ldrb	r3, [r2]
 157 0006 002B     		cmp	r3, #0
 158 0008 0ED1     		bne	.L8
 159              	.LBB28:
 160              	.LBB29:
  58:Generated_Source\PSoC4/TX_SEND.c ****         
 161              		.loc 1 58 0
 162 000a 0A48     		ldr	r0, .L10+4
 163 000c 0A49     		ldr	r1, .L10+8
 164 000e 0860     		str	r0, [r1]
  61:Generated_Source\PSoC4/TX_SEND.c ****     
 165              		.loc 1 61 0
 166 0010 0C20     		mov	r0, #12
 167 0012 0A49     		ldr	r1, .L10+12
 168 0014 0860     		str	r0, [r1]
 169              	.LVL7:
 170              	.LBB30:
 171              	.LBB31:
 172              		.loc 1 1321 0
 173 0016 0A49     		ldr	r1, .L10+16
 174              	.LBE31:
 175              	.LBE30:
 176              	.LBB33:
 177              	.LBB34:
 695:Generated_Source\PSoC4/TX_SEND.c **** }
 178              		.loc 1 695 0
 179 0018 0A48     		ldr	r0, .L10+20
 180              	.LBE34:
 181              	.LBE33:
 182              	.LBB36:
 183              	.LBB32:
 184              		.loc 1 1321 0
 185 001a 0B60     		str	r3, [r1]
 186              	.LVL8:
 187              	.LBE32:
 188              	.LBE36:
 189              	.LBB37:
 190              	.LBB35:
 695:Generated_Source\PSoC4/TX_SEND.c **** }
 191              		.loc 1 695 0
 192 001c 0A49     		ldr	r1, .L10+24
 193 001e 0860     		str	r0, [r1]
 194              	.LVL9:
 195              	.LBE35:
ARM GAS  C:\Users\g\AppData\Local\Temp\ccIVY2Cy.s 			page 28


 196              	.LBE37:
 197              	.LBB38:
 198              	.LBB39:
 617:Generated_Source\PSoC4/TX_SEND.c **** }
 199              		.loc 1 617 0
 200 0020 0A49     		ldr	r1, .L10+28
 201 0022 0B60     		str	r3, [r1]
 202              	.LBE39:
 203              	.LBE38:
 204              	.LBE29:
 205              	.LBE28:
 235:Generated_Source\PSoC4/TX_SEND.c ****     }
 206              		.loc 1 235 0
 207 0024 0133     		add	r3, r3, #1
 208 0026 1370     		strb	r3, [r2]
 209              	.LVL10:
 210              	.L8:
 238:Generated_Source\PSoC4/TX_SEND.c **** }
 211              		.loc 1 238 0
 212 0028 FFF7FEFF 		bl	TX_SEND_Enable
 213              	.LVL11:
 239:Generated_Source\PSoC4/TX_SEND.c **** 
 214              		.loc 1 239 0
 215              		@ sp needed
 216 002c 08BD     		pop	{r3, pc}
 217              	.L11:
 218 002e C046     		.align	2
 219              	.L10:
 220 0030 00000000 		.word	.LANCHOR0
 221 0034 00060002 		.word	33555968
 222 0038 40010540 		.word	1074069824
 223 003c 64010540 		.word	1074069860
 224 0040 78010540 		.word	1074069880
 225 0044 53070000 		.word	1875
 226 0048 54010540 		.word	1074069844
 227 004c 48010540 		.word	1074069832
 228              		.cfi_endproc
 229              	.LFE2:
 230              		.size	TX_SEND_Start, .-TX_SEND_Start
 231              		.section	.text.TX_SEND_Stop,"ax",%progbits
 232              		.align	2
 233              		.global	TX_SEND_Stop
 234              		.code	16
 235              		.thumb_func
 236              		.type	TX_SEND_Stop, %function
 237              	TX_SEND_Stop:
 238              	.LFB3:
 257:Generated_Source\PSoC4/TX_SEND.c ****     uint8 enableInterrupts;
 239              		.loc 1 257 0
 240              		.cfi_startproc
 241 0000 08B5     		push	{r3, lr}
 242              		.cfi_def_cfa_offset 8
 243              		.cfi_offset 3, -8
 244              		.cfi_offset 14, -4
 260:Generated_Source\PSoC4/TX_SEND.c **** 
 245              		.loc 1 260 0
 246 0002 FFF7FEFF 		bl	CyEnterCriticalSection
ARM GAS  C:\Users\g\AppData\Local\Temp\ccIVY2Cy.s 			page 29


 247              	.LVL12:
 262:Generated_Source\PSoC4/TX_SEND.c **** 
 248              		.loc 1 262 0
 249 0006 0221     		mov	r1, #2
 250 0008 034A     		ldr	r2, .L13
 265:Generated_Source\PSoC4/TX_SEND.c **** 
 251              		.loc 1 265 0
 252              		@ sp needed
 262:Generated_Source\PSoC4/TX_SEND.c **** 
 253              		.loc 1 262 0
 254 000a 1368     		ldr	r3, [r2]
 255 000c 8B43     		bic	r3, r1
 256 000e 1360     		str	r3, [r2]
 264:Generated_Source\PSoC4/TX_SEND.c **** }
 257              		.loc 1 264 0
 258 0010 FFF7FEFF 		bl	CyExitCriticalSection
 259              	.LVL13:
 265:Generated_Source\PSoC4/TX_SEND.c **** 
 260              		.loc 1 265 0
 261 0014 08BD     		pop	{r3, pc}
 262              	.L14:
 263 0016 C046     		.align	2
 264              	.L13:
 265 0018 00000540 		.word	1074069504
 266              		.cfi_endproc
 267              	.LFE3:
 268              		.size	TX_SEND_Stop, .-TX_SEND_Stop
 269              		.section	.text.TX_SEND_SetMode,"ax",%progbits
 270              		.align	2
 271              		.global	TX_SEND_SetMode
 272              		.code	16
 273              		.thumb_func
 274              		.type	TX_SEND_SetMode, %function
 275              	TX_SEND_SetMode:
 276              	.LFB4:
 294:Generated_Source\PSoC4/TX_SEND.c ****     uint8 enableInterrupts;
 277              		.loc 1 294 0
 278              		.cfi_startproc
 279              	.LVL14:
 280 0000 10B5     		push	{r4, lr}
 281              		.cfi_def_cfa_offset 8
 282              		.cfi_offset 4, -8
 283              		.cfi_offset 14, -4
 294:Generated_Source\PSoC4/TX_SEND.c ****     uint8 enableInterrupts;
 284              		.loc 1 294 0
 285 0002 041C     		mov	r4, r0
 297:Generated_Source\PSoC4/TX_SEND.c **** 
 286              		.loc 1 297 0
 287 0004 FFF7FEFF 		bl	CyEnterCriticalSection
 288              	.LVL15:
 299:Generated_Source\PSoC4/TX_SEND.c ****     TX_SEND_CONTROL_REG |= mode;
 289              		.loc 1 299 0
 290 0008 054B     		ldr	r3, .L16
 291 000a 064A     		ldr	r2, .L16+4
 292 000c 1968     		ldr	r1, [r3]
 303:Generated_Source\PSoC4/TX_SEND.c **** 
 293              		.loc 1 303 0
ARM GAS  C:\Users\g\AppData\Local\Temp\ccIVY2Cy.s 			page 30


 294              		@ sp needed
 299:Generated_Source\PSoC4/TX_SEND.c ****     TX_SEND_CONTROL_REG |= mode;
 295              		.loc 1 299 0
 296 000e 0A40     		and	r2, r1
 297 0010 1A60     		str	r2, [r3]
 300:Generated_Source\PSoC4/TX_SEND.c **** 
 298              		.loc 1 300 0
 299 0012 1A68     		ldr	r2, [r3]
 300 0014 2243     		orr	r2, r4
 301 0016 1A60     		str	r2, [r3]
 302:Generated_Source\PSoC4/TX_SEND.c **** }
 302              		.loc 1 302 0
 303 0018 FFF7FEFF 		bl	CyExitCriticalSection
 304              	.LVL16:
 305              	.LVL17:
 303:Generated_Source\PSoC4/TX_SEND.c **** 
 306              		.loc 1 303 0
 307 001c 10BD     		pop	{r4, pc}
 308              	.L17:
 309 001e C046     		.align	2
 310              	.L16:
 311 0020 40010540 		.word	1074069824
 312 0024 FFFFFFF8 		.word	-117440513
 313              		.cfi_endproc
 314              	.LFE4:
 315              		.size	TX_SEND_SetMode, .-TX_SEND_SetMode
 316              		.section	.text.TX_SEND_SetQDMode,"ax",%progbits
 317              		.align	2
 318              		.global	TX_SEND_SetQDMode
 319              		.code	16
 320              		.thumb_func
 321              		.type	TX_SEND_SetQDMode, %function
 322              	TX_SEND_SetQDMode:
 323              	.LFB5:
 327:Generated_Source\PSoC4/TX_SEND.c ****     uint8 enableInterrupts;
 324              		.loc 1 327 0
 325              		.cfi_startproc
 326              	.LVL18:
 327 0000 10B5     		push	{r4, lr}
 328              		.cfi_def_cfa_offset 8
 329              		.cfi_offset 4, -8
 330              		.cfi_offset 14, -4
 327:Generated_Source\PSoC4/TX_SEND.c ****     uint8 enableInterrupts;
 331              		.loc 1 327 0
 332 0002 041C     		mov	r4, r0
 330:Generated_Source\PSoC4/TX_SEND.c **** 
 333              		.loc 1 330 0
 334 0004 FFF7FEFF 		bl	CyEnterCriticalSection
 335              	.LVL19:
 332:Generated_Source\PSoC4/TX_SEND.c ****     TX_SEND_CONTROL_REG |= qdMode;
 336              		.loc 1 332 0
 337 0008 054B     		ldr	r3, .L19
 338 000a 064A     		ldr	r2, .L19+4
 339 000c 1968     		ldr	r1, [r3]
 336:Generated_Source\PSoC4/TX_SEND.c **** 
 340              		.loc 1 336 0
 341              		@ sp needed
ARM GAS  C:\Users\g\AppData\Local\Temp\ccIVY2Cy.s 			page 31


 332:Generated_Source\PSoC4/TX_SEND.c ****     TX_SEND_CONTROL_REG |= qdMode;
 342              		.loc 1 332 0
 343 000e 0A40     		and	r2, r1
 344 0010 1A60     		str	r2, [r3]
 333:Generated_Source\PSoC4/TX_SEND.c **** 
 345              		.loc 1 333 0
 346 0012 1A68     		ldr	r2, [r3]
 347 0014 2243     		orr	r2, r4
 348 0016 1A60     		str	r2, [r3]
 335:Generated_Source\PSoC4/TX_SEND.c **** }
 349              		.loc 1 335 0
 350 0018 FFF7FEFF 		bl	CyExitCriticalSection
 351              	.LVL20:
 352              	.LVL21:
 336:Generated_Source\PSoC4/TX_SEND.c **** 
 353              		.loc 1 336 0
 354 001c 10BD     		pop	{r4, pc}
 355              	.L20:
 356 001e C046     		.align	2
 357              	.L19:
 358 0020 40010540 		.word	1074069824
 359 0024 FFFF8FFF 		.word	-7340033
 360              		.cfi_endproc
 361              	.LFE5:
 362              		.size	TX_SEND_SetQDMode, .-TX_SEND_SetQDMode
 363              		.section	.text.TX_SEND_SetPrescaler,"ax",%progbits
 364              		.align	2
 365              		.global	TX_SEND_SetPrescaler
 366              		.code	16
 367              		.thumb_func
 368              		.type	TX_SEND_SetPrescaler, %function
 369              	TX_SEND_SetPrescaler:
 370              	.LFB6:
 364:Generated_Source\PSoC4/TX_SEND.c ****     uint8 enableInterrupts;
 371              		.loc 1 364 0
 372              		.cfi_startproc
 373              	.LVL22:
 374 0000 10B5     		push	{r4, lr}
 375              		.cfi_def_cfa_offset 8
 376              		.cfi_offset 4, -8
 377              		.cfi_offset 14, -4
 364:Generated_Source\PSoC4/TX_SEND.c ****     uint8 enableInterrupts;
 378              		.loc 1 364 0
 379 0002 041C     		mov	r4, r0
 367:Generated_Source\PSoC4/TX_SEND.c **** 
 380              		.loc 1 367 0
 381 0004 FFF7FEFF 		bl	CyEnterCriticalSection
 382              	.LVL23:
 369:Generated_Source\PSoC4/TX_SEND.c ****     TX_SEND_CONTROL_REG |= prescaler;
 383              		.loc 1 369 0
 384 0008 054B     		ldr	r3, .L22
 385 000a 064A     		ldr	r2, .L22+4
 386 000c 1968     		ldr	r1, [r3]
 373:Generated_Source\PSoC4/TX_SEND.c **** 
 387              		.loc 1 373 0
 388              		@ sp needed
 369:Generated_Source\PSoC4/TX_SEND.c ****     TX_SEND_CONTROL_REG |= prescaler;
ARM GAS  C:\Users\g\AppData\Local\Temp\ccIVY2Cy.s 			page 32


 389              		.loc 1 369 0
 390 000e 0A40     		and	r2, r1
 391 0010 1A60     		str	r2, [r3]
 370:Generated_Source\PSoC4/TX_SEND.c **** 
 392              		.loc 1 370 0
 393 0012 1A68     		ldr	r2, [r3]
 394 0014 2243     		orr	r2, r4
 395 0016 1A60     		str	r2, [r3]
 372:Generated_Source\PSoC4/TX_SEND.c **** }
 396              		.loc 1 372 0
 397 0018 FFF7FEFF 		bl	CyExitCriticalSection
 398              	.LVL24:
 399              	.LVL25:
 373:Generated_Source\PSoC4/TX_SEND.c **** 
 400              		.loc 1 373 0
 401 001c 10BD     		pop	{r4, pc}
 402              	.L23:
 403 001e C046     		.align	2
 404              	.L22:
 405 0020 40010540 		.word	1074069824
 406 0024 FF00FFFF 		.word	-65281
 407              		.cfi_endproc
 408              	.LFE6:
 409              		.size	TX_SEND_SetPrescaler, .-TX_SEND_SetPrescaler
 410              		.section	.text.TX_SEND_SetOneShot,"ax",%progbits
 411              		.align	2
 412              		.global	TX_SEND_SetOneShot
 413              		.code	16
 414              		.thumb_func
 415              		.type	TX_SEND_SetOneShot, %function
 416              	TX_SEND_SetOneShot:
 417              	.LFB7:
 396:Generated_Source\PSoC4/TX_SEND.c ****     uint8 enableInterrupts;
 418              		.loc 1 396 0
 419              		.cfi_startproc
 420              	.LVL26:
 421 0000 10B5     		push	{r4, lr}
 422              		.cfi_def_cfa_offset 8
 423              		.cfi_offset 4, -8
 424              		.cfi_offset 14, -4
 396:Generated_Source\PSoC4/TX_SEND.c ****     uint8 enableInterrupts;
 425              		.loc 1 396 0
 426 0002 041C     		mov	r4, r0
 399:Generated_Source\PSoC4/TX_SEND.c **** 
 427              		.loc 1 399 0
 428 0004 FFF7FEFF 		bl	CyEnterCriticalSection
 429              	.LVL27:
 401:Generated_Source\PSoC4/TX_SEND.c ****     TX_SEND_CONTROL_REG |= ((uint32)((oneShotEnable & TX_SEND_1BIT_MASK) <<
 430              		.loc 1 401 0
 431 0008 064B     		ldr	r3, .L25
 432 000a 074A     		ldr	r2, .L25+4
 433 000c 1968     		ldr	r1, [r3]
 406:Generated_Source\PSoC4/TX_SEND.c **** 
 434              		.loc 1 406 0
 435              		@ sp needed
 401:Generated_Source\PSoC4/TX_SEND.c ****     TX_SEND_CONTROL_REG |= ((uint32)((oneShotEnable & TX_SEND_1BIT_MASK) <<
 436              		.loc 1 401 0
ARM GAS  C:\Users\g\AppData\Local\Temp\ccIVY2Cy.s 			page 33


 437 000e 0A40     		and	r2, r1
 402:Generated_Source\PSoC4/TX_SEND.c ****                                                                TX_SEND_ONESHOT_SHIFT));
 438              		.loc 1 402 0
 439 0010 0121     		mov	r1, #1
 401:Generated_Source\PSoC4/TX_SEND.c ****     TX_SEND_CONTROL_REG |= ((uint32)((oneShotEnable & TX_SEND_1BIT_MASK) <<
 440              		.loc 1 401 0
 441 0012 1A60     		str	r2, [r3]
 402:Generated_Source\PSoC4/TX_SEND.c ****                                                                TX_SEND_ONESHOT_SHIFT));
 442              		.loc 1 402 0
 443 0014 1A68     		ldr	r2, [r3]
 444 0016 0C40     		and	r4, r1
 445              	.LVL28:
 446 0018 A404     		lsl	r4, r4, #18
 447 001a 1443     		orr	r4, r2
 448 001c 1C60     		str	r4, [r3]
 405:Generated_Source\PSoC4/TX_SEND.c **** }
 449              		.loc 1 405 0
 450 001e FFF7FEFF 		bl	CyExitCriticalSection
 451              	.LVL29:
 406:Generated_Source\PSoC4/TX_SEND.c **** 
 452              		.loc 1 406 0
 453 0022 10BD     		pop	{r4, pc}
 454              	.L26:
 455              		.align	2
 456              	.L25:
 457 0024 40010540 		.word	1074069824
 458 0028 FFFFFBFF 		.word	-262145
 459              		.cfi_endproc
 460              	.LFE7:
 461              		.size	TX_SEND_SetOneShot, .-TX_SEND_SetOneShot
 462              		.section	.text.TX_SEND_SetPWMMode,"ax",%progbits
 463              		.align	2
 464              		.global	TX_SEND_SetPWMMode
 465              		.code	16
 466              		.thumb_func
 467              		.type	TX_SEND_SetPWMMode, %function
 468              	TX_SEND_SetPWMMode:
 469              	.LFB8:
 450:Generated_Source\PSoC4/TX_SEND.c ****     TX_SEND_TRIG_CONTROL2_REG = (modeMask & TX_SEND_6BIT_MASK);
 470              		.loc 1 450 0
 471              		.cfi_startproc
 472              	.LVL30:
 451:Generated_Source\PSoC4/TX_SEND.c **** }
 473              		.loc 1 451 0
 474 0000 3F23     		mov	r3, #63
 475 0002 1840     		and	r0, r3
 476              	.LVL31:
 477 0004 014B     		ldr	r3, .L28
 452:Generated_Source\PSoC4/TX_SEND.c **** 
 478              		.loc 1 452 0
 479              		@ sp needed
 451:Generated_Source\PSoC4/TX_SEND.c **** }
 480              		.loc 1 451 0
 481 0006 1860     		str	r0, [r3]
 452:Generated_Source\PSoC4/TX_SEND.c **** 
 482              		.loc 1 452 0
 483 0008 7047     		bx	lr
ARM GAS  C:\Users\g\AppData\Local\Temp\ccIVY2Cy.s 			page 34


 484              	.L29:
 485 000a C046     		.align	2
 486              	.L28:
 487 000c 68010540 		.word	1074069864
 488              		.cfi_endproc
 489              	.LFE8:
 490              		.size	TX_SEND_SetPWMMode, .-TX_SEND_SetPWMMode
 491              		.section	.text.TX_SEND_SetPWMSyncKill,"ax",%progbits
 492              		.align	2
 493              		.global	TX_SEND_SetPWMSyncKill
 494              		.code	16
 495              		.thumb_func
 496              		.type	TX_SEND_SetPWMSyncKill, %function
 497              	TX_SEND_SetPWMSyncKill:
 498              	.LFB9:
 486:Generated_Source\PSoC4/TX_SEND.c ****     uint8 enableInterrupts;
 499              		.loc 1 486 0
 500              		.cfi_startproc
 501              	.LVL32:
 502 0000 10B5     		push	{r4, lr}
 503              		.cfi_def_cfa_offset 8
 504              		.cfi_offset 4, -8
 505              		.cfi_offset 14, -4
 486:Generated_Source\PSoC4/TX_SEND.c ****     uint8 enableInterrupts;
 506              		.loc 1 486 0
 507 0002 041C     		mov	r4, r0
 489:Generated_Source\PSoC4/TX_SEND.c **** 
 508              		.loc 1 489 0
 509 0004 FFF7FEFF 		bl	CyEnterCriticalSection
 510              	.LVL33:
 491:Generated_Source\PSoC4/TX_SEND.c ****     TX_SEND_CONTROL_REG |= ((uint32)((syncKillEnable & TX_SEND_1BIT_MASK)  <<
 511              		.loc 1 491 0
 512 0008 0421     		mov	r1, #4
 513 000a 064B     		ldr	r3, .L31
 496:Generated_Source\PSoC4/TX_SEND.c **** 
 514              		.loc 1 496 0
 515              		@ sp needed
 491:Generated_Source\PSoC4/TX_SEND.c ****     TX_SEND_CONTROL_REG |= ((uint32)((syncKillEnable & TX_SEND_1BIT_MASK)  <<
 516              		.loc 1 491 0
 517 000c 1A68     		ldr	r2, [r3]
 518 000e 8A43     		bic	r2, r1
 519 0010 1A60     		str	r2, [r3]
 492:Generated_Source\PSoC4/TX_SEND.c ****                                                TX_SEND_PWM_SYNC_KILL_SHIFT));
 520              		.loc 1 492 0
 521 0012 0339     		sub	r1, r1, #3
 522 0014 1A68     		ldr	r2, [r3]
 523 0016 0C40     		and	r4, r1
 524              	.LVL34:
 525 0018 A400     		lsl	r4, r4, #2
 526 001a 1443     		orr	r4, r2
 527 001c 1C60     		str	r4, [r3]
 495:Generated_Source\PSoC4/TX_SEND.c **** }
 528              		.loc 1 495 0
 529 001e FFF7FEFF 		bl	CyExitCriticalSection
 530              	.LVL35:
 496:Generated_Source\PSoC4/TX_SEND.c **** 
 531              		.loc 1 496 0
ARM GAS  C:\Users\g\AppData\Local\Temp\ccIVY2Cy.s 			page 35


 532 0022 10BD     		pop	{r4, pc}
 533              	.L32:
 534              		.align	2
 535              	.L31:
 536 0024 40010540 		.word	1074069824
 537              		.cfi_endproc
 538              	.LFE9:
 539              		.size	TX_SEND_SetPWMSyncKill, .-TX_SEND_SetPWMSyncKill
 540              		.section	.text.TX_SEND_SetPWMStopOnKill,"ax",%progbits
 541              		.align	2
 542              		.global	TX_SEND_SetPWMStopOnKill
 543              		.code	16
 544              		.thumb_func
 545              		.type	TX_SEND_SetPWMStopOnKill, %function
 546              	TX_SEND_SetPWMStopOnKill:
 547              	.LFB10:
 520:Generated_Source\PSoC4/TX_SEND.c ****     uint8 enableInterrupts;
 548              		.loc 1 520 0
 549              		.cfi_startproc
 550              	.LVL36:
 551 0000 10B5     		push	{r4, lr}
 552              		.cfi_def_cfa_offset 8
 553              		.cfi_offset 4, -8
 554              		.cfi_offset 14, -4
 520:Generated_Source\PSoC4/TX_SEND.c ****     uint8 enableInterrupts;
 555              		.loc 1 520 0
 556 0002 041C     		mov	r4, r0
 523:Generated_Source\PSoC4/TX_SEND.c **** 
 557              		.loc 1 523 0
 558 0004 FFF7FEFF 		bl	CyEnterCriticalSection
 559              	.LVL37:
 525:Generated_Source\PSoC4/TX_SEND.c ****     TX_SEND_CONTROL_REG |= ((uint32)((stopOnKillEnable & TX_SEND_1BIT_MASK)  <<
 560              		.loc 1 525 0
 561 0008 0821     		mov	r1, #8
 562 000a 064B     		ldr	r3, .L34
 530:Generated_Source\PSoC4/TX_SEND.c **** 
 563              		.loc 1 530 0
 564              		@ sp needed
 525:Generated_Source\PSoC4/TX_SEND.c ****     TX_SEND_CONTROL_REG |= ((uint32)((stopOnKillEnable & TX_SEND_1BIT_MASK)  <<
 565              		.loc 1 525 0
 566 000c 1A68     		ldr	r2, [r3]
 567 000e 8A43     		bic	r2, r1
 568 0010 1A60     		str	r2, [r3]
 526:Generated_Source\PSoC4/TX_SEND.c ****                                                          TX_SEND_PWM_STOP_KILL_SHIFT));
 569              		.loc 1 526 0
 570 0012 0739     		sub	r1, r1, #7
 571 0014 1A68     		ldr	r2, [r3]
 572 0016 0C40     		and	r4, r1
 573              	.LVL38:
 574 0018 E400     		lsl	r4, r4, #3
 575 001a 1443     		orr	r4, r2
 576 001c 1C60     		str	r4, [r3]
 529:Generated_Source\PSoC4/TX_SEND.c **** }
 577              		.loc 1 529 0
 578 001e FFF7FEFF 		bl	CyExitCriticalSection
 579              	.LVL39:
 530:Generated_Source\PSoC4/TX_SEND.c **** 
ARM GAS  C:\Users\g\AppData\Local\Temp\ccIVY2Cy.s 			page 36


 580              		.loc 1 530 0
 581 0022 10BD     		pop	{r4, pc}
 582              	.L35:
 583              		.align	2
 584              	.L34:
 585 0024 40010540 		.word	1074069824
 586              		.cfi_endproc
 587              	.LFE10:
 588              		.size	TX_SEND_SetPWMStopOnKill, .-TX_SEND_SetPWMStopOnKill
 589              		.section	.text.TX_SEND_SetPWMDeadTime,"ax",%progbits
 590              		.align	2
 591              		.global	TX_SEND_SetPWMDeadTime
 592              		.code	16
 593              		.thumb_func
 594              		.type	TX_SEND_SetPWMDeadTime, %function
 595              	TX_SEND_SetPWMDeadTime:
 596              	.LFB11:
 553:Generated_Source\PSoC4/TX_SEND.c ****     uint8 enableInterrupts;
 597              		.loc 1 553 0
 598              		.cfi_startproc
 599              	.LVL40:
 600 0000 10B5     		push	{r4, lr}
 601              		.cfi_def_cfa_offset 8
 602              		.cfi_offset 4, -8
 603              		.cfi_offset 14, -4
 553:Generated_Source\PSoC4/TX_SEND.c ****     uint8 enableInterrupts;
 604              		.loc 1 553 0
 605 0002 041C     		mov	r4, r0
 556:Generated_Source\PSoC4/TX_SEND.c **** 
 606              		.loc 1 556 0
 607 0004 FFF7FEFF 		bl	CyEnterCriticalSection
 608              	.LVL41:
 558:Generated_Source\PSoC4/TX_SEND.c ****     TX_SEND_CONTROL_REG |= ((uint32)((deadTime & TX_SEND_8BIT_MASK) <<
 609              		.loc 1 558 0
 610 0008 064B     		ldr	r3, .L37
 611 000a 074A     		ldr	r2, .L37+4
 612 000c 1968     		ldr	r1, [r3]
 559:Generated_Source\PSoC4/TX_SEND.c ****                                                           TX_SEND_PRESCALER_SHIFT));
 613              		.loc 1 559 0
 614 000e 2406     		lsl	r4, r4, #24
 615              	.LVL42:
 558:Generated_Source\PSoC4/TX_SEND.c ****     TX_SEND_CONTROL_REG |= ((uint32)((deadTime & TX_SEND_8BIT_MASK) <<
 616              		.loc 1 558 0
 617 0010 0A40     		and	r2, r1
 618 0012 1A60     		str	r2, [r3]
 559:Generated_Source\PSoC4/TX_SEND.c ****                                                           TX_SEND_PRESCALER_SHIFT));
 619              		.loc 1 559 0
 620 0014 1A68     		ldr	r2, [r3]
 621 0016 240C     		lsr	r4, r4, #16
 622 0018 1443     		orr	r4, r2
 623 001a 1C60     		str	r4, [r3]
 562:Generated_Source\PSoC4/TX_SEND.c **** }
 624              		.loc 1 562 0
 625 001c FFF7FEFF 		bl	CyExitCriticalSection
 626              	.LVL43:
 563:Generated_Source\PSoC4/TX_SEND.c **** 
 627              		.loc 1 563 0
ARM GAS  C:\Users\g\AppData\Local\Temp\ccIVY2Cy.s 			page 37


 628              		@ sp needed
 629 0020 10BD     		pop	{r4, pc}
 630              	.L38:
 631 0022 C046     		.align	2
 632              	.L37:
 633 0024 40010540 		.word	1074069824
 634 0028 FF00FFFF 		.word	-65281
 635              		.cfi_endproc
 636              	.LFE11:
 637              		.size	TX_SEND_SetPWMDeadTime, .-TX_SEND_SetPWMDeadTime
 638              		.section	.text.TX_SEND_SetPWMInvert,"ax",%progbits
 639              		.align	2
 640              		.global	TX_SEND_SetPWMInvert
 641              		.code	16
 642              		.thumb_func
 643              		.type	TX_SEND_SetPWMInvert, %function
 644              	TX_SEND_SetPWMInvert:
 645              	.LFB12:
 586:Generated_Source\PSoC4/TX_SEND.c ****     uint8 enableInterrupts;
 646              		.loc 1 586 0
 647              		.cfi_startproc
 648              	.LVL44:
 649 0000 10B5     		push	{r4, lr}
 650              		.cfi_def_cfa_offset 8
 651              		.cfi_offset 4, -8
 652              		.cfi_offset 14, -4
 586:Generated_Source\PSoC4/TX_SEND.c ****     uint8 enableInterrupts;
 653              		.loc 1 586 0
 654 0002 041C     		mov	r4, r0
 589:Generated_Source\PSoC4/TX_SEND.c **** 
 655              		.loc 1 589 0
 656 0004 FFF7FEFF 		bl	CyEnterCriticalSection
 657              	.LVL45:
 591:Generated_Source\PSoC4/TX_SEND.c ****     TX_SEND_CONTROL_REG |= mask;
 658              		.loc 1 591 0
 659 0008 054B     		ldr	r3, .L40
 660 000a 064A     		ldr	r2, .L40+4
 661 000c 1968     		ldr	r1, [r3]
 595:Generated_Source\PSoC4/TX_SEND.c **** 
 662              		.loc 1 595 0
 663              		@ sp needed
 591:Generated_Source\PSoC4/TX_SEND.c ****     TX_SEND_CONTROL_REG |= mask;
 664              		.loc 1 591 0
 665 000e 0A40     		and	r2, r1
 666 0010 1A60     		str	r2, [r3]
 592:Generated_Source\PSoC4/TX_SEND.c **** 
 667              		.loc 1 592 0
 668 0012 1A68     		ldr	r2, [r3]
 669 0014 2243     		orr	r2, r4
 670 0016 1A60     		str	r2, [r3]
 594:Generated_Source\PSoC4/TX_SEND.c **** }
 671              		.loc 1 594 0
 672 0018 FFF7FEFF 		bl	CyExitCriticalSection
 673              	.LVL46:
 674              	.LVL47:
 595:Generated_Source\PSoC4/TX_SEND.c **** 
 675              		.loc 1 595 0
ARM GAS  C:\Users\g\AppData\Local\Temp\ccIVY2Cy.s 			page 38


 676 001c 10BD     		pop	{r4, pc}
 677              	.L41:
 678 001e C046     		.align	2
 679              	.L40:
 680 0020 40010540 		.word	1074069824
 681 0024 FFFFCFFF 		.word	-3145729
 682              		.cfi_endproc
 683              	.LFE12:
 684              		.size	TX_SEND_SetPWMInvert, .-TX_SEND_SetPWMInvert
 685              		.section	.text.TX_SEND_WriteCounter,"ax",%progbits
 686              		.align	2
 687              		.global	TX_SEND_WriteCounter
 688              		.code	16
 689              		.thumb_func
 690              		.type	TX_SEND_WriteCounter, %function
 691              	TX_SEND_WriteCounter:
 692              	.LFB13:
 616:Generated_Source\PSoC4/TX_SEND.c ****     TX_SEND_COUNTER_REG = (count & TX_SEND_16BIT_MASK);
 693              		.loc 1 616 0
 694              		.cfi_startproc
 695              	.LVL48:
 617:Generated_Source\PSoC4/TX_SEND.c **** }
 696              		.loc 1 617 0
 697 0000 024B     		ldr	r3, .L43
 698 0002 0004     		lsl	r0, r0, #16
 699              	.LVL49:
 700 0004 000C     		lsr	r0, r0, #16
 701 0006 1860     		str	r0, [r3]
 618:Generated_Source\PSoC4/TX_SEND.c **** 
 702              		.loc 1 618 0
 703              		@ sp needed
 704 0008 7047     		bx	lr
 705              	.L44:
 706 000a C046     		.align	2
 707              	.L43:
 708 000c 48010540 		.word	1074069832
 709              		.cfi_endproc
 710              	.LFE13:
 711              		.size	TX_SEND_WriteCounter, .-TX_SEND_WriteCounter
 712              		.section	.text.TX_SEND_ReadCounter,"ax",%progbits
 713              		.align	2
 714              		.global	TX_SEND_ReadCounter
 715              		.code	16
 716              		.thumb_func
 717              		.type	TX_SEND_ReadCounter, %function
 718              	TX_SEND_ReadCounter:
 719              	.LFB14:
 636:Generated_Source\PSoC4/TX_SEND.c ****     return (TX_SEND_COUNTER_REG & TX_SEND_16BIT_MASK);
 720              		.loc 1 636 0
 721              		.cfi_startproc
 637:Generated_Source\PSoC4/TX_SEND.c **** }
 722              		.loc 1 637 0
 723 0000 024B     		ldr	r3, .L46
 638:Generated_Source\PSoC4/TX_SEND.c **** 
 724              		.loc 1 638 0
 725              		@ sp needed
 637:Generated_Source\PSoC4/TX_SEND.c **** }
ARM GAS  C:\Users\g\AppData\Local\Temp\ccIVY2Cy.s 			page 39


 726              		.loc 1 637 0
 727 0002 1868     		ldr	r0, [r3]
 728 0004 0004     		lsl	r0, r0, #16
 729 0006 000C     		lsr	r0, r0, #16
 638:Generated_Source\PSoC4/TX_SEND.c **** 
 730              		.loc 1 638 0
 731 0008 7047     		bx	lr
 732              	.L47:
 733 000a C046     		.align	2
 734              	.L46:
 735 000c 48010540 		.word	1074069832
 736              		.cfi_endproc
 737              	.LFE14:
 738              		.size	TX_SEND_ReadCounter, .-TX_SEND_ReadCounter
 739              		.section	.text.TX_SEND_SetCounterMode,"ax",%progbits
 740              		.align	2
 741              		.global	TX_SEND_SetCounterMode
 742              		.code	16
 743              		.thumb_func
 744              		.type	TX_SEND_SetCounterMode, %function
 745              	TX_SEND_SetCounterMode:
 746              	.LFB15:
 665:Generated_Source\PSoC4/TX_SEND.c ****     uint8 enableInterrupts;
 747              		.loc 1 665 0
 748              		.cfi_startproc
 749              	.LVL50:
 750 0000 10B5     		push	{r4, lr}
 751              		.cfi_def_cfa_offset 8
 752              		.cfi_offset 4, -8
 753              		.cfi_offset 14, -4
 665:Generated_Source\PSoC4/TX_SEND.c ****     uint8 enableInterrupts;
 754              		.loc 1 665 0
 755 0002 041C     		mov	r4, r0
 668:Generated_Source\PSoC4/TX_SEND.c **** 
 756              		.loc 1 668 0
 757 0004 FFF7FEFF 		bl	CyEnterCriticalSection
 758              	.LVL51:
 670:Generated_Source\PSoC4/TX_SEND.c ****     TX_SEND_CONTROL_REG |= counterMode;
 759              		.loc 1 670 0
 760 0008 054B     		ldr	r3, .L49
 761 000a 064A     		ldr	r2, .L49+4
 762 000c 1968     		ldr	r1, [r3]
 674:Generated_Source\PSoC4/TX_SEND.c **** 
 763              		.loc 1 674 0
 764              		@ sp needed
 670:Generated_Source\PSoC4/TX_SEND.c ****     TX_SEND_CONTROL_REG |= counterMode;
 765              		.loc 1 670 0
 766 000e 0A40     		and	r2, r1
 767 0010 1A60     		str	r2, [r3]
 671:Generated_Source\PSoC4/TX_SEND.c **** 
 768              		.loc 1 671 0
 769 0012 1A68     		ldr	r2, [r3]
 770 0014 2243     		orr	r2, r4
 771 0016 1A60     		str	r2, [r3]
 673:Generated_Source\PSoC4/TX_SEND.c **** }
 772              		.loc 1 673 0
 773 0018 FFF7FEFF 		bl	CyExitCriticalSection
ARM GAS  C:\Users\g\AppData\Local\Temp\ccIVY2Cy.s 			page 40


 774              	.LVL52:
 775              	.LVL53:
 674:Generated_Source\PSoC4/TX_SEND.c **** 
 776              		.loc 1 674 0
 777 001c 10BD     		pop	{r4, pc}
 778              	.L50:
 779 001e C046     		.align	2
 780              	.L49:
 781 0020 40010540 		.word	1074069824
 782 0024 FFFFFCFF 		.word	-196609
 783              		.cfi_endproc
 784              	.LFE15:
 785              		.size	TX_SEND_SetCounterMode, .-TX_SEND_SetCounterMode
 786              		.section	.text.TX_SEND_WritePeriod,"ax",%progbits
 787              		.align	2
 788              		.global	TX_SEND_WritePeriod
 789              		.code	16
 790              		.thumb_func
 791              		.type	TX_SEND_WritePeriod, %function
 792              	TX_SEND_WritePeriod:
 793              	.LFB16:
 694:Generated_Source\PSoC4/TX_SEND.c ****     TX_SEND_PERIOD_REG = (period & TX_SEND_16BIT_MASK);
 794              		.loc 1 694 0
 795              		.cfi_startproc
 796              	.LVL54:
 695:Generated_Source\PSoC4/TX_SEND.c **** }
 797              		.loc 1 695 0
 798 0000 024B     		ldr	r3, .L52
 799 0002 0004     		lsl	r0, r0, #16
 800              	.LVL55:
 801 0004 000C     		lsr	r0, r0, #16
 802 0006 1860     		str	r0, [r3]
 696:Generated_Source\PSoC4/TX_SEND.c **** 
 803              		.loc 1 696 0
 804              		@ sp needed
 805 0008 7047     		bx	lr
 806              	.L53:
 807 000a C046     		.align	2
 808              	.L52:
 809 000c 54010540 		.word	1074069844
 810              		.cfi_endproc
 811              	.LFE16:
 812              		.size	TX_SEND_WritePeriod, .-TX_SEND_WritePeriod
 813              		.section	.text.TX_SEND_ReadPeriod,"ax",%progbits
 814              		.align	2
 815              		.global	TX_SEND_ReadPeriod
 816              		.code	16
 817              		.thumb_func
 818              		.type	TX_SEND_ReadPeriod, %function
 819              	TX_SEND_ReadPeriod:
 820              	.LFB17:
 714:Generated_Source\PSoC4/TX_SEND.c ****     return (TX_SEND_PERIOD_REG & TX_SEND_16BIT_MASK);
 821              		.loc 1 714 0
 822              		.cfi_startproc
 715:Generated_Source\PSoC4/TX_SEND.c **** }
 823              		.loc 1 715 0
 824 0000 024B     		ldr	r3, .L55
ARM GAS  C:\Users\g\AppData\Local\Temp\ccIVY2Cy.s 			page 41


 716:Generated_Source\PSoC4/TX_SEND.c **** 
 825              		.loc 1 716 0
 826              		@ sp needed
 715:Generated_Source\PSoC4/TX_SEND.c **** }
 827              		.loc 1 715 0
 828 0002 1868     		ldr	r0, [r3]
 829 0004 0004     		lsl	r0, r0, #16
 830 0006 000C     		lsr	r0, r0, #16
 716:Generated_Source\PSoC4/TX_SEND.c **** 
 831              		.loc 1 716 0
 832 0008 7047     		bx	lr
 833              	.L56:
 834 000a C046     		.align	2
 835              	.L55:
 836 000c 54010540 		.word	1074069844
 837              		.cfi_endproc
 838              	.LFE17:
 839              		.size	TX_SEND_ReadPeriod, .-TX_SEND_ReadPeriod
 840              		.section	.text.TX_SEND_SetCompareSwap,"ax",%progbits
 841              		.align	2
 842              		.global	TX_SEND_SetCompareSwap
 843              		.code	16
 844              		.thumb_func
 845              		.type	TX_SEND_SetCompareSwap, %function
 846              	TX_SEND_SetCompareSwap:
 847              	.LFB18:
 740:Generated_Source\PSoC4/TX_SEND.c ****     uint8 enableInterrupts;
 848              		.loc 1 740 0
 849              		.cfi_startproc
 850              	.LVL56:
 851 0000 10B5     		push	{r4, lr}
 852              		.cfi_def_cfa_offset 8
 853              		.cfi_offset 4, -8
 854              		.cfi_offset 14, -4
 740:Generated_Source\PSoC4/TX_SEND.c ****     uint8 enableInterrupts;
 855              		.loc 1 740 0
 856 0002 041C     		mov	r4, r0
 743:Generated_Source\PSoC4/TX_SEND.c **** 
 857              		.loc 1 743 0
 858 0004 FFF7FEFF 		bl	CyEnterCriticalSection
 859              	.LVL57:
 745:Generated_Source\PSoC4/TX_SEND.c ****     TX_SEND_CONTROL_REG |= (swapEnable & TX_SEND_1BIT_MASK);
 860              		.loc 1 745 0
 861 0008 0122     		mov	r2, #1
 862 000a 054B     		ldr	r3, .L58
 749:Generated_Source\PSoC4/TX_SEND.c **** 
 863              		.loc 1 749 0
 864              		@ sp needed
 745:Generated_Source\PSoC4/TX_SEND.c ****     TX_SEND_CONTROL_REG |= (swapEnable & TX_SEND_1BIT_MASK);
 865              		.loc 1 745 0
 866 000c 1968     		ldr	r1, [r3]
 867 000e 9143     		bic	r1, r2
 868 0010 1960     		str	r1, [r3]
 746:Generated_Source\PSoC4/TX_SEND.c **** 
 869              		.loc 1 746 0
 870 0012 1968     		ldr	r1, [r3]
 871 0014 2240     		and	r2, r4
ARM GAS  C:\Users\g\AppData\Local\Temp\ccIVY2Cy.s 			page 42


 872 0016 0A43     		orr	r2, r1
 873 0018 1A60     		str	r2, [r3]
 748:Generated_Source\PSoC4/TX_SEND.c **** }
 874              		.loc 1 748 0
 875 001a FFF7FEFF 		bl	CyExitCriticalSection
 876              	.LVL58:
 877              	.LVL59:
 749:Generated_Source\PSoC4/TX_SEND.c **** 
 878              		.loc 1 749 0
 879 001e 10BD     		pop	{r4, pc}
 880              	.L59:
 881              		.align	2
 882              	.L58:
 883 0020 40010540 		.word	1074069824
 884              		.cfi_endproc
 885              	.LFE18:
 886              		.size	TX_SEND_SetCompareSwap, .-TX_SEND_SetCompareSwap
 887              		.section	.text.TX_SEND_WritePeriodBuf,"ax",%progbits
 888              		.align	2
 889              		.global	TX_SEND_WritePeriodBuf
 890              		.code	16
 891              		.thumb_func
 892              		.type	TX_SEND_WritePeriodBuf, %function
 893              	TX_SEND_WritePeriodBuf:
 894              	.LFB19:
 767:Generated_Source\PSoC4/TX_SEND.c ****     TX_SEND_PERIOD_BUF_REG = (periodBuf & TX_SEND_16BIT_MASK);
 895              		.loc 1 767 0
 896              		.cfi_startproc
 897              	.LVL60:
 768:Generated_Source\PSoC4/TX_SEND.c **** }
 898              		.loc 1 768 0
 899 0000 024B     		ldr	r3, .L61
 900 0002 0004     		lsl	r0, r0, #16
 901              	.LVL61:
 902 0004 000C     		lsr	r0, r0, #16
 903 0006 1860     		str	r0, [r3]
 769:Generated_Source\PSoC4/TX_SEND.c **** 
 904              		.loc 1 769 0
 905              		@ sp needed
 906 0008 7047     		bx	lr
 907              	.L62:
 908 000a C046     		.align	2
 909              	.L61:
 910 000c 58010540 		.word	1074069848
 911              		.cfi_endproc
 912              	.LFE19:
 913              		.size	TX_SEND_WritePeriodBuf, .-TX_SEND_WritePeriodBuf
 914              		.section	.text.TX_SEND_ReadPeriodBuf,"ax",%progbits
 915              		.align	2
 916              		.global	TX_SEND_ReadPeriodBuf
 917              		.code	16
 918              		.thumb_func
 919              		.type	TX_SEND_ReadPeriodBuf, %function
 920              	TX_SEND_ReadPeriodBuf:
 921              	.LFB20:
 787:Generated_Source\PSoC4/TX_SEND.c ****     return (TX_SEND_PERIOD_BUF_REG & TX_SEND_16BIT_MASK);
 922              		.loc 1 787 0
ARM GAS  C:\Users\g\AppData\Local\Temp\ccIVY2Cy.s 			page 43


 923              		.cfi_startproc
 788:Generated_Source\PSoC4/TX_SEND.c **** }
 924              		.loc 1 788 0
 925 0000 024B     		ldr	r3, .L64
 789:Generated_Source\PSoC4/TX_SEND.c **** 
 926              		.loc 1 789 0
 927              		@ sp needed
 788:Generated_Source\PSoC4/TX_SEND.c **** }
 928              		.loc 1 788 0
 929 0002 1868     		ldr	r0, [r3]
 930 0004 0004     		lsl	r0, r0, #16
 931 0006 000C     		lsr	r0, r0, #16
 789:Generated_Source\PSoC4/TX_SEND.c **** 
 932              		.loc 1 789 0
 933 0008 7047     		bx	lr
 934              	.L65:
 935 000a C046     		.align	2
 936              	.L64:
 937 000c 58010540 		.word	1074069848
 938              		.cfi_endproc
 939              	.LFE20:
 940              		.size	TX_SEND_ReadPeriodBuf, .-TX_SEND_ReadPeriodBuf
 941              		.section	.text.TX_SEND_SetPeriodSwap,"ax",%progbits
 942              		.align	2
 943              		.global	TX_SEND_SetPeriodSwap
 944              		.code	16
 945              		.thumb_func
 946              		.type	TX_SEND_SetPeriodSwap, %function
 947              	TX_SEND_SetPeriodSwap:
 948              	.LFB21:
 813:Generated_Source\PSoC4/TX_SEND.c ****     uint8 enableInterrupts;
 949              		.loc 1 813 0
 950              		.cfi_startproc
 951              	.LVL62:
 952 0000 10B5     		push	{r4, lr}
 953              		.cfi_def_cfa_offset 8
 954              		.cfi_offset 4, -8
 955              		.cfi_offset 14, -4
 813:Generated_Source\PSoC4/TX_SEND.c ****     uint8 enableInterrupts;
 956              		.loc 1 813 0
 957 0002 041C     		mov	r4, r0
 816:Generated_Source\PSoC4/TX_SEND.c **** 
 958              		.loc 1 816 0
 959 0004 FFF7FEFF 		bl	CyEnterCriticalSection
 960              	.LVL63:
 818:Generated_Source\PSoC4/TX_SEND.c ****     TX_SEND_CONTROL_REG |= ((uint32)((swapEnable & TX_SEND_1BIT_MASK) <<
 961              		.loc 1 818 0
 962 0008 0221     		mov	r1, #2
 963 000a 064B     		ldr	r3, .L67
 823:Generated_Source\PSoC4/TX_SEND.c **** 
 964              		.loc 1 823 0
 965              		@ sp needed
 818:Generated_Source\PSoC4/TX_SEND.c ****     TX_SEND_CONTROL_REG |= ((uint32)((swapEnable & TX_SEND_1BIT_MASK) <<
 966              		.loc 1 818 0
 967 000c 1A68     		ldr	r2, [r3]
 968 000e 8A43     		bic	r2, r1
 969 0010 1A60     		str	r2, [r3]
ARM GAS  C:\Users\g\AppData\Local\Temp\ccIVY2Cy.s 			page 44


 819:Generated_Source\PSoC4/TX_SEND.c ****                                                             TX_SEND_RELOAD_PERIOD_SHIFT));
 970              		.loc 1 819 0
 971 0012 0139     		sub	r1, r1, #1
 972 0014 1A68     		ldr	r2, [r3]
 973 0016 0C40     		and	r4, r1
 974              	.LVL64:
 975 0018 6400     		lsl	r4, r4, #1
 976 001a 1443     		orr	r4, r2
 977 001c 1C60     		str	r4, [r3]
 822:Generated_Source\PSoC4/TX_SEND.c **** }
 978              		.loc 1 822 0
 979 001e FFF7FEFF 		bl	CyExitCriticalSection
 980              	.LVL65:
 823:Generated_Source\PSoC4/TX_SEND.c **** 
 981              		.loc 1 823 0
 982 0022 10BD     		pop	{r4, pc}
 983              	.L68:
 984              		.align	2
 985              	.L67:
 986 0024 40010540 		.word	1074069824
 987              		.cfi_endproc
 988              	.LFE21:
 989              		.size	TX_SEND_SetPeriodSwap, .-TX_SEND_SetPeriodSwap
 990              		.section	.text.TX_SEND_WriteCompare,"ax",%progbits
 991              		.align	2
 992              		.global	TX_SEND_WriteCompare
 993              		.code	16
 994              		.thumb_func
 995              		.type	TX_SEND_WriteCompare, %function
 996              	TX_SEND_WriteCompare:
 997              	.LFB22:
 850:Generated_Source\PSoC4/TX_SEND.c ****     #if (TX_SEND_CY_TCPWM_4000)
 998              		.loc 1 850 0
 999              		.cfi_startproc
 1000              	.LVL66:
 873:Generated_Source\PSoC4/TX_SEND.c **** }
 1001              		.loc 1 873 0
 1002 0000 024B     		ldr	r3, .L70
 1003 0002 0004     		lsl	r0, r0, #16
 1004              	.LVL67:
 1005 0004 000C     		lsr	r0, r0, #16
 1006 0006 1860     		str	r0, [r3]
 874:Generated_Source\PSoC4/TX_SEND.c **** 
 1007              		.loc 1 874 0
 1008              		@ sp needed
 1009 0008 7047     		bx	lr
 1010              	.L71:
 1011 000a C046     		.align	2
 1012              	.L70:
 1013 000c 4C010540 		.word	1074069836
 1014              		.cfi_endproc
 1015              	.LFE22:
 1016              		.size	TX_SEND_WriteCompare, .-TX_SEND_WriteCompare
 1017              		.section	.text.TX_SEND_ReadCompare,"ax",%progbits
 1018              		.align	2
 1019              		.global	TX_SEND_ReadCompare
 1020              		.code	16
ARM GAS  C:\Users\g\AppData\Local\Temp\ccIVY2Cy.s 			page 45


 1021              		.thumb_func
 1022              		.type	TX_SEND_ReadCompare, %function
 1023              	TX_SEND_ReadCompare:
 1024              	.LFB23:
 901:Generated_Source\PSoC4/TX_SEND.c ****     #if (TX_SEND_CY_TCPWM_4000)
 1025              		.loc 1 901 0
 1026              		.cfi_startproc
 926:Generated_Source\PSoC4/TX_SEND.c ****     #endif /* (TX_SEND_CY_TCPWM_4000) */
 1027              		.loc 1 926 0
 1028 0000 024B     		ldr	r3, .L73
 928:Generated_Source\PSoC4/TX_SEND.c **** 
 1029              		.loc 1 928 0
 1030              		@ sp needed
 926:Generated_Source\PSoC4/TX_SEND.c ****     #endif /* (TX_SEND_CY_TCPWM_4000) */
 1031              		.loc 1 926 0
 1032 0002 1868     		ldr	r0, [r3]
 1033 0004 0004     		lsl	r0, r0, #16
 1034 0006 000C     		lsr	r0, r0, #16
 928:Generated_Source\PSoC4/TX_SEND.c **** 
 1035              		.loc 1 928 0
 1036 0008 7047     		bx	lr
 1037              	.L74:
 1038 000a C046     		.align	2
 1039              	.L73:
 1040 000c 4C010540 		.word	1074069836
 1041              		.cfi_endproc
 1042              	.LFE23:
 1043              		.size	TX_SEND_ReadCompare, .-TX_SEND_ReadCompare
 1044              		.section	.text.TX_SEND_WriteCompareBuf,"ax",%progbits
 1045              		.align	2
 1046              		.global	TX_SEND_WriteCompareBuf
 1047              		.code	16
 1048              		.thumb_func
 1049              		.type	TX_SEND_WriteCompareBuf, %function
 1050              	TX_SEND_WriteCompareBuf:
 1051              	.LFB24:
 955:Generated_Source\PSoC4/TX_SEND.c ****     #if (TX_SEND_CY_TCPWM_4000)
 1052              		.loc 1 955 0
 1053              		.cfi_startproc
 1054              	.LVL68:
 976:Generated_Source\PSoC4/TX_SEND.c **** }
 1055              		.loc 1 976 0
 1056 0000 024B     		ldr	r3, .L76
 1057 0002 0004     		lsl	r0, r0, #16
 1058              	.LVL69:
 1059 0004 000C     		lsr	r0, r0, #16
 1060 0006 1860     		str	r0, [r3]
 977:Generated_Source\PSoC4/TX_SEND.c **** 
 1061              		.loc 1 977 0
 1062              		@ sp needed
 1063 0008 7047     		bx	lr
 1064              	.L77:
 1065 000a C046     		.align	2
 1066              	.L76:
 1067 000c 50010540 		.word	1074069840
 1068              		.cfi_endproc
 1069              	.LFE24:
ARM GAS  C:\Users\g\AppData\Local\Temp\ccIVY2Cy.s 			page 46


 1070              		.size	TX_SEND_WriteCompareBuf, .-TX_SEND_WriteCompareBuf
 1071              		.section	.text.TX_SEND_ReadCompareBuf,"ax",%progbits
 1072              		.align	2
 1073              		.global	TX_SEND_ReadCompareBuf
 1074              		.code	16
 1075              		.thumb_func
 1076              		.type	TX_SEND_ReadCompareBuf, %function
 1077              	TX_SEND_ReadCompareBuf:
 1078              	.LFB25:
1001:Generated_Source\PSoC4/TX_SEND.c ****     #if (TX_SEND_CY_TCPWM_4000)
 1079              		.loc 1 1001 0
 1080              		.cfi_startproc
1026:Generated_Source\PSoC4/TX_SEND.c ****     #endif /* (TX_SEND_CY_TCPWM_4000) */
 1081              		.loc 1 1026 0
 1082 0000 024B     		ldr	r3, .L79
1028:Generated_Source\PSoC4/TX_SEND.c **** 
 1083              		.loc 1 1028 0
 1084              		@ sp needed
1026:Generated_Source\PSoC4/TX_SEND.c ****     #endif /* (TX_SEND_CY_TCPWM_4000) */
 1085              		.loc 1 1026 0
 1086 0002 1868     		ldr	r0, [r3]
 1087 0004 0004     		lsl	r0, r0, #16
 1088 0006 000C     		lsr	r0, r0, #16
1028:Generated_Source\PSoC4/TX_SEND.c **** 
 1089              		.loc 1 1028 0
 1090 0008 7047     		bx	lr
 1091              	.L80:
 1092 000a C046     		.align	2
 1093              	.L79:
 1094 000c 50010540 		.word	1074069840
 1095              		.cfi_endproc
 1096              	.LFE25:
 1097              		.size	TX_SEND_ReadCompareBuf, .-TX_SEND_ReadCompareBuf
 1098              		.section	.text.TX_SEND_ReadCapture,"ax",%progbits
 1099              		.align	2
 1100              		.global	TX_SEND_ReadCapture
 1101              		.code	16
 1102              		.thumb_func
 1103              		.type	TX_SEND_ReadCapture, %function
 1104              	TX_SEND_ReadCapture:
 1105              	.LFB26:
1047:Generated_Source\PSoC4/TX_SEND.c ****     return (TX_SEND_COMP_CAP_REG & TX_SEND_16BIT_MASK);
 1106              		.loc 1 1047 0
 1107              		.cfi_startproc
1048:Generated_Source\PSoC4/TX_SEND.c **** }
 1108              		.loc 1 1048 0
 1109 0000 024B     		ldr	r3, .L82
1049:Generated_Source\PSoC4/TX_SEND.c **** 
 1110              		.loc 1 1049 0
 1111              		@ sp needed
1048:Generated_Source\PSoC4/TX_SEND.c **** }
 1112              		.loc 1 1048 0
 1113 0002 1868     		ldr	r0, [r3]
 1114 0004 0004     		lsl	r0, r0, #16
 1115 0006 000C     		lsr	r0, r0, #16
1049:Generated_Source\PSoC4/TX_SEND.c **** 
 1116              		.loc 1 1049 0
ARM GAS  C:\Users\g\AppData\Local\Temp\ccIVY2Cy.s 			page 47


 1117 0008 7047     		bx	lr
 1118              	.L83:
 1119 000a C046     		.align	2
 1120              	.L82:
 1121 000c 4C010540 		.word	1074069836
 1122              		.cfi_endproc
 1123              	.LFE26:
 1124              		.size	TX_SEND_ReadCapture, .-TX_SEND_ReadCapture
 1125              		.section	.text.TX_SEND_ReadCaptureBuf,"ax",%progbits
 1126              		.align	2
 1127              		.global	TX_SEND_ReadCaptureBuf
 1128              		.code	16
 1129              		.thumb_func
 1130              		.type	TX_SEND_ReadCaptureBuf, %function
 1131              	TX_SEND_ReadCaptureBuf:
 1132              	.LFB27:
1068:Generated_Source\PSoC4/TX_SEND.c ****     return (TX_SEND_COMP_CAP_BUF_REG & TX_SEND_16BIT_MASK);
 1133              		.loc 1 1068 0
 1134              		.cfi_startproc
1069:Generated_Source\PSoC4/TX_SEND.c **** }
 1135              		.loc 1 1069 0
 1136 0000 024B     		ldr	r3, .L85
1070:Generated_Source\PSoC4/TX_SEND.c **** 
 1137              		.loc 1 1070 0
 1138              		@ sp needed
1069:Generated_Source\PSoC4/TX_SEND.c **** }
 1139              		.loc 1 1069 0
 1140 0002 1868     		ldr	r0, [r3]
 1141 0004 0004     		lsl	r0, r0, #16
 1142 0006 000C     		lsr	r0, r0, #16
1070:Generated_Source\PSoC4/TX_SEND.c **** 
 1143              		.loc 1 1070 0
 1144 0008 7047     		bx	lr
 1145              	.L86:
 1146 000a C046     		.align	2
 1147              	.L85:
 1148 000c 50010540 		.word	1074069840
 1149              		.cfi_endproc
 1150              	.LFE27:
 1151              		.size	TX_SEND_ReadCaptureBuf, .-TX_SEND_ReadCaptureBuf
 1152              		.section	.text.TX_SEND_SetCaptureMode,"ax",%progbits
 1153              		.align	2
 1154              		.global	TX_SEND_SetCaptureMode
 1155              		.code	16
 1156              		.thumb_func
 1157              		.type	TX_SEND_SetCaptureMode, %function
 1158              	TX_SEND_SetCaptureMode:
 1159              	.LFB28:
1095:Generated_Source\PSoC4/TX_SEND.c ****     uint8 enableInterrupts;
 1160              		.loc 1 1095 0
 1161              		.cfi_startproc
 1162              	.LVL70:
 1163 0000 10B5     		push	{r4, lr}
 1164              		.cfi_def_cfa_offset 8
 1165              		.cfi_offset 4, -8
 1166              		.cfi_offset 14, -4
1095:Generated_Source\PSoC4/TX_SEND.c ****     uint8 enableInterrupts;
ARM GAS  C:\Users\g\AppData\Local\Temp\ccIVY2Cy.s 			page 48


 1167              		.loc 1 1095 0
 1168 0002 041C     		mov	r4, r0
1098:Generated_Source\PSoC4/TX_SEND.c **** 
 1169              		.loc 1 1098 0
 1170 0004 FFF7FEFF 		bl	CyEnterCriticalSection
 1171              	.LVL71:
1100:Generated_Source\PSoC4/TX_SEND.c ****     TX_SEND_TRIG_CONTROL1_REG |= triggerMode;
 1172              		.loc 1 1100 0
 1173 0008 0321     		mov	r1, #3
 1174 000a 054B     		ldr	r3, .L88
1104:Generated_Source\PSoC4/TX_SEND.c **** 
 1175              		.loc 1 1104 0
 1176              		@ sp needed
1100:Generated_Source\PSoC4/TX_SEND.c ****     TX_SEND_TRIG_CONTROL1_REG |= triggerMode;
 1177              		.loc 1 1100 0
 1178 000c 1A68     		ldr	r2, [r3]
 1179 000e 8A43     		bic	r2, r1
 1180 0010 1A60     		str	r2, [r3]
1101:Generated_Source\PSoC4/TX_SEND.c **** 
 1181              		.loc 1 1101 0
 1182 0012 1A68     		ldr	r2, [r3]
 1183 0014 2243     		orr	r2, r4
 1184 0016 1A60     		str	r2, [r3]
1103:Generated_Source\PSoC4/TX_SEND.c **** }
 1185              		.loc 1 1103 0
 1186 0018 FFF7FEFF 		bl	CyExitCriticalSection
 1187              	.LVL72:
 1188              	.LVL73:
1104:Generated_Source\PSoC4/TX_SEND.c **** 
 1189              		.loc 1 1104 0
 1190 001c 10BD     		pop	{r4, pc}
 1191              	.L89:
 1192 001e C046     		.align	2
 1193              	.L88:
 1194 0020 64010540 		.word	1074069860
 1195              		.cfi_endproc
 1196              	.LFE28:
 1197              		.size	TX_SEND_SetCaptureMode, .-TX_SEND_SetCaptureMode
 1198              		.section	.text.TX_SEND_SetReloadMode,"ax",%progbits
 1199              		.align	2
 1200              		.global	TX_SEND_SetReloadMode
 1201              		.code	16
 1202              		.thumb_func
 1203              		.type	TX_SEND_SetReloadMode, %function
 1204              	TX_SEND_SetReloadMode:
 1205              	.LFB29:
1128:Generated_Source\PSoC4/TX_SEND.c ****     uint8 enableInterrupts;
 1206              		.loc 1 1128 0
 1207              		.cfi_startproc
 1208              	.LVL74:
 1209 0000 10B5     		push	{r4, lr}
 1210              		.cfi_def_cfa_offset 8
 1211              		.cfi_offset 4, -8
 1212              		.cfi_offset 14, -4
1128:Generated_Source\PSoC4/TX_SEND.c ****     uint8 enableInterrupts;
 1213              		.loc 1 1128 0
 1214 0002 041C     		mov	r4, r0
ARM GAS  C:\Users\g\AppData\Local\Temp\ccIVY2Cy.s 			page 49


1131:Generated_Source\PSoC4/TX_SEND.c **** 
 1215              		.loc 1 1131 0
 1216 0004 FFF7FEFF 		bl	CyEnterCriticalSection
 1217              	.LVL75:
1133:Generated_Source\PSoC4/TX_SEND.c ****     TX_SEND_TRIG_CONTROL1_REG |= ((uint32)(triggerMode << TX_SEND_RELOAD_SHIFT));
 1218              		.loc 1 1133 0
 1219 0008 3021     		mov	r1, #48
 1220 000a 054B     		ldr	r3, .L91
1137:Generated_Source\PSoC4/TX_SEND.c **** 
 1221              		.loc 1 1137 0
 1222              		@ sp needed
1133:Generated_Source\PSoC4/TX_SEND.c ****     TX_SEND_TRIG_CONTROL1_REG |= ((uint32)(triggerMode << TX_SEND_RELOAD_SHIFT));
 1223              		.loc 1 1133 0
 1224 000c 1A68     		ldr	r2, [r3]
 1225 000e 8A43     		bic	r2, r1
 1226 0010 1A60     		str	r2, [r3]
1134:Generated_Source\PSoC4/TX_SEND.c **** 
 1227              		.loc 1 1134 0
 1228 0012 1968     		ldr	r1, [r3]
 1229 0014 2201     		lsl	r2, r4, #4
 1230 0016 0A43     		orr	r2, r1
 1231 0018 1A60     		str	r2, [r3]
1136:Generated_Source\PSoC4/TX_SEND.c **** }
 1232              		.loc 1 1136 0
 1233 001a FFF7FEFF 		bl	CyExitCriticalSection
 1234              	.LVL76:
 1235              	.LVL77:
1137:Generated_Source\PSoC4/TX_SEND.c **** 
 1236              		.loc 1 1137 0
 1237 001e 10BD     		pop	{r4, pc}
 1238              	.L92:
 1239              		.align	2
 1240              	.L91:
 1241 0020 64010540 		.word	1074069860
 1242              		.cfi_endproc
 1243              	.LFE29:
 1244              		.size	TX_SEND_SetReloadMode, .-TX_SEND_SetReloadMode
 1245              		.section	.text.TX_SEND_SetStartMode,"ax",%progbits
 1246              		.align	2
 1247              		.global	TX_SEND_SetStartMode
 1248              		.code	16
 1249              		.thumb_func
 1250              		.type	TX_SEND_SetStartMode, %function
 1251              	TX_SEND_SetStartMode:
 1252              	.LFB30:
1161:Generated_Source\PSoC4/TX_SEND.c ****     uint8 enableInterrupts;
 1253              		.loc 1 1161 0
 1254              		.cfi_startproc
 1255              	.LVL78:
 1256 0000 10B5     		push	{r4, lr}
 1257              		.cfi_def_cfa_offset 8
 1258              		.cfi_offset 4, -8
 1259              		.cfi_offset 14, -4
1161:Generated_Source\PSoC4/TX_SEND.c ****     uint8 enableInterrupts;
 1260              		.loc 1 1161 0
 1261 0002 041C     		mov	r4, r0
1164:Generated_Source\PSoC4/TX_SEND.c **** 
ARM GAS  C:\Users\g\AppData\Local\Temp\ccIVY2Cy.s 			page 50


 1262              		.loc 1 1164 0
 1263 0004 FFF7FEFF 		bl	CyEnterCriticalSection
 1264              	.LVL79:
1166:Generated_Source\PSoC4/TX_SEND.c ****     TX_SEND_TRIG_CONTROL1_REG |= ((uint32)(triggerMode << TX_SEND_START_SHIFT));
 1265              		.loc 1 1166 0
 1266 0008 054B     		ldr	r3, .L94
 1267 000a 064A     		ldr	r2, .L94+4
 1268 000c 1968     		ldr	r1, [r3]
1170:Generated_Source\PSoC4/TX_SEND.c **** 
 1269              		.loc 1 1170 0
 1270              		@ sp needed
1166:Generated_Source\PSoC4/TX_SEND.c ****     TX_SEND_TRIG_CONTROL1_REG |= ((uint32)(triggerMode << TX_SEND_START_SHIFT));
 1271              		.loc 1 1166 0
 1272 000e 0A40     		and	r2, r1
 1273 0010 1A60     		str	r2, [r3]
1167:Generated_Source\PSoC4/TX_SEND.c **** 
 1274              		.loc 1 1167 0
 1275 0012 1968     		ldr	r1, [r3]
 1276 0014 2202     		lsl	r2, r4, #8
 1277 0016 0A43     		orr	r2, r1
 1278 0018 1A60     		str	r2, [r3]
1169:Generated_Source\PSoC4/TX_SEND.c **** }
 1279              		.loc 1 1169 0
 1280 001a FFF7FEFF 		bl	CyExitCriticalSection
 1281              	.LVL80:
 1282              	.LVL81:
1170:Generated_Source\PSoC4/TX_SEND.c **** 
 1283              		.loc 1 1170 0
 1284 001e 10BD     		pop	{r4, pc}
 1285              	.L95:
 1286              		.align	2
 1287              	.L94:
 1288 0020 64010540 		.word	1074069860
 1289 0024 FFFCFFFF 		.word	-769
 1290              		.cfi_endproc
 1291              	.LFE30:
 1292              		.size	TX_SEND_SetStartMode, .-TX_SEND_SetStartMode
 1293              		.section	.text.TX_SEND_SetStopMode,"ax",%progbits
 1294              		.align	2
 1295              		.global	TX_SEND_SetStopMode
 1296              		.code	16
 1297              		.thumb_func
 1298              		.type	TX_SEND_SetStopMode, %function
 1299              	TX_SEND_SetStopMode:
 1300              	.LFB31:
1193:Generated_Source\PSoC4/TX_SEND.c ****     uint8 enableInterrupts;
 1301              		.loc 1 1193 0
 1302              		.cfi_startproc
 1303              	.LVL82:
 1304 0000 10B5     		push	{r4, lr}
 1305              		.cfi_def_cfa_offset 8
 1306              		.cfi_offset 4, -8
 1307              		.cfi_offset 14, -4
1193:Generated_Source\PSoC4/TX_SEND.c ****     uint8 enableInterrupts;
 1308              		.loc 1 1193 0
 1309 0002 041C     		mov	r4, r0
1196:Generated_Source\PSoC4/TX_SEND.c **** 
ARM GAS  C:\Users\g\AppData\Local\Temp\ccIVY2Cy.s 			page 51


 1310              		.loc 1 1196 0
 1311 0004 FFF7FEFF 		bl	CyEnterCriticalSection
 1312              	.LVL83:
1198:Generated_Source\PSoC4/TX_SEND.c ****     TX_SEND_TRIG_CONTROL1_REG |= ((uint32)(triggerMode << TX_SEND_STOP_SHIFT));
 1313              		.loc 1 1198 0
 1314 0008 C021     		mov	r1, #192
 1315 000a 054B     		ldr	r3, .L97
1202:Generated_Source\PSoC4/TX_SEND.c **** 
 1316              		.loc 1 1202 0
 1317              		@ sp needed
1198:Generated_Source\PSoC4/TX_SEND.c ****     TX_SEND_TRIG_CONTROL1_REG |= ((uint32)(triggerMode << TX_SEND_STOP_SHIFT));
 1318              		.loc 1 1198 0
 1319 000c 1A68     		ldr	r2, [r3]
 1320 000e 8A43     		bic	r2, r1
 1321 0010 1A60     		str	r2, [r3]
1199:Generated_Source\PSoC4/TX_SEND.c **** 
 1322              		.loc 1 1199 0
 1323 0012 1968     		ldr	r1, [r3]
 1324 0014 A201     		lsl	r2, r4, #6
 1325 0016 0A43     		orr	r2, r1
 1326 0018 1A60     		str	r2, [r3]
1201:Generated_Source\PSoC4/TX_SEND.c **** }
 1327              		.loc 1 1201 0
 1328 001a FFF7FEFF 		bl	CyExitCriticalSection
 1329              	.LVL84:
 1330              	.LVL85:
1202:Generated_Source\PSoC4/TX_SEND.c **** 
 1331              		.loc 1 1202 0
 1332 001e 10BD     		pop	{r4, pc}
 1333              	.L98:
 1334              		.align	2
 1335              	.L97:
 1336 0020 64010540 		.word	1074069860
 1337              		.cfi_endproc
 1338              	.LFE31:
 1339              		.size	TX_SEND_SetStopMode, .-TX_SEND_SetStopMode
 1340              		.section	.text.TX_SEND_SetCountMode,"ax",%progbits
 1341              		.align	2
 1342              		.global	TX_SEND_SetCountMode
 1343              		.code	16
 1344              		.thumb_func
 1345              		.type	TX_SEND_SetCountMode, %function
 1346              	TX_SEND_SetCountMode:
 1347              	.LFB32:
1226:Generated_Source\PSoC4/TX_SEND.c ****     uint8 enableInterrupts;
 1348              		.loc 1 1226 0
 1349              		.cfi_startproc
 1350              	.LVL86:
 1351 0000 10B5     		push	{r4, lr}
 1352              		.cfi_def_cfa_offset 8
 1353              		.cfi_offset 4, -8
 1354              		.cfi_offset 14, -4
1226:Generated_Source\PSoC4/TX_SEND.c ****     uint8 enableInterrupts;
 1355              		.loc 1 1226 0
 1356 0002 041C     		mov	r4, r0
1229:Generated_Source\PSoC4/TX_SEND.c **** 
 1357              		.loc 1 1229 0
ARM GAS  C:\Users\g\AppData\Local\Temp\ccIVY2Cy.s 			page 52


 1358 0004 FFF7FEFF 		bl	CyEnterCriticalSection
 1359              	.LVL87:
1231:Generated_Source\PSoC4/TX_SEND.c ****     TX_SEND_TRIG_CONTROL1_REG |= ((uint32)(triggerMode << TX_SEND_COUNT_SHIFT));
 1360              		.loc 1 1231 0
 1361 0008 0C21     		mov	r1, #12
 1362 000a 054B     		ldr	r3, .L100
1235:Generated_Source\PSoC4/TX_SEND.c **** 
 1363              		.loc 1 1235 0
 1364              		@ sp needed
1231:Generated_Source\PSoC4/TX_SEND.c ****     TX_SEND_TRIG_CONTROL1_REG |= ((uint32)(triggerMode << TX_SEND_COUNT_SHIFT));
 1365              		.loc 1 1231 0
 1366 000c 1A68     		ldr	r2, [r3]
 1367 000e 8A43     		bic	r2, r1
 1368 0010 1A60     		str	r2, [r3]
1232:Generated_Source\PSoC4/TX_SEND.c **** 
 1369              		.loc 1 1232 0
 1370 0012 1968     		ldr	r1, [r3]
 1371 0014 A200     		lsl	r2, r4, #2
 1372 0016 0A43     		orr	r2, r1
 1373 0018 1A60     		str	r2, [r3]
1234:Generated_Source\PSoC4/TX_SEND.c **** }
 1374              		.loc 1 1234 0
 1375 001a FFF7FEFF 		bl	CyExitCriticalSection
 1376              	.LVL88:
 1377              	.LVL89:
1235:Generated_Source\PSoC4/TX_SEND.c **** 
 1378              		.loc 1 1235 0
 1379 001e 10BD     		pop	{r4, pc}
 1380              	.L101:
 1381              		.align	2
 1382              	.L100:
 1383 0020 64010540 		.word	1074069860
 1384              		.cfi_endproc
 1385              	.LFE32:
 1386              		.size	TX_SEND_SetCountMode, .-TX_SEND_SetCountMode
 1387              		.section	.text.TX_SEND_TriggerCommand,"ax",%progbits
 1388              		.align	2
 1389              		.global	TX_SEND_TriggerCommand
 1390              		.code	16
 1391              		.thumb_func
 1392              		.type	TX_SEND_TriggerCommand, %function
 1393              	TX_SEND_TriggerCommand:
 1394              	.LFB33:
1266:Generated_Source\PSoC4/TX_SEND.c ****     uint8 enableInterrupts;
 1395              		.loc 1 1266 0
 1396              		.cfi_startproc
 1397              	.LVL90:
 1398 0000 38B5     		push	{r3, r4, r5, lr}
 1399              		.cfi_def_cfa_offset 16
 1400              		.cfi_offset 3, -16
 1401              		.cfi_offset 4, -12
 1402              		.cfi_offset 5, -8
 1403              		.cfi_offset 14, -4
1266:Generated_Source\PSoC4/TX_SEND.c ****     uint8 enableInterrupts;
 1404              		.loc 1 1266 0
 1405 0002 0D1C     		mov	r5, r1
 1406 0004 041C     		mov	r4, r0
ARM GAS  C:\Users\g\AppData\Local\Temp\ccIVY2Cy.s 			page 53


1271:Generated_Source\PSoC4/TX_SEND.c **** 
 1407              		.loc 1 1271 0
 1408 0006 AC40     		lsl	r4, r4, r5
1269:Generated_Source\PSoC4/TX_SEND.c **** 
 1409              		.loc 1 1269 0
 1410 0008 FFF7FEFF 		bl	CyEnterCriticalSection
 1411              	.LVL91:
1271:Generated_Source\PSoC4/TX_SEND.c **** 
 1412              		.loc 1 1271 0
 1413 000c 024B     		ldr	r3, .L103
1274:Generated_Source\PSoC4/TX_SEND.c **** 
 1414              		.loc 1 1274 0
 1415              		@ sp needed
1271:Generated_Source\PSoC4/TX_SEND.c **** 
 1416              		.loc 1 1271 0
 1417 000e 1C60     		str	r4, [r3]
1273:Generated_Source\PSoC4/TX_SEND.c **** }
 1418              		.loc 1 1273 0
 1419 0010 FFF7FEFF 		bl	CyExitCriticalSection
 1420              	.LVL92:
 1421              	.LVL93:
1274:Generated_Source\PSoC4/TX_SEND.c **** 
 1422              		.loc 1 1274 0
 1423 0014 38BD     		pop	{r3, r4, r5, pc}
 1424              	.L104:
 1425 0016 C046     		.align	2
 1426              	.L103:
 1427 0018 08000540 		.word	1074069512
 1428              		.cfi_endproc
 1429              	.LFE33:
 1430              		.size	TX_SEND_TriggerCommand, .-TX_SEND_TriggerCommand
 1431              		.section	.text.TX_SEND_ReadStatus,"ax",%progbits
 1432              		.align	2
 1433              		.global	TX_SEND_ReadStatus
 1434              		.code	16
 1435              		.thumb_func
 1436              		.type	TX_SEND_ReadStatus, %function
 1437              	TX_SEND_ReadStatus:
 1438              	.LFB34:
1295:Generated_Source\PSoC4/TX_SEND.c ****     return ((TX_SEND_STATUS_REG >> TX_SEND_RUNNING_STATUS_SHIFT) |
 1439              		.loc 1 1295 0
 1440              		.cfi_startproc
1297:Generated_Source\PSoC4/TX_SEND.c **** }
 1441              		.loc 1 1297 0
 1442 0000 0120     		mov	r0, #1
1296:Generated_Source\PSoC4/TX_SEND.c ****             (TX_SEND_STATUS_REG & TX_SEND_STATUS_DOWN));
 1443              		.loc 1 1296 0
 1444 0002 034A     		ldr	r2, .L106
1298:Generated_Source\PSoC4/TX_SEND.c **** 
 1445              		.loc 1 1298 0
 1446              		@ sp needed
1296:Generated_Source\PSoC4/TX_SEND.c ****             (TX_SEND_STATUS_REG & TX_SEND_STATUS_DOWN));
 1447              		.loc 1 1296 0
 1448 0004 1368     		ldr	r3, [r2]
1297:Generated_Source\PSoC4/TX_SEND.c **** }
 1449              		.loc 1 1297 0
 1450 0006 1268     		ldr	r2, [r2]
ARM GAS  C:\Users\g\AppData\Local\Temp\ccIVY2Cy.s 			page 54


1296:Generated_Source\PSoC4/TX_SEND.c ****             (TX_SEND_STATUS_REG & TX_SEND_STATUS_DOWN));
 1451              		.loc 1 1296 0
 1452 0008 9B0F     		lsr	r3, r3, #30
1297:Generated_Source\PSoC4/TX_SEND.c **** }
 1453              		.loc 1 1297 0
 1454 000a 1040     		and	r0, r2
1296:Generated_Source\PSoC4/TX_SEND.c ****             (TX_SEND_STATUS_REG & TX_SEND_STATUS_DOWN));
 1455              		.loc 1 1296 0
 1456 000c 1843     		orr	r0, r3
1298:Generated_Source\PSoC4/TX_SEND.c **** 
 1457              		.loc 1 1298 0
 1458 000e 7047     		bx	lr
 1459              	.L107:
 1460              		.align	2
 1461              	.L106:
 1462 0010 44010540 		.word	1074069828
 1463              		.cfi_endproc
 1464              	.LFE34:
 1465              		.size	TX_SEND_ReadStatus, .-TX_SEND_ReadStatus
 1466              		.section	.text.TX_SEND_SetInterruptMode,"ax",%progbits
 1467              		.align	2
 1468              		.global	TX_SEND_SetInterruptMode
 1469              		.code	16
 1470              		.thumb_func
 1471              		.type	TX_SEND_SetInterruptMode, %function
 1472              	TX_SEND_SetInterruptMode:
 1473              	.LFB35:
1320:Generated_Source\PSoC4/TX_SEND.c ****     TX_SEND_INTERRUPT_MASK_REG =  interruptMask;
 1474              		.loc 1 1320 0
 1475              		.cfi_startproc
 1476              	.LVL94:
 1477              		.loc 1 1321 0
 1478 0000 014B     		ldr	r3, .L109
1322:Generated_Source\PSoC4/TX_SEND.c **** }
 1479              		.loc 1 1322 0
 1480              		@ sp needed
1321:Generated_Source\PSoC4/TX_SEND.c **** }
 1481              		.loc 1 1321 0
 1482 0002 1860     		str	r0, [r3]
 1483              		.loc 1 1322 0
 1484 0004 7047     		bx	lr
 1485              	.L110:
 1486 0006 C046     		.align	2
 1487              	.L109:
 1488 0008 78010540 		.word	1074069880
 1489              		.cfi_endproc
 1490              	.LFE35:
 1491              		.size	TX_SEND_SetInterruptMode, .-TX_SEND_SetInterruptMode
 1492              		.section	.text.TX_SEND_GetInterruptSourceMasked,"ax",%progbits
 1493              		.align	2
 1494              		.global	TX_SEND_GetInterruptSourceMasked
 1495              		.code	16
 1496              		.thumb_func
 1497              		.type	TX_SEND_GetInterruptSourceMasked, %function
 1498              	TX_SEND_GetInterruptSourceMasked:
 1499              	.LFB36:
1323:Generated_Source\PSoC4/TX_SEND.c **** 
ARM GAS  C:\Users\g\AppData\Local\Temp\ccIVY2Cy.s 			page 55


1324:Generated_Source\PSoC4/TX_SEND.c **** 
1325:Generated_Source\PSoC4/TX_SEND.c **** /*******************************************************************************
1326:Generated_Source\PSoC4/TX_SEND.c **** * Function Name: TX_SEND_GetInterruptSourceMasked
1327:Generated_Source\PSoC4/TX_SEND.c **** ********************************************************************************
1328:Generated_Source\PSoC4/TX_SEND.c **** *
1329:Generated_Source\PSoC4/TX_SEND.c **** * Summary:
1330:Generated_Source\PSoC4/TX_SEND.c **** *  Gets the interrupt requests masked by the interrupt mask.
1331:Generated_Source\PSoC4/TX_SEND.c **** *
1332:Generated_Source\PSoC4/TX_SEND.c **** * Parameters:
1333:Generated_Source\PSoC4/TX_SEND.c **** *   None
1334:Generated_Source\PSoC4/TX_SEND.c **** *
1335:Generated_Source\PSoC4/TX_SEND.c **** * Return:
1336:Generated_Source\PSoC4/TX_SEND.c **** *  Masked interrupt source
1337:Generated_Source\PSoC4/TX_SEND.c **** *   Values:
1338:Generated_Source\PSoC4/TX_SEND.c **** *     - TX_SEND_INTR_MASK_TC       - Terminal count mask
1339:Generated_Source\PSoC4/TX_SEND.c **** *     - TX_SEND_INTR_MASK_CC_MATCH - Compare count / capture mask
1340:Generated_Source\PSoC4/TX_SEND.c **** *
1341:Generated_Source\PSoC4/TX_SEND.c **** *******************************************************************************/
1342:Generated_Source\PSoC4/TX_SEND.c **** uint32 TX_SEND_GetInterruptSourceMasked(void)
1343:Generated_Source\PSoC4/TX_SEND.c **** {
 1500              		.loc 1 1343 0
 1501              		.cfi_startproc
1344:Generated_Source\PSoC4/TX_SEND.c ****     return (TX_SEND_INTERRUPT_MASKED_REG);
 1502              		.loc 1 1344 0
 1503 0000 014B     		ldr	r3, .L112
1345:Generated_Source\PSoC4/TX_SEND.c **** }
 1504              		.loc 1 1345 0
 1505              		@ sp needed
1344:Generated_Source\PSoC4/TX_SEND.c ****     return (TX_SEND_INTERRUPT_MASKED_REG);
 1506              		.loc 1 1344 0
 1507 0002 1868     		ldr	r0, [r3]
 1508              		.loc 1 1345 0
 1509 0004 7047     		bx	lr
 1510              	.L113:
 1511 0006 C046     		.align	2
 1512              	.L112:
 1513 0008 7C010540 		.word	1074069884
 1514              		.cfi_endproc
 1515              	.LFE36:
 1516              		.size	TX_SEND_GetInterruptSourceMasked, .-TX_SEND_GetInterruptSourceMasked
 1517              		.section	.text.TX_SEND_GetInterruptSource,"ax",%progbits
 1518              		.align	2
 1519              		.global	TX_SEND_GetInterruptSource
 1520              		.code	16
 1521              		.thumb_func
 1522              		.type	TX_SEND_GetInterruptSource, %function
 1523              	TX_SEND_GetInterruptSource:
 1524              	.LFB37:
1346:Generated_Source\PSoC4/TX_SEND.c **** 
1347:Generated_Source\PSoC4/TX_SEND.c **** 
1348:Generated_Source\PSoC4/TX_SEND.c **** /*******************************************************************************
1349:Generated_Source\PSoC4/TX_SEND.c **** * Function Name: TX_SEND_GetInterruptSource
1350:Generated_Source\PSoC4/TX_SEND.c **** ********************************************************************************
1351:Generated_Source\PSoC4/TX_SEND.c **** *
1352:Generated_Source\PSoC4/TX_SEND.c **** * Summary:
1353:Generated_Source\PSoC4/TX_SEND.c **** *  Gets the interrupt requests (without masking).
1354:Generated_Source\PSoC4/TX_SEND.c **** *
ARM GAS  C:\Users\g\AppData\Local\Temp\ccIVY2Cy.s 			page 56


1355:Generated_Source\PSoC4/TX_SEND.c **** * Parameters:
1356:Generated_Source\PSoC4/TX_SEND.c **** *  None
1357:Generated_Source\PSoC4/TX_SEND.c **** *
1358:Generated_Source\PSoC4/TX_SEND.c **** * Return:
1359:Generated_Source\PSoC4/TX_SEND.c **** *  Interrupt request value
1360:Generated_Source\PSoC4/TX_SEND.c **** *   Values:
1361:Generated_Source\PSoC4/TX_SEND.c **** *     - TX_SEND_INTR_MASK_TC       - Terminal count mask
1362:Generated_Source\PSoC4/TX_SEND.c **** *     - TX_SEND_INTR_MASK_CC_MATCH - Compare count / capture mask
1363:Generated_Source\PSoC4/TX_SEND.c **** *
1364:Generated_Source\PSoC4/TX_SEND.c **** *******************************************************************************/
1365:Generated_Source\PSoC4/TX_SEND.c **** uint32 TX_SEND_GetInterruptSource(void)
1366:Generated_Source\PSoC4/TX_SEND.c **** {
 1525              		.loc 1 1366 0
 1526              		.cfi_startproc
1367:Generated_Source\PSoC4/TX_SEND.c ****     return (TX_SEND_INTERRUPT_REQ_REG);
 1527              		.loc 1 1367 0
 1528 0000 014B     		ldr	r3, .L115
1368:Generated_Source\PSoC4/TX_SEND.c **** }
 1529              		.loc 1 1368 0
 1530              		@ sp needed
1367:Generated_Source\PSoC4/TX_SEND.c ****     return (TX_SEND_INTERRUPT_REQ_REG);
 1531              		.loc 1 1367 0
 1532 0002 1868     		ldr	r0, [r3]
 1533              		.loc 1 1368 0
 1534 0004 7047     		bx	lr
 1535              	.L116:
 1536 0006 C046     		.align	2
 1537              	.L115:
 1538 0008 70010540 		.word	1074069872
 1539              		.cfi_endproc
 1540              	.LFE37:
 1541              		.size	TX_SEND_GetInterruptSource, .-TX_SEND_GetInterruptSource
 1542              		.section	.text.TX_SEND_ClearInterrupt,"ax",%progbits
 1543              		.align	2
 1544              		.global	TX_SEND_ClearInterrupt
 1545              		.code	16
 1546              		.thumb_func
 1547              		.type	TX_SEND_ClearInterrupt, %function
 1548              	TX_SEND_ClearInterrupt:
 1549              	.LFB38:
1369:Generated_Source\PSoC4/TX_SEND.c **** 
1370:Generated_Source\PSoC4/TX_SEND.c **** 
1371:Generated_Source\PSoC4/TX_SEND.c **** /*******************************************************************************
1372:Generated_Source\PSoC4/TX_SEND.c **** * Function Name: TX_SEND_ClearInterrupt
1373:Generated_Source\PSoC4/TX_SEND.c **** ********************************************************************************
1374:Generated_Source\PSoC4/TX_SEND.c **** *
1375:Generated_Source\PSoC4/TX_SEND.c **** * Summary:
1376:Generated_Source\PSoC4/TX_SEND.c **** *  Clears the interrupt request.
1377:Generated_Source\PSoC4/TX_SEND.c **** *
1378:Generated_Source\PSoC4/TX_SEND.c **** * Parameters:
1379:Generated_Source\PSoC4/TX_SEND.c **** *   interruptMask: Mask of interrupts to clear
1380:Generated_Source\PSoC4/TX_SEND.c **** *   Values:
1381:Generated_Source\PSoC4/TX_SEND.c **** *     - TX_SEND_INTR_MASK_TC       - Terminal count mask
1382:Generated_Source\PSoC4/TX_SEND.c **** *     - TX_SEND_INTR_MASK_CC_MATCH - Compare count / capture mask
1383:Generated_Source\PSoC4/TX_SEND.c **** *
1384:Generated_Source\PSoC4/TX_SEND.c **** * Return:
1385:Generated_Source\PSoC4/TX_SEND.c **** *  None
ARM GAS  C:\Users\g\AppData\Local\Temp\ccIVY2Cy.s 			page 57


1386:Generated_Source\PSoC4/TX_SEND.c **** *
1387:Generated_Source\PSoC4/TX_SEND.c **** *******************************************************************************/
1388:Generated_Source\PSoC4/TX_SEND.c **** void TX_SEND_ClearInterrupt(uint32 interruptMask)
1389:Generated_Source\PSoC4/TX_SEND.c **** {
 1550              		.loc 1 1389 0
 1551              		.cfi_startproc
 1552              	.LVL95:
1390:Generated_Source\PSoC4/TX_SEND.c ****     TX_SEND_INTERRUPT_REQ_REG = interruptMask;
 1553              		.loc 1 1390 0
 1554 0000 014B     		ldr	r3, .L118
1391:Generated_Source\PSoC4/TX_SEND.c **** }
 1555              		.loc 1 1391 0
 1556              		@ sp needed
1390:Generated_Source\PSoC4/TX_SEND.c ****     TX_SEND_INTERRUPT_REQ_REG = interruptMask;
 1557              		.loc 1 1390 0
 1558 0002 1860     		str	r0, [r3]
 1559              		.loc 1 1391 0
 1560 0004 7047     		bx	lr
 1561              	.L119:
 1562 0006 C046     		.align	2
 1563              	.L118:
 1564 0008 70010540 		.word	1074069872
 1565              		.cfi_endproc
 1566              	.LFE38:
 1567              		.size	TX_SEND_ClearInterrupt, .-TX_SEND_ClearInterrupt
 1568              		.section	.text.TX_SEND_SetInterrupt,"ax",%progbits
 1569              		.align	2
 1570              		.global	TX_SEND_SetInterrupt
 1571              		.code	16
 1572              		.thumb_func
 1573              		.type	TX_SEND_SetInterrupt, %function
 1574              	TX_SEND_SetInterrupt:
 1575              	.LFB39:
1392:Generated_Source\PSoC4/TX_SEND.c **** 
1393:Generated_Source\PSoC4/TX_SEND.c **** 
1394:Generated_Source\PSoC4/TX_SEND.c **** /*******************************************************************************
1395:Generated_Source\PSoC4/TX_SEND.c **** * Function Name: TX_SEND_SetInterrupt
1396:Generated_Source\PSoC4/TX_SEND.c **** ********************************************************************************
1397:Generated_Source\PSoC4/TX_SEND.c **** *
1398:Generated_Source\PSoC4/TX_SEND.c **** * Summary:
1399:Generated_Source\PSoC4/TX_SEND.c **** *  Sets a software interrupt request.
1400:Generated_Source\PSoC4/TX_SEND.c **** *
1401:Generated_Source\PSoC4/TX_SEND.c **** * Parameters:
1402:Generated_Source\PSoC4/TX_SEND.c **** *   interruptMask: Mask of interrupts to set
1403:Generated_Source\PSoC4/TX_SEND.c **** *   Values:
1404:Generated_Source\PSoC4/TX_SEND.c **** *     - TX_SEND_INTR_MASK_TC       - Terminal count mask
1405:Generated_Source\PSoC4/TX_SEND.c **** *     - TX_SEND_INTR_MASK_CC_MATCH - Compare count / capture mask
1406:Generated_Source\PSoC4/TX_SEND.c **** *
1407:Generated_Source\PSoC4/TX_SEND.c **** * Return:
1408:Generated_Source\PSoC4/TX_SEND.c **** *  None
1409:Generated_Source\PSoC4/TX_SEND.c **** *
1410:Generated_Source\PSoC4/TX_SEND.c **** *******************************************************************************/
1411:Generated_Source\PSoC4/TX_SEND.c **** void TX_SEND_SetInterrupt(uint32 interruptMask)
1412:Generated_Source\PSoC4/TX_SEND.c **** {
 1576              		.loc 1 1412 0
 1577              		.cfi_startproc
 1578              	.LVL96:
ARM GAS  C:\Users\g\AppData\Local\Temp\ccIVY2Cy.s 			page 58


1413:Generated_Source\PSoC4/TX_SEND.c ****     TX_SEND_INTERRUPT_SET_REG = interruptMask;
 1579              		.loc 1 1413 0
 1580 0000 014B     		ldr	r3, .L121
1414:Generated_Source\PSoC4/TX_SEND.c **** }
 1581              		.loc 1 1414 0
 1582              		@ sp needed
1413:Generated_Source\PSoC4/TX_SEND.c ****     TX_SEND_INTERRUPT_SET_REG = interruptMask;
 1583              		.loc 1 1413 0
 1584 0002 1860     		str	r0, [r3]
 1585              		.loc 1 1414 0
 1586 0004 7047     		bx	lr
 1587              	.L122:
 1588 0006 C046     		.align	2
 1589              	.L121:
 1590 0008 74010540 		.word	1074069876
 1591              		.cfi_endproc
 1592              	.LFE39:
 1593              		.size	TX_SEND_SetInterrupt, .-TX_SEND_SetInterrupt
 1594              		.global	TX_SEND_initVar
 1595              		.bss
 1596              		.set	.LANCHOR0,. + 0
 1597              		.type	TX_SEND_initVar, %object
 1598              		.size	TX_SEND_initVar, 1
 1599              	TX_SEND_initVar:
 1600 0000 00       		.space	1
 1601              		.text
 1602              	.Letext0:
 1603              		.file 2 "Generated_Source\\PSoC4\\cytypes.h"
 1604              		.file 3 "Generated_Source\\PSoC4\\CyLib.h"
 1605              		.section	.debug_info,"",%progbits
 1606              	.Ldebug_info0:
 1607 0000 E0090000 		.4byte	0x9e0
 1608 0004 0400     		.2byte	0x4
 1609 0006 00000000 		.4byte	.Ldebug_abbrev0
 1610 000a 04       		.byte	0x4
 1611 000b 01       		.uleb128 0x1
 1612 000c 81030000 		.4byte	.LASF75
 1613 0010 01       		.byte	0x1
 1614 0011 A7020000 		.4byte	.LASF76
 1615 0015 51000000 		.4byte	.LASF77
 1616 0019 48000000 		.4byte	.Ldebug_ranges0+0x48
 1617 001d 00000000 		.4byte	0
 1618 0021 00000000 		.4byte	.Ldebug_line0
 1619 0025 02       		.uleb128 0x2
 1620 0026 01       		.byte	0x1
 1621 0027 06       		.byte	0x6
 1622 0028 D0000000 		.4byte	.LASF0
 1623 002c 02       		.uleb128 0x2
 1624 002d 01       		.byte	0x1
 1625 002e 08       		.byte	0x8
 1626 002f 65030000 		.4byte	.LASF1
 1627 0033 02       		.uleb128 0x2
 1628 0034 02       		.byte	0x2
 1629 0035 05       		.byte	0x5
 1630 0036 1A040000 		.4byte	.LASF2
 1631 003a 02       		.uleb128 0x2
 1632 003b 02       		.byte	0x2
ARM GAS  C:\Users\g\AppData\Local\Temp\ccIVY2Cy.s 			page 59


 1633 003c 07       		.byte	0x7
 1634 003d 17020000 		.4byte	.LASF3
 1635 0041 02       		.uleb128 0x2
 1636 0042 04       		.byte	0x4
 1637 0043 05       		.byte	0x5
 1638 0044 EC000000 		.4byte	.LASF4
 1639 0048 02       		.uleb128 0x2
 1640 0049 04       		.byte	0x4
 1641 004a 07       		.byte	0x7
 1642 004b CA010000 		.4byte	.LASF5
 1643 004f 02       		.uleb128 0x2
 1644 0050 08       		.byte	0x8
 1645 0051 05       		.byte	0x5
 1646 0052 C2000000 		.4byte	.LASF6
 1647 0056 02       		.uleb128 0x2
 1648 0057 08       		.byte	0x8
 1649 0058 07       		.byte	0x7
 1650 0059 8D000000 		.4byte	.LASF7
 1651 005d 03       		.uleb128 0x3
 1652 005e 04       		.byte	0x4
 1653 005f 05       		.byte	0x5
 1654 0060 696E7400 		.ascii	"int\000"
 1655 0064 02       		.uleb128 0x2
 1656 0065 04       		.byte	0x4
 1657 0066 07       		.byte	0x7
 1658 0067 A4010000 		.4byte	.LASF8
 1659 006b 04       		.uleb128 0x4
 1660 006c 0C010000 		.4byte	.LASF9
 1661 0070 02       		.byte	0x2
 1662 0071 9801     		.2byte	0x198
 1663 0073 2C000000 		.4byte	0x2c
 1664 0077 04       		.uleb128 0x4
 1665 0078 19010000 		.4byte	.LASF10
 1666 007c 02       		.byte	0x2
 1667 007d 9A01     		.2byte	0x19a
 1668 007f 48000000 		.4byte	0x48
 1669 0083 02       		.uleb128 0x2
 1670 0084 04       		.byte	0x4
 1671 0085 04       		.byte	0x4
 1672 0086 2D030000 		.4byte	.LASF11
 1673 008a 02       		.uleb128 0x2
 1674 008b 08       		.byte	0x8
 1675 008c 04       		.byte	0x4
 1676 008d 12010000 		.4byte	.LASF12
 1677 0091 02       		.uleb128 0x2
 1678 0092 01       		.byte	0x1
 1679 0093 08       		.byte	0x8
 1680 0094 AF040000 		.4byte	.LASF13
 1681 0098 04       		.uleb128 0x4
 1682 0099 83020000 		.4byte	.LASF14
 1683 009d 02       		.byte	0x2
 1684 009e 4402     		.2byte	0x244
 1685 00a0 A4000000 		.4byte	0xa4
 1686 00a4 05       		.uleb128 0x5
 1687 00a5 77000000 		.4byte	0x77
 1688 00a9 02       		.uleb128 0x2
 1689 00aa 04       		.byte	0x4
ARM GAS  C:\Users\g\AppData\Local\Temp\ccIVY2Cy.s 			page 60


 1690 00ab 07       		.byte	0x7
 1691 00ac 9E020000 		.4byte	.LASF15
 1692 00b0 06       		.uleb128 0x6
 1693 00b1 1C000000 		.4byte	.LASF18
 1694 00b5 01       		.byte	0x1
 1695 00b6 F104     		.2byte	0x4f1
 1696 00b8 01       		.byte	0x1
 1697 00b9 E2000000 		.4byte	0xe2
 1698 00bd 07       		.uleb128 0x7
 1699 00be 41010000 		.4byte	.LASF16
 1700 00c2 01       		.byte	0x1
 1701 00c3 F104     		.2byte	0x4f1
 1702 00c5 77000000 		.4byte	0x77
 1703 00c9 07       		.uleb128 0x7
 1704 00ca C2010000 		.4byte	.LASF17
 1705 00ce 01       		.byte	0x1
 1706 00cf F104     		.2byte	0x4f1
 1707 00d1 77000000 		.4byte	0x77
 1708 00d5 08       		.uleb128 0x8
 1709 00d6 4E050000 		.4byte	.LASF28
 1710 00da 01       		.byte	0x1
 1711 00db F304     		.2byte	0x4f3
 1712 00dd 6B000000 		.4byte	0x6b
 1713 00e1 00       		.byte	0
 1714 00e2 06       		.uleb128 0x6
 1715 00e3 9A050000 		.4byte	.LASF19
 1716 00e7 01       		.byte	0x1
 1717 00e8 2705     		.2byte	0x527
 1718 00ea 01       		.byte	0x1
 1719 00eb FC000000 		.4byte	0xfc
 1720 00ef 07       		.uleb128 0x7
 1721 00f0 75040000 		.4byte	.LASF20
 1722 00f4 01       		.byte	0x1
 1723 00f5 2705     		.2byte	0x527
 1724 00f7 77000000 		.4byte	0x77
 1725 00fb 00       		.byte	0
 1726 00fc 06       		.uleb128 0x6
 1727 00fd 46010000 		.4byte	.LASF21
 1728 0101 01       		.byte	0x1
 1729 0102 B502     		.2byte	0x2b5
 1730 0104 01       		.byte	0x1
 1731 0105 16010000 		.4byte	0x116
 1732 0109 07       		.uleb128 0x7
 1733 010a 4A000000 		.4byte	.LASF22
 1734 010e 01       		.byte	0x1
 1735 010f B502     		.2byte	0x2b5
 1736 0111 77000000 		.4byte	0x77
 1737 0115 00       		.byte	0
 1738 0116 06       		.uleb128 0x6
 1739 0117 3D030000 		.4byte	.LASF23
 1740 011b 01       		.byte	0x1
 1741 011c 6702     		.2byte	0x267
 1742 011e 01       		.byte	0x1
 1743 011f 30010000 		.4byte	0x130
 1744 0123 07       		.uleb128 0x7
 1745 0124 00000000 		.4byte	.LASF24
 1746 0128 01       		.byte	0x1
ARM GAS  C:\Users\g\AppData\Local\Temp\ccIVY2Cy.s 			page 61


 1747 0129 6702     		.2byte	0x267
 1748 012b 77000000 		.4byte	0x77
 1749 012f 00       		.byte	0
 1750 0130 09       		.uleb128 0x9
 1751 0131 2A020000 		.4byte	.LASF78
 1752 0135 01       		.byte	0x1
 1753 0136 26       		.byte	0x26
 1754 0137 01       		.byte	0x1
 1755 0138 0A       		.uleb128 0xa
 1756 0139 30010000 		.4byte	0x130
 1757 013d 00000000 		.4byte	.LFB0
 1758 0141 3C000000 		.4byte	.LFE0-.LFB0
 1759 0145 01       		.uleb128 0x1
 1760 0146 9C       		.byte	0x9c
 1761 0147 97010000 		.4byte	0x197
 1762 014b 0B       		.uleb128 0xb
 1763 014c FC000000 		.4byte	0xfc
 1764 0150 04000000 		.4byte	.LBB18
 1765 0154 00000000 		.4byte	.Ldebug_ranges0+0
 1766 0158 01       		.byte	0x1
 1767 0159 43       		.byte	0x43
 1768 015a 66010000 		.4byte	0x166
 1769 015e 0C       		.uleb128 0xc
 1770 015f 09010000 		.4byte	0x109
 1771 0163 5307     		.2byte	0x753
 1772 0165 00       		.byte	0
 1773 0166 0D       		.uleb128 0xd
 1774 0167 E2000000 		.4byte	0xe2
 1775 016b 0E000000 		.4byte	.LBB21
 1776 016f 06000000 		.4byte	.LBE21-.LBB21
 1777 0173 01       		.byte	0x1
 1778 0174 40       		.byte	0x40
 1779 0175 80010000 		.4byte	0x180
 1780 0179 0E       		.uleb128 0xe
 1781 017a EF000000 		.4byte	0xef
 1782 017e 00       		.byte	0
 1783 017f 00       		.byte	0
 1784 0180 0F       		.uleb128 0xf
 1785 0181 16010000 		.4byte	0x116
 1786 0185 18000000 		.4byte	.LBB24
 1787 0189 04000000 		.4byte	.LBE24-.LBB24
 1788 018d 01       		.byte	0x1
 1789 018e 54       		.byte	0x54
 1790 018f 0E       		.uleb128 0xe
 1791 0190 23010000 		.4byte	0x123
 1792 0194 00       		.byte	0
 1793 0195 00       		.byte	0
 1794 0196 00       		.byte	0
 1795 0197 10       		.uleb128 0x10
 1796 0198 5F050000 		.4byte	.LASF25
 1797 019c 01       		.byte	0x1
 1798 019d B1       		.byte	0xb1
 1799 019e 00000000 		.4byte	.LFB1
 1800 01a2 30000000 		.4byte	.LFE1-.LFB1
 1801 01a6 01       		.uleb128 0x1
 1802 01a7 9C       		.byte	0x9c
 1803 01a8 13020000 		.4byte	0x213
ARM GAS  C:\Users\g\AppData\Local\Temp\ccIVY2Cy.s 			page 62


 1804 01ac 11       		.uleb128 0x11
 1805 01ad 4E050000 		.4byte	.LASF28
 1806 01b1 01       		.byte	0x1
 1807 01b2 B3       		.byte	0xb3
 1808 01b3 6B000000 		.4byte	0x6b
 1809 01b7 00000000 		.4byte	.LLST0
 1810 01bb 0D       		.uleb128 0xd
 1811 01bc B0000000 		.4byte	0xb0
 1812 01c0 14000000 		.4byte	.LBB26
 1813 01c4 10000000 		.4byte	.LBE26-.LBB26
 1814 01c8 01       		.byte	0x1
 1815 01c9 C2       		.byte	0xc2
 1816 01ca 00020000 		.4byte	0x200
 1817 01ce 0E       		.uleb128 0xe
 1818 01cf C9000000 		.4byte	0xc9
 1819 01d3 18       		.byte	0x18
 1820 01d4 0E       		.uleb128 0xe
 1821 01d5 BD000000 		.4byte	0xbd
 1822 01d9 02       		.byte	0x2
 1823 01da 12       		.uleb128 0x12
 1824 01db 14000000 		.4byte	.LBB27
 1825 01df 10000000 		.4byte	.LBE27-.LBB27
 1826 01e3 13       		.uleb128 0x13
 1827 01e4 D5000000 		.4byte	0xd5
 1828 01e8 13000000 		.4byte	.LLST1
 1829 01ec 14       		.uleb128 0x14
 1830 01ed 18000000 		.4byte	.LVL5
 1831 01f1 CB090000 		.4byte	0x9cb
 1832 01f5 14       		.uleb128 0x14
 1833 01f6 24000000 		.4byte	.LVL6
 1834 01fa D6090000 		.4byte	0x9d6
 1835 01fe 00       		.byte	0
 1836 01ff 00       		.byte	0
 1837 0200 14       		.uleb128 0x14
 1838 0201 06000000 		.4byte	.LVL3
 1839 0205 CB090000 		.4byte	0x9cb
 1840 0209 14       		.uleb128 0x14
 1841 020a 14000000 		.4byte	.LVL4
 1842 020e D6090000 		.4byte	0x9d6
 1843 0212 00       		.byte	0
 1844 0213 10       		.uleb128 0x10
 1845 0214 73030000 		.4byte	.LASF26
 1846 0218 01       		.byte	0x1
 1847 0219 E6       		.byte	0xe6
 1848 021a 00000000 		.4byte	.LFB2
 1849 021e 50000000 		.4byte	.LFE2-.LFB2
 1850 0222 01       		.uleb128 0x1
 1851 0223 9C       		.byte	0x9c
 1852 0224 99020000 		.4byte	0x299
 1853 0228 0D       		.uleb128 0xd
 1854 0229 30010000 		.4byte	0x130
 1855 022d 0A000000 		.4byte	.LBB28
 1856 0231 1A000000 		.4byte	.LBE28-.LBB28
 1857 0235 01       		.byte	0x1
 1858 0236 EA       		.byte	0xea
 1859 0237 8F020000 		.4byte	0x28f
 1860 023b 0B       		.uleb128 0xb
ARM GAS  C:\Users\g\AppData\Local\Temp\ccIVY2Cy.s 			page 63


 1861 023c E2000000 		.4byte	0xe2
 1862 0240 16000000 		.4byte	.LBB30
 1863 0244 18000000 		.4byte	.Ldebug_ranges0+0x18
 1864 0248 01       		.byte	0x1
 1865 0249 40       		.byte	0x40
 1866 024a 58020000 		.4byte	0x258
 1867 024e 15       		.uleb128 0x15
 1868 024f EF000000 		.4byte	0xef
 1869 0253 26000000 		.4byte	.LLST2
 1870 0257 00       		.byte	0
 1871 0258 0B       		.uleb128 0xb
 1872 0259 FC000000 		.4byte	0xfc
 1873 025d 18000000 		.4byte	.LBB33
 1874 0261 30000000 		.4byte	.Ldebug_ranges0+0x30
 1875 0265 01       		.byte	0x1
 1876 0266 43       		.byte	0x43
 1877 0267 75020000 		.4byte	0x275
 1878 026b 15       		.uleb128 0x15
 1879 026c 09010000 		.4byte	0x109
 1880 0270 3A000000 		.4byte	.LLST3
 1881 0274 00       		.byte	0
 1882 0275 0F       		.uleb128 0xf
 1883 0276 16010000 		.4byte	0x116
 1884 027a 20000000 		.4byte	.LBB38
 1885 027e 04000000 		.4byte	.LBE38-.LBB38
 1886 0282 01       		.byte	0x1
 1887 0283 54       		.byte	0x54
 1888 0284 15       		.uleb128 0x15
 1889 0285 23010000 		.4byte	0x123
 1890 0289 50000000 		.4byte	.LLST4
 1891 028d 00       		.byte	0
 1892 028e 00       		.byte	0
 1893 028f 14       		.uleb128 0x14
 1894 0290 2C000000 		.4byte	.LVL11
 1895 0294 97010000 		.4byte	0x197
 1896 0298 00       		.byte	0
 1897 0299 16       		.uleb128 0x16
 1898 029a C8050000 		.4byte	.LASF27
 1899 029e 01       		.byte	0x1
 1900 029f 0001     		.2byte	0x100
 1901 02a1 00000000 		.4byte	.LFB3
 1902 02a5 1C000000 		.4byte	.LFE3-.LFB3
 1903 02a9 01       		.uleb128 0x1
 1904 02aa 9C       		.byte	0x9c
 1905 02ab D2020000 		.4byte	0x2d2
 1906 02af 17       		.uleb128 0x17
 1907 02b0 4E050000 		.4byte	.LASF28
 1908 02b4 01       		.byte	0x1
 1909 02b5 0201     		.2byte	0x102
 1910 02b7 6B000000 		.4byte	0x6b
 1911 02bb 64000000 		.4byte	.LLST5
 1912 02bf 14       		.uleb128 0x14
 1913 02c0 06000000 		.4byte	.LVL12
 1914 02c4 CB090000 		.4byte	0x9cb
 1915 02c8 14       		.uleb128 0x14
 1916 02c9 14000000 		.4byte	.LVL13
 1917 02cd D6090000 		.4byte	0x9d6
ARM GAS  C:\Users\g\AppData\Local\Temp\ccIVY2Cy.s 			page 64


 1918 02d1 00       		.byte	0
 1919 02d2 16       		.uleb128 0x16
 1920 02d3 1D030000 		.4byte	.LASF29
 1921 02d7 01       		.byte	0x1
 1922 02d8 2501     		.2byte	0x125
 1923 02da 00000000 		.4byte	.LFB4
 1924 02de 28000000 		.4byte	.LFE4-.LFB4
 1925 02e2 01       		.uleb128 0x1
 1926 02e3 9C       		.byte	0x9c
 1927 02e4 1B030000 		.4byte	0x31b
 1928 02e8 18       		.uleb128 0x18
 1929 02e9 B4040000 		.4byte	.LASF31
 1930 02ed 01       		.byte	0x1
 1931 02ee 2501     		.2byte	0x125
 1932 02f0 77000000 		.4byte	0x77
 1933 02f4 77000000 		.4byte	.LLST6
 1934 02f8 17       		.uleb128 0x17
 1935 02f9 4E050000 		.4byte	.LASF28
 1936 02fd 01       		.byte	0x1
 1937 02fe 2701     		.2byte	0x127
 1938 0300 6B000000 		.4byte	0x6b
 1939 0304 A3000000 		.4byte	.LLST7
 1940 0308 14       		.uleb128 0x14
 1941 0309 08000000 		.4byte	.LVL15
 1942 030d CB090000 		.4byte	0x9cb
 1943 0311 14       		.uleb128 0x14
 1944 0312 1C000000 		.4byte	.LVL16
 1945 0316 D6090000 		.4byte	0x9d6
 1946 031a 00       		.byte	0
 1947 031b 16       		.uleb128 0x16
 1948 031c 63010000 		.4byte	.LASF30
 1949 0320 01       		.byte	0x1
 1950 0321 4601     		.2byte	0x146
 1951 0323 00000000 		.4byte	.LFB5
 1952 0327 28000000 		.4byte	.LFE5-.LFB5
 1953 032b 01       		.uleb128 0x1
 1954 032c 9C       		.byte	0x9c
 1955 032d 64030000 		.4byte	0x364
 1956 0331 18       		.uleb128 0x18
 1957 0332 A4000000 		.4byte	.LASF32
 1958 0336 01       		.byte	0x1
 1959 0337 4601     		.2byte	0x146
 1960 0339 77000000 		.4byte	0x77
 1961 033d B6000000 		.4byte	.LLST8
 1962 0341 17       		.uleb128 0x17
 1963 0342 4E050000 		.4byte	.LASF28
 1964 0346 01       		.byte	0x1
 1965 0347 4801     		.2byte	0x148
 1966 0349 6B000000 		.4byte	0x6b
 1967 034d E2000000 		.4byte	.LLST9
 1968 0351 14       		.uleb128 0x14
 1969 0352 08000000 		.4byte	.LVL19
 1970 0356 CB090000 		.4byte	0x9cb
 1971 035a 14       		.uleb128 0x14
 1972 035b 1C000000 		.4byte	.LVL20
 1973 035f D6090000 		.4byte	0x9d6
 1974 0363 00       		.byte	0
ARM GAS  C:\Users\g\AppData\Local\Temp\ccIVY2Cy.s 			page 65


 1975 0364 16       		.uleb128 0x16
 1976 0365 85050000 		.4byte	.LASF33
 1977 0369 01       		.byte	0x1
 1978 036a 6B01     		.2byte	0x16b
 1979 036c 00000000 		.4byte	.LFB6
 1980 0370 28000000 		.4byte	.LFE6-.LFB6
 1981 0374 01       		.uleb128 0x1
 1982 0375 9C       		.byte	0x9c
 1983 0376 AD030000 		.4byte	0x3ad
 1984 037a 18       		.uleb128 0x18
 1985 037b 33030000 		.4byte	.LASF34
 1986 037f 01       		.byte	0x1
 1987 0380 6B01     		.2byte	0x16b
 1988 0382 77000000 		.4byte	0x77
 1989 0386 F5000000 		.4byte	.LLST10
 1990 038a 17       		.uleb128 0x17
 1991 038b 4E050000 		.4byte	.LASF28
 1992 038f 01       		.byte	0x1
 1993 0390 6D01     		.2byte	0x16d
 1994 0392 6B000000 		.4byte	0x6b
 1995 0396 21010000 		.4byte	.LLST11
 1996 039a 14       		.uleb128 0x14
 1997 039b 08000000 		.4byte	.LVL23
 1998 039f CB090000 		.4byte	0x9cb
 1999 03a3 14       		.uleb128 0x14
 2000 03a4 1C000000 		.4byte	.LVL24
 2001 03a8 D6090000 		.4byte	0x9d6
 2002 03ac 00       		.byte	0
 2003 03ad 16       		.uleb128 0x16
 2004 03ae 0A030000 		.4byte	.LASF35
 2005 03b2 01       		.byte	0x1
 2006 03b3 8B01     		.2byte	0x18b
 2007 03b5 00000000 		.4byte	.LFB7
 2008 03b9 2C000000 		.4byte	.LFE7-.LFB7
 2009 03bd 01       		.uleb128 0x1
 2010 03be 9C       		.byte	0x9c
 2011 03bf F6030000 		.4byte	0x3f6
 2012 03c3 18       		.uleb128 0x18
 2013 03c4 37020000 		.4byte	.LASF36
 2014 03c8 01       		.byte	0x1
 2015 03c9 8B01     		.2byte	0x18b
 2016 03cb 77000000 		.4byte	0x77
 2017 03cf 34010000 		.4byte	.LLST12
 2018 03d3 17       		.uleb128 0x17
 2019 03d4 4E050000 		.4byte	.LASF28
 2020 03d8 01       		.byte	0x1
 2021 03d9 8D01     		.2byte	0x18d
 2022 03db 6B000000 		.4byte	0x6b
 2023 03df 60010000 		.4byte	.LLST13
 2024 03e3 14       		.uleb128 0x14
 2025 03e4 08000000 		.4byte	.LVL27
 2026 03e8 CB090000 		.4byte	0x9cb
 2027 03ec 14       		.uleb128 0x14
 2028 03ed 22000000 		.4byte	.LVL29
 2029 03f1 D6090000 		.4byte	0x9d6
 2030 03f5 00       		.byte	0
 2031 03f6 16       		.uleb128 0x16
ARM GAS  C:\Users\g\AppData\Local\Temp\ccIVY2Cy.s 			page 66


 2032 03f7 D5050000 		.4byte	.LASF37
 2033 03fb 01       		.byte	0x1
 2034 03fc C101     		.2byte	0x1c1
 2035 03fe 00000000 		.4byte	.LFB8
 2036 0402 10000000 		.4byte	.LFE8-.LFB8
 2037 0406 01       		.uleb128 0x1
 2038 0407 9C       		.byte	0x9c
 2039 0408 1D040000 		.4byte	0x41d
 2040 040c 18       		.uleb128 0x18
 2041 040d DC010000 		.4byte	.LASF38
 2042 0411 01       		.byte	0x1
 2043 0412 C101     		.2byte	0x1c1
 2044 0414 77000000 		.4byte	0x77
 2045 0418 73010000 		.4byte	.LLST14
 2046 041c 00       		.byte	0
 2047 041d 16       		.uleb128 0x16
 2048 041e 6E050000 		.4byte	.LASF39
 2049 0422 01       		.byte	0x1
 2050 0423 E501     		.2byte	0x1e5
 2051 0425 00000000 		.4byte	.LFB9
 2052 0429 28000000 		.4byte	.LFE9-.LFB9
 2053 042d 01       		.uleb128 0x1
 2054 042e 9C       		.byte	0x9c
 2055 042f 66040000 		.4byte	0x466
 2056 0433 18       		.uleb128 0x18
 2057 0434 C8020000 		.4byte	.LASF40
 2058 0438 01       		.byte	0x1
 2059 0439 E501     		.2byte	0x1e5
 2060 043b 77000000 		.4byte	0x77
 2061 043f 94010000 		.4byte	.LLST15
 2062 0443 17       		.uleb128 0x17
 2063 0444 4E050000 		.4byte	.LASF28
 2064 0448 01       		.byte	0x1
 2065 0449 E701     		.2byte	0x1e7
 2066 044b 6B000000 		.4byte	0x6b
 2067 044f C0010000 		.4byte	.LLST16
 2068 0453 14       		.uleb128 0x14
 2069 0454 08000000 		.4byte	.LVL33
 2070 0458 CB090000 		.4byte	0x9cb
 2071 045c 14       		.uleb128 0x14
 2072 045d 22000000 		.4byte	.LVL35
 2073 0461 D6090000 		.4byte	0x9d6
 2074 0465 00       		.byte	0
 2075 0466 16       		.uleb128 0x16
 2076 0467 5C040000 		.4byte	.LASF41
 2077 046b 01       		.byte	0x1
 2078 046c 0702     		.2byte	0x207
 2079 046e 00000000 		.4byte	.LFB10
 2080 0472 28000000 		.4byte	.LFE10-.LFB10
 2081 0476 01       		.uleb128 0x1
 2082 0477 9C       		.byte	0x9c
 2083 0478 AF040000 		.4byte	0x4af
 2084 047c 18       		.uleb128 0x18
 2085 047d B1010000 		.4byte	.LASF42
 2086 0481 01       		.byte	0x1
 2087 0482 0702     		.2byte	0x207
 2088 0484 77000000 		.4byte	0x77
ARM GAS  C:\Users\g\AppData\Local\Temp\ccIVY2Cy.s 			page 67


 2089 0488 D3010000 		.4byte	.LLST17
 2090 048c 17       		.uleb128 0x17
 2091 048d 4E050000 		.4byte	.LASF28
 2092 0491 01       		.byte	0x1
 2093 0492 0902     		.2byte	0x209
 2094 0494 6B000000 		.4byte	0x6b
 2095 0498 FF010000 		.4byte	.LLST18
 2096 049c 14       		.uleb128 0x14
 2097 049d 08000000 		.4byte	.LVL37
 2098 04a1 CB090000 		.4byte	0x9cb
 2099 04a5 14       		.uleb128 0x14
 2100 04a6 22000000 		.4byte	.LVL39
 2101 04aa D6090000 		.4byte	0x9d6
 2102 04ae 00       		.byte	0
 2103 04af 16       		.uleb128 0x16
 2104 04b0 F5000000 		.4byte	.LASF43
 2105 04b4 01       		.byte	0x1
 2106 04b5 2802     		.2byte	0x228
 2107 04b7 00000000 		.4byte	.LFB11
 2108 04bb 2C000000 		.4byte	.LFE11-.LFB11
 2109 04bf 01       		.uleb128 0x1
 2110 04c0 9C       		.byte	0x9c
 2111 04c1 F8040000 		.4byte	0x4f8
 2112 04c5 18       		.uleb128 0x18
 2113 04c6 5A010000 		.4byte	.LASF44
 2114 04ca 01       		.byte	0x1
 2115 04cb 2802     		.2byte	0x228
 2116 04cd 77000000 		.4byte	0x77
 2117 04d1 12020000 		.4byte	.LLST19
 2118 04d5 17       		.uleb128 0x17
 2119 04d6 4E050000 		.4byte	.LASF28
 2120 04da 01       		.byte	0x1
 2121 04db 2A02     		.2byte	0x22a
 2122 04dd 6B000000 		.4byte	0x6b
 2123 04e1 3E020000 		.4byte	.LLST20
 2124 04e5 14       		.uleb128 0x14
 2125 04e6 08000000 		.4byte	.LVL41
 2126 04ea CB090000 		.4byte	0x9cb
 2127 04ee 14       		.uleb128 0x14
 2128 04ef 20000000 		.4byte	.LVL43
 2129 04f3 D6090000 		.4byte	0x9d6
 2130 04f7 00       		.byte	0
 2131 04f8 16       		.uleb128 0x16
 2132 04f9 9A040000 		.4byte	.LASF45
 2133 04fd 01       		.byte	0x1
 2134 04fe 4902     		.2byte	0x249
 2135 0500 00000000 		.4byte	.LFB12
 2136 0504 28000000 		.4byte	.LFE12-.LFB12
 2137 0508 01       		.uleb128 0x1
 2138 0509 9C       		.byte	0x9c
 2139 050a 41050000 		.4byte	0x541
 2140 050e 18       		.uleb128 0x18
 2141 050f 41010000 		.4byte	.LASF16
 2142 0513 01       		.byte	0x1
 2143 0514 4902     		.2byte	0x249
 2144 0516 77000000 		.4byte	0x77
 2145 051a 51020000 		.4byte	.LLST21
ARM GAS  C:\Users\g\AppData\Local\Temp\ccIVY2Cy.s 			page 68


 2146 051e 17       		.uleb128 0x17
 2147 051f 4E050000 		.4byte	.LASF28
 2148 0523 01       		.byte	0x1
 2149 0524 4B02     		.2byte	0x24b
 2150 0526 6B000000 		.4byte	0x6b
 2151 052a 7D020000 		.4byte	.LLST22
 2152 052e 14       		.uleb128 0x14
 2153 052f 08000000 		.4byte	.LVL45
 2154 0533 CB090000 		.4byte	0x9cb
 2155 0537 14       		.uleb128 0x14
 2156 0538 1C000000 		.4byte	.LVL46
 2157 053c D6090000 		.4byte	0x9d6
 2158 0540 00       		.byte	0
 2159 0541 0A       		.uleb128 0xa
 2160 0542 16010000 		.4byte	0x116
 2161 0546 00000000 		.4byte	.LFB13
 2162 054a 10000000 		.4byte	.LFE13-.LFB13
 2163 054e 01       		.uleb128 0x1
 2164 054f 9C       		.byte	0x9c
 2165 0550 5E050000 		.4byte	0x55e
 2166 0554 15       		.uleb128 0x15
 2167 0555 23010000 		.4byte	0x123
 2168 0559 90020000 		.4byte	.LLST23
 2169 055d 00       		.byte	0
 2170 055e 19       		.uleb128 0x19
 2171 055f 3A050000 		.4byte	.LASF48
 2172 0563 01       		.byte	0x1
 2173 0564 7B02     		.2byte	0x27b
 2174 0566 77000000 		.4byte	0x77
 2175 056a 00000000 		.4byte	.LFB14
 2176 056e 10000000 		.4byte	.LFE14-.LFB14
 2177 0572 01       		.uleb128 0x1
 2178 0573 9C       		.byte	0x9c
 2179 0574 16       		.uleb128 0x16
 2180 0575 F3020000 		.4byte	.LASF46
 2181 0579 01       		.byte	0x1
 2182 057a 9802     		.2byte	0x298
 2183 057c 00000000 		.4byte	.LFB15
 2184 0580 28000000 		.4byte	.LFE15-.LFB15
 2185 0584 01       		.uleb128 0x1
 2186 0585 9C       		.byte	0x9c
 2187 0586 BD050000 		.4byte	0x5bd
 2188 058a 18       		.uleb128 0x18
 2189 058b CF040000 		.4byte	.LASF47
 2190 058f 01       		.byte	0x1
 2191 0590 9802     		.2byte	0x298
 2192 0592 77000000 		.4byte	0x77
 2193 0596 B1020000 		.4byte	.LLST24
 2194 059a 17       		.uleb128 0x17
 2195 059b 4E050000 		.4byte	.LASF28
 2196 059f 01       		.byte	0x1
 2197 05a0 9A02     		.2byte	0x29a
 2198 05a2 6B000000 		.4byte	0x6b
 2199 05a6 DD020000 		.4byte	.LLST25
 2200 05aa 14       		.uleb128 0x14
 2201 05ab 08000000 		.4byte	.LVL51
 2202 05af CB090000 		.4byte	0x9cb
ARM GAS  C:\Users\g\AppData\Local\Temp\ccIVY2Cy.s 			page 69


 2203 05b3 14       		.uleb128 0x14
 2204 05b4 1C000000 		.4byte	.LVL52
 2205 05b8 D6090000 		.4byte	0x9d6
 2206 05bc 00       		.byte	0
 2207 05bd 0A       		.uleb128 0xa
 2208 05be FC000000 		.4byte	0xfc
 2209 05c2 00000000 		.4byte	.LFB16
 2210 05c6 10000000 		.4byte	.LFE16-.LFB16
 2211 05ca 01       		.uleb128 0x1
 2212 05cb 9C       		.byte	0x9c
 2213 05cc DA050000 		.4byte	0x5da
 2214 05d0 15       		.uleb128 0x15
 2215 05d1 09010000 		.4byte	0x109
 2216 05d5 F0020000 		.4byte	.LLST26
 2217 05d9 00       		.byte	0
 2218 05da 19       		.uleb128 0x19
 2219 05db F2040000 		.4byte	.LASF49
 2220 05df 01       		.byte	0x1
 2221 05e0 C902     		.2byte	0x2c9
 2222 05e2 77000000 		.4byte	0x77
 2223 05e6 00000000 		.4byte	.LFB17
 2224 05ea 10000000 		.4byte	.LFE17-.LFB17
 2225 05ee 01       		.uleb128 0x1
 2226 05ef 9C       		.byte	0x9c
 2227 05f0 16       		.uleb128 0x16
 2228 05f1 DB040000 		.4byte	.LASF50
 2229 05f5 01       		.byte	0x1
 2230 05f6 E302     		.2byte	0x2e3
 2231 05f8 00000000 		.4byte	.LFB18
 2232 05fc 24000000 		.4byte	.LFE18-.LFB18
 2233 0600 01       		.uleb128 0x1
 2234 0601 9C       		.byte	0x9c
 2235 0602 39060000 		.4byte	0x639
 2236 0606 18       		.uleb128 0x18
 2237 0607 B3050000 		.4byte	.LASF51
 2238 060b 01       		.byte	0x1
 2239 060c E302     		.2byte	0x2e3
 2240 060e 77000000 		.4byte	0x77
 2241 0612 11030000 		.4byte	.LLST27
 2242 0616 17       		.uleb128 0x17
 2243 0617 4E050000 		.4byte	.LASF28
 2244 061b 01       		.byte	0x1
 2245 061c E502     		.2byte	0x2e5
 2246 061e 6B000000 		.4byte	0x6b
 2247 0622 3D030000 		.4byte	.LLST28
 2248 0626 14       		.uleb128 0x14
 2249 0627 08000000 		.4byte	.LVL57
 2250 062b CB090000 		.4byte	0x9cb
 2251 062f 14       		.uleb128 0x14
 2252 0630 1E000000 		.4byte	.LVL58
 2253 0634 D6090000 		.4byte	0x9d6
 2254 0638 00       		.byte	0
 2255 0639 16       		.uleb128 0x16
 2256 063a 8D010000 		.4byte	.LASF52
 2257 063e 01       		.byte	0x1
 2258 063f FE02     		.2byte	0x2fe
 2259 0641 00000000 		.4byte	.LFB19
ARM GAS  C:\Users\g\AppData\Local\Temp\ccIVY2Cy.s 			page 70


 2260 0645 10000000 		.4byte	.LFE19-.LFB19
 2261 0649 01       		.uleb128 0x1
 2262 064a 9C       		.byte	0x9c
 2263 064b 60060000 		.4byte	0x660
 2264 064f 18       		.uleb128 0x18
 2265 0650 BE050000 		.4byte	.LASF53
 2266 0654 01       		.byte	0x1
 2267 0655 FE02     		.2byte	0x2fe
 2268 0657 77000000 		.4byte	0x77
 2269 065b 50030000 		.4byte	.LLST29
 2270 065f 00       		.byte	0
 2271 0660 19       		.uleb128 0x19
 2272 0661 10050000 		.4byte	.LASF54
 2273 0665 01       		.byte	0x1
 2274 0666 1203     		.2byte	0x312
 2275 0668 77000000 		.4byte	0x77
 2276 066c 00000000 		.4byte	.LFB20
 2277 0670 10000000 		.4byte	.LFE20-.LFB20
 2278 0674 01       		.uleb128 0x1
 2279 0675 9C       		.byte	0x9c
 2280 0676 16       		.uleb128 0x16
 2281 0677 B9040000 		.4byte	.LASF55
 2282 067b 01       		.byte	0x1
 2283 067c 2C03     		.2byte	0x32c
 2284 067e 00000000 		.4byte	.LFB21
 2285 0682 28000000 		.4byte	.LFE21-.LFB21
 2286 0686 01       		.uleb128 0x1
 2287 0687 9C       		.byte	0x9c
 2288 0688 BF060000 		.4byte	0x6bf
 2289 068c 18       		.uleb128 0x18
 2290 068d B3050000 		.4byte	.LASF51
 2291 0691 01       		.byte	0x1
 2292 0692 2C03     		.2byte	0x32c
 2293 0694 77000000 		.4byte	0x77
 2294 0698 71030000 		.4byte	.LLST30
 2295 069c 17       		.uleb128 0x17
 2296 069d 4E050000 		.4byte	.LASF28
 2297 06a1 01       		.byte	0x1
 2298 06a2 2E03     		.2byte	0x32e
 2299 06a4 6B000000 		.4byte	0x6b
 2300 06a8 9D030000 		.4byte	.LLST31
 2301 06ac 14       		.uleb128 0x14
 2302 06ad 08000000 		.4byte	.LVL63
 2303 06b1 CB090000 		.4byte	0x9cb
 2304 06b5 14       		.uleb128 0x14
 2305 06b6 22000000 		.4byte	.LVL65
 2306 06ba D6090000 		.4byte	0x9d6
 2307 06be 00       		.byte	0
 2308 06bf 16       		.uleb128 0x16
 2309 06c0 89020000 		.4byte	.LASF56
 2310 06c4 01       		.byte	0x1
 2311 06c5 5103     		.2byte	0x351
 2312 06c7 00000000 		.4byte	.LFB22
 2313 06cb 10000000 		.4byte	.LFE22-.LFB22
 2314 06cf 01       		.uleb128 0x1
 2315 06d0 9C       		.byte	0x9c
 2316 06d1 E6060000 		.4byte	0x6e6
ARM GAS  C:\Users\g\AppData\Local\Temp\ccIVY2Cy.s 			page 71


 2317 06d5 18       		.uleb128 0x18
 2318 06d6 EB020000 		.4byte	.LASF57
 2319 06da 01       		.byte	0x1
 2320 06db 5103     		.2byte	0x351
 2321 06dd 77000000 		.4byte	0x77
 2322 06e1 B0030000 		.4byte	.LLST32
 2323 06e5 00       		.byte	0
 2324 06e6 19       		.uleb128 0x19
 2325 06e7 D7020000 		.4byte	.LASF58
 2326 06eb 01       		.byte	0x1
 2327 06ec 8403     		.2byte	0x384
 2328 06ee 77000000 		.4byte	0x77
 2329 06f2 00000000 		.4byte	.LFB23
 2330 06f6 10000000 		.4byte	.LFE23-.LFB23
 2331 06fa 01       		.uleb128 0x1
 2332 06fb 9C       		.byte	0x9c
 2333 06fc 16       		.uleb128 0x16
 2334 06fd 75010000 		.4byte	.LASF59
 2335 0701 01       		.byte	0x1
 2336 0702 BA03     		.2byte	0x3ba
 2337 0704 00000000 		.4byte	.LFB24
 2338 0708 10000000 		.4byte	.LFE24-.LFB24
 2339 070c 01       		.uleb128 0x1
 2340 070d 9C       		.byte	0x9c
 2341 070e 23070000 		.4byte	0x723
 2342 0712 18       		.uleb128 0x18
 2343 0713 05050000 		.4byte	.LASF60
 2344 0717 01       		.byte	0x1
 2345 0718 BA03     		.2byte	0x3ba
 2346 071a 77000000 		.4byte	0x77
 2347 071e D1030000 		.4byte	.LLST33
 2348 0722 00       		.byte	0
 2349 0723 19       		.uleb128 0x19
 2350 0724 AB000000 		.4byte	.LASF61
 2351 0728 01       		.byte	0x1
 2352 0729 E803     		.2byte	0x3e8
 2353 072b 77000000 		.4byte	0x77
 2354 072f 00000000 		.4byte	.LFB25
 2355 0733 10000000 		.4byte	.LFE25-.LFB25
 2356 0737 01       		.uleb128 0x1
 2357 0738 9C       		.byte	0x9c
 2358 0739 19       		.uleb128 0x19
 2359 073a 45020000 		.4byte	.LASF62
 2360 073e 01       		.byte	0x1
 2361 073f 1604     		.2byte	0x416
 2362 0741 77000000 		.4byte	0x77
 2363 0745 00000000 		.4byte	.LFB26
 2364 0749 10000000 		.4byte	.LFE26-.LFB26
 2365 074d 01       		.uleb128 0x1
 2366 074e 9C       		.byte	0x9c
 2367 074f 19       		.uleb128 0x19
 2368 0750 83040000 		.4byte	.LASF63
 2369 0754 01       		.byte	0x1
 2370 0755 2B04     		.2byte	0x42b
 2371 0757 77000000 		.4byte	0x77
 2372 075b 00000000 		.4byte	.LFB27
 2373 075f 10000000 		.4byte	.LFE27-.LFB27
ARM GAS  C:\Users\g\AppData\Local\Temp\ccIVY2Cy.s 			page 72


 2374 0763 01       		.uleb128 0x1
 2375 0764 9C       		.byte	0x9c
 2376 0765 16       		.uleb128 0x16
 2377 0766 45040000 		.4byte	.LASF64
 2378 076a 01       		.byte	0x1
 2379 076b 4604     		.2byte	0x446
 2380 076d 00000000 		.4byte	.LFB28
 2381 0771 24000000 		.4byte	.LFE28-.LFB28
 2382 0775 01       		.uleb128 0x1
 2383 0776 9C       		.byte	0x9c
 2384 0777 AE070000 		.4byte	0x7ae
 2385 077b 18       		.uleb128 0x18
 2386 077c 35010000 		.4byte	.LASF65
 2387 0780 01       		.byte	0x1
 2388 0781 4604     		.2byte	0x446
 2389 0783 77000000 		.4byte	0x77
 2390 0787 F2030000 		.4byte	.LLST34
 2391 078b 17       		.uleb128 0x17
 2392 078c 4E050000 		.4byte	.LASF28
 2393 0790 01       		.byte	0x1
 2394 0791 4804     		.2byte	0x448
 2395 0793 6B000000 		.4byte	0x6b
 2396 0797 1E040000 		.4byte	.LLST35
 2397 079b 14       		.uleb128 0x14
 2398 079c 08000000 		.4byte	.LVL71
 2399 07a0 CB090000 		.4byte	0x9cb
 2400 07a4 14       		.uleb128 0x14
 2401 07a5 1C000000 		.4byte	.LVL72
 2402 07a9 D6090000 		.4byte	0x9d6
 2403 07ad 00       		.byte	0
 2404 07ae 16       		.uleb128 0x16
 2405 07af 77000000 		.4byte	.LASF66
 2406 07b3 01       		.byte	0x1
 2407 07b4 6704     		.2byte	0x467
 2408 07b6 00000000 		.4byte	.LFB29
 2409 07ba 24000000 		.4byte	.LFE29-.LFB29
 2410 07be 01       		.uleb128 0x1
 2411 07bf 9C       		.byte	0x9c
 2412 07c0 F7070000 		.4byte	0x7f7
 2413 07c4 18       		.uleb128 0x18
 2414 07c5 35010000 		.4byte	.LASF65
 2415 07c9 01       		.byte	0x1
 2416 07ca 6704     		.2byte	0x467
 2417 07cc 77000000 		.4byte	0x77
 2418 07d0 31040000 		.4byte	.LLST36
 2419 07d4 17       		.uleb128 0x17
 2420 07d5 4E050000 		.4byte	.LASF28
 2421 07d9 01       		.byte	0x1
 2422 07da 6904     		.2byte	0x469
 2423 07dc 6B000000 		.4byte	0x6b
 2424 07e0 5D040000 		.4byte	.LLST37
 2425 07e4 14       		.uleb128 0x14
 2426 07e5 08000000 		.4byte	.LVL75
 2427 07e9 CB090000 		.4byte	0x9cb
 2428 07ed 14       		.uleb128 0x14
 2429 07ee 1E000000 		.4byte	.LVL76
 2430 07f2 D6090000 		.4byte	0x9d6
ARM GAS  C:\Users\g\AppData\Local\Temp\ccIVY2Cy.s 			page 73


 2431 07f6 00       		.byte	0
 2432 07f7 16       		.uleb128 0x16
 2433 07f8 6E020000 		.4byte	.LASF67
 2434 07fc 01       		.byte	0x1
 2435 07fd 8804     		.2byte	0x488
 2436 07ff 00000000 		.4byte	.LFB30
 2437 0803 28000000 		.4byte	.LFE30-.LFB30
 2438 0807 01       		.uleb128 0x1
 2439 0808 9C       		.byte	0x9c
 2440 0809 40080000 		.4byte	0x840
 2441 080d 18       		.uleb128 0x18
 2442 080e 35010000 		.4byte	.LASF65
 2443 0812 01       		.byte	0x1
 2444 0813 8804     		.2byte	0x488
 2445 0815 77000000 		.4byte	0x77
 2446 0819 70040000 		.4byte	.LLST38
 2447 081d 17       		.uleb128 0x17
 2448 081e 4E050000 		.4byte	.LASF28
 2449 0822 01       		.byte	0x1
 2450 0823 8A04     		.2byte	0x48a
 2451 0825 6B000000 		.4byte	0x6b
 2452 0829 9C040000 		.4byte	.LLST39
 2453 082d 14       		.uleb128 0x14
 2454 082e 08000000 		.4byte	.LVL79
 2455 0832 CB090000 		.4byte	0x9cb
 2456 0836 14       		.uleb128 0x14
 2457 0837 1E000000 		.4byte	.LVL80
 2458 083b D6090000 		.4byte	0x9d6
 2459 083f 00       		.byte	0
 2460 0840 16       		.uleb128 0x16
 2461 0841 26050000 		.4byte	.LASF68
 2462 0845 01       		.byte	0x1
 2463 0846 A804     		.2byte	0x4a8
 2464 0848 00000000 		.4byte	.LFB31
 2465 084c 24000000 		.4byte	.LFE31-.LFB31
 2466 0850 01       		.uleb128 0x1
 2467 0851 9C       		.byte	0x9c
 2468 0852 89080000 		.4byte	0x889
 2469 0856 18       		.uleb128 0x18
 2470 0857 35010000 		.4byte	.LASF65
 2471 085b 01       		.byte	0x1
 2472 085c A804     		.2byte	0x4a8
 2473 085e 77000000 		.4byte	0x77
 2474 0862 AF040000 		.4byte	.LLST40
 2475 0866 17       		.uleb128 0x17
 2476 0867 4E050000 		.4byte	.LASF28
 2477 086b 01       		.byte	0x1
 2478 086c AA04     		.2byte	0x4aa
 2479 086e 6B000000 		.4byte	0x6b
 2480 0872 DB040000 		.4byte	.LLST41
 2481 0876 14       		.uleb128 0x14
 2482 0877 08000000 		.4byte	.LVL83
 2483 087b CB090000 		.4byte	0x9cb
 2484 087f 14       		.uleb128 0x14
 2485 0880 1E000000 		.4byte	.LVL84
 2486 0884 D6090000 		.4byte	0x9d6
 2487 0888 00       		.byte	0
ARM GAS  C:\Users\g\AppData\Local\Temp\ccIVY2Cy.s 			page 74


 2488 0889 16       		.uleb128 0x16
 2489 088a 59020000 		.4byte	.LASF69
 2490 088e 01       		.byte	0x1
 2491 088f C904     		.2byte	0x4c9
 2492 0891 00000000 		.4byte	.LFB32
 2493 0895 24000000 		.4byte	.LFE32-.LFB32
 2494 0899 01       		.uleb128 0x1
 2495 089a 9C       		.byte	0x9c
 2496 089b D2080000 		.4byte	0x8d2
 2497 089f 18       		.uleb128 0x18
 2498 08a0 35010000 		.4byte	.LASF65
 2499 08a4 01       		.byte	0x1
 2500 08a5 C904     		.2byte	0x4c9
 2501 08a7 77000000 		.4byte	0x77
 2502 08ab EE040000 		.4byte	.LLST42
 2503 08af 17       		.uleb128 0x17
 2504 08b0 4E050000 		.4byte	.LASF28
 2505 08b4 01       		.byte	0x1
 2506 08b5 CB04     		.2byte	0x4cb
 2507 08b7 6B000000 		.4byte	0x6b
 2508 08bb 1A050000 		.4byte	.LLST43
 2509 08bf 14       		.uleb128 0x14
 2510 08c0 08000000 		.4byte	.LVL87
 2511 08c4 CB090000 		.4byte	0x9cb
 2512 08c8 14       		.uleb128 0x14
 2513 08c9 1E000000 		.4byte	.LVL88
 2514 08cd D6090000 		.4byte	0x9d6
 2515 08d1 00       		.byte	0
 2516 08d2 0A       		.uleb128 0xa
 2517 08d3 B0000000 		.4byte	0xb0
 2518 08d7 00000000 		.4byte	.LFB33
 2519 08db 1C000000 		.4byte	.LFE33-.LFB33
 2520 08df 01       		.uleb128 0x1
 2521 08e0 9C       		.byte	0x9c
 2522 08e1 13090000 		.4byte	0x913
 2523 08e5 15       		.uleb128 0x15
 2524 08e6 BD000000 		.4byte	0xbd
 2525 08ea 2D050000 		.4byte	.LLST44
 2526 08ee 15       		.uleb128 0x15
 2527 08ef C9000000 		.4byte	0xc9
 2528 08f3 4E050000 		.4byte	.LLST45
 2529 08f7 13       		.uleb128 0x13
 2530 08f8 D5000000 		.4byte	0xd5
 2531 08fc 7A050000 		.4byte	.LLST46
 2532 0900 14       		.uleb128 0x14
 2533 0901 0C000000 		.4byte	.LVL91
 2534 0905 CB090000 		.4byte	0x9cb
 2535 0909 14       		.uleb128 0x14
 2536 090a 14000000 		.4byte	.LVL92
 2537 090e D6090000 		.4byte	0x9d6
 2538 0912 00       		.byte	0
 2539 0913 19       		.uleb128 0x19
 2540 0914 52030000 		.4byte	.LASF70
 2541 0918 01       		.byte	0x1
 2542 0919 0E05     		.2byte	0x50e
 2543 091b 77000000 		.4byte	0x77
 2544 091f 00000000 		.4byte	.LFB34
ARM GAS  C:\Users\g\AppData\Local\Temp\ccIVY2Cy.s 			page 75


 2545 0923 14000000 		.4byte	.LFE34-.LFB34
 2546 0927 01       		.uleb128 0x1
 2547 0928 9C       		.byte	0x9c
 2548 0929 0A       		.uleb128 0xa
 2549 092a E2000000 		.4byte	0xe2
 2550 092e 00000000 		.4byte	.LFB35
 2551 0932 0C000000 		.4byte	.LFE35-.LFB35
 2552 0936 01       		.uleb128 0x1
 2553 0937 9C       		.byte	0x9c
 2554 0938 44090000 		.4byte	0x944
 2555 093c 1A       		.uleb128 0x1a
 2556 093d EF000000 		.4byte	0xef
 2557 0941 01       		.uleb128 0x1
 2558 0942 50       		.byte	0x50
 2559 0943 00       		.byte	0
 2560 0944 19       		.uleb128 0x19
 2561 0945 24040000 		.4byte	.LASF71
 2562 0949 01       		.byte	0x1
 2563 094a 3E05     		.2byte	0x53e
 2564 094c 77000000 		.4byte	0x77
 2565 0950 00000000 		.4byte	.LFB36
 2566 0954 0C000000 		.4byte	.LFE36-.LFB36
 2567 0958 01       		.uleb128 0x1
 2568 0959 9C       		.byte	0x9c
 2569 095a 19       		.uleb128 0x19
 2570 095b FC010000 		.4byte	.LASF72
 2571 095f 01       		.byte	0x1
 2572 0960 5505     		.2byte	0x555
 2573 0962 77000000 		.4byte	0x77
 2574 0966 00000000 		.4byte	.LFB37
 2575 096a 0C000000 		.4byte	.LFE37-.LFB37
 2576 096e 01       		.uleb128 0x1
 2577 096f 9C       		.byte	0x9c
 2578 0970 16       		.uleb128 0x16
 2579 0971 33000000 		.4byte	.LASF73
 2580 0975 01       		.byte	0x1
 2581 0976 6C05     		.2byte	0x56c
 2582 0978 00000000 		.4byte	.LFB38
 2583 097c 0C000000 		.4byte	.LFE38-.LFB38
 2584 0980 01       		.uleb128 0x1
 2585 0981 9C       		.byte	0x9c
 2586 0982 95090000 		.4byte	0x995
 2587 0986 1B       		.uleb128 0x1b
 2588 0987 75040000 		.4byte	.LASF20
 2589 098b 01       		.byte	0x1
 2590 098c 6C05     		.2byte	0x56c
 2591 098e 77000000 		.4byte	0x77
 2592 0992 01       		.uleb128 0x1
 2593 0993 50       		.byte	0x50
 2594 0994 00       		.byte	0
 2595 0995 16       		.uleb128 0x16
 2596 0996 20010000 		.4byte	.LASF74
 2597 099a 01       		.byte	0x1
 2598 099b 8305     		.2byte	0x583
 2599 099d 00000000 		.4byte	.LFB39
 2600 09a1 0C000000 		.4byte	.LFE39-.LFB39
 2601 09a5 01       		.uleb128 0x1
ARM GAS  C:\Users\g\AppData\Local\Temp\ccIVY2Cy.s 			page 76


 2602 09a6 9C       		.byte	0x9c
 2603 09a7 BA090000 		.4byte	0x9ba
 2604 09ab 1B       		.uleb128 0x1b
 2605 09ac 75040000 		.4byte	.LASF20
 2606 09b0 01       		.byte	0x1
 2607 09b1 8305     		.2byte	0x583
 2608 09b3 77000000 		.4byte	0x77
 2609 09b7 01       		.uleb128 0x1
 2610 09b8 50       		.byte	0x50
 2611 09b9 00       		.byte	0
 2612 09ba 1C       		.uleb128 0x1c
 2613 09bb DC000000 		.4byte	.LASF79
 2614 09bf 01       		.byte	0x1
 2615 09c0 15       		.byte	0x15
 2616 09c1 6B000000 		.4byte	0x6b
 2617 09c5 05       		.uleb128 0x5
 2618 09c6 03       		.byte	0x3
 2619 09c7 00000000 		.4byte	TX_SEND_initVar
 2620 09cb 1D       		.uleb128 0x1d
 2621 09cc E5010000 		.4byte	.LASF80
 2622 09d0 03       		.byte	0x3
 2623 09d1 E3       		.byte	0xe3
 2624 09d2 6B000000 		.4byte	0x6b
 2625 09d6 1E       		.uleb128 0x1e
 2626 09d7 06000000 		.4byte	.LASF81
 2627 09db 03       		.byte	0x3
 2628 09dc E4       		.byte	0xe4
 2629 09dd 1F       		.uleb128 0x1f
 2630 09de 6B000000 		.4byte	0x6b
 2631 09e2 00       		.byte	0
 2632 09e3 00       		.byte	0
 2633              		.section	.debug_abbrev,"",%progbits
 2634              	.Ldebug_abbrev0:
 2635 0000 01       		.uleb128 0x1
 2636 0001 11       		.uleb128 0x11
 2637 0002 01       		.byte	0x1
 2638 0003 25       		.uleb128 0x25
 2639 0004 0E       		.uleb128 0xe
 2640 0005 13       		.uleb128 0x13
 2641 0006 0B       		.uleb128 0xb
 2642 0007 03       		.uleb128 0x3
 2643 0008 0E       		.uleb128 0xe
 2644 0009 1B       		.uleb128 0x1b
 2645 000a 0E       		.uleb128 0xe
 2646 000b 55       		.uleb128 0x55
 2647 000c 17       		.uleb128 0x17
 2648 000d 11       		.uleb128 0x11
 2649 000e 01       		.uleb128 0x1
 2650 000f 10       		.uleb128 0x10
 2651 0010 17       		.uleb128 0x17
 2652 0011 00       		.byte	0
 2653 0012 00       		.byte	0
 2654 0013 02       		.uleb128 0x2
 2655 0014 24       		.uleb128 0x24
 2656 0015 00       		.byte	0
 2657 0016 0B       		.uleb128 0xb
 2658 0017 0B       		.uleb128 0xb
ARM GAS  C:\Users\g\AppData\Local\Temp\ccIVY2Cy.s 			page 77


 2659 0018 3E       		.uleb128 0x3e
 2660 0019 0B       		.uleb128 0xb
 2661 001a 03       		.uleb128 0x3
 2662 001b 0E       		.uleb128 0xe
 2663 001c 00       		.byte	0
 2664 001d 00       		.byte	0
 2665 001e 03       		.uleb128 0x3
 2666 001f 24       		.uleb128 0x24
 2667 0020 00       		.byte	0
 2668 0021 0B       		.uleb128 0xb
 2669 0022 0B       		.uleb128 0xb
 2670 0023 3E       		.uleb128 0x3e
 2671 0024 0B       		.uleb128 0xb
 2672 0025 03       		.uleb128 0x3
 2673 0026 08       		.uleb128 0x8
 2674 0027 00       		.byte	0
 2675 0028 00       		.byte	0
 2676 0029 04       		.uleb128 0x4
 2677 002a 16       		.uleb128 0x16
 2678 002b 00       		.byte	0
 2679 002c 03       		.uleb128 0x3
 2680 002d 0E       		.uleb128 0xe
 2681 002e 3A       		.uleb128 0x3a
 2682 002f 0B       		.uleb128 0xb
 2683 0030 3B       		.uleb128 0x3b
 2684 0031 05       		.uleb128 0x5
 2685 0032 49       		.uleb128 0x49
 2686 0033 13       		.uleb128 0x13
 2687 0034 00       		.byte	0
 2688 0035 00       		.byte	0
 2689 0036 05       		.uleb128 0x5
 2690 0037 35       		.uleb128 0x35
 2691 0038 00       		.byte	0
 2692 0039 49       		.uleb128 0x49
 2693 003a 13       		.uleb128 0x13
 2694 003b 00       		.byte	0
 2695 003c 00       		.byte	0
 2696 003d 06       		.uleb128 0x6
 2697 003e 2E       		.uleb128 0x2e
 2698 003f 01       		.byte	0x1
 2699 0040 3F       		.uleb128 0x3f
 2700 0041 19       		.uleb128 0x19
 2701 0042 03       		.uleb128 0x3
 2702 0043 0E       		.uleb128 0xe
 2703 0044 3A       		.uleb128 0x3a
 2704 0045 0B       		.uleb128 0xb
 2705 0046 3B       		.uleb128 0x3b
 2706 0047 05       		.uleb128 0x5
 2707 0048 27       		.uleb128 0x27
 2708 0049 19       		.uleb128 0x19
 2709 004a 20       		.uleb128 0x20
 2710 004b 0B       		.uleb128 0xb
 2711 004c 01       		.uleb128 0x1
 2712 004d 13       		.uleb128 0x13
 2713 004e 00       		.byte	0
 2714 004f 00       		.byte	0
 2715 0050 07       		.uleb128 0x7
ARM GAS  C:\Users\g\AppData\Local\Temp\ccIVY2Cy.s 			page 78


 2716 0051 05       		.uleb128 0x5
 2717 0052 00       		.byte	0
 2718 0053 03       		.uleb128 0x3
 2719 0054 0E       		.uleb128 0xe
 2720 0055 3A       		.uleb128 0x3a
 2721 0056 0B       		.uleb128 0xb
 2722 0057 3B       		.uleb128 0x3b
 2723 0058 05       		.uleb128 0x5
 2724 0059 49       		.uleb128 0x49
 2725 005a 13       		.uleb128 0x13
 2726 005b 00       		.byte	0
 2727 005c 00       		.byte	0
 2728 005d 08       		.uleb128 0x8
 2729 005e 34       		.uleb128 0x34
 2730 005f 00       		.byte	0
 2731 0060 03       		.uleb128 0x3
 2732 0061 0E       		.uleb128 0xe
 2733 0062 3A       		.uleb128 0x3a
 2734 0063 0B       		.uleb128 0xb
 2735 0064 3B       		.uleb128 0x3b
 2736 0065 05       		.uleb128 0x5
 2737 0066 49       		.uleb128 0x49
 2738 0067 13       		.uleb128 0x13
 2739 0068 00       		.byte	0
 2740 0069 00       		.byte	0
 2741 006a 09       		.uleb128 0x9
 2742 006b 2E       		.uleb128 0x2e
 2743 006c 00       		.byte	0
 2744 006d 3F       		.uleb128 0x3f
 2745 006e 19       		.uleb128 0x19
 2746 006f 03       		.uleb128 0x3
 2747 0070 0E       		.uleb128 0xe
 2748 0071 3A       		.uleb128 0x3a
 2749 0072 0B       		.uleb128 0xb
 2750 0073 3B       		.uleb128 0x3b
 2751 0074 0B       		.uleb128 0xb
 2752 0075 27       		.uleb128 0x27
 2753 0076 19       		.uleb128 0x19
 2754 0077 20       		.uleb128 0x20
 2755 0078 0B       		.uleb128 0xb
 2756 0079 00       		.byte	0
 2757 007a 00       		.byte	0
 2758 007b 0A       		.uleb128 0xa
 2759 007c 2E       		.uleb128 0x2e
 2760 007d 01       		.byte	0x1
 2761 007e 31       		.uleb128 0x31
 2762 007f 13       		.uleb128 0x13
 2763 0080 11       		.uleb128 0x11
 2764 0081 01       		.uleb128 0x1
 2765 0082 12       		.uleb128 0x12
 2766 0083 06       		.uleb128 0x6
 2767 0084 40       		.uleb128 0x40
 2768 0085 18       		.uleb128 0x18
 2769 0086 9742     		.uleb128 0x2117
 2770 0088 19       		.uleb128 0x19
 2771 0089 01       		.uleb128 0x1
 2772 008a 13       		.uleb128 0x13
ARM GAS  C:\Users\g\AppData\Local\Temp\ccIVY2Cy.s 			page 79


 2773 008b 00       		.byte	0
 2774 008c 00       		.byte	0
 2775 008d 0B       		.uleb128 0xb
 2776 008e 1D       		.uleb128 0x1d
 2777 008f 01       		.byte	0x1
 2778 0090 31       		.uleb128 0x31
 2779 0091 13       		.uleb128 0x13
 2780 0092 52       		.uleb128 0x52
 2781 0093 01       		.uleb128 0x1
 2782 0094 55       		.uleb128 0x55
 2783 0095 17       		.uleb128 0x17
 2784 0096 58       		.uleb128 0x58
 2785 0097 0B       		.uleb128 0xb
 2786 0098 59       		.uleb128 0x59
 2787 0099 0B       		.uleb128 0xb
 2788 009a 01       		.uleb128 0x1
 2789 009b 13       		.uleb128 0x13
 2790 009c 00       		.byte	0
 2791 009d 00       		.byte	0
 2792 009e 0C       		.uleb128 0xc
 2793 009f 05       		.uleb128 0x5
 2794 00a0 00       		.byte	0
 2795 00a1 31       		.uleb128 0x31
 2796 00a2 13       		.uleb128 0x13
 2797 00a3 1C       		.uleb128 0x1c
 2798 00a4 05       		.uleb128 0x5
 2799 00a5 00       		.byte	0
 2800 00a6 00       		.byte	0
 2801 00a7 0D       		.uleb128 0xd
 2802 00a8 1D       		.uleb128 0x1d
 2803 00a9 01       		.byte	0x1
 2804 00aa 31       		.uleb128 0x31
 2805 00ab 13       		.uleb128 0x13
 2806 00ac 11       		.uleb128 0x11
 2807 00ad 01       		.uleb128 0x1
 2808 00ae 12       		.uleb128 0x12
 2809 00af 06       		.uleb128 0x6
 2810 00b0 58       		.uleb128 0x58
 2811 00b1 0B       		.uleb128 0xb
 2812 00b2 59       		.uleb128 0x59
 2813 00b3 0B       		.uleb128 0xb
 2814 00b4 01       		.uleb128 0x1
 2815 00b5 13       		.uleb128 0x13
 2816 00b6 00       		.byte	0
 2817 00b7 00       		.byte	0
 2818 00b8 0E       		.uleb128 0xe
 2819 00b9 05       		.uleb128 0x5
 2820 00ba 00       		.byte	0
 2821 00bb 31       		.uleb128 0x31
 2822 00bc 13       		.uleb128 0x13
 2823 00bd 1C       		.uleb128 0x1c
 2824 00be 0B       		.uleb128 0xb
 2825 00bf 00       		.byte	0
 2826 00c0 00       		.byte	0
 2827 00c1 0F       		.uleb128 0xf
 2828 00c2 1D       		.uleb128 0x1d
 2829 00c3 01       		.byte	0x1
ARM GAS  C:\Users\g\AppData\Local\Temp\ccIVY2Cy.s 			page 80


 2830 00c4 31       		.uleb128 0x31
 2831 00c5 13       		.uleb128 0x13
 2832 00c6 11       		.uleb128 0x11
 2833 00c7 01       		.uleb128 0x1
 2834 00c8 12       		.uleb128 0x12
 2835 00c9 06       		.uleb128 0x6
 2836 00ca 58       		.uleb128 0x58
 2837 00cb 0B       		.uleb128 0xb
 2838 00cc 59       		.uleb128 0x59
 2839 00cd 0B       		.uleb128 0xb
 2840 00ce 00       		.byte	0
 2841 00cf 00       		.byte	0
 2842 00d0 10       		.uleb128 0x10
 2843 00d1 2E       		.uleb128 0x2e
 2844 00d2 01       		.byte	0x1
 2845 00d3 3F       		.uleb128 0x3f
 2846 00d4 19       		.uleb128 0x19
 2847 00d5 03       		.uleb128 0x3
 2848 00d6 0E       		.uleb128 0xe
 2849 00d7 3A       		.uleb128 0x3a
 2850 00d8 0B       		.uleb128 0xb
 2851 00d9 3B       		.uleb128 0x3b
 2852 00da 0B       		.uleb128 0xb
 2853 00db 27       		.uleb128 0x27
 2854 00dc 19       		.uleb128 0x19
 2855 00dd 11       		.uleb128 0x11
 2856 00de 01       		.uleb128 0x1
 2857 00df 12       		.uleb128 0x12
 2858 00e0 06       		.uleb128 0x6
 2859 00e1 40       		.uleb128 0x40
 2860 00e2 18       		.uleb128 0x18
 2861 00e3 9742     		.uleb128 0x2117
 2862 00e5 19       		.uleb128 0x19
 2863 00e6 01       		.uleb128 0x1
 2864 00e7 13       		.uleb128 0x13
 2865 00e8 00       		.byte	0
 2866 00e9 00       		.byte	0
 2867 00ea 11       		.uleb128 0x11
 2868 00eb 34       		.uleb128 0x34
 2869 00ec 00       		.byte	0
 2870 00ed 03       		.uleb128 0x3
 2871 00ee 0E       		.uleb128 0xe
 2872 00ef 3A       		.uleb128 0x3a
 2873 00f0 0B       		.uleb128 0xb
 2874 00f1 3B       		.uleb128 0x3b
 2875 00f2 0B       		.uleb128 0xb
 2876 00f3 49       		.uleb128 0x49
 2877 00f4 13       		.uleb128 0x13
 2878 00f5 02       		.uleb128 0x2
 2879 00f6 17       		.uleb128 0x17
 2880 00f7 00       		.byte	0
 2881 00f8 00       		.byte	0
 2882 00f9 12       		.uleb128 0x12
 2883 00fa 0B       		.uleb128 0xb
 2884 00fb 01       		.byte	0x1
 2885 00fc 11       		.uleb128 0x11
 2886 00fd 01       		.uleb128 0x1
ARM GAS  C:\Users\g\AppData\Local\Temp\ccIVY2Cy.s 			page 81


 2887 00fe 12       		.uleb128 0x12
 2888 00ff 06       		.uleb128 0x6
 2889 0100 00       		.byte	0
 2890 0101 00       		.byte	0
 2891 0102 13       		.uleb128 0x13
 2892 0103 34       		.uleb128 0x34
 2893 0104 00       		.byte	0
 2894 0105 31       		.uleb128 0x31
 2895 0106 13       		.uleb128 0x13
 2896 0107 02       		.uleb128 0x2
 2897 0108 17       		.uleb128 0x17
 2898 0109 00       		.byte	0
 2899 010a 00       		.byte	0
 2900 010b 14       		.uleb128 0x14
 2901 010c 898201   		.uleb128 0x4109
 2902 010f 00       		.byte	0
 2903 0110 11       		.uleb128 0x11
 2904 0111 01       		.uleb128 0x1
 2905 0112 31       		.uleb128 0x31
 2906 0113 13       		.uleb128 0x13
 2907 0114 00       		.byte	0
 2908 0115 00       		.byte	0
 2909 0116 15       		.uleb128 0x15
 2910 0117 05       		.uleb128 0x5
 2911 0118 00       		.byte	0
 2912 0119 31       		.uleb128 0x31
 2913 011a 13       		.uleb128 0x13
 2914 011b 02       		.uleb128 0x2
 2915 011c 17       		.uleb128 0x17
 2916 011d 00       		.byte	0
 2917 011e 00       		.byte	0
 2918 011f 16       		.uleb128 0x16
 2919 0120 2E       		.uleb128 0x2e
 2920 0121 01       		.byte	0x1
 2921 0122 3F       		.uleb128 0x3f
 2922 0123 19       		.uleb128 0x19
 2923 0124 03       		.uleb128 0x3
 2924 0125 0E       		.uleb128 0xe
 2925 0126 3A       		.uleb128 0x3a
 2926 0127 0B       		.uleb128 0xb
 2927 0128 3B       		.uleb128 0x3b
 2928 0129 05       		.uleb128 0x5
 2929 012a 27       		.uleb128 0x27
 2930 012b 19       		.uleb128 0x19
 2931 012c 11       		.uleb128 0x11
 2932 012d 01       		.uleb128 0x1
 2933 012e 12       		.uleb128 0x12
 2934 012f 06       		.uleb128 0x6
 2935 0130 40       		.uleb128 0x40
 2936 0131 18       		.uleb128 0x18
 2937 0132 9742     		.uleb128 0x2117
 2938 0134 19       		.uleb128 0x19
 2939 0135 01       		.uleb128 0x1
 2940 0136 13       		.uleb128 0x13
 2941 0137 00       		.byte	0
 2942 0138 00       		.byte	0
 2943 0139 17       		.uleb128 0x17
ARM GAS  C:\Users\g\AppData\Local\Temp\ccIVY2Cy.s 			page 82


 2944 013a 34       		.uleb128 0x34
 2945 013b 00       		.byte	0
 2946 013c 03       		.uleb128 0x3
 2947 013d 0E       		.uleb128 0xe
 2948 013e 3A       		.uleb128 0x3a
 2949 013f 0B       		.uleb128 0xb
 2950 0140 3B       		.uleb128 0x3b
 2951 0141 05       		.uleb128 0x5
 2952 0142 49       		.uleb128 0x49
 2953 0143 13       		.uleb128 0x13
 2954 0144 02       		.uleb128 0x2
 2955 0145 17       		.uleb128 0x17
 2956 0146 00       		.byte	0
 2957 0147 00       		.byte	0
 2958 0148 18       		.uleb128 0x18
 2959 0149 05       		.uleb128 0x5
 2960 014a 00       		.byte	0
 2961 014b 03       		.uleb128 0x3
 2962 014c 0E       		.uleb128 0xe
 2963 014d 3A       		.uleb128 0x3a
 2964 014e 0B       		.uleb128 0xb
 2965 014f 3B       		.uleb128 0x3b
 2966 0150 05       		.uleb128 0x5
 2967 0151 49       		.uleb128 0x49
 2968 0152 13       		.uleb128 0x13
 2969 0153 02       		.uleb128 0x2
 2970 0154 17       		.uleb128 0x17
 2971 0155 00       		.byte	0
 2972 0156 00       		.byte	0
 2973 0157 19       		.uleb128 0x19
 2974 0158 2E       		.uleb128 0x2e
 2975 0159 00       		.byte	0
 2976 015a 3F       		.uleb128 0x3f
 2977 015b 19       		.uleb128 0x19
 2978 015c 03       		.uleb128 0x3
 2979 015d 0E       		.uleb128 0xe
 2980 015e 3A       		.uleb128 0x3a
 2981 015f 0B       		.uleb128 0xb
 2982 0160 3B       		.uleb128 0x3b
 2983 0161 05       		.uleb128 0x5
 2984 0162 27       		.uleb128 0x27
 2985 0163 19       		.uleb128 0x19
 2986 0164 49       		.uleb128 0x49
 2987 0165 13       		.uleb128 0x13
 2988 0166 11       		.uleb128 0x11
 2989 0167 01       		.uleb128 0x1
 2990 0168 12       		.uleb128 0x12
 2991 0169 06       		.uleb128 0x6
 2992 016a 40       		.uleb128 0x40
 2993 016b 18       		.uleb128 0x18
 2994 016c 9742     		.uleb128 0x2117
 2995 016e 19       		.uleb128 0x19
 2996 016f 00       		.byte	0
 2997 0170 00       		.byte	0
 2998 0171 1A       		.uleb128 0x1a
 2999 0172 05       		.uleb128 0x5
 3000 0173 00       		.byte	0
ARM GAS  C:\Users\g\AppData\Local\Temp\ccIVY2Cy.s 			page 83


 3001 0174 31       		.uleb128 0x31
 3002 0175 13       		.uleb128 0x13
 3003 0176 02       		.uleb128 0x2
 3004 0177 18       		.uleb128 0x18
 3005 0178 00       		.byte	0
 3006 0179 00       		.byte	0
 3007 017a 1B       		.uleb128 0x1b
 3008 017b 05       		.uleb128 0x5
 3009 017c 00       		.byte	0
 3010 017d 03       		.uleb128 0x3
 3011 017e 0E       		.uleb128 0xe
 3012 017f 3A       		.uleb128 0x3a
 3013 0180 0B       		.uleb128 0xb
 3014 0181 3B       		.uleb128 0x3b
 3015 0182 05       		.uleb128 0x5
 3016 0183 49       		.uleb128 0x49
 3017 0184 13       		.uleb128 0x13
 3018 0185 02       		.uleb128 0x2
 3019 0186 18       		.uleb128 0x18
 3020 0187 00       		.byte	0
 3021 0188 00       		.byte	0
 3022 0189 1C       		.uleb128 0x1c
 3023 018a 34       		.uleb128 0x34
 3024 018b 00       		.byte	0
 3025 018c 03       		.uleb128 0x3
 3026 018d 0E       		.uleb128 0xe
 3027 018e 3A       		.uleb128 0x3a
 3028 018f 0B       		.uleb128 0xb
 3029 0190 3B       		.uleb128 0x3b
 3030 0191 0B       		.uleb128 0xb
 3031 0192 49       		.uleb128 0x49
 3032 0193 13       		.uleb128 0x13
 3033 0194 3F       		.uleb128 0x3f
 3034 0195 19       		.uleb128 0x19
 3035 0196 02       		.uleb128 0x2
 3036 0197 18       		.uleb128 0x18
 3037 0198 00       		.byte	0
 3038 0199 00       		.byte	0
 3039 019a 1D       		.uleb128 0x1d
 3040 019b 2E       		.uleb128 0x2e
 3041 019c 00       		.byte	0
 3042 019d 3F       		.uleb128 0x3f
 3043 019e 19       		.uleb128 0x19
 3044 019f 03       		.uleb128 0x3
 3045 01a0 0E       		.uleb128 0xe
 3046 01a1 3A       		.uleb128 0x3a
 3047 01a2 0B       		.uleb128 0xb
 3048 01a3 3B       		.uleb128 0x3b
 3049 01a4 0B       		.uleb128 0xb
 3050 01a5 27       		.uleb128 0x27
 3051 01a6 19       		.uleb128 0x19
 3052 01a7 49       		.uleb128 0x49
 3053 01a8 13       		.uleb128 0x13
 3054 01a9 3C       		.uleb128 0x3c
 3055 01aa 19       		.uleb128 0x19
 3056 01ab 00       		.byte	0
 3057 01ac 00       		.byte	0
ARM GAS  C:\Users\g\AppData\Local\Temp\ccIVY2Cy.s 			page 84


 3058 01ad 1E       		.uleb128 0x1e
 3059 01ae 2E       		.uleb128 0x2e
 3060 01af 01       		.byte	0x1
 3061 01b0 3F       		.uleb128 0x3f
 3062 01b1 19       		.uleb128 0x19
 3063 01b2 03       		.uleb128 0x3
 3064 01b3 0E       		.uleb128 0xe
 3065 01b4 3A       		.uleb128 0x3a
 3066 01b5 0B       		.uleb128 0xb
 3067 01b6 3B       		.uleb128 0x3b
 3068 01b7 0B       		.uleb128 0xb
 3069 01b8 27       		.uleb128 0x27
 3070 01b9 19       		.uleb128 0x19
 3071 01ba 3C       		.uleb128 0x3c
 3072 01bb 19       		.uleb128 0x19
 3073 01bc 00       		.byte	0
 3074 01bd 00       		.byte	0
 3075 01be 1F       		.uleb128 0x1f
 3076 01bf 05       		.uleb128 0x5
 3077 01c0 00       		.byte	0
 3078 01c1 49       		.uleb128 0x49
 3079 01c2 13       		.uleb128 0x13
 3080 01c3 00       		.byte	0
 3081 01c4 00       		.byte	0
 3082 01c5 00       		.byte	0
 3083              		.section	.debug_loc,"",%progbits
 3084              	.Ldebug_loc0:
 3085              	.LLST0:
 3086 0000 06000000 		.4byte	.LVL3
 3087 0004 13000000 		.4byte	.LVL4-1
 3088 0008 0100     		.2byte	0x1
 3089 000a 50       		.byte	0x50
 3090 000b 00000000 		.4byte	0
 3091 000f 00000000 		.4byte	0
 3092              	.LLST1:
 3093 0013 18000000 		.4byte	.LVL5
 3094 0017 23000000 		.4byte	.LVL6-1
 3095 001b 0100     		.2byte	0x1
 3096 001d 50       		.byte	0x50
 3097 001e 00000000 		.4byte	0
 3098 0022 00000000 		.4byte	0
 3099              	.LLST2:
 3100 0026 16000000 		.4byte	.LVL7
 3101 002a 28000000 		.4byte	.LVL10
 3102 002e 0200     		.2byte	0x2
 3103 0030 30       		.byte	0x30
 3104 0031 9F       		.byte	0x9f
 3105 0032 00000000 		.4byte	0
 3106 0036 00000000 		.4byte	0
 3107              	.LLST3:
 3108 003a 1C000000 		.4byte	.LVL8
 3109 003e 28000000 		.4byte	.LVL10
 3110 0042 0400     		.2byte	0x4
 3111 0044 0A       		.byte	0xa
 3112 0045 5307     		.2byte	0x753
 3113 0047 9F       		.byte	0x9f
 3114 0048 00000000 		.4byte	0
ARM GAS  C:\Users\g\AppData\Local\Temp\ccIVY2Cy.s 			page 85


 3115 004c 00000000 		.4byte	0
 3116              	.LLST4:
 3117 0050 20000000 		.4byte	.LVL9
 3118 0054 28000000 		.4byte	.LVL10
 3119 0058 0200     		.2byte	0x2
 3120 005a 30       		.byte	0x30
 3121 005b 9F       		.byte	0x9f
 3122 005c 00000000 		.4byte	0
 3123 0060 00000000 		.4byte	0
 3124              	.LLST5:
 3125 0064 06000000 		.4byte	.LVL12
 3126 0068 13000000 		.4byte	.LVL13-1
 3127 006c 0100     		.2byte	0x1
 3128 006e 50       		.byte	0x50
 3129 006f 00000000 		.4byte	0
 3130 0073 00000000 		.4byte	0
 3131              	.LLST6:
 3132 0077 00000000 		.4byte	.LVL14
 3133 007b 07000000 		.4byte	.LVL15-1
 3134 007f 0100     		.2byte	0x1
 3135 0081 50       		.byte	0x50
 3136 0082 07000000 		.4byte	.LVL15-1
 3137 0086 1C000000 		.4byte	.LVL17
 3138 008a 0100     		.2byte	0x1
 3139 008c 54       		.byte	0x54
 3140 008d 1C000000 		.4byte	.LVL17
 3141 0091 28000000 		.4byte	.LFE4
 3142 0095 0400     		.2byte	0x4
 3143 0097 F3       		.byte	0xf3
 3144 0098 01       		.uleb128 0x1
 3145 0099 50       		.byte	0x50
 3146 009a 9F       		.byte	0x9f
 3147 009b 00000000 		.4byte	0
 3148 009f 00000000 		.4byte	0
 3149              	.LLST7:
 3150 00a3 08000000 		.4byte	.LVL15
 3151 00a7 1B000000 		.4byte	.LVL16-1
 3152 00ab 0100     		.2byte	0x1
 3153 00ad 50       		.byte	0x50
 3154 00ae 00000000 		.4byte	0
 3155 00b2 00000000 		.4byte	0
 3156              	.LLST8:
 3157 00b6 00000000 		.4byte	.LVL18
 3158 00ba 07000000 		.4byte	.LVL19-1
 3159 00be 0100     		.2byte	0x1
 3160 00c0 50       		.byte	0x50
 3161 00c1 07000000 		.4byte	.LVL19-1
 3162 00c5 1C000000 		.4byte	.LVL21
 3163 00c9 0100     		.2byte	0x1
 3164 00cb 54       		.byte	0x54
 3165 00cc 1C000000 		.4byte	.LVL21
 3166 00d0 28000000 		.4byte	.LFE5
 3167 00d4 0400     		.2byte	0x4
 3168 00d6 F3       		.byte	0xf3
 3169 00d7 01       		.uleb128 0x1
 3170 00d8 50       		.byte	0x50
 3171 00d9 9F       		.byte	0x9f
ARM GAS  C:\Users\g\AppData\Local\Temp\ccIVY2Cy.s 			page 86


 3172 00da 00000000 		.4byte	0
 3173 00de 00000000 		.4byte	0
 3174              	.LLST9:
 3175 00e2 08000000 		.4byte	.LVL19
 3176 00e6 1B000000 		.4byte	.LVL20-1
 3177 00ea 0100     		.2byte	0x1
 3178 00ec 50       		.byte	0x50
 3179 00ed 00000000 		.4byte	0
 3180 00f1 00000000 		.4byte	0
 3181              	.LLST10:
 3182 00f5 00000000 		.4byte	.LVL22
 3183 00f9 07000000 		.4byte	.LVL23-1
 3184 00fd 0100     		.2byte	0x1
 3185 00ff 50       		.byte	0x50
 3186 0100 07000000 		.4byte	.LVL23-1
 3187 0104 1C000000 		.4byte	.LVL25
 3188 0108 0100     		.2byte	0x1
 3189 010a 54       		.byte	0x54
 3190 010b 1C000000 		.4byte	.LVL25
 3191 010f 28000000 		.4byte	.LFE6
 3192 0113 0400     		.2byte	0x4
 3193 0115 F3       		.byte	0xf3
 3194 0116 01       		.uleb128 0x1
 3195 0117 50       		.byte	0x50
 3196 0118 9F       		.byte	0x9f
 3197 0119 00000000 		.4byte	0
 3198 011d 00000000 		.4byte	0
 3199              	.LLST11:
 3200 0121 08000000 		.4byte	.LVL23
 3201 0125 1B000000 		.4byte	.LVL24-1
 3202 0129 0100     		.2byte	0x1
 3203 012b 50       		.byte	0x50
 3204 012c 00000000 		.4byte	0
 3205 0130 00000000 		.4byte	0
 3206              	.LLST12:
 3207 0134 00000000 		.4byte	.LVL26
 3208 0138 07000000 		.4byte	.LVL27-1
 3209 013c 0100     		.2byte	0x1
 3210 013e 50       		.byte	0x50
 3211 013f 07000000 		.4byte	.LVL27-1
 3212 0143 18000000 		.4byte	.LVL28
 3213 0147 0100     		.2byte	0x1
 3214 0149 54       		.byte	0x54
 3215 014a 18000000 		.4byte	.LVL28
 3216 014e 2C000000 		.4byte	.LFE7
 3217 0152 0400     		.2byte	0x4
 3218 0154 F3       		.byte	0xf3
 3219 0155 01       		.uleb128 0x1
 3220 0156 50       		.byte	0x50
 3221 0157 9F       		.byte	0x9f
 3222 0158 00000000 		.4byte	0
 3223 015c 00000000 		.4byte	0
 3224              	.LLST13:
 3225 0160 08000000 		.4byte	.LVL27
 3226 0164 21000000 		.4byte	.LVL29-1
 3227 0168 0100     		.2byte	0x1
 3228 016a 50       		.byte	0x50
ARM GAS  C:\Users\g\AppData\Local\Temp\ccIVY2Cy.s 			page 87


 3229 016b 00000000 		.4byte	0
 3230 016f 00000000 		.4byte	0
 3231              	.LLST14:
 3232 0173 00000000 		.4byte	.LVL30
 3233 0177 04000000 		.4byte	.LVL31
 3234 017b 0100     		.2byte	0x1
 3235 017d 50       		.byte	0x50
 3236 017e 04000000 		.4byte	.LVL31
 3237 0182 10000000 		.4byte	.LFE8
 3238 0186 0400     		.2byte	0x4
 3239 0188 F3       		.byte	0xf3
 3240 0189 01       		.uleb128 0x1
 3241 018a 50       		.byte	0x50
 3242 018b 9F       		.byte	0x9f
 3243 018c 00000000 		.4byte	0
 3244 0190 00000000 		.4byte	0
 3245              	.LLST15:
 3246 0194 00000000 		.4byte	.LVL32
 3247 0198 07000000 		.4byte	.LVL33-1
 3248 019c 0100     		.2byte	0x1
 3249 019e 50       		.byte	0x50
 3250 019f 07000000 		.4byte	.LVL33-1
 3251 01a3 18000000 		.4byte	.LVL34
 3252 01a7 0100     		.2byte	0x1
 3253 01a9 54       		.byte	0x54
 3254 01aa 18000000 		.4byte	.LVL34
 3255 01ae 28000000 		.4byte	.LFE9
 3256 01b2 0400     		.2byte	0x4
 3257 01b4 F3       		.byte	0xf3
 3258 01b5 01       		.uleb128 0x1
 3259 01b6 50       		.byte	0x50
 3260 01b7 9F       		.byte	0x9f
 3261 01b8 00000000 		.4byte	0
 3262 01bc 00000000 		.4byte	0
 3263              	.LLST16:
 3264 01c0 08000000 		.4byte	.LVL33
 3265 01c4 21000000 		.4byte	.LVL35-1
 3266 01c8 0100     		.2byte	0x1
 3267 01ca 50       		.byte	0x50
 3268 01cb 00000000 		.4byte	0
 3269 01cf 00000000 		.4byte	0
 3270              	.LLST17:
 3271 01d3 00000000 		.4byte	.LVL36
 3272 01d7 07000000 		.4byte	.LVL37-1
 3273 01db 0100     		.2byte	0x1
 3274 01dd 50       		.byte	0x50
 3275 01de 07000000 		.4byte	.LVL37-1
 3276 01e2 18000000 		.4byte	.LVL38
 3277 01e6 0100     		.2byte	0x1
 3278 01e8 54       		.byte	0x54
 3279 01e9 18000000 		.4byte	.LVL38
 3280 01ed 28000000 		.4byte	.LFE10
 3281 01f1 0400     		.2byte	0x4
 3282 01f3 F3       		.byte	0xf3
 3283 01f4 01       		.uleb128 0x1
 3284 01f5 50       		.byte	0x50
 3285 01f6 9F       		.byte	0x9f
ARM GAS  C:\Users\g\AppData\Local\Temp\ccIVY2Cy.s 			page 88


 3286 01f7 00000000 		.4byte	0
 3287 01fb 00000000 		.4byte	0
 3288              	.LLST18:
 3289 01ff 08000000 		.4byte	.LVL37
 3290 0203 21000000 		.4byte	.LVL39-1
 3291 0207 0100     		.2byte	0x1
 3292 0209 50       		.byte	0x50
 3293 020a 00000000 		.4byte	0
 3294 020e 00000000 		.4byte	0
 3295              	.LLST19:
 3296 0212 00000000 		.4byte	.LVL40
 3297 0216 07000000 		.4byte	.LVL41-1
 3298 021a 0100     		.2byte	0x1
 3299 021c 50       		.byte	0x50
 3300 021d 07000000 		.4byte	.LVL41-1
 3301 0221 10000000 		.4byte	.LVL42
 3302 0225 0100     		.2byte	0x1
 3303 0227 54       		.byte	0x54
 3304 0228 10000000 		.4byte	.LVL42
 3305 022c 2C000000 		.4byte	.LFE11
 3306 0230 0400     		.2byte	0x4
 3307 0232 F3       		.byte	0xf3
 3308 0233 01       		.uleb128 0x1
 3309 0234 50       		.byte	0x50
 3310 0235 9F       		.byte	0x9f
 3311 0236 00000000 		.4byte	0
 3312 023a 00000000 		.4byte	0
 3313              	.LLST20:
 3314 023e 08000000 		.4byte	.LVL41
 3315 0242 1F000000 		.4byte	.LVL43-1
 3316 0246 0100     		.2byte	0x1
 3317 0248 50       		.byte	0x50
 3318 0249 00000000 		.4byte	0
 3319 024d 00000000 		.4byte	0
 3320              	.LLST21:
 3321 0251 00000000 		.4byte	.LVL44
 3322 0255 07000000 		.4byte	.LVL45-1
 3323 0259 0100     		.2byte	0x1
 3324 025b 50       		.byte	0x50
 3325 025c 07000000 		.4byte	.LVL45-1
 3326 0260 1C000000 		.4byte	.LVL47
 3327 0264 0100     		.2byte	0x1
 3328 0266 54       		.byte	0x54
 3329 0267 1C000000 		.4byte	.LVL47
 3330 026b 28000000 		.4byte	.LFE12
 3331 026f 0400     		.2byte	0x4
 3332 0271 F3       		.byte	0xf3
 3333 0272 01       		.uleb128 0x1
 3334 0273 50       		.byte	0x50
 3335 0274 9F       		.byte	0x9f
 3336 0275 00000000 		.4byte	0
 3337 0279 00000000 		.4byte	0
 3338              	.LLST22:
 3339 027d 08000000 		.4byte	.LVL45
 3340 0281 1B000000 		.4byte	.LVL46-1
 3341 0285 0100     		.2byte	0x1
 3342 0287 50       		.byte	0x50
ARM GAS  C:\Users\g\AppData\Local\Temp\ccIVY2Cy.s 			page 89


 3343 0288 00000000 		.4byte	0
 3344 028c 00000000 		.4byte	0
 3345              	.LLST23:
 3346 0290 00000000 		.4byte	.LVL48
 3347 0294 04000000 		.4byte	.LVL49
 3348 0298 0100     		.2byte	0x1
 3349 029a 50       		.byte	0x50
 3350 029b 04000000 		.4byte	.LVL49
 3351 029f 10000000 		.4byte	.LFE13
 3352 02a3 0400     		.2byte	0x4
 3353 02a5 F3       		.byte	0xf3
 3354 02a6 01       		.uleb128 0x1
 3355 02a7 50       		.byte	0x50
 3356 02a8 9F       		.byte	0x9f
 3357 02a9 00000000 		.4byte	0
 3358 02ad 00000000 		.4byte	0
 3359              	.LLST24:
 3360 02b1 00000000 		.4byte	.LVL50
 3361 02b5 07000000 		.4byte	.LVL51-1
 3362 02b9 0100     		.2byte	0x1
 3363 02bb 50       		.byte	0x50
 3364 02bc 07000000 		.4byte	.LVL51-1
 3365 02c0 1C000000 		.4byte	.LVL53
 3366 02c4 0100     		.2byte	0x1
 3367 02c6 54       		.byte	0x54
 3368 02c7 1C000000 		.4byte	.LVL53
 3369 02cb 28000000 		.4byte	.LFE15
 3370 02cf 0400     		.2byte	0x4
 3371 02d1 F3       		.byte	0xf3
 3372 02d2 01       		.uleb128 0x1
 3373 02d3 50       		.byte	0x50
 3374 02d4 9F       		.byte	0x9f
 3375 02d5 00000000 		.4byte	0
 3376 02d9 00000000 		.4byte	0
 3377              	.LLST25:
 3378 02dd 08000000 		.4byte	.LVL51
 3379 02e1 1B000000 		.4byte	.LVL52-1
 3380 02e5 0100     		.2byte	0x1
 3381 02e7 50       		.byte	0x50
 3382 02e8 00000000 		.4byte	0
 3383 02ec 00000000 		.4byte	0
 3384              	.LLST26:
 3385 02f0 00000000 		.4byte	.LVL54
 3386 02f4 04000000 		.4byte	.LVL55
 3387 02f8 0100     		.2byte	0x1
 3388 02fa 50       		.byte	0x50
 3389 02fb 04000000 		.4byte	.LVL55
 3390 02ff 10000000 		.4byte	.LFE16
 3391 0303 0400     		.2byte	0x4
 3392 0305 F3       		.byte	0xf3
 3393 0306 01       		.uleb128 0x1
 3394 0307 50       		.byte	0x50
 3395 0308 9F       		.byte	0x9f
 3396 0309 00000000 		.4byte	0
 3397 030d 00000000 		.4byte	0
 3398              	.LLST27:
 3399 0311 00000000 		.4byte	.LVL56
ARM GAS  C:\Users\g\AppData\Local\Temp\ccIVY2Cy.s 			page 90


 3400 0315 07000000 		.4byte	.LVL57-1
 3401 0319 0100     		.2byte	0x1
 3402 031b 50       		.byte	0x50
 3403 031c 07000000 		.4byte	.LVL57-1
 3404 0320 1E000000 		.4byte	.LVL59
 3405 0324 0100     		.2byte	0x1
 3406 0326 54       		.byte	0x54
 3407 0327 1E000000 		.4byte	.LVL59
 3408 032b 24000000 		.4byte	.LFE18
 3409 032f 0400     		.2byte	0x4
 3410 0331 F3       		.byte	0xf3
 3411 0332 01       		.uleb128 0x1
 3412 0333 50       		.byte	0x50
 3413 0334 9F       		.byte	0x9f
 3414 0335 00000000 		.4byte	0
 3415 0339 00000000 		.4byte	0
 3416              	.LLST28:
 3417 033d 08000000 		.4byte	.LVL57
 3418 0341 1D000000 		.4byte	.LVL58-1
 3419 0345 0100     		.2byte	0x1
 3420 0347 50       		.byte	0x50
 3421 0348 00000000 		.4byte	0
 3422 034c 00000000 		.4byte	0
 3423              	.LLST29:
 3424 0350 00000000 		.4byte	.LVL60
 3425 0354 04000000 		.4byte	.LVL61
 3426 0358 0100     		.2byte	0x1
 3427 035a 50       		.byte	0x50
 3428 035b 04000000 		.4byte	.LVL61
 3429 035f 10000000 		.4byte	.LFE19
 3430 0363 0400     		.2byte	0x4
 3431 0365 F3       		.byte	0xf3
 3432 0366 01       		.uleb128 0x1
 3433 0367 50       		.byte	0x50
 3434 0368 9F       		.byte	0x9f
 3435 0369 00000000 		.4byte	0
 3436 036d 00000000 		.4byte	0
 3437              	.LLST30:
 3438 0371 00000000 		.4byte	.LVL62
 3439 0375 07000000 		.4byte	.LVL63-1
 3440 0379 0100     		.2byte	0x1
 3441 037b 50       		.byte	0x50
 3442 037c 07000000 		.4byte	.LVL63-1
 3443 0380 18000000 		.4byte	.LVL64
 3444 0384 0100     		.2byte	0x1
 3445 0386 54       		.byte	0x54
 3446 0387 18000000 		.4byte	.LVL64
 3447 038b 28000000 		.4byte	.LFE21
 3448 038f 0400     		.2byte	0x4
 3449 0391 F3       		.byte	0xf3
 3450 0392 01       		.uleb128 0x1
 3451 0393 50       		.byte	0x50
 3452 0394 9F       		.byte	0x9f
 3453 0395 00000000 		.4byte	0
 3454 0399 00000000 		.4byte	0
 3455              	.LLST31:
 3456 039d 08000000 		.4byte	.LVL63
ARM GAS  C:\Users\g\AppData\Local\Temp\ccIVY2Cy.s 			page 91


 3457 03a1 21000000 		.4byte	.LVL65-1
 3458 03a5 0100     		.2byte	0x1
 3459 03a7 50       		.byte	0x50
 3460 03a8 00000000 		.4byte	0
 3461 03ac 00000000 		.4byte	0
 3462              	.LLST32:
 3463 03b0 00000000 		.4byte	.LVL66
 3464 03b4 04000000 		.4byte	.LVL67
 3465 03b8 0100     		.2byte	0x1
 3466 03ba 50       		.byte	0x50
 3467 03bb 04000000 		.4byte	.LVL67
 3468 03bf 10000000 		.4byte	.LFE22
 3469 03c3 0400     		.2byte	0x4
 3470 03c5 F3       		.byte	0xf3
 3471 03c6 01       		.uleb128 0x1
 3472 03c7 50       		.byte	0x50
 3473 03c8 9F       		.byte	0x9f
 3474 03c9 00000000 		.4byte	0
 3475 03cd 00000000 		.4byte	0
 3476              	.LLST33:
 3477 03d1 00000000 		.4byte	.LVL68
 3478 03d5 04000000 		.4byte	.LVL69
 3479 03d9 0100     		.2byte	0x1
 3480 03db 50       		.byte	0x50
 3481 03dc 04000000 		.4byte	.LVL69
 3482 03e0 10000000 		.4byte	.LFE24
 3483 03e4 0400     		.2byte	0x4
 3484 03e6 F3       		.byte	0xf3
 3485 03e7 01       		.uleb128 0x1
 3486 03e8 50       		.byte	0x50
 3487 03e9 9F       		.byte	0x9f
 3488 03ea 00000000 		.4byte	0
 3489 03ee 00000000 		.4byte	0
 3490              	.LLST34:
 3491 03f2 00000000 		.4byte	.LVL70
 3492 03f6 07000000 		.4byte	.LVL71-1
 3493 03fa 0100     		.2byte	0x1
 3494 03fc 50       		.byte	0x50
 3495 03fd 07000000 		.4byte	.LVL71-1
 3496 0401 1C000000 		.4byte	.LVL73
 3497 0405 0100     		.2byte	0x1
 3498 0407 54       		.byte	0x54
 3499 0408 1C000000 		.4byte	.LVL73
 3500 040c 24000000 		.4byte	.LFE28
 3501 0410 0400     		.2byte	0x4
 3502 0412 F3       		.byte	0xf3
 3503 0413 01       		.uleb128 0x1
 3504 0414 50       		.byte	0x50
 3505 0415 9F       		.byte	0x9f
 3506 0416 00000000 		.4byte	0
 3507 041a 00000000 		.4byte	0
 3508              	.LLST35:
 3509 041e 08000000 		.4byte	.LVL71
 3510 0422 1B000000 		.4byte	.LVL72-1
 3511 0426 0100     		.2byte	0x1
 3512 0428 50       		.byte	0x50
 3513 0429 00000000 		.4byte	0
ARM GAS  C:\Users\g\AppData\Local\Temp\ccIVY2Cy.s 			page 92


 3514 042d 00000000 		.4byte	0
 3515              	.LLST36:
 3516 0431 00000000 		.4byte	.LVL74
 3517 0435 07000000 		.4byte	.LVL75-1
 3518 0439 0100     		.2byte	0x1
 3519 043b 50       		.byte	0x50
 3520 043c 07000000 		.4byte	.LVL75-1
 3521 0440 1E000000 		.4byte	.LVL77
 3522 0444 0100     		.2byte	0x1
 3523 0446 54       		.byte	0x54
 3524 0447 1E000000 		.4byte	.LVL77
 3525 044b 24000000 		.4byte	.LFE29
 3526 044f 0400     		.2byte	0x4
 3527 0451 F3       		.byte	0xf3
 3528 0452 01       		.uleb128 0x1
 3529 0453 50       		.byte	0x50
 3530 0454 9F       		.byte	0x9f
 3531 0455 00000000 		.4byte	0
 3532 0459 00000000 		.4byte	0
 3533              	.LLST37:
 3534 045d 08000000 		.4byte	.LVL75
 3535 0461 1D000000 		.4byte	.LVL76-1
 3536 0465 0100     		.2byte	0x1
 3537 0467 50       		.byte	0x50
 3538 0468 00000000 		.4byte	0
 3539 046c 00000000 		.4byte	0
 3540              	.LLST38:
 3541 0470 00000000 		.4byte	.LVL78
 3542 0474 07000000 		.4byte	.LVL79-1
 3543 0478 0100     		.2byte	0x1
 3544 047a 50       		.byte	0x50
 3545 047b 07000000 		.4byte	.LVL79-1
 3546 047f 1E000000 		.4byte	.LVL81
 3547 0483 0100     		.2byte	0x1
 3548 0485 54       		.byte	0x54
 3549 0486 1E000000 		.4byte	.LVL81
 3550 048a 28000000 		.4byte	.LFE30
 3551 048e 0400     		.2byte	0x4
 3552 0490 F3       		.byte	0xf3
 3553 0491 01       		.uleb128 0x1
 3554 0492 50       		.byte	0x50
 3555 0493 9F       		.byte	0x9f
 3556 0494 00000000 		.4byte	0
 3557 0498 00000000 		.4byte	0
 3558              	.LLST39:
 3559 049c 08000000 		.4byte	.LVL79
 3560 04a0 1D000000 		.4byte	.LVL80-1
 3561 04a4 0100     		.2byte	0x1
 3562 04a6 50       		.byte	0x50
 3563 04a7 00000000 		.4byte	0
 3564 04ab 00000000 		.4byte	0
 3565              	.LLST40:
 3566 04af 00000000 		.4byte	.LVL82
 3567 04b3 07000000 		.4byte	.LVL83-1
 3568 04b7 0100     		.2byte	0x1
 3569 04b9 50       		.byte	0x50
 3570 04ba 07000000 		.4byte	.LVL83-1
ARM GAS  C:\Users\g\AppData\Local\Temp\ccIVY2Cy.s 			page 93


 3571 04be 1E000000 		.4byte	.LVL85
 3572 04c2 0100     		.2byte	0x1
 3573 04c4 54       		.byte	0x54
 3574 04c5 1E000000 		.4byte	.LVL85
 3575 04c9 24000000 		.4byte	.LFE31
 3576 04cd 0400     		.2byte	0x4
 3577 04cf F3       		.byte	0xf3
 3578 04d0 01       		.uleb128 0x1
 3579 04d1 50       		.byte	0x50
 3580 04d2 9F       		.byte	0x9f
 3581 04d3 00000000 		.4byte	0
 3582 04d7 00000000 		.4byte	0
 3583              	.LLST41:
 3584 04db 08000000 		.4byte	.LVL83
 3585 04df 1D000000 		.4byte	.LVL84-1
 3586 04e3 0100     		.2byte	0x1
 3587 04e5 50       		.byte	0x50
 3588 04e6 00000000 		.4byte	0
 3589 04ea 00000000 		.4byte	0
 3590              	.LLST42:
 3591 04ee 00000000 		.4byte	.LVL86
 3592 04f2 07000000 		.4byte	.LVL87-1
 3593 04f6 0100     		.2byte	0x1
 3594 04f8 50       		.byte	0x50
 3595 04f9 07000000 		.4byte	.LVL87-1
 3596 04fd 1E000000 		.4byte	.LVL89
 3597 0501 0100     		.2byte	0x1
 3598 0503 54       		.byte	0x54
 3599 0504 1E000000 		.4byte	.LVL89
 3600 0508 24000000 		.4byte	.LFE32
 3601 050c 0400     		.2byte	0x4
 3602 050e F3       		.byte	0xf3
 3603 050f 01       		.uleb128 0x1
 3604 0510 50       		.byte	0x50
 3605 0511 9F       		.byte	0x9f
 3606 0512 00000000 		.4byte	0
 3607 0516 00000000 		.4byte	0
 3608              	.LLST43:
 3609 051a 08000000 		.4byte	.LVL87
 3610 051e 1D000000 		.4byte	.LVL88-1
 3611 0522 0100     		.2byte	0x1
 3612 0524 50       		.byte	0x50
 3613 0525 00000000 		.4byte	0
 3614 0529 00000000 		.4byte	0
 3615              	.LLST44:
 3616 052d 00000000 		.4byte	.LVL90
 3617 0531 0B000000 		.4byte	.LVL91-1
 3618 0535 0100     		.2byte	0x1
 3619 0537 50       		.byte	0x50
 3620 0538 0B000000 		.4byte	.LVL91-1
 3621 053c 1C000000 		.4byte	.LFE33
 3622 0540 0400     		.2byte	0x4
 3623 0542 F3       		.byte	0xf3
 3624 0543 01       		.uleb128 0x1
 3625 0544 50       		.byte	0x50
 3626 0545 9F       		.byte	0x9f
 3627 0546 00000000 		.4byte	0
ARM GAS  C:\Users\g\AppData\Local\Temp\ccIVY2Cy.s 			page 94


 3628 054a 00000000 		.4byte	0
 3629              	.LLST45:
 3630 054e 00000000 		.4byte	.LVL90
 3631 0552 0B000000 		.4byte	.LVL91-1
 3632 0556 0100     		.2byte	0x1
 3633 0558 51       		.byte	0x51
 3634 0559 0B000000 		.4byte	.LVL91-1
 3635 055d 14000000 		.4byte	.LVL93
 3636 0561 0100     		.2byte	0x1
 3637 0563 55       		.byte	0x55
 3638 0564 14000000 		.4byte	.LVL93
 3639 0568 1C000000 		.4byte	.LFE33
 3640 056c 0400     		.2byte	0x4
 3641 056e F3       		.byte	0xf3
 3642 056f 01       		.uleb128 0x1
 3643 0570 51       		.byte	0x51
 3644 0571 9F       		.byte	0x9f
 3645 0572 00000000 		.4byte	0
 3646 0576 00000000 		.4byte	0
 3647              	.LLST46:
 3648 057a 0C000000 		.4byte	.LVL91
 3649 057e 13000000 		.4byte	.LVL92-1
 3650 0582 0100     		.2byte	0x1
 3651 0584 50       		.byte	0x50
 3652 0585 00000000 		.4byte	0
 3653 0589 00000000 		.4byte	0
 3654              		.section	.debug_aranges,"",%progbits
 3655 0000 54010000 		.4byte	0x154
 3656 0004 0200     		.2byte	0x2
 3657 0006 00000000 		.4byte	.Ldebug_info0
 3658 000a 04       		.byte	0x4
 3659 000b 00       		.byte	0
 3660 000c 0000     		.2byte	0
 3661 000e 0000     		.2byte	0
 3662 0010 00000000 		.4byte	.LFB0
 3663 0014 3C000000 		.4byte	.LFE0-.LFB0
 3664 0018 00000000 		.4byte	.LFB1
 3665 001c 30000000 		.4byte	.LFE1-.LFB1
 3666 0020 00000000 		.4byte	.LFB2
 3667 0024 50000000 		.4byte	.LFE2-.LFB2
 3668 0028 00000000 		.4byte	.LFB3
 3669 002c 1C000000 		.4byte	.LFE3-.LFB3
 3670 0030 00000000 		.4byte	.LFB4
 3671 0034 28000000 		.4byte	.LFE4-.LFB4
 3672 0038 00000000 		.4byte	.LFB5
 3673 003c 28000000 		.4byte	.LFE5-.LFB5
 3674 0040 00000000 		.4byte	.LFB6
 3675 0044 28000000 		.4byte	.LFE6-.LFB6
 3676 0048 00000000 		.4byte	.LFB7
 3677 004c 2C000000 		.4byte	.LFE7-.LFB7
 3678 0050 00000000 		.4byte	.LFB8
 3679 0054 10000000 		.4byte	.LFE8-.LFB8
 3680 0058 00000000 		.4byte	.LFB9
 3681 005c 28000000 		.4byte	.LFE9-.LFB9
 3682 0060 00000000 		.4byte	.LFB10
 3683 0064 28000000 		.4byte	.LFE10-.LFB10
 3684 0068 00000000 		.4byte	.LFB11
ARM GAS  C:\Users\g\AppData\Local\Temp\ccIVY2Cy.s 			page 95


 3685 006c 2C000000 		.4byte	.LFE11-.LFB11
 3686 0070 00000000 		.4byte	.LFB12
 3687 0074 28000000 		.4byte	.LFE12-.LFB12
 3688 0078 00000000 		.4byte	.LFB13
 3689 007c 10000000 		.4byte	.LFE13-.LFB13
 3690 0080 00000000 		.4byte	.LFB14
 3691 0084 10000000 		.4byte	.LFE14-.LFB14
 3692 0088 00000000 		.4byte	.LFB15
 3693 008c 28000000 		.4byte	.LFE15-.LFB15
 3694 0090 00000000 		.4byte	.LFB16
 3695 0094 10000000 		.4byte	.LFE16-.LFB16
 3696 0098 00000000 		.4byte	.LFB17
 3697 009c 10000000 		.4byte	.LFE17-.LFB17
 3698 00a0 00000000 		.4byte	.LFB18
 3699 00a4 24000000 		.4byte	.LFE18-.LFB18
 3700 00a8 00000000 		.4byte	.LFB19
 3701 00ac 10000000 		.4byte	.LFE19-.LFB19
 3702 00b0 00000000 		.4byte	.LFB20
 3703 00b4 10000000 		.4byte	.LFE20-.LFB20
 3704 00b8 00000000 		.4byte	.LFB21
 3705 00bc 28000000 		.4byte	.LFE21-.LFB21
 3706 00c0 00000000 		.4byte	.LFB22
 3707 00c4 10000000 		.4byte	.LFE22-.LFB22
 3708 00c8 00000000 		.4byte	.LFB23
 3709 00cc 10000000 		.4byte	.LFE23-.LFB23
 3710 00d0 00000000 		.4byte	.LFB24
 3711 00d4 10000000 		.4byte	.LFE24-.LFB24
 3712 00d8 00000000 		.4byte	.LFB25
 3713 00dc 10000000 		.4byte	.LFE25-.LFB25
 3714 00e0 00000000 		.4byte	.LFB26
 3715 00e4 10000000 		.4byte	.LFE26-.LFB26
 3716 00e8 00000000 		.4byte	.LFB27
 3717 00ec 10000000 		.4byte	.LFE27-.LFB27
 3718 00f0 00000000 		.4byte	.LFB28
 3719 00f4 24000000 		.4byte	.LFE28-.LFB28
 3720 00f8 00000000 		.4byte	.LFB29
 3721 00fc 24000000 		.4byte	.LFE29-.LFB29
 3722 0100 00000000 		.4byte	.LFB30
 3723 0104 28000000 		.4byte	.LFE30-.LFB30
 3724 0108 00000000 		.4byte	.LFB31
 3725 010c 24000000 		.4byte	.LFE31-.LFB31
 3726 0110 00000000 		.4byte	.LFB32
 3727 0114 24000000 		.4byte	.LFE32-.LFB32
 3728 0118 00000000 		.4byte	.LFB33
 3729 011c 1C000000 		.4byte	.LFE33-.LFB33
 3730 0120 00000000 		.4byte	.LFB34
 3731 0124 14000000 		.4byte	.LFE34-.LFB34
 3732 0128 00000000 		.4byte	.LFB35
 3733 012c 0C000000 		.4byte	.LFE35-.LFB35
 3734 0130 00000000 		.4byte	.LFB36
 3735 0134 0C000000 		.4byte	.LFE36-.LFB36
 3736 0138 00000000 		.4byte	.LFB37
 3737 013c 0C000000 		.4byte	.LFE37-.LFB37
 3738 0140 00000000 		.4byte	.LFB38
 3739 0144 0C000000 		.4byte	.LFE38-.LFB38
 3740 0148 00000000 		.4byte	.LFB39
 3741 014c 0C000000 		.4byte	.LFE39-.LFB39
ARM GAS  C:\Users\g\AppData\Local\Temp\ccIVY2Cy.s 			page 96


 3742 0150 00000000 		.4byte	0
 3743 0154 00000000 		.4byte	0
 3744              		.section	.debug_ranges,"",%progbits
 3745              	.Ldebug_ranges0:
 3746 0000 04000000 		.4byte	.LBB18
 3747 0004 06000000 		.4byte	.LBE18
 3748 0008 14000000 		.4byte	.LBB23
 3749 000c 18000000 		.4byte	.LBE23
 3750 0010 00000000 		.4byte	0
 3751 0014 00000000 		.4byte	0
 3752 0018 16000000 		.4byte	.LBB30
 3753 001c 18000000 		.4byte	.LBE30
 3754 0020 1A000000 		.4byte	.LBB36
 3755 0024 1C000000 		.4byte	.LBE36
 3756 0028 00000000 		.4byte	0
 3757 002c 00000000 		.4byte	0
 3758 0030 18000000 		.4byte	.LBB33
 3759 0034 1A000000 		.4byte	.LBE33
 3760 0038 1C000000 		.4byte	.LBB37
 3761 003c 20000000 		.4byte	.LBE37
 3762 0040 00000000 		.4byte	0
 3763 0044 00000000 		.4byte	0
 3764 0048 00000000 		.4byte	.LFB0
 3765 004c 3C000000 		.4byte	.LFE0
 3766 0050 00000000 		.4byte	.LFB1
 3767 0054 30000000 		.4byte	.LFE1
 3768 0058 00000000 		.4byte	.LFB2
 3769 005c 50000000 		.4byte	.LFE2
 3770 0060 00000000 		.4byte	.LFB3
 3771 0064 1C000000 		.4byte	.LFE3
 3772 0068 00000000 		.4byte	.LFB4
 3773 006c 28000000 		.4byte	.LFE4
 3774 0070 00000000 		.4byte	.LFB5
 3775 0074 28000000 		.4byte	.LFE5
 3776 0078 00000000 		.4byte	.LFB6
 3777 007c 28000000 		.4byte	.LFE6
 3778 0080 00000000 		.4byte	.LFB7
 3779 0084 2C000000 		.4byte	.LFE7
 3780 0088 00000000 		.4byte	.LFB8
 3781 008c 10000000 		.4byte	.LFE8
 3782 0090 00000000 		.4byte	.LFB9
 3783 0094 28000000 		.4byte	.LFE9
 3784 0098 00000000 		.4byte	.LFB10
 3785 009c 28000000 		.4byte	.LFE10
 3786 00a0 00000000 		.4byte	.LFB11
 3787 00a4 2C000000 		.4byte	.LFE11
 3788 00a8 00000000 		.4byte	.LFB12
 3789 00ac 28000000 		.4byte	.LFE12
 3790 00b0 00000000 		.4byte	.LFB13
 3791 00b4 10000000 		.4byte	.LFE13
 3792 00b8 00000000 		.4byte	.LFB14
 3793 00bc 10000000 		.4byte	.LFE14
 3794 00c0 00000000 		.4byte	.LFB15
 3795 00c4 28000000 		.4byte	.LFE15
 3796 00c8 00000000 		.4byte	.LFB16
 3797 00cc 10000000 		.4byte	.LFE16
 3798 00d0 00000000 		.4byte	.LFB17
ARM GAS  C:\Users\g\AppData\Local\Temp\ccIVY2Cy.s 			page 97


 3799 00d4 10000000 		.4byte	.LFE17
 3800 00d8 00000000 		.4byte	.LFB18
 3801 00dc 24000000 		.4byte	.LFE18
 3802 00e0 00000000 		.4byte	.LFB19
 3803 00e4 10000000 		.4byte	.LFE19
 3804 00e8 00000000 		.4byte	.LFB20
 3805 00ec 10000000 		.4byte	.LFE20
 3806 00f0 00000000 		.4byte	.LFB21
 3807 00f4 28000000 		.4byte	.LFE21
 3808 00f8 00000000 		.4byte	.LFB22
 3809 00fc 10000000 		.4byte	.LFE22
 3810 0100 00000000 		.4byte	.LFB23
 3811 0104 10000000 		.4byte	.LFE23
 3812 0108 00000000 		.4byte	.LFB24
 3813 010c 10000000 		.4byte	.LFE24
 3814 0110 00000000 		.4byte	.LFB25
 3815 0114 10000000 		.4byte	.LFE25
 3816 0118 00000000 		.4byte	.LFB26
 3817 011c 10000000 		.4byte	.LFE26
 3818 0120 00000000 		.4byte	.LFB27
 3819 0124 10000000 		.4byte	.LFE27
 3820 0128 00000000 		.4byte	.LFB28
 3821 012c 24000000 		.4byte	.LFE28
 3822 0130 00000000 		.4byte	.LFB29
 3823 0134 24000000 		.4byte	.LFE29
 3824 0138 00000000 		.4byte	.LFB30
 3825 013c 28000000 		.4byte	.LFE30
 3826 0140 00000000 		.4byte	.LFB31
 3827 0144 24000000 		.4byte	.LFE31
 3828 0148 00000000 		.4byte	.LFB32
 3829 014c 24000000 		.4byte	.LFE32
 3830 0150 00000000 		.4byte	.LFB33
 3831 0154 1C000000 		.4byte	.LFE33
 3832 0158 00000000 		.4byte	.LFB34
 3833 015c 14000000 		.4byte	.LFE34
 3834 0160 00000000 		.4byte	.LFB35
 3835 0164 0C000000 		.4byte	.LFE35
 3836 0168 00000000 		.4byte	.LFB36
 3837 016c 0C000000 		.4byte	.LFE36
 3838 0170 00000000 		.4byte	.LFB37
 3839 0174 0C000000 		.4byte	.LFE37
 3840 0178 00000000 		.4byte	.LFB38
 3841 017c 0C000000 		.4byte	.LFE38
 3842 0180 00000000 		.4byte	.LFB39
 3843 0184 0C000000 		.4byte	.LFE39
 3844 0188 00000000 		.4byte	0
 3845 018c 00000000 		.4byte	0
 3846              		.section	.debug_line,"",%progbits
 3847              	.Ldebug_line0:
 3848 0000 0A040000 		.section	.debug_str,"MS",%progbits,1
 3848      02004F00 
 3848      00000201 
 3848      FB0E0D00 
 3848      01010101 
 3849              	.LASF24:
 3850 0000 636F756E 		.ascii	"count\000"
 3850      7400
ARM GAS  C:\Users\g\AppData\Local\Temp\ccIVY2Cy.s 			page 98


 3851              	.LASF81:
 3852 0006 43794578 		.ascii	"CyExitCriticalSection\000"
 3852      69744372 
 3852      69746963 
 3852      616C5365 
 3852      6374696F 
 3853              	.LASF18:
 3854 001c 54585F53 		.ascii	"TX_SEND_TriggerCommand\000"
 3854      454E445F 
 3854      54726967 
 3854      67657243 
 3854      6F6D6D61 
 3855              	.LASF73:
 3856 0033 54585F53 		.ascii	"TX_SEND_ClearInterrupt\000"
 3856      454E445F 
 3856      436C6561 
 3856      72496E74 
 3856      65727275 
 3857              	.LASF22:
 3858 004a 70657269 		.ascii	"period\000"
 3858      6F6400
 3859              	.LASF77:
 3860 0051 443A5C63 		.ascii	"D:\\code\\cypress\\Tarocco\\Tarocco.cydsn\000"
 3860      6F64655C 
 3860      63797072 
 3860      6573735C 
 3860      5461726F 
 3861              	.LASF66:
 3862 0077 54585F53 		.ascii	"TX_SEND_SetReloadMode\000"
 3862      454E445F 
 3862      53657452 
 3862      656C6F61 
 3862      644D6F64 
 3863              	.LASF7:
 3864 008d 6C6F6E67 		.ascii	"long long unsigned int\000"
 3864      206C6F6E 
 3864      6720756E 
 3864      7369676E 
 3864      65642069 
 3865              	.LASF32:
 3866 00a4 71644D6F 		.ascii	"qdMode\000"
 3866      646500
 3867              	.LASF61:
 3868 00ab 54585F53 		.ascii	"TX_SEND_ReadCompareBuf\000"
 3868      454E445F 
 3868      52656164 
 3868      436F6D70 
 3868      61726542 
 3869              	.LASF6:
 3870 00c2 6C6F6E67 		.ascii	"long long int\000"
 3870      206C6F6E 
 3870      6720696E 
 3870      7400
 3871              	.LASF0:
 3872 00d0 7369676E 		.ascii	"signed char\000"
 3872      65642063 
 3872      68617200 
ARM GAS  C:\Users\g\AppData\Local\Temp\ccIVY2Cy.s 			page 99


 3873              	.LASF79:
 3874 00dc 54585F53 		.ascii	"TX_SEND_initVar\000"
 3874      454E445F 
 3874      696E6974 
 3874      56617200 
 3875              	.LASF4:
 3876 00ec 6C6F6E67 		.ascii	"long int\000"
 3876      20696E74 
 3876      00
 3877              	.LASF43:
 3878 00f5 54585F53 		.ascii	"TX_SEND_SetPWMDeadTime\000"
 3878      454E445F 
 3878      53657450 
 3878      574D4465 
 3878      61645469 
 3879              	.LASF9:
 3880 010c 75696E74 		.ascii	"uint8\000"
 3880      3800
 3881              	.LASF12:
 3882 0112 646F7562 		.ascii	"double\000"
 3882      6C6500
 3883              	.LASF10:
 3884 0119 75696E74 		.ascii	"uint32\000"
 3884      333200
 3885              	.LASF74:
 3886 0120 54585F53 		.ascii	"TX_SEND_SetInterrupt\000"
 3886      454E445F 
 3886      53657449 
 3886      6E746572 
 3886      72757074 
 3887              	.LASF65:
 3888 0135 74726967 		.ascii	"triggerMode\000"
 3888      6765724D 
 3888      6F646500 
 3889              	.LASF16:
 3890 0141 6D61736B 		.ascii	"mask\000"
 3890      00
 3891              	.LASF21:
 3892 0146 54585F53 		.ascii	"TX_SEND_WritePeriod\000"
 3892      454E445F 
 3892      57726974 
 3892      65506572 
 3892      696F6400 
 3893              	.LASF44:
 3894 015a 64656164 		.ascii	"deadTime\000"
 3894      54696D65 
 3894      00
 3895              	.LASF30:
 3896 0163 54585F53 		.ascii	"TX_SEND_SetQDMode\000"
 3896      454E445F 
 3896      53657451 
 3896      444D6F64 
 3896      6500
 3897              	.LASF59:
 3898 0175 54585F53 		.ascii	"TX_SEND_WriteCompareBuf\000"
 3898      454E445F 
 3898      57726974 
ARM GAS  C:\Users\g\AppData\Local\Temp\ccIVY2Cy.s 			page 100


 3898      65436F6D 
 3898      70617265 
 3899              	.LASF52:
 3900 018d 54585F53 		.ascii	"TX_SEND_WritePeriodBuf\000"
 3900      454E445F 
 3900      57726974 
 3900      65506572 
 3900      696F6442 
 3901              	.LASF8:
 3902 01a4 756E7369 		.ascii	"unsigned int\000"
 3902      676E6564 
 3902      20696E74 
 3902      00
 3903              	.LASF42:
 3904 01b1 73746F70 		.ascii	"stopOnKillEnable\000"
 3904      4F6E4B69 
 3904      6C6C456E 
 3904      61626C65 
 3904      00
 3905              	.LASF17:
 3906 01c2 636F6D6D 		.ascii	"command\000"
 3906      616E6400 
 3907              	.LASF5:
 3908 01ca 6C6F6E67 		.ascii	"long unsigned int\000"
 3908      20756E73 
 3908      69676E65 
 3908      6420696E 
 3908      7400
 3909              	.LASF38:
 3910 01dc 6D6F6465 		.ascii	"modeMask\000"
 3910      4D61736B 
 3910      00
 3911              	.LASF80:
 3912 01e5 4379456E 		.ascii	"CyEnterCriticalSection\000"
 3912      74657243 
 3912      72697469 
 3912      63616C53 
 3912      65637469 
 3913              	.LASF72:
 3914 01fc 54585F53 		.ascii	"TX_SEND_GetInterruptSource\000"
 3914      454E445F 
 3914      47657449 
 3914      6E746572 
 3914      72757074 
 3915              	.LASF3:
 3916 0217 73686F72 		.ascii	"short unsigned int\000"
 3916      7420756E 
 3916      7369676E 
 3916      65642069 
 3916      6E7400
 3917              	.LASF78:
 3918 022a 54585F53 		.ascii	"TX_SEND_Init\000"
 3918      454E445F 
 3918      496E6974 
 3918      00
 3919              	.LASF36:
 3920 0237 6F6E6553 		.ascii	"oneShotEnable\000"
ARM GAS  C:\Users\g\AppData\Local\Temp\ccIVY2Cy.s 			page 101


 3920      686F7445 
 3920      6E61626C 
 3920      6500
 3921              	.LASF62:
 3922 0245 54585F53 		.ascii	"TX_SEND_ReadCapture\000"
 3922      454E445F 
 3922      52656164 
 3922      43617074 
 3922      75726500 
 3923              	.LASF69:
 3924 0259 54585F53 		.ascii	"TX_SEND_SetCountMode\000"
 3924      454E445F 
 3924      53657443 
 3924      6F756E74 
 3924      4D6F6465 
 3925              	.LASF67:
 3926 026e 54585F53 		.ascii	"TX_SEND_SetStartMode\000"
 3926      454E445F 
 3926      53657453 
 3926      74617274 
 3926      4D6F6465 
 3927              	.LASF14:
 3928 0283 72656733 		.ascii	"reg32\000"
 3928      3200
 3929              	.LASF56:
 3930 0289 54585F53 		.ascii	"TX_SEND_WriteCompare\000"
 3930      454E445F 
 3930      57726974 
 3930      65436F6D 
 3930      70617265 
 3931              	.LASF15:
 3932 029e 73697A65 		.ascii	"sizetype\000"
 3932      74797065 
 3932      00
 3933              	.LASF76:
 3934 02a7 47656E65 		.ascii	"Generated_Source\\PSoC4\\TX_SEND.c\000"
 3934      72617465 
 3934      645F536F 
 3934      75726365 
 3934      5C50536F 
 3935              	.LASF40:
 3936 02c8 73796E63 		.ascii	"syncKillEnable\000"
 3936      4B696C6C 
 3936      456E6162 
 3936      6C6500
 3937              	.LASF58:
 3938 02d7 54585F53 		.ascii	"TX_SEND_ReadCompare\000"
 3938      454E445F 
 3938      52656164 
 3938      436F6D70 
 3938      61726500 
 3939              	.LASF57:
 3940 02eb 636F6D70 		.ascii	"compare\000"
 3940      61726500 
 3941              	.LASF46:
 3942 02f3 54585F53 		.ascii	"TX_SEND_SetCounterMode\000"
 3942      454E445F 
ARM GAS  C:\Users\g\AppData\Local\Temp\ccIVY2Cy.s 			page 102


 3942      53657443 
 3942      6F756E74 
 3942      65724D6F 
 3943              	.LASF35:
 3944 030a 54585F53 		.ascii	"TX_SEND_SetOneShot\000"
 3944      454E445F 
 3944      5365744F 
 3944      6E655368 
 3944      6F7400
 3945              	.LASF29:
 3946 031d 54585F53 		.ascii	"TX_SEND_SetMode\000"
 3946      454E445F 
 3946      5365744D 
 3946      6F646500 
 3947              	.LASF11:
 3948 032d 666C6F61 		.ascii	"float\000"
 3948      7400
 3949              	.LASF34:
 3950 0333 70726573 		.ascii	"prescaler\000"
 3950      63616C65 
 3950      7200
 3951              	.LASF23:
 3952 033d 54585F53 		.ascii	"TX_SEND_WriteCounter\000"
 3952      454E445F 
 3952      57726974 
 3952      65436F75 
 3952      6E746572 
 3953              	.LASF70:
 3954 0352 54585F53 		.ascii	"TX_SEND_ReadStatus\000"
 3954      454E445F 
 3954      52656164 
 3954      53746174 
 3954      757300
 3955              	.LASF1:
 3956 0365 756E7369 		.ascii	"unsigned char\000"
 3956      676E6564 
 3956      20636861 
 3956      7200
 3957              	.LASF26:
 3958 0373 54585F53 		.ascii	"TX_SEND_Start\000"
 3958      454E445F 
 3958      53746172 
 3958      7400
 3959              	.LASF75:
 3960 0381 474E5520 		.ascii	"GNU C 4.9.3 20150303 (release) [ARM/embedded-4_9-br"
 3960      4320342E 
 3960      392E3320 
 3960      32303135 
 3960      30333033 
 3961 03b4 616E6368 		.ascii	"anch revision 221220] -mcpu=cortex-m0 -mthumb -g -O"
 3961      20726576 
 3961      6973696F 
 3961      6E203232 
 3961      31323230 
 3962 03e7 32202D73 		.ascii	"2 -std=gnu99 -ffunction-sections -ffat-lto-objects\000"
 3962      74643D67 
 3962      6E753939 
ARM GAS  C:\Users\g\AppData\Local\Temp\ccIVY2Cy.s 			page 103


 3962      202D6666 
 3962      756E6374 
 3963              	.LASF2:
 3964 041a 73686F72 		.ascii	"short int\000"
 3964      7420696E 
 3964      7400
 3965              	.LASF71:
 3966 0424 54585F53 		.ascii	"TX_SEND_GetInterruptSourceMasked\000"
 3966      454E445F 
 3966      47657449 
 3966      6E746572 
 3966      72757074 
 3967              	.LASF64:
 3968 0445 54585F53 		.ascii	"TX_SEND_SetCaptureMode\000"
 3968      454E445F 
 3968      53657443 
 3968      61707475 
 3968      72654D6F 
 3969              	.LASF41:
 3970 045c 54585F53 		.ascii	"TX_SEND_SetPWMStopOnKill\000"
 3970      454E445F 
 3970      53657450 
 3970      574D5374 
 3970      6F704F6E 
 3971              	.LASF20:
 3972 0475 696E7465 		.ascii	"interruptMask\000"
 3972      72727570 
 3972      744D6173 
 3972      6B00
 3973              	.LASF63:
 3974 0483 54585F53 		.ascii	"TX_SEND_ReadCaptureBuf\000"
 3974      454E445F 
 3974      52656164 
 3974      43617074 
 3974      75726542 
 3975              	.LASF45:
 3976 049a 54585F53 		.ascii	"TX_SEND_SetPWMInvert\000"
 3976      454E445F 
 3976      53657450 
 3976      574D496E 
 3976      76657274 
 3977              	.LASF13:
 3978 04af 63686172 		.ascii	"char\000"
 3978      00
 3979              	.LASF31:
 3980 04b4 6D6F6465 		.ascii	"mode\000"
 3980      00
 3981              	.LASF55:
 3982 04b9 54585F53 		.ascii	"TX_SEND_SetPeriodSwap\000"
 3982      454E445F 
 3982      53657450 
 3982      6572696F 
 3982      64537761 
 3983              	.LASF47:
 3984 04cf 636F756E 		.ascii	"counterMode\000"
 3984      7465724D 
 3984      6F646500 
ARM GAS  C:\Users\g\AppData\Local\Temp\ccIVY2Cy.s 			page 104


 3985              	.LASF50:
 3986 04db 54585F53 		.ascii	"TX_SEND_SetCompareSwap\000"
 3986      454E445F 
 3986      53657443 
 3986      6F6D7061 
 3986      72655377 
 3987              	.LASF49:
 3988 04f2 54585F53 		.ascii	"TX_SEND_ReadPeriod\000"
 3988      454E445F 
 3988      52656164 
 3988      50657269 
 3988      6F6400
 3989              	.LASF60:
 3990 0505 636F6D70 		.ascii	"compareBuf\000"
 3990      61726542 
 3990      756600
 3991              	.LASF54:
 3992 0510 54585F53 		.ascii	"TX_SEND_ReadPeriodBuf\000"
 3992      454E445F 
 3992      52656164 
 3992      50657269 
 3992      6F644275 
 3993              	.LASF68:
 3994 0526 54585F53 		.ascii	"TX_SEND_SetStopMode\000"
 3994      454E445F 
 3994      53657453 
 3994      746F704D 
 3994      6F646500 
 3995              	.LASF48:
 3996 053a 54585F53 		.ascii	"TX_SEND_ReadCounter\000"
 3996      454E445F 
 3996      52656164 
 3996      436F756E 
 3996      74657200 
 3997              	.LASF28:
 3998 054e 656E6162 		.ascii	"enableInterrupts\000"
 3998      6C65496E 
 3998      74657272 
 3998      75707473 
 3998      00
 3999              	.LASF25:
 4000 055f 54585F53 		.ascii	"TX_SEND_Enable\000"
 4000      454E445F 
 4000      456E6162 
 4000      6C6500
 4001              	.LASF39:
 4002 056e 54585F53 		.ascii	"TX_SEND_SetPWMSyncKill\000"
 4002      454E445F 
 4002      53657450 
 4002      574D5379 
 4002      6E634B69 
 4003              	.LASF33:
 4004 0585 54585F53 		.ascii	"TX_SEND_SetPrescaler\000"
 4004      454E445F 
 4004      53657450 
 4004      72657363 
 4004      616C6572 
ARM GAS  C:\Users\g\AppData\Local\Temp\ccIVY2Cy.s 			page 105


 4005              	.LASF19:
 4006 059a 54585F53 		.ascii	"TX_SEND_SetInterruptMode\000"
 4006      454E445F 
 4006      53657449 
 4006      6E746572 
 4006      72757074 
 4007              	.LASF51:
 4008 05b3 73776170 		.ascii	"swapEnable\000"
 4008      456E6162 
 4008      6C6500
 4009              	.LASF53:
 4010 05be 70657269 		.ascii	"periodBuf\000"
 4010      6F644275 
 4010      6600
 4011              	.LASF27:
 4012 05c8 54585F53 		.ascii	"TX_SEND_Stop\000"
 4012      454E445F 
 4012      53746F70 
 4012      00
 4013              	.LASF37:
 4014 05d5 54585F53 		.ascii	"TX_SEND_SetPWMMode\000"
 4014      454E445F 
 4014      53657450 
 4014      574D4D6F 
 4014      646500
 4015              		.ident	"GCC: (GNU Tools for ARM Embedded Processors) 4.9.3 20150303 (release) [ARM/embedded-4_9-br
