ARM GAS  C:\Users\g\AppData\Local\Temp\ccelQmmg.s 			page 1


   1              		.cpu cortex-m0
   2              		.fpu softvfp
   3              		.eabi_attribute 20, 1
   4              		.eabi_attribute 21, 1
   5              		.eabi_attribute 23, 3
   6              		.eabi_attribute 24, 1
   7              		.eabi_attribute 25, 1
   8              		.eabi_attribute 26, 1
   9              		.eabi_attribute 30, 4
  10              		.eabi_attribute 34, 0
  11              		.eabi_attribute 18, 4
  12              		.code	16
  13              		.file	"CyLFClk.c"
  14              		.text
  15              	.Ltext0:
  16              		.cfi_sections	.debug_frame
  17              		.section	.text.CySysClkIloStart,"ax",%progbits
  18              		.align	1
  19              		.global	CySysClkIloStart
  20              		.code	16
  21              		.thumb_func
  22              		.type	CySysClkIloStart, %function
  23              	CySysClkIloStart:
  24              	.LFB0:
  25              		.file 1 "Generated_Source\\PSoC4\\CyLFClk.c"
   1:Generated_Source\PSoC4/CyLFClk.c **** /***************************************************************************//**
   2:Generated_Source\PSoC4/CyLFClk.c **** * \file .c
   3:Generated_Source\PSoC4/CyLFClk.c **** * \version 1.10
   4:Generated_Source\PSoC4/CyLFClk.c **** *
   5:Generated_Source\PSoC4/CyLFClk.c **** * \brief
   6:Generated_Source\PSoC4/CyLFClk.c **** *  This file provides the source code for configuring watchdog timers WDTs, 
   7:Generated_Source\PSoC4/CyLFClk.c **** *  low frequency clocks (LFCLK) and the Real-time Clock (RTC) component in
   8:Generated_Source\PSoC4/CyLFClk.c **** *  PSoC Creator for the PSoC 4 families.
   9:Generated_Source\PSoC4/CyLFClk.c **** *
  10:Generated_Source\PSoC4/CyLFClk.c **** ********************************************************************************
  11:Generated_Source\PSoC4/CyLFClk.c **** * \copyright
  12:Generated_Source\PSoC4/CyLFClk.c **** * Copyright 2008-2016, Cypress Semiconductor Corporation.  All rights reserved.
  13:Generated_Source\PSoC4/CyLFClk.c **** * You may use this file only in accordance with the license, terms, conditions,
  14:Generated_Source\PSoC4/CyLFClk.c **** * disclaimers, and limitations in the end user license agreement accompanying
  15:Generated_Source\PSoC4/CyLFClk.c **** * the software package with which this file was provided.
  16:Generated_Source\PSoC4/CyLFClk.c **** *******************************************************************************/
  17:Generated_Source\PSoC4/CyLFClk.c **** 
  18:Generated_Source\PSoC4/CyLFClk.c **** 
  19:Generated_Source\PSoC4/CyLFClk.c **** #include "CyLFClk.h"
  20:Generated_Source\PSoC4/CyLFClk.c **** #include "CyLib.h"
  21:Generated_Source\PSoC4/CyLFClk.c **** 
  22:Generated_Source\PSoC4/CyLFClk.c **** #if (CY_IP_WCO && CY_IP_SRSSV2)
  23:Generated_Source\PSoC4/CyLFClk.c ****     static uint32 CySysClkGetLfclkSource(void);
  24:Generated_Source\PSoC4/CyLFClk.c **** #endif /* (CY_IP_WCO && CY_IP_SRSSV2) */
  25:Generated_Source\PSoC4/CyLFClk.c **** 
  26:Generated_Source\PSoC4/CyLFClk.c **** 
  27:Generated_Source\PSoC4/CyLFClk.c **** #if(CY_IP_SRSSV2 && (!(CY_PSOC4_4100 || CY_PSOC4_4200)))
  28:Generated_Source\PSoC4/CyLFClk.c ****     /* Default Ilo Trim Register value for ILO trimming*/
  29:Generated_Source\PSoC4/CyLFClk.c ****     static volatile uint16 defaultIloTrimRegValue = CY_SYS_CLK_ILO_TRIM_DEFAULT_VALUE;
  30:Generated_Source\PSoC4/CyLFClk.c **** #endif /* (CY_IP_SRSSV2 && (!(CY_PSOC4_4100 || CY_PSOC4_4200))) */
  31:Generated_Source\PSoC4/CyLFClk.c **** 
  32:Generated_Source\PSoC4/CyLFClk.c **** #if(CY_IP_SRSSV2)
ARM GAS  C:\Users\g\AppData\Local\Temp\ccelQmmg.s 			page 2


  33:Generated_Source\PSoC4/CyLFClk.c ****     /* CySysClkLfclkPosedgeCatch() / CySysClkLfclkPosedgeRestore() */
  34:Generated_Source\PSoC4/CyLFClk.c ****     static uint32 lfclkPosedgeWdtCounter0Enabled = 0u;
  35:Generated_Source\PSoC4/CyLFClk.c ****     static uint32 lfclkPosedgeWdtCounter0Mode    = CY_SYS_WDT_MODE_NONE;
  36:Generated_Source\PSoC4/CyLFClk.c **** 
  37:Generated_Source\PSoC4/CyLFClk.c ****     static volatile uint32 disableServicedIsr = 0uL;
  38:Generated_Source\PSoC4/CyLFClk.c ****     static volatile uint32 wdtIsrMask = CY_SYS_WDT_COUNTER0_INT |\
  39:Generated_Source\PSoC4/CyLFClk.c ****                                         CY_SYS_WDT_COUNTER1_INT |\
  40:Generated_Source\PSoC4/CyLFClk.c ****                                         CY_SYS_WDT_COUNTER2_INT;
  41:Generated_Source\PSoC4/CyLFClk.c **** 
  42:Generated_Source\PSoC4/CyLFClk.c ****     static const uint32 counterIntMaskTbl[CY_WDT_NUM_OF_WDT] = {CY_SYS_WDT_COUNTER0_INT,
  43:Generated_Source\PSoC4/CyLFClk.c ****                                                                 CY_SYS_WDT_COUNTER1_INT,
  44:Generated_Source\PSoC4/CyLFClk.c ****                                                                 CY_SYS_WDT_COUNTER2_INT};
  45:Generated_Source\PSoC4/CyLFClk.c **** 
  46:Generated_Source\PSoC4/CyLFClk.c ****     static void CySysClkLfclkPosedgeCatch(void);
  47:Generated_Source\PSoC4/CyLFClk.c ****     static void CySysClkLfclkPosedgeRestore(void);
  48:Generated_Source\PSoC4/CyLFClk.c **** 
  49:Generated_Source\PSoC4/CyLFClk.c ****     static uint32 CySysWdtLocked(void);
  50:Generated_Source\PSoC4/CyLFClk.c ****     static uint32 CySysClkIloEnabled(void);
  51:Generated_Source\PSoC4/CyLFClk.c **** #endif /* (CY_IP_SRSSV2) */
  52:Generated_Source\PSoC4/CyLFClk.c **** 
  53:Generated_Source\PSoC4/CyLFClk.c **** #if (CY_IP_SRSSLT && CY_IP_WCO && CY_IP_WCO_WDT_EN)
  54:Generated_Source\PSoC4/CyLFClk.c ****     static uint32 CySysClkGetTimerSource(void);
  55:Generated_Source\PSoC4/CyLFClk.c ****     static volatile uint32 disableTimerServicedIsr = 0uL;
  56:Generated_Source\PSoC4/CyLFClk.c ****     static volatile uint32 timerIsrMask = CY_SYS_TIMER0_INT |\
  57:Generated_Source\PSoC4/CyLFClk.c ****                                           CY_SYS_TIMER1_INT |\
  58:Generated_Source\PSoC4/CyLFClk.c ****                                           CY_SYS_TIMER2_INT;
  59:Generated_Source\PSoC4/CyLFClk.c **** 
  60:Generated_Source\PSoC4/CyLFClk.c ****     static const uint32 counterTimerIntMaskTbl[CY_SYS_NUM_OF_TIMERS] = {CY_SYS_TIMER0_INT,
  61:Generated_Source\PSoC4/CyLFClk.c ****                                                                         CY_SYS_TIMER1_INT,
  62:Generated_Source\PSoC4/CyLFClk.c ****                                                                         CY_SYS_TIMER2_INT};
  63:Generated_Source\PSoC4/CyLFClk.c **** 
  64:Generated_Source\PSoC4/CyLFClk.c ****     static cyTimerCallback cySysTimerCallback[CY_SYS_NUM_OF_TIMERS] = {(void *)0, (void *)0, (void 
  65:Generated_Source\PSoC4/CyLFClk.c **** #endif /* (CY_IP_SRSSLT && CY_IP_WCO && CY_IP_WCO_DWT_EN) */
  66:Generated_Source\PSoC4/CyLFClk.c **** 
  67:Generated_Source\PSoC4/CyLFClk.c **** #if(CY_IP_SRSSV2)
  68:Generated_Source\PSoC4/CyLFClk.c ****     static cyWdtCallback cySysWdtCallback[CY_WDT_NUM_OF_WDT] = {(void *)0, (void *)0, (void *)0};
  69:Generated_Source\PSoC4/CyLFClk.c **** #else
  70:Generated_Source\PSoC4/CyLFClk.c ****     static cyWdtCallback cySysWdtCallback = (void *)0;
  71:Generated_Source\PSoC4/CyLFClk.c **** #endif /* (CY_IP_SRSSV2) */
  72:Generated_Source\PSoC4/CyLFClk.c **** 
  73:Generated_Source\PSoC4/CyLFClk.c **** 
  74:Generated_Source\PSoC4/CyLFClk.c **** /*******************************************************************************
  75:Generated_Source\PSoC4/CyLFClk.c **** * Function Name: CySysClkIloStart
  76:Generated_Source\PSoC4/CyLFClk.c **** ****************************************************************************//**
  77:Generated_Source\PSoC4/CyLFClk.c **** * \brief
  78:Generated_Source\PSoC4/CyLFClk.c **** *  Enables ILO.
  79:Generated_Source\PSoC4/CyLFClk.c **** *
  80:Generated_Source\PSoC4/CyLFClk.c **** *  Refer to the device datasheet for the ILO startup time.
  81:Generated_Source\PSoC4/CyLFClk.c **** *
  82:Generated_Source\PSoC4/CyLFClk.c **** *******************************************************************************/
  83:Generated_Source\PSoC4/CyLFClk.c **** void CySysClkIloStart(void)
  84:Generated_Source\PSoC4/CyLFClk.c **** {
  26              		.loc 1 84 0
  27              		.cfi_startproc
  85:Generated_Source\PSoC4/CyLFClk.c ****     CY_SYS_CLK_ILO_CONFIG_REG |= CY_SYS_CLK_ILO_CONFIG_ENABLE;
  28              		.loc 1 85 0
  29 0000 8021     		mov	r1, #128
ARM GAS  C:\Users\g\AppData\Local\Temp\ccelQmmg.s 			page 3


  30 0002 034A     		ldr	r2, .L2
  31 0004 0906     		lsl	r1, r1, #24
  32 0006 1368     		ldr	r3, [r2]
  86:Generated_Source\PSoC4/CyLFClk.c **** }
  33              		.loc 1 86 0
  34              		@ sp needed
  85:Generated_Source\PSoC4/CyLFClk.c ****     CY_SYS_CLK_ILO_CONFIG_REG |= CY_SYS_CLK_ILO_CONFIG_ENABLE;
  35              		.loc 1 85 0
  36 0008 0B43     		orr	r3, r1
  37 000a 1360     		str	r3, [r2]
  38              		.loc 1 86 0
  39 000c 7047     		bx	lr
  40              	.L3:
  41 000e C046     		.align	2
  42              	.L2:
  43 0010 04010B40 		.word	1074462980
  44              		.cfi_endproc
  45              	.LFE0:
  46              		.size	CySysClkIloStart, .-CySysClkIloStart
  47              		.section	.text.CySysClkIloStartMeasurement,"ax",%progbits
  48              		.align	1
  49              		.global	CySysClkIloStartMeasurement
  50              		.code	16
  51              		.thumb_func
  52              		.type	CySysClkIloStartMeasurement, %function
  53              	CySysClkIloStartMeasurement:
  54              	.LFB2:
  87:Generated_Source\PSoC4/CyLFClk.c **** 
  88:Generated_Source\PSoC4/CyLFClk.c **** 
  89:Generated_Source\PSoC4/CyLFClk.c **** /*******************************************************************************
  90:Generated_Source\PSoC4/CyLFClk.c **** * Function Name: CySysClkIloStop
  91:Generated_Source\PSoC4/CyLFClk.c **** ****************************************************************************//**
  92:Generated_Source\PSoC4/CyLFClk.c **** * \brief
  93:Generated_Source\PSoC4/CyLFClk.c **** *  Disables the ILO.
  94:Generated_Source\PSoC4/CyLFClk.c **** *
  95:Generated_Source\PSoC4/CyLFClk.c **** *  This function has no effect if WDT is locked (CySysWdtLock() is
  96:Generated_Source\PSoC4/CyLFClk.c **** *  called). Call CySysWdtUnlock() to unlock WDT and stop ILO.
  97:Generated_Source\PSoC4/CyLFClk.c **** *
  98:Generated_Source\PSoC4/CyLFClk.c **** *  PSoC 4100 / PSoC 4200: Note that ILO is required for WDT's operation.
  99:Generated_Source\PSoC4/CyLFClk.c **** *
 100:Generated_Source\PSoC4/CyLFClk.c **** *  PSoC 4100 BLE / PSoC 4200 BLE / PSoC 4200L / PSoC 4100M / 
 101:Generated_Source\PSoC4/CyLFClk.c **** *  PSoC 4200M:
 102:Generated_Source\PSoC4/CyLFClk.c **** *  Stopping ILO affects the peripheral clocked by LFCLK, if
 103:Generated_Source\PSoC4/CyLFClk.c **** *  LFCLK is configured to be sourced by ILO.
 104:Generated_Source\PSoC4/CyLFClk.c **** *
 105:Generated_Source\PSoC4/CyLFClk.c **** *  If the ILO is disabled, all blocks run by ILO will stop functioning.
 106:Generated_Source\PSoC4/CyLFClk.c **** *
 107:Generated_Source\PSoC4/CyLFClk.c **** *******************************************************************************/
 108:Generated_Source\PSoC4/CyLFClk.c **** void CySysClkIloStop(void)
 109:Generated_Source\PSoC4/CyLFClk.c **** {
 110:Generated_Source\PSoC4/CyLFClk.c ****     #if(CY_IP_SRSSV2)
 111:Generated_Source\PSoC4/CyLFClk.c ****         uint8  interruptState;
 112:Generated_Source\PSoC4/CyLFClk.c **** 
 113:Generated_Source\PSoC4/CyLFClk.c ****         /* Do nothing if WDT is locked or ILO is disabled */
 114:Generated_Source\PSoC4/CyLFClk.c ****         if (0u == CySysWdtLocked())
 115:Generated_Source\PSoC4/CyLFClk.c ****         {
 116:Generated_Source\PSoC4/CyLFClk.c ****             if (0u != CySysClkIloEnabled())
ARM GAS  C:\Users\g\AppData\Local\Temp\ccelQmmg.s 			page 4


 117:Generated_Source\PSoC4/CyLFClk.c ****             {
 118:Generated_Source\PSoC4/CyLFClk.c **** 
 119:Generated_Source\PSoC4/CyLFClk.c ****             #if (CY_IP_WCO)
 120:Generated_Source\PSoC4/CyLFClk.c ****                 if (CY_SYS_CLK_LFCLK_SRC_ILO == CySysClkGetLfclkSource())
 121:Generated_Source\PSoC4/CyLFClk.c ****                 {
 122:Generated_Source\PSoC4/CyLFClk.c ****             #endif /* (CY_IP_WCO) */
 123:Generated_Source\PSoC4/CyLFClk.c **** 
 124:Generated_Source\PSoC4/CyLFClk.c ****                 interruptState = CyEnterCriticalSection();
 125:Generated_Source\PSoC4/CyLFClk.c ****                 CySysClkLfclkPosedgeCatch();
 126:Generated_Source\PSoC4/CyLFClk.c ****                 CY_SYS_CLK_ILO_CONFIG_REG &= (uint32) ( ~(uint32)CY_SYS_CLK_ILO_CONFIG_ENABLE);
 127:Generated_Source\PSoC4/CyLFClk.c ****                 CySysClkLfclkPosedgeRestore();
 128:Generated_Source\PSoC4/CyLFClk.c ****                 CyExitCriticalSection(interruptState);
 129:Generated_Source\PSoC4/CyLFClk.c **** 
 130:Generated_Source\PSoC4/CyLFClk.c ****             #if (CY_IP_WCO)
 131:Generated_Source\PSoC4/CyLFClk.c ****                 }
 132:Generated_Source\PSoC4/CyLFClk.c ****                 else /* Safe to disable - shortened pulse does not impact peripheral */
 133:Generated_Source\PSoC4/CyLFClk.c ****                 {
 134:Generated_Source\PSoC4/CyLFClk.c ****                     CY_SYS_CLK_ILO_CONFIG_REG &= (uint32) ( ~(uint32)CY_SYS_CLK_ILO_CONFIG_ENABLE);
 135:Generated_Source\PSoC4/CyLFClk.c ****                 }
 136:Generated_Source\PSoC4/CyLFClk.c ****             #endif /* (CY_IP_WCO) */
 137:Generated_Source\PSoC4/CyLFClk.c **** 
 138:Generated_Source\PSoC4/CyLFClk.c ****             }
 139:Generated_Source\PSoC4/CyLFClk.c ****         }
 140:Generated_Source\PSoC4/CyLFClk.c ****     #else
 141:Generated_Source\PSoC4/CyLFClk.c ****         CY_SYS_CLK_ILO_CONFIG_REG &= ( uint32 ) ( ~( uint32 )CY_SYS_CLK_ILO_CONFIG_ENABLE);
 142:Generated_Source\PSoC4/CyLFClk.c ****     #endif /* (CY_IP_SRSSV2) */
 143:Generated_Source\PSoC4/CyLFClk.c **** }
 144:Generated_Source\PSoC4/CyLFClk.c **** 
 145:Generated_Source\PSoC4/CyLFClk.c **** 
 146:Generated_Source\PSoC4/CyLFClk.c **** /******************************************************************************
 147:Generated_Source\PSoC4/CyLFClk.c **** * Function Name: CySysClkIloStartMeasurement
 148:Generated_Source\PSoC4/CyLFClk.c **** ***************************************************************************//**
 149:Generated_Source\PSoC4/CyLFClk.c **** * \brief
 150:Generated_Source\PSoC4/CyLFClk.c **** * Starts the ILO accuracy measurement.
 151:Generated_Source\PSoC4/CyLFClk.c **** *
 152:Generated_Source\PSoC4/CyLFClk.c **** * This function is non-blocking and needs to be called before using the 
 153:Generated_Source\PSoC4/CyLFClk.c **** * CySysClkIloTrim() and CySysClkIloCompensate() API.
 154:Generated_Source\PSoC4/CyLFClk.c **** *
 155:Generated_Source\PSoC4/CyLFClk.c **** * This API configures measurement counters to be sourced by SysClk (Counter 1)
 156:Generated_Source\PSoC4/CyLFClk.c **** * and ILO (Counter 2). 
 157:Generated_Source\PSoC4/CyLFClk.c **** *
 158:Generated_Source\PSoC4/CyLFClk.c **** * \note SysClk should be sourced by IMO. Otherwise CySysClkIloTrim() and 
 159:Generated_Source\PSoC4/CyLFClk.c **** * CySysClkIloCompensate() API can give incorrect results.
 160:Generated_Source\PSoC4/CyLFClk.c **** *
 161:Generated_Source\PSoC4/CyLFClk.c **** * In addition, this API stores the factory ILO trim settings on the first call 
 162:Generated_Source\PSoC4/CyLFClk.c **** * after reset. This stored factory setting is used by the 
 163:Generated_Source\PSoC4/CyLFClk.c **** * CySysClkIloRestoreFactoryTrim() API to restore the ILO factory trim. 
 164:Generated_Source\PSoC4/CyLFClk.c **** * Hence, it is important to call this API before restoring the ILO 
 165:Generated_Source\PSoC4/CyLFClk.c **** * factory trim settings.
 166:Generated_Source\PSoC4/CyLFClk.c **** *
 167:Generated_Source\PSoC4/CyLFClk.c **** ******************************************************************************/
 168:Generated_Source\PSoC4/CyLFClk.c **** void CySysClkIloStartMeasurement(void)
 169:Generated_Source\PSoC4/CyLFClk.c **** {
  55              		.loc 1 169 0
  56              		.cfi_startproc
 170:Generated_Source\PSoC4/CyLFClk.c **** #if(CY_IP_SRSSV2 && (!(CY_PSOC4_4100 || CY_PSOC4_4200)))
 171:Generated_Source\PSoC4/CyLFClk.c ****     static uint8 iloTrimTrig = 0u;
ARM GAS  C:\Users\g\AppData\Local\Temp\ccelQmmg.s 			page 5


 172:Generated_Source\PSoC4/CyLFClk.c **** 
 173:Generated_Source\PSoC4/CyLFClk.c ****     /* Write default ILO trim value while ILO starting ( Cypress ID 225244 )*/
 174:Generated_Source\PSoC4/CyLFClk.c ****     if (0u == iloTrimTrig)
 175:Generated_Source\PSoC4/CyLFClk.c ****     {
 176:Generated_Source\PSoC4/CyLFClk.c ****         defaultIloTrimRegValue = ((uint8)(CY_SYS_CLK_ILO_TRIM_REG & CY_SYS_CLK_ILO_TRIM_MASK));
 177:Generated_Source\PSoC4/CyLFClk.c ****         iloTrimTrig = 1u;
 178:Generated_Source\PSoC4/CyLFClk.c ****     }
 179:Generated_Source\PSoC4/CyLFClk.c **** #endif /* (CY_IP_SRSSV2 && (!(CY_PSOC4_4100 || CY_PSOC4_4200))) */
 180:Generated_Source\PSoC4/CyLFClk.c **** 
 181:Generated_Source\PSoC4/CyLFClk.c ****     /* Configure measurement counters to source by SysClk (Counter 1) and ILO (Counter 2)*/
 182:Generated_Source\PSoC4/CyLFClk.c ****     CY_SYS_CLK_DFT_REG = (CY_SYS_CLK_DFT_REG & (uint32) ~CY_SYS_CLK_DFT_SELECT_DEFAULT_MASK) |
  57              		.loc 1 182 0
  58 0000 074A     		ldr	r2, .L5
  59 0002 084B     		ldr	r3, .L5+4
  60 0004 1168     		ldr	r1, [r2]
 183:Generated_Source\PSoC4/CyLFClk.c ****                             CY_SYS_CLK_SEL_ILO_DFT_SOURCE; 
 184:Generated_Source\PSoC4/CyLFClk.c **** 
 185:Generated_Source\PSoC4/CyLFClk.c ****     CY_SYS_TST_DDFT_CTRL_REG = (CY_SYS_TST_DDFT_CTRL_REG & (uint32) ~ CY_SYS_TST_DDFT_CTRL_REG_DEFA
 186:Generated_Source\PSoC4/CyLFClk.c ****                             CY_SYS_TST_DDFT_CTRL_REG_SEL2_CLK1;
 187:Generated_Source\PSoC4/CyLFClk.c **** }
  61              		.loc 1 187 0
  62              		@ sp needed
 182:Generated_Source\PSoC4/CyLFClk.c ****                             CY_SYS_CLK_SEL_ILO_DFT_SOURCE; 
  63              		.loc 1 182 0
  64 0006 0B40     		and	r3, r1
  65 0008 8021     		mov	r1, #128
  66 000a 4900     		lsl	r1, r1, #1
  67 000c 0B43     		orr	r3, r1
  68 000e 1360     		str	r3, [r2]
 185:Generated_Source\PSoC4/CyLFClk.c ****                             CY_SYS_TST_DDFT_CTRL_REG_SEL2_CLK1;
  69              		.loc 1 185 0
  70 0010 054A     		ldr	r2, .L5+8
  71 0012 064B     		ldr	r3, .L5+12
  72 0014 1168     		ldr	r1, [r2]
  73 0016 0B40     		and	r3, r1
  74 0018 0549     		ldr	r1, .L5+16
  75 001a 0B43     		orr	r3, r1
  76 001c 1360     		str	r3, [r2]
  77              		.loc 1 187 0
  78 001e 7047     		bx	lr
  79              	.L6:
  80              		.align	2
  81              	.L5:
  82 0020 10010B40 		.word	1074462992
  83 0024 FFF0FFFF 		.word	-3841
  84 0028 08000340 		.word	1073938440
  85 002c C0C0FFFF 		.word	-16192
  86 0030 01020000 		.word	513
  87              		.cfi_endproc
  88              	.LFE2:
  89              		.size	CySysClkIloStartMeasurement, .-CySysClkIloStartMeasurement
  90              		.section	.text.CySysClkIloStopMeasurement,"ax",%progbits
  91              		.align	1
  92              		.global	CySysClkIloStopMeasurement
  93              		.code	16
  94              		.thumb_func
  95              		.type	CySysClkIloStopMeasurement, %function
ARM GAS  C:\Users\g\AppData\Local\Temp\ccelQmmg.s 			page 6


  96              	CySysClkIloStopMeasurement:
  97              	.LFB3:
 188:Generated_Source\PSoC4/CyLFClk.c **** 
 189:Generated_Source\PSoC4/CyLFClk.c **** 
 190:Generated_Source\PSoC4/CyLFClk.c **** /******************************************************************************
 191:Generated_Source\PSoC4/CyLFClk.c **** * Function Name: CySysClkIloStopMeasurement
 192:Generated_Source\PSoC4/CyLFClk.c **** ***************************************************************************//**
 193:Generated_Source\PSoC4/CyLFClk.c **** * \brief
 194:Generated_Source\PSoC4/CyLFClk.c **** * Stops the ILO accuracy measurement.
 195:Generated_Source\PSoC4/CyLFClk.c **** *
 196:Generated_Source\PSoC4/CyLFClk.c **** * Calling this function immediately stops the the ILO frequency measurement.
 197:Generated_Source\PSoC4/CyLFClk.c **** * This function should be called before placing the device to deepsleep, if 
 198:Generated_Source\PSoC4/CyLFClk.c **** * CySysClkIloStartMeasurement() API was called before. 
 199:Generated_Source\PSoC4/CyLFClk.c **** *
 200:Generated_Source\PSoC4/CyLFClk.c **** ******************************************************************************/
 201:Generated_Source\PSoC4/CyLFClk.c **** void CySysClkIloStopMeasurement(void)
 202:Generated_Source\PSoC4/CyLFClk.c **** {
  98              		.loc 1 202 0
  99              		.cfi_startproc
 203:Generated_Source\PSoC4/CyLFClk.c ****     /* Set default configurations in 11...8 DFT register bits to zero */
 204:Generated_Source\PSoC4/CyLFClk.c ****     CY_SYS_CLK_DFT_REG &= ~CY_SYS_CLK_DFT_SELECT_DEFAULT_MASK;
 100              		.loc 1 204 0
 101 0000 024A     		ldr	r2, .L8
 102 0002 034B     		ldr	r3, .L8+4
 103 0004 1168     		ldr	r1, [r2]
 205:Generated_Source\PSoC4/CyLFClk.c ****     #if(CY_IP_SRSSLT)
 206:Generated_Source\PSoC4/CyLFClk.c ****         CY_SYS_TST_DDFT_CTRL_REG &= ((uint32) CY_SYS_TST_DDFT_CTRL_REG_DEFAULT_MASK);
 207:Generated_Source\PSoC4/CyLFClk.c ****     #endif /* (CY_IP_SRSSLT) */
 208:Generated_Source\PSoC4/CyLFClk.c **** }
 104              		.loc 1 208 0
 105              		@ sp needed
 204:Generated_Source\PSoC4/CyLFClk.c ****     #if(CY_IP_SRSSLT)
 106              		.loc 1 204 0
 107 0006 0B40     		and	r3, r1
 108 0008 1360     		str	r3, [r2]
 109              		.loc 1 208 0
 110 000a 7047     		bx	lr
 111              	.L9:
 112              		.align	2
 113              	.L8:
 114 000c 10010B40 		.word	1074462992
 115 0010 FFF0FFFF 		.word	-3841
 116              		.cfi_endproc
 117              	.LFE3:
 118              		.size	CySysClkIloStopMeasurement, .-CySysClkIloStopMeasurement
 119              		.global	__aeabi_uidiv
 120              		.section	.text.CySysClkIloCompensate,"ax",%progbits
 121              		.align	1
 122              		.global	CySysClkIloCompensate
 123              		.code	16
 124              		.thumb_func
 125              		.type	CySysClkIloCompensate, %function
 126              	CySysClkIloCompensate:
 127              	.LFB4:
 209:Generated_Source\PSoC4/CyLFClk.c **** 
 210:Generated_Source\PSoC4/CyLFClk.c **** 
 211:Generated_Source\PSoC4/CyLFClk.c **** /******************************************************************************
ARM GAS  C:\Users\g\AppData\Local\Temp\ccelQmmg.s 			page 7


 212:Generated_Source\PSoC4/CyLFClk.c **** * Function Name: CySysClkIloCompensate
 213:Generated_Source\PSoC4/CyLFClk.c **** ***************************************************************************//**
 214:Generated_Source\PSoC4/CyLFClk.c **** * \brief
 215:Generated_Source\PSoC4/CyLFClk.c **** * This API measures the current ILO accuracy.
 216:Generated_Source\PSoC4/CyLFClk.c **** *
 217:Generated_Source\PSoC4/CyLFClk.c **** * Basing on the measured frequency the required number of ILO cycles for a 
 218:Generated_Source\PSoC4/CyLFClk.c **** * given delay (in microseconds) is obtained. The desired delay that needs to 
 219:Generated_Source\PSoC4/CyLFClk.c **** * be compensated is passed through the desiredDelay parameter. The compensated 
 220:Generated_Source\PSoC4/CyLFClk.c **** * cycle count is returned through the compesatedCycles pointer.
 221:Generated_Source\PSoC4/CyLFClk.c **** * The compensated ILO cycles can then be used to define the WDT period value, 
 222:Generated_Source\PSoC4/CyLFClk.c **** * effectively compensating for the ILO inaccuracy and allowing a more 
 223:Generated_Source\PSoC4/CyLFClk.c **** * accurate WDT interrupt generation.
 224:Generated_Source\PSoC4/CyLFClk.c **** *
 225:Generated_Source\PSoC4/CyLFClk.c **** * CySysClkIloStartMeasurement() API should be called prior to calling this API. 
 226:Generated_Source\PSoC4/CyLFClk.c **** *
 227:Generated_Source\PSoC4/CyLFClk.c **** * \note SysClk should be sourced by IMO. Otherwise CySysClkIloTrim() and 
 228:Generated_Source\PSoC4/CyLFClk.c **** * CySysClkIloCompensate() API can give incorrect results.
 229:Generated_Source\PSoC4/CyLFClk.c **** *
 230:Generated_Source\PSoC4/CyLFClk.c **** * \note If the System clock frequency is changed in runtime, the CyDelayFreq() 
 231:Generated_Source\PSoC4/CyLFClk.c **** * with the appropriate parameter (Frequency of bus clock in Hertz) should be 
 232:Generated_Source\PSoC4/CyLFClk.c **** * called before calling a next CySysClkIloCompensate().
 233:Generated_Source\PSoC4/CyLFClk.c **** *
 234:Generated_Source\PSoC4/CyLFClk.c **** * \warning Do not enter deep sleep mode until the function returns CYRET_SUCCESS.
 235:Generated_Source\PSoC4/CyLFClk.c **** *
 236:Generated_Source\PSoC4/CyLFClk.c **** * \param desiredDelay Required delay in microseconds.
 237:Generated_Source\PSoC4/CyLFClk.c **** *
 238:Generated_Source\PSoC4/CyLFClk.c **** * \param *compensatedCycles The pointer to the variable in which the required
 239:Generated_Source\PSoC4/CyLFClk.c **** * number of ILO cycles for the given delay will be returned.
 240:Generated_Source\PSoC4/CyLFClk.c **** *
 241:Generated_Source\PSoC4/CyLFClk.c **** * \details
 242:Generated_Source\PSoC4/CyLFClk.c **** * The value returned in *compensatedCycles pointer is not valid until the 
 243:Generated_Source\PSoC4/CyLFClk.c **** * function returns CYRET_SUCCESS.
 244:Generated_Source\PSoC4/CyLFClk.c **** *
 245:Generated_Source\PSoC4/CyLFClk.c **** * The desiredDelay parameter value should be in next range: <br>From 100 to 
 246:Generated_Source\PSoC4/CyLFClk.c **** * 2 000 000 microseconds for PSoC 4000 / PSoC 4000S / PSoC 4100S / PSoC Analog 
 247:Generated_Source\PSoC4/CyLFClk.c **** * Coprocessor devices.<br>From 100 to 4 000 000 000 microseconds for 
 248:Generated_Source\PSoC4/CyLFClk.c **** * PSoC 4100 / PSoC 4200 / PSoC 4100 BLE / PSoC 4200 BLE / PRoC BLE /
 249:Generated_Source\PSoC4/CyLFClk.c **** * PSoC 4200L / PSoC 4100M /PSoC 4200M devices.
 250:Generated_Source\PSoC4/CyLFClk.c **** *
 251:Generated_Source\PSoC4/CyLFClk.c **** * \return CYRET_SUCCESS - The compensation process is complete and the 
 252:Generated_Source\PSoC4/CyLFClk.c **** * compensated cycles value is returned in the compensatedCycles pointer.
 253:Generated_Source\PSoC4/CyLFClk.c **** *
 254:Generated_Source\PSoC4/CyLFClk.c **** * \return CYRET_STARTED - Indicates measurement is in progress. It is 
 255:Generated_Source\PSoC4/CyLFClk.c **** * strongly recommended to do not make pauses between API calling. The 
 256:Generated_Source\PSoC4/CyLFClk.c **** * function should be called repeatedly until the API returns CYRET_SUCCESS.
 257:Generated_Source\PSoC4/CyLFClk.c **** *
 258:Generated_Source\PSoC4/CyLFClk.c **** * \return CYRET_INVALID_STATE - Indicates that measurement not started. 
 259:Generated_Source\PSoC4/CyLFClk.c **** * The user should call CySysClkIloStartMeasurement() API before calling 
 260:Generated_Source\PSoC4/CyLFClk.c **** * this API.
 261:Generated_Source\PSoC4/CyLFClk.c **** *
 262:Generated_Source\PSoC4/CyLFClk.c **** * \note For a correct WDT or DeepSleep Timers functioning with ILO compensating 
 263:Generated_Source\PSoC4/CyLFClk.c **** * the CySysClkIloCompensate() should be called before WDT or DeepSleep Timers 
 264:Generated_Source\PSoC4/CyLFClk.c **** * enabling.
 265:Generated_Source\PSoC4/CyLFClk.c **** *
 266:Generated_Source\PSoC4/CyLFClk.c **** *******************************************************************************/
 267:Generated_Source\PSoC4/CyLFClk.c **** cystatus CySysClkIloCompensate(uint32 desiredDelay , uint32* compensatedCycles)
 268:Generated_Source\PSoC4/CyLFClk.c **** {
ARM GAS  C:\Users\g\AppData\Local\Temp\ccelQmmg.s 			page 8


 128              		.loc 1 268 0
 129              		.cfi_startproc
 130              	.LVL0:
 131 0000 F7B5     		push	{r0, r1, r2, r4, r5, r6, r7, lr}
 132              		.cfi_def_cfa_offset 32
 133              		.cfi_offset 0, -32
 134              		.cfi_offset 1, -28
 135              		.cfi_offset 2, -24
 136              		.cfi_offset 4, -20
 137              		.cfi_offset 5, -16
 138              		.cfi_offset 6, -12
 139              		.cfi_offset 7, -8
 140              		.cfi_offset 14, -4
 269:Generated_Source\PSoC4/CyLFClk.c ****     uint32 iloCompensatedCycles;
 270:Generated_Source\PSoC4/CyLFClk.c ****     uint32 desiredDelayInCounts;
 271:Generated_Source\PSoC4/CyLFClk.c ****     static uint32 compensateRunningStatus = CY_SYS_CLK_TRIM_OR_COMP_FINISHED;
 272:Generated_Source\PSoC4/CyLFClk.c ****     uint32 checkStatus;
 273:Generated_Source\PSoC4/CyLFClk.c ****     cystatus returnStatus;
 274:Generated_Source\PSoC4/CyLFClk.c **** 
 275:Generated_Source\PSoC4/CyLFClk.c ****     checkStatus = (uint32) (CY_SYS_CLK_DFT_REG & (uint32) CY_SYS_TST_DDFT_CTRL_REG_DEFAULT_MASK);
 276:Generated_Source\PSoC4/CyLFClk.c **** 
 277:Generated_Source\PSoC4/CyLFClk.c ****     /* Check if CySysStartMeasurement was called before */
 278:Generated_Source\PSoC4/CyLFClk.c ****     if((checkStatus == CY_SYS_CLK_SEL_ILO_DFT_SOURCE) && 
 141              		.loc 1 278 0
 142 0002 8024     		mov	r4, #128
 275:Generated_Source\PSoC4/CyLFClk.c **** 
 143              		.loc 1 275 0
 144 0004 2C4B     		ldr	r3, .L23
 145              		.loc 1 278 0
 146 0006 6400     		lsl	r4, r4, #1
 275:Generated_Source\PSoC4/CyLFClk.c **** 
 147              		.loc 1 275 0
 148 0008 1A68     		ldr	r2, [r3]
 149              	.LVL1:
 150 000a 2C4B     		ldr	r3, .L23+4
 151 000c 1A40     		and	r2, r3
 152              	.LVL2:
 279:Generated_Source\PSoC4/CyLFClk.c ****        (CY_SYS_TST_DDFT_CTRL_REG == CY_SYS_TST_DDFT_CTRL_REG_SEL2_CLK1) &&
 280:Generated_Source\PSoC4/CyLFClk.c ****        (CY_SYS_CLK_MAX_DELAY_US >= desiredDelay) &&
 281:Generated_Source\PSoC4/CyLFClk.c ****        (CY_SYS_CLK_MIN_DELAY_US <= desiredDelay) &&
 282:Generated_Source\PSoC4/CyLFClk.c ****        (compensatedCycles !=  NULL))
 283:Generated_Source\PSoC4/CyLFClk.c ****     {
 284:Generated_Source\PSoC4/CyLFClk.c ****         if(CY_SYS_CLK_TRIM_OR_COMP_FINISHED != compensateRunningStatus)
 285:Generated_Source\PSoC4/CyLFClk.c ****         {
 286:Generated_Source\PSoC4/CyLFClk.c ****             /* Wait until counter 1 stopped counting and after it calculate compensated cycles */
 287:Generated_Source\PSoC4/CyLFClk.c ****             if(0u != (CY_SYS_CNT_REG1_REG & CY_SYS_CLK_ILO_CALIBR_COMPLETE_MASK))
 288:Generated_Source\PSoC4/CyLFClk.c ****             {
 289:Generated_Source\PSoC4/CyLFClk.c ****                 if (0u != CY_SYS_CNT_REG2_REG)
 290:Generated_Source\PSoC4/CyLFClk.c ****                 {
 291:Generated_Source\PSoC4/CyLFClk.c ****                     /* Calculate required number of ILO cycles for given delay */
 292:Generated_Source\PSoC4/CyLFClk.c ****                     #if(CY_IP_SRSSV2)
 293:Generated_Source\PSoC4/CyLFClk.c ****                         if (CY_SYS_CLK_DELAY_COUNTS_LIMIT < desiredDelay)
 294:Generated_Source\PSoC4/CyLFClk.c ****                         {
 295:Generated_Source\PSoC4/CyLFClk.c ****                             desiredDelayInCounts = (desiredDelay / CY_SYS_CLK_ILO_PERIOD);
 296:Generated_Source\PSoC4/CyLFClk.c ****                             iloCompensatedCycles = 
 297:Generated_Source\PSoC4/CyLFClk.c ****                             (((CY_SYS_CNT_REG2_REG * cydelayFreqHz) / (cydelayFreqHz >> CY_SYS_CLK_
 298:Generated_Source\PSoC4/CyLFClk.c ****                                 CY_SYS_CLK_ILO_FREQ_2MSB) * (desiredDelayInCounts / CY_SYS_CLK_ILO_
ARM GAS  C:\Users\g\AppData\Local\Temp\ccelQmmg.s 			page 9


 299:Generated_Source\PSoC4/CyLFClk.c ****                         }
 300:Generated_Source\PSoC4/CyLFClk.c ****                         else
 301:Generated_Source\PSoC4/CyLFClk.c ****                         {
 302:Generated_Source\PSoC4/CyLFClk.c ****                             desiredDelayInCounts = ((desiredDelay * CY_SYS_CLK_COEF_PHUNDRED) + 
 303:Generated_Source\PSoC4/CyLFClk.c ****                                                      CY_SYS_CLK_HALF_OF_CLOCK) / CY_SYS_CLK_ILO_PER
 304:Generated_Source\PSoC4/CyLFClk.c **** 
 305:Generated_Source\PSoC4/CyLFClk.c ****                             iloCompensatedCycles = (((CY_SYS_CNT_REG2_REG * cydelayFreqHz) / 
 306:Generated_Source\PSoC4/CyLFClk.c ****                                                      (cydelayFreqHz >> CY_SYS_CLK_SYS_CLK_DEVIDER))
 307:Generated_Source\PSoC4/CyLFClk.c ****                                                      desiredDelayInCounts) / CY_SYS_CLK_ILO_DESIRED
 308:Generated_Source\PSoC4/CyLFClk.c ****                         }
 309:Generated_Source\PSoC4/CyLFClk.c ****                     #else /* (CY_IP_SRSSLT) */
 310:Generated_Source\PSoC4/CyLFClk.c ****                         desiredDelayInCounts = ((desiredDelay * CY_SYS_CLK_COEF_PHUNDRED) + CY_SYS_
 311:Generated_Source\PSoC4/CyLFClk.c ****                                                                                            CY_SYS_C
 312:Generated_Source\PSoC4/CyLFClk.c ****                         if(CY_SYS_CLK_MAX_LITE_NUMBER < desiredDelayInCounts)
 313:Generated_Source\PSoC4/CyLFClk.c ****                         {
 314:Generated_Source\PSoC4/CyLFClk.c ****                             iloCompensatedCycles = (((CY_SYS_CNT_REG2_REG * cydelayFreqHz) / (cydel
 315:Generated_Source\PSoC4/CyLFClk.c ****                                                    CY_SYS_CLK_SYS_CLK_DEVIDER)) / CY_SYS_CLK_ILO_FR
 316:Generated_Source\PSoC4/CyLFClk.c ****                                                    (desiredDelayInCounts / CY_SYS_CLK_ILO_FREQ_3LSB
 317:Generated_Source\PSoC4/CyLFClk.c ****                         }
 318:Generated_Source\PSoC4/CyLFClk.c ****                         else
 319:Generated_Source\PSoC4/CyLFClk.c ****                         {
 320:Generated_Source\PSoC4/CyLFClk.c ****                             iloCompensatedCycles = (((CY_SYS_CNT_REG2_REG * cydelayFreqHz) / 
 321:Generated_Source\PSoC4/CyLFClk.c ****                                                      (cydelayFreqHz >> CY_SYS_CLK_SYS_CLK_DEVIDER))
 322:Generated_Source\PSoC4/CyLFClk.c ****                                                      desiredDelayInCounts) / CY_SYS_CLK_ILO_DESIRED
 323:Generated_Source\PSoC4/CyLFClk.c ****                         }
 324:Generated_Source\PSoC4/CyLFClk.c ****                     #endif /* (CY_IP_SRSSV2) */
 325:Generated_Source\PSoC4/CyLFClk.c **** 
 326:Generated_Source\PSoC4/CyLFClk.c ****                     *compensatedCycles = iloCompensatedCycles;
 327:Generated_Source\PSoC4/CyLFClk.c ****                     compensateRunningStatus = CY_SYS_CLK_TRIM_OR_COMP_FINISHED;
 328:Generated_Source\PSoC4/CyLFClk.c ****                     returnStatus = CYRET_SUCCESS;
 329:Generated_Source\PSoC4/CyLFClk.c ****                 }
 330:Generated_Source\PSoC4/CyLFClk.c ****                 else
 331:Generated_Source\PSoC4/CyLFClk.c ****                 {
 332:Generated_Source\PSoC4/CyLFClk.c ****                     returnStatus  = CYRET_INVALID_STATE;
 333:Generated_Source\PSoC4/CyLFClk.c ****                 }
 334:Generated_Source\PSoC4/CyLFClk.c ****             }
 335:Generated_Source\PSoC4/CyLFClk.c ****             else
 336:Generated_Source\PSoC4/CyLFClk.c ****             {
 337:Generated_Source\PSoC4/CyLFClk.c ****                 returnStatus = CYRET_STARTED;
 338:Generated_Source\PSoC4/CyLFClk.c ****             }
 339:Generated_Source\PSoC4/CyLFClk.c ****         }
 340:Generated_Source\PSoC4/CyLFClk.c ****         else
 341:Generated_Source\PSoC4/CyLFClk.c ****         {
 342:Generated_Source\PSoC4/CyLFClk.c ****             /* Reload CNTR 1 count value for next measurement cycle*/
 343:Generated_Source\PSoC4/CyLFClk.c ****             CY_SYS_CNT_REG1_REG = (cydelayFreqHz >> CY_SYS_CLK_SYS_CLK_DEVIDER);
 344:Generated_Source\PSoC4/CyLFClk.c ****             compensateRunningStatus = CY_SYS_CLK_TRIM_OR_COMP_STARTED;
 345:Generated_Source\PSoC4/CyLFClk.c ****             returnStatus = CYRET_STARTED;
 346:Generated_Source\PSoC4/CyLFClk.c ****         }
 347:Generated_Source\PSoC4/CyLFClk.c ****     }
 348:Generated_Source\PSoC4/CyLFClk.c ****     else
 349:Generated_Source\PSoC4/CyLFClk.c ****     {
 350:Generated_Source\PSoC4/CyLFClk.c ****         returnStatus = CYRET_INVALID_STATE;
 153              		.loc 1 350 0
 154 000e 1123     		mov	r3, #17
 278:Generated_Source\PSoC4/CyLFClk.c ****        (CY_SYS_TST_DDFT_CTRL_REG == CY_SYS_TST_DDFT_CTRL_REG_SEL2_CLK1) &&
 155              		.loc 1 278 0
 156 0010 A242     		cmp	r2, r4
ARM GAS  C:\Users\g\AppData\Local\Temp\ccelQmmg.s 			page 10


 157 0012 4FD1     		bne	.L11
 279:Generated_Source\PSoC4/CyLFClk.c ****        (CY_SYS_TST_DDFT_CTRL_REG == CY_SYS_TST_DDFT_CTRL_REG_SEL2_CLK1) &&
 158              		.loc 1 279 0 discriminator 1
 159 0014 2A4A     		ldr	r2, .L23+8
 160              	.LVL3:
 161 0016 1468     		ldr	r4, [r2]
 278:Generated_Source\PSoC4/CyLFClk.c ****        (CY_SYS_TST_DDFT_CTRL_REG == CY_SYS_TST_DDFT_CTRL_REG_SEL2_CLK1) &&
 162              		.loc 1 278 0 discriminator 1
 163 0018 2A4A     		ldr	r2, .L23+12
 164 001a 9442     		cmp	r4, r2
 165 001c 4AD1     		bne	.L11
 280:Generated_Source\PSoC4/CyLFClk.c ****        (CY_SYS_CLK_MIN_DELAY_US <= desiredDelay) &&
 166              		.loc 1 280 0
 167 001e 041C     		mov	r4, r0
 168 0020 294A     		ldr	r2, .L23+16
 169 0022 643C     		sub	r4, r4, #100
 170 0024 9442     		cmp	r4, r2
 171 0026 45D8     		bhi	.L11
 281:Generated_Source\PSoC4/CyLFClk.c ****        (compensatedCycles !=  NULL))
 172              		.loc 1 281 0
 173 0028 0029     		cmp	r1, #0
 174 002a 43D0     		beq	.L11
 284:Generated_Source\PSoC4/CyLFClk.c ****         {
 175              		.loc 1 284 0
 176 002c 274B     		ldr	r3, .L23+20
 177 002e 284D     		ldr	r5, .L23+24
 178 0030 1A68     		ldr	r2, [r3]
 179 0032 1E1C     		mov	r6, r3
 180 0034 002A     		cmp	r2, #0
 181 0036 36D0     		beq	.L12
 287:Generated_Source\PSoC4/CyLFClk.c ****             {
 182              		.loc 1 287 0
 183 0038 2A68     		ldr	r2, [r5]
 337:Generated_Source\PSoC4/CyLFClk.c ****             }
 184              		.loc 1 337 0
 185 003a 0723     		mov	r3, #7
 287:Generated_Source\PSoC4/CyLFClk.c ****             {
 186              		.loc 1 287 0
 187 003c 002A     		cmp	r2, #0
 188 003e 39DA     		bge	.L11
 289:Generated_Source\PSoC4/CyLFClk.c ****                 {
 189              		.loc 1 289 0
 190 0040 244A     		ldr	r2, .L23+28
 191              		.loc 1 350 0
 192 0042 0A33     		add	r3, r3, #10
 289:Generated_Source\PSoC4/CyLFClk.c ****                 {
 193              		.loc 1 289 0
 194 0044 1468     		ldr	r4, [r2]
 195 0046 002C     		cmp	r4, #0
 196 0048 34D0     		beq	.L11
 197 004a 0C1C     		mov	r4, r1
 198 004c 224B     		ldr	r3, .L23+32
 297:Generated_Source\PSoC4/CyLFClk.c ****                                 CY_SYS_CLK_ILO_FREQ_2MSB) * (desiredDelayInCounts / CY_SYS_CLK_ILO_
 199              		.loc 1 297 0
 200 004e 1268     		ldr	r2, [r2]
 293:Generated_Source\PSoC4/CyLFClk.c ****                         {
 201              		.loc 1 293 0
ARM GAS  C:\Users\g\AppData\Local\Temp\ccelQmmg.s 			page 11


 202 0050 2249     		ldr	r1, .L23+36
 203              	.LVL4:
 297:Generated_Source\PSoC4/CyLFClk.c ****                                 CY_SYS_CLK_ILO_FREQ_2MSB) * (desiredDelayInCounts / CY_SYS_CLK_ILO_
 204              		.loc 1 297 0
 205 0052 0192     		str	r2, [sp, #4]
 206 0054 1D68     		ldr	r5, [r3]
 293:Generated_Source\PSoC4/CyLFClk.c ****                         {
 207              		.loc 1 293 0
 208 0056 8842     		cmp	r0, r1
 209 0058 0FD9     		bls	.L13
 210              	.LVL5:
 295:Generated_Source\PSoC4/CyLFClk.c ****                             iloCompensatedCycles = 
 211              		.loc 1 295 0
 212 005a 1F21     		mov	r1, #31
 213 005c FFF7FEFF 		bl	__aeabi_uidiv
 214              	.LVL6:
 298:Generated_Source\PSoC4/CyLFClk.c ****                         }
 215              		.loc 1 298 0
 216 0060 FA21     		mov	r1, #250
 217 0062 8900     		lsl	r1, r1, #2
 218 0064 FFF7FEFF 		bl	__aeabi_uidiv
 219              	.LVL7:
 220 0068 071C     		mov	r7, r0
 297:Generated_Source\PSoC4/CyLFClk.c ****                                 CY_SYS_CLK_ILO_FREQ_2MSB) * (desiredDelayInCounts / CY_SYS_CLK_ILO_
 221              		.loc 1 297 0
 222 006a 0198     		ldr	r0, [sp, #4]
 223 006c A90A     		lsr	r1, r5, #10
 224 006e 6843     		mul	r0, r5
 225 0070 FFF7FEFF 		bl	__aeabi_uidiv
 226              	.LVL8:
 227 0074 4009     		lsr	r0, r0, #5
 296:Generated_Source\PSoC4/CyLFClk.c ****                             (((CY_SYS_CNT_REG2_REG * cydelayFreqHz) / (cydelayFreqHz >> CY_SYS_CLK_
 228              		.loc 1 296 0
 229 0076 7843     		mul	r0, r7
 230              	.LVL9:
 231 0078 11E0     		b	.L14
 232              	.LVL10:
 233              	.L13:
 302:Generated_Source\PSoC4/CyLFClk.c ****                                                      CY_SYS_CLK_HALF_OF_CLOCK) / CY_SYS_CLK_ILO_PER
 234              		.loc 1 302 0
 235 007a 6423     		mov	r3, #100
 236 007c 5843     		mul	r0, r3
 237              	.LVL11:
 238 007e 184B     		ldr	r3, .L23+40
 239 0080 1849     		ldr	r1, .L23+44
 240 0082 C018     		add	r0, r0, r3
 241 0084 FFF7FEFF 		bl	__aeabi_uidiv
 242              	.LVL12:
 243 0088 071C     		mov	r7, r0
 305:Generated_Source\PSoC4/CyLFClk.c ****                                                      (cydelayFreqHz >> CY_SYS_CLK_SYS_CLK_DEVIDER))
 244              		.loc 1 305 0
 245 008a 0198     		ldr	r0, [sp, #4]
 306:Generated_Source\PSoC4/CyLFClk.c ****                                                      desiredDelayInCounts) / CY_SYS_CLK_ILO_DESIRED
 246              		.loc 1 306 0
 247 008c A90A     		lsr	r1, r5, #10
 305:Generated_Source\PSoC4/CyLFClk.c ****                                                      (cydelayFreqHz >> CY_SYS_CLK_SYS_CLK_DEVIDER))
 248              		.loc 1 305 0
ARM GAS  C:\Users\g\AppData\Local\Temp\ccelQmmg.s 			page 12


 249 008e 6843     		mul	r0, r5
 250 0090 FFF7FEFF 		bl	__aeabi_uidiv
 251              	.LVL13:
 252 0094 FA21     		mov	r1, #250
 306:Generated_Source\PSoC4/CyLFClk.c ****                                                      desiredDelayInCounts) / CY_SYS_CLK_ILO_DESIRED
 253              		.loc 1 306 0
 254 0096 7843     		mul	r0, r7
 305:Generated_Source\PSoC4/CyLFClk.c ****                                                      (cydelayFreqHz >> CY_SYS_CLK_SYS_CLK_DEVIDER))
 255              		.loc 1 305 0
 256 0098 C901     		lsl	r1, r1, #7
 257 009a FFF7FEFF 		bl	__aeabi_uidiv
 258              	.LVL14:
 259              	.L14:
 327:Generated_Source\PSoC4/CyLFClk.c ****                     returnStatus = CYRET_SUCCESS;
 260              		.loc 1 327 0
 261 009e 0023     		mov	r3, #0
 326:Generated_Source\PSoC4/CyLFClk.c ****                     compensateRunningStatus = CY_SYS_CLK_TRIM_OR_COMP_FINISHED;
 262              		.loc 1 326 0
 263 00a0 2060     		str	r0, [r4]
 327:Generated_Source\PSoC4/CyLFClk.c ****                     returnStatus = CYRET_SUCCESS;
 264              		.loc 1 327 0
 265 00a2 3360     		str	r3, [r6]
 266              	.LVL15:
 267 00a4 06E0     		b	.L11
 268              	.LVL16:
 269              	.L12:
 343:Generated_Source\PSoC4/CyLFClk.c ****             compensateRunningStatus = CY_SYS_CLK_TRIM_OR_COMP_STARTED;
 270              		.loc 1 343 0
 271 00a6 0C4A     		ldr	r2, .L23+32
 272 00a8 1268     		ldr	r2, [r2]
 273 00aa 920A     		lsr	r2, r2, #10
 274 00ac 2A60     		str	r2, [r5]
 344:Generated_Source\PSoC4/CyLFClk.c ****             returnStatus = CYRET_STARTED;
 275              		.loc 1 344 0
 276 00ae 0122     		mov	r2, #1
 277 00b0 1A60     		str	r2, [r3]
 278              	.LVL17:
 345:Generated_Source\PSoC4/CyLFClk.c ****         }
 279              		.loc 1 345 0
 280 00b2 0723     		mov	r3, #7
 281              	.LVL18:
 282              	.L11:
 351:Generated_Source\PSoC4/CyLFClk.c ****     }
 352:Generated_Source\PSoC4/CyLFClk.c **** 
 353:Generated_Source\PSoC4/CyLFClk.c ****     return (returnStatus);
 354:Generated_Source\PSoC4/CyLFClk.c **** }
 283              		.loc 1 354 0
 284 00b4 181C     		mov	r0, r3
 285              		@ sp needed
 286 00b6 FEBD     		pop	{r1, r2, r3, r4, r5, r6, r7, pc}
 287              	.L24:
 288              		.align	2
 289              	.L23:
 290 00b8 10010B40 		.word	1074462992
 291 00bc 3F3F0000 		.word	16191
 292 00c0 08000340 		.word	1073938440
 293 00c4 01020000 		.word	513
ARM GAS  C:\Users\g\AppData\Local\Temp\ccelQmmg.s 			page 13


 294 00c8 9C276BEE 		.word	-294967396
 295 00cc 00000000 		.word	.LANCHOR0
 296 00d0 18000340 		.word	1073938456
 297 00d4 1C000340 		.word	1073938460
 298 00d8 00000000 		.word	cydelayFreqHz
 299 00dc 60D10000 		.word	53600
 300 00e0 0D030000 		.word	781
 301 00e4 350C0000 		.word	3125
 302              		.cfi_endproc
 303              	.LFE4:
 304              		.size	CySysClkIloCompensate, .-CySysClkIloCompensate
 305              		.section	.text.CySysWdtLock,"ax",%progbits
 306              		.align	1
 307              		.global	CySysWdtLock
 308              		.code	16
 309              		.thumb_func
 310              		.type	CySysWdtLock, %function
 311              	CySysWdtLock:
 312              	.LFB6:
 355:Generated_Source\PSoC4/CyLFClk.c **** 
 356:Generated_Source\PSoC4/CyLFClk.c **** 
 357:Generated_Source\PSoC4/CyLFClk.c **** #if(CY_IP_SRSSV2)
 358:Generated_Source\PSoC4/CyLFClk.c ****     /*******************************************************************************
 359:Generated_Source\PSoC4/CyLFClk.c ****     * Function Name: CySysClkIloEnabled
 360:Generated_Source\PSoC4/CyLFClk.c ****     ****************************************************************************//**
 361:Generated_Source\PSoC4/CyLFClk.c ****     *
 362:Generated_Source\PSoC4/CyLFClk.c ****     * \internal
 363:Generated_Source\PSoC4/CyLFClk.c ****     * Reports the ILO enable state.
 364:Generated_Source\PSoC4/CyLFClk.c ****     *
 365:Generated_Source\PSoC4/CyLFClk.c ****     * \return
 366:Generated_Source\PSoC4/CyLFClk.c ****     * 1 if ILO is enabled, and 0 if ILO is disabled.
 367:Generated_Source\PSoC4/CyLFClk.c ****     *
 368:Generated_Source\PSoC4/CyLFClk.c ****     * \endinternal
 369:Generated_Source\PSoC4/CyLFClk.c ****     ********************************************************************************/
 370:Generated_Source\PSoC4/CyLFClk.c ****     static uint32 CySysClkIloEnabled(void)
 371:Generated_Source\PSoC4/CyLFClk.c ****     {
 372:Generated_Source\PSoC4/CyLFClk.c ****         /* Prohibits writing to WDT registers and ILO/WCO registers when not equal to 0 */
 373:Generated_Source\PSoC4/CyLFClk.c ****         return ((0u != (CY_SYS_CLK_ILO_CONFIG_REG & (uint32)(CY_SYS_CLK_ILO_CONFIG_ENABLE))) ?
 374:Generated_Source\PSoC4/CyLFClk.c ****             (uint32) 1u :
 375:Generated_Source\PSoC4/CyLFClk.c ****             (uint32) 0u);
 376:Generated_Source\PSoC4/CyLFClk.c ****     }
 377:Generated_Source\PSoC4/CyLFClk.c **** #endif /* (CY_IP_SRSSV2) */
 378:Generated_Source\PSoC4/CyLFClk.c **** 
 379:Generated_Source\PSoC4/CyLFClk.c **** 
 380:Generated_Source\PSoC4/CyLFClk.c **** #if(CY_IP_SRSSV2 && (!(CY_PSOC4_4100 || CY_PSOC4_4200)))
 381:Generated_Source\PSoC4/CyLFClk.c **** /********************************************************************************
 382:Generated_Source\PSoC4/CyLFClk.c **** * Function Name: CySysClkIloTrim
 383:Generated_Source\PSoC4/CyLFClk.c **** *****************************************************************************//**
 384:Generated_Source\PSoC4/CyLFClk.c **** * \brief
 385:Generated_Source\PSoC4/CyLFClk.c **** * The API trims the ILO frequency to +/- 10% accuracy range using accurate 
 386:Generated_Source\PSoC4/CyLFClk.c **** * SysClk.
 387:Generated_Source\PSoC4/CyLFClk.c **** *
 388:Generated_Source\PSoC4/CyLFClk.c **** * The API can be blocking or non-blocking depending on the value of the mode 
 389:Generated_Source\PSoC4/CyLFClk.c **** * parameter passed. The accuracy of ILO after trimming in parts per thousand 
 390:Generated_Source\PSoC4/CyLFClk.c **** * is returned through the iloAccuracyInPPT pointer. A positive number indicates 
 391:Generated_Source\PSoC4/CyLFClk.c **** * that the ILO is running fast and a negative number indicates that the ILO is 
 392:Generated_Source\PSoC4/CyLFClk.c **** * running slowly. This error is relative to the error in the reference clock 
ARM GAS  C:\Users\g\AppData\Local\Temp\ccelQmmg.s 			page 14


 393:Generated_Source\PSoC4/CyLFClk.c **** * (SysClk), so the absolute error will be higher and depends on the accuracy 
 394:Generated_Source\PSoC4/CyLFClk.c **** * of the reference.
 395:Generated_Source\PSoC4/CyLFClk.c **** *
 396:Generated_Source\PSoC4/CyLFClk.c **** * The CySysClkIloStartMeasurement() API should be called prior to calling this 
 397:Generated_Source\PSoC4/CyLFClk.c **** * API. Otherwise it will return CYRET_INVALID_STATE as the measurement was not 
 398:Generated_Source\PSoC4/CyLFClk.c **** * started.
 399:Generated_Source\PSoC4/CyLFClk.c **** *
 400:Generated_Source\PSoC4/CyLFClk.c **** * \note SysClk should be sourced by IMO. Otherwise CySysClkIloTrim() and 
 401:Generated_Source\PSoC4/CyLFClk.c **** * CySysClkIloCompensate() API can give incorrect results.
 402:Generated_Source\PSoC4/CyLFClk.c **** *
 403:Generated_Source\PSoC4/CyLFClk.c **** * \note If System clock frequency is changed in runtime, the CyDelayFreq() 
 404:Generated_Source\PSoC4/CyLFClk.c **** * with the appropriate parameter (Frequency of bus clock in Hertz) should be 
 405:Generated_Source\PSoC4/CyLFClk.c **** * called before next CySysClkIloCompensate() usage.
 406:Generated_Source\PSoC4/CyLFClk.c **** *
 407:Generated_Source\PSoC4/CyLFClk.c **** * \warning Do not enter deep sleep mode until the function returns CYRET_SUCCESS
 408:Generated_Source\PSoC4/CyLFClk.c **** * or CYRET_TIMEOUT.
 409:Generated_Source\PSoC4/CyLFClk.c **** *
 410:Generated_Source\PSoC4/CyLFClk.c **** * Available for all PSoC 4 devices with ILO trim capability. This excludes 
 411:Generated_Source\PSoC4/CyLFClk.c **** * PSoC 4000 / PSoC 4100 / PSoC 4200 / PSoC 4000S / PSoC 4100S / PSoC
 412:Generated_Source\PSoC4/CyLFClk.c **** * Analog Coprocessor devices.
 413:Generated_Source\PSoC4/CyLFClk.c **** *
 414:Generated_Source\PSoC4/CyLFClk.c **** * \param mode
 415:Generated_Source\PSoC4/CyLFClk.c **** *  CY_SYS_CLK_BLOCKING -  The function does not return until the ILO is 
 416:Generated_Source\PSoC4/CyLFClk.c **** * within +/-10% accuracy range or time out has occurred.<br>
 417:Generated_Source\PSoC4/CyLFClk.c **** * CY_SYS_CLK_NON_BLOCKING - The function returns immediately after 
 418:Generated_Source\PSoC4/CyLFClk.c **** * performing a single iteration of the trim process. The function should be 
 419:Generated_Source\PSoC4/CyLFClk.c **** * called repeatedly until the trimming is completed successfully.
 420:Generated_Source\PSoC4/CyLFClk.c **** *
 421:Generated_Source\PSoC4/CyLFClk.c **** * \param *iloAccuracyInPPT Pointer to an integer in which the trimmed ILO 
 422:Generated_Source\PSoC4/CyLFClk.c **** * accuracy will be returned.
 423:Generated_Source\PSoC4/CyLFClk.c **** *
 424:Generated_Source\PSoC4/CyLFClk.c **** * \details The value returned in *iloAccuracyInPPT pointer is not valid 
 425:Generated_Source\PSoC4/CyLFClk.c **** * until the function returns CYRET_SUCCESS. ILO accuracy in PPT is given by:
 426:Generated_Source\PSoC4/CyLFClk.c **** *
 427:Generated_Source\PSoC4/CyLFClk.c **** * IloAccuracyInPPT = ((MeasuredIloFreq - DesiredIloFreq) * 
 428:Generated_Source\PSoC4/CyLFClk.c **** * CY_SYS_CLK_PERTHOUSAND) / DesiredIloFreq);
 429:Generated_Source\PSoC4/CyLFClk.c **** *
 430:Generated_Source\PSoC4/CyLFClk.c **** * DesiredIloFreq  = 32000, CY_SYS_CLK_PERTHOUSAND = 1000;
 431:Generated_Source\PSoC4/CyLFClk.c **** *
 432:Generated_Source\PSoC4/CyLFClk.c **** * \return CYRET_SUCCESS - Indicates trimming is complete. This value indicates 
 433:Generated_Source\PSoC4/CyLFClk.c **** * trimming is successful and iloAccuracyInPPT is within +/- 10%.
 434:Generated_Source\PSoC4/CyLFClk.c **** *
 435:Generated_Source\PSoC4/CyLFClk.c **** * \return CYRET_STARTED - Indicates measurement is in progress. This is applicable 
 436:Generated_Source\PSoC4/CyLFClk.c **** * only for non-blocking mode.
 437:Generated_Source\PSoC4/CyLFClk.c **** *
 438:Generated_Source\PSoC4/CyLFClk.c **** * \return CYRET_INVALID_STATE - Indicates trimming was unsuccessful. You should 
 439:Generated_Source\PSoC4/CyLFClk.c **** * call CySysClkIloStartMeasurement() before calling this API.
 440:Generated_Source\PSoC4/CyLFClk.c **** *
 441:Generated_Source\PSoC4/CyLFClk.c **** * \return CYRET_TIMEOUT - Indicates trimming was unsuccessful. This is applicable 
 442:Generated_Source\PSoC4/CyLFClk.c **** * only for blocking mode. Timeout means the trimming was tried 5 times without 
 443:Generated_Source\PSoC4/CyLFClk.c **** * success (i.e. ILO accuracy > +/- 10%). The user can call the API again for 
 444:Generated_Source\PSoC4/CyLFClk.c **** * another try or wait for some time before calling it again (to let the system 
 445:Generated_Source\PSoC4/CyLFClk.c **** * to settle to another operating point change in temperature etc.) and continue 
 446:Generated_Source\PSoC4/CyLFClk.c **** * using the previous trim value till the next call.
 447:Generated_Source\PSoC4/CyLFClk.c **** *
 448:Generated_Source\PSoC4/CyLFClk.c **** **********************************************************************************/
 449:Generated_Source\PSoC4/CyLFClk.c **** cystatus CySysClkIloTrim(uint32 mode, int32* iloAccuracyInPPT)
ARM GAS  C:\Users\g\AppData\Local\Temp\ccelQmmg.s 			page 15


 450:Generated_Source\PSoC4/CyLFClk.c **** {
 451:Generated_Source\PSoC4/CyLFClk.c ****     uint32 timeOutClocks = CY_SYS_CLK_TIMEOUT;
 452:Generated_Source\PSoC4/CyLFClk.c ****     uint32 waitUntilCntr1Stops;
 453:Generated_Source\PSoC4/CyLFClk.c ****     static uint32 trimRunningStatus = CY_SYS_CLK_TRIM_OR_COMP_FINISHED;
 454:Generated_Source\PSoC4/CyLFClk.c ****     uint32 checkStatus;
 455:Generated_Source\PSoC4/CyLFClk.c ****     cystatus returnStatus;
 456:Generated_Source\PSoC4/CyLFClk.c **** 
 457:Generated_Source\PSoC4/CyLFClk.c ****     checkStatus = (uint32) (CY_SYS_CLK_DFT_REG & (uint32) CY_SYS_TST_DDFT_CTRL_REG_DEFAULT_MASK);
 458:Generated_Source\PSoC4/CyLFClk.c **** 
 459:Generated_Source\PSoC4/CyLFClk.c ****     /* Check if DFT and CTRL registers were configures in CySysStartMeasurement*/
 460:Generated_Source\PSoC4/CyLFClk.c ****     if((checkStatus == CY_SYS_CLK_SEL_ILO_DFT_SOURCE) &&
 461:Generated_Source\PSoC4/CyLFClk.c ****        (CY_SYS_TST_DDFT_CTRL_REG == CY_SYS_TST_DDFT_CTRL_REG_SEL2_CLK1) &&
 462:Generated_Source\PSoC4/CyLFClk.c ****        (iloAccuracyInPPT != NULL))
 463:Generated_Source\PSoC4/CyLFClk.c ****     {
 464:Generated_Source\PSoC4/CyLFClk.c ****         if(CY_SYS_CLK_BLOCKING == mode)
 465:Generated_Source\PSoC4/CyLFClk.c ****         {
 466:Generated_Source\PSoC4/CyLFClk.c ****             waitUntilCntr1Stops = cydelayFreqHz >> CY_SYS_CLK_SYS_CLK_DEVIDER;
 467:Generated_Source\PSoC4/CyLFClk.c ****             do
 468:Generated_Source\PSoC4/CyLFClk.c ****             {
 469:Generated_Source\PSoC4/CyLFClk.c ****                 /* Reload CNTR 1 count value for measuring cycle*/
 470:Generated_Source\PSoC4/CyLFClk.c ****                 CY_SYS_CNT_REG1_REG = cydelayFreqHz >> CY_SYS_CLK_SYS_CLK_DEVIDER; 
 471:Generated_Source\PSoC4/CyLFClk.c **** 
 472:Generated_Source\PSoC4/CyLFClk.c ****                 /* Wait until counter CNTR 1 will finish down-counting */
 473:Generated_Source\PSoC4/CyLFClk.c ****                 while (0u == (CY_SYS_CNT_REG1_REG & CY_SYS_CLK_ILO_CALIBR_COMPLETE_MASK))
 474:Generated_Source\PSoC4/CyLFClk.c ****                 {
 475:Generated_Source\PSoC4/CyLFClk.c ****                     waitUntilCntr1Stops--;
 476:Generated_Source\PSoC4/CyLFClk.c ****                     if (0u == waitUntilCntr1Stops)
 477:Generated_Source\PSoC4/CyLFClk.c ****                     {
 478:Generated_Source\PSoC4/CyLFClk.c ****                         break;
 479:Generated_Source\PSoC4/CyLFClk.c ****                     }
 480:Generated_Source\PSoC4/CyLFClk.c ****                 }
 481:Generated_Source\PSoC4/CyLFClk.c ****                 trimRunningStatus = CySysClkIloUpdateTrimReg(iloAccuracyInPPT);
 482:Generated_Source\PSoC4/CyLFClk.c ****                 timeOutClocks--;
 483:Generated_Source\PSoC4/CyLFClk.c **** 
 484:Generated_Source\PSoC4/CyLFClk.c ****             /* Untill ILO accuracy will be in range less than +/- 10% or timeout occurs*/
 485:Generated_Source\PSoC4/CyLFClk.c ****             } while((CYRET_SUCCESS != trimRunningStatus) && 
 486:Generated_Source\PSoC4/CyLFClk.c ****               (CYRET_INVALID_STATE != trimRunningStatus) && 
 487:Generated_Source\PSoC4/CyLFClk.c ****                                (0u != timeOutClocks));
 488:Generated_Source\PSoC4/CyLFClk.c **** 
 489:Generated_Source\PSoC4/CyLFClk.c ****             if (CYRET_SUCCESS == trimRunningStatus)
 490:Generated_Source\PSoC4/CyLFClk.c ****             {
 491:Generated_Source\PSoC4/CyLFClk.c ****                 returnStatus = CYRET_SUCCESS;
 492:Generated_Source\PSoC4/CyLFClk.c ****             }
 493:Generated_Source\PSoC4/CyLFClk.c ****             else
 494:Generated_Source\PSoC4/CyLFClk.c ****             {
 495:Generated_Source\PSoC4/CyLFClk.c ****                 if(0u == timeOutClocks)
 496:Generated_Source\PSoC4/CyLFClk.c ****                 {
 497:Generated_Source\PSoC4/CyLFClk.c ****                     trimRunningStatus = CY_SYS_CLK_TRIM_OR_COMP_FINISHED;
 498:Generated_Source\PSoC4/CyLFClk.c ****                     returnStatus = CYRET_TIMEOUT;
 499:Generated_Source\PSoC4/CyLFClk.c ****                 }
 500:Generated_Source\PSoC4/CyLFClk.c ****                 else
 501:Generated_Source\PSoC4/CyLFClk.c ****                 {
 502:Generated_Source\PSoC4/CyLFClk.c ****                     returnStatus = CYRET_INVALID_STATE;
 503:Generated_Source\PSoC4/CyLFClk.c ****                 }
 504:Generated_Source\PSoC4/CyLFClk.c ****             }
 505:Generated_Source\PSoC4/CyLFClk.c ****         }
 506:Generated_Source\PSoC4/CyLFClk.c ****         /* Non - blocking mode */
ARM GAS  C:\Users\g\AppData\Local\Temp\ccelQmmg.s 			page 16


 507:Generated_Source\PSoC4/CyLFClk.c ****         else
 508:Generated_Source\PSoC4/CyLFClk.c ****         {
 509:Generated_Source\PSoC4/CyLFClk.c ****             if (CY_SYS_CLK_TRIM_OR_COMP_FINISHED != trimRunningStatus)
 510:Generated_Source\PSoC4/CyLFClk.c ****             {
 511:Generated_Source\PSoC4/CyLFClk.c ****                 /* Checking if the counter CNTR 1 finished down-counting */
 512:Generated_Source\PSoC4/CyLFClk.c ****                 if(0u != (CY_SYS_CNT_REG1_REG & CY_SYS_CLK_ILO_CALIBR_COMPLETE_MASK))
 513:Generated_Source\PSoC4/CyLFClk.c ****                 {
 514:Generated_Source\PSoC4/CyLFClk.c ****                     returnStatus = CySysClkIloUpdateTrimReg(iloAccuracyInPPT);
 515:Generated_Source\PSoC4/CyLFClk.c ****                     trimRunningStatus = CY_SYS_CLK_TRIM_OR_COMP_FINISHED;
 516:Generated_Source\PSoC4/CyLFClk.c ****                 }
 517:Generated_Source\PSoC4/CyLFClk.c ****                 else
 518:Generated_Source\PSoC4/CyLFClk.c ****                 {
 519:Generated_Source\PSoC4/CyLFClk.c ****                     returnStatus = CYRET_STARTED;
 520:Generated_Source\PSoC4/CyLFClk.c ****                 }
 521:Generated_Source\PSoC4/CyLFClk.c ****             }
 522:Generated_Source\PSoC4/CyLFClk.c ****             else
 523:Generated_Source\PSoC4/CyLFClk.c ****             {
 524:Generated_Source\PSoC4/CyLFClk.c ****                 /* Reload CNTR 1 count value for next measuring */
 525:Generated_Source\PSoC4/CyLFClk.c ****                 CY_SYS_CNT_REG1_REG = cydelayFreqHz >> CY_SYS_CLK_SYS_CLK_DEVIDER;
 526:Generated_Source\PSoC4/CyLFClk.c ****                 trimRunningStatus = CY_SYS_CLK_TRIM_OR_COMP_STARTED;
 527:Generated_Source\PSoC4/CyLFClk.c ****                 returnStatus = CYRET_STARTED;
 528:Generated_Source\PSoC4/CyLFClk.c ****             }
 529:Generated_Source\PSoC4/CyLFClk.c ****         }
 530:Generated_Source\PSoC4/CyLFClk.c ****     }
 531:Generated_Source\PSoC4/CyLFClk.c ****     else
 532:Generated_Source\PSoC4/CyLFClk.c ****     {
 533:Generated_Source\PSoC4/CyLFClk.c ****         returnStatus = CYRET_INVALID_STATE;
 534:Generated_Source\PSoC4/CyLFClk.c ****     }
 535:Generated_Source\PSoC4/CyLFClk.c **** 
 536:Generated_Source\PSoC4/CyLFClk.c ****     return (returnStatus);
 537:Generated_Source\PSoC4/CyLFClk.c **** }
 538:Generated_Source\PSoC4/CyLFClk.c **** 
 539:Generated_Source\PSoC4/CyLFClk.c **** 
 540:Generated_Source\PSoC4/CyLFClk.c **** /********************************************************************************
 541:Generated_Source\PSoC4/CyLFClk.c **** * Function Name: CySysClkIloUpdateTrimReg
 542:Generated_Source\PSoC4/CyLFClk.c **** *********************************************************************************
 543:Generated_Source\PSoC4/CyLFClk.c **** *
 544:Generated_Source\PSoC4/CyLFClk.c **** * \internal
 545:Generated_Source\PSoC4/CyLFClk.c **** * Function calculates ILO accuracy and check is error range is higher than 
 546:Generated_Source\PSoC4/CyLFClk.c **** * +/- 10%. If Measured frequency is higher than +/- 10% function updates 
 547:Generated_Source\PSoC4/CyLFClk.c **** * ILO Trim register.
 548:Generated_Source\PSoC4/CyLFClk.c **** *
 549:Generated_Source\PSoC4/CyLFClk.c **** * \param
 550:Generated_Source\PSoC4/CyLFClk.c **** * iloAccuracyInPPT Pointer to an integer in which the trimmed ILO 
 551:Generated_Source\PSoC4/CyLFClk.c **** * accuracy will be returned. The value returned in this pointer is not valid 
 552:Generated_Source\PSoC4/CyLFClk.c **** * until the function returns CYRET_SUCCESS. If ILO frequency error is lower 
 553:Generated_Source\PSoC4/CyLFClk.c **** * than +/- 10% then the value returned in this pointer will be updated.
 554:Generated_Source\PSoC4/CyLFClk.c **** *
 555:Generated_Source\PSoC4/CyLFClk.c **** * \return CYRET_SUCCESS - Indicates that ILO frequency error is lower than 
 556:Generated_Source\PSoC4/CyLFClk.c **** * +/- 10% and no actions are required.
 557:Generated_Source\PSoC4/CyLFClk.c **** *
 558:Generated_Source\PSoC4/CyLFClk.c **** * \return  CYRET_STARTED - Indicates that ILO frequency error is higher than 
 559:Generated_Source\PSoC4/CyLFClk.c **** * +/- 10% and ILO Trim register was updated.
 560:Generated_Source\PSoC4/CyLFClk.c **** *
 561:Generated_Source\PSoC4/CyLFClk.c **** * \return CYRET_INVALID_STATE - Indicates trimming was unsuccessful.
 562:Generated_Source\PSoC4/CyLFClk.c **** *
 563:Generated_Source\PSoC4/CyLFClk.c **** * Post #1 - To obtain 10% ILO accuracy the calculated accuracy should be equal 
ARM GAS  C:\Users\g\AppData\Local\Temp\ccelQmmg.s 			page 17


 564:Generated_Source\PSoC4/CyLFClk.c **** * CY_SYS_CLK_ERROR_RANGE = 5.6%. Error value should take to account IMO error of 
 565:Generated_Source\PSoC4/CyLFClk.c **** * +/-2% (+/-0.64kHz), trim step of 2.36kHz (+/-1.18kHz) and error while ILO 
 566:Generated_Source\PSoC4/CyLFClk.c **** * frequency measuring.
 567:Generated_Source\PSoC4/CyLFClk.c **** *
 568:Generated_Source\PSoC4/CyLFClk.c **** * \endinternal
 569:Generated_Source\PSoC4/CyLFClk.c **** *
 570:Generated_Source\PSoC4/CyLFClk.c **** **********************************************************************************/
 571:Generated_Source\PSoC4/CyLFClk.c **** cystatus CySysClkIloUpdateTrimReg(int32* iloAccuracyInPPT)
 572:Generated_Source\PSoC4/CyLFClk.c **** {
 573:Generated_Source\PSoC4/CyLFClk.c ****     uint32 measuredIloFreq;
 574:Generated_Source\PSoC4/CyLFClk.c ****     uint32 currentIloTrimValue;
 575:Generated_Source\PSoC4/CyLFClk.c ****     int32 iloAccuracyValue;
 576:Generated_Source\PSoC4/CyLFClk.c ****     int32 trimStep;
 577:Generated_Source\PSoC4/CyLFClk.c ****     cystatus errorRangeStatus;
 578:Generated_Source\PSoC4/CyLFClk.c **** 
 579:Generated_Source\PSoC4/CyLFClk.c ****     if(0u != CY_SYS_CNT_REG2_REG)
 580:Generated_Source\PSoC4/CyLFClk.c ****     {
 581:Generated_Source\PSoC4/CyLFClk.c ****         measuredIloFreq = (CY_SYS_CNT_REG2_REG * cydelayFreqHz) / (cydelayFreqHz >> CY_SYS_CLK_SYS_
 582:Generated_Source\PSoC4/CyLFClk.c **** 
 583:Generated_Source\PSoC4/CyLFClk.c ****         /* Calculate value of error in PPT according to formula - 
 584:Generated_Source\PSoC4/CyLFClk.c ****         *       ((measuredIlofrequency - iloDesired freaquency) * 1000 / iloDesired freaquency) */
 585:Generated_Source\PSoC4/CyLFClk.c ****         iloAccuracyValue = (((int32) measuredIloFreq - (int32) CY_SYS_CLK_ILO_DESIRED_FREQ_HZ) * \
 586:Generated_Source\PSoC4/CyLFClk.c ****                             ((int32) CY_SYS_CLK_PERTHOUSAND)) / ((int32) CY_SYS_CLK_ILO_DESIRED_FRE
 587:Generated_Source\PSoC4/CyLFClk.c **** 
 588:Generated_Source\PSoC4/CyLFClk.c ****         /* Check if ILO accuracy is more than +/- CY_SYS_CLK_ERROR_RANGE. See post #1 of API descri
 589:Generated_Source\PSoC4/CyLFClk.c ****         if(CY_SYS_CLK_ERROR_RANGE < (uint32) (CY_SYS_CLK_ABS_MACRO(iloAccuracyValue)))
 590:Generated_Source\PSoC4/CyLFClk.c ****         {
 591:Generated_Source\PSoC4/CyLFClk.c ****             if (0 < iloAccuracyValue)
 592:Generated_Source\PSoC4/CyLFClk.c ****             {
 593:Generated_Source\PSoC4/CyLFClk.c ****                 trimStep = (int32) (((iloAccuracyValue * (int32) CY_SYS_CLK_ERROR_COEF) + 
 594:Generated_Source\PSoC4/CyLFClk.c ****                 CY_SYS_CLK_HALF_OF_STEP) / CY_SYS_CLK_ERROR_STEP);
 595:Generated_Source\PSoC4/CyLFClk.c ****             }
 596:Generated_Source\PSoC4/CyLFClk.c ****             else
 597:Generated_Source\PSoC4/CyLFClk.c ****             {
 598:Generated_Source\PSoC4/CyLFClk.c ****                 trimStep = (int32) (((iloAccuracyValue * (int32) CY_SYS_CLK_ERROR_COEF) - 
 599:Generated_Source\PSoC4/CyLFClk.c ****                 CY_SYS_CLK_HALF_OF_STEP) / CY_SYS_CLK_ERROR_STEP);
 600:Generated_Source\PSoC4/CyLFClk.c ****             }
 601:Generated_Source\PSoC4/CyLFClk.c ****             currentIloTrimValue = (CY_SYS_CLK_ILO_TRIM_REG & CY_SYS_CLK_ILO_TRIM_MASK);
 602:Generated_Source\PSoC4/CyLFClk.c ****             trimStep = (int32) currentIloTrimValue - trimStep;
 603:Generated_Source\PSoC4/CyLFClk.c **** 
 604:Generated_Source\PSoC4/CyLFClk.c ****             if(trimStep > CY_SYS_CLK_FOURBITS_MAX)
 605:Generated_Source\PSoC4/CyLFClk.c ****             {
 606:Generated_Source\PSoC4/CyLFClk.c ****                 trimStep = CY_SYS_CLK_FOURBITS_MAX;
 607:Generated_Source\PSoC4/CyLFClk.c ****             }
 608:Generated_Source\PSoC4/CyLFClk.c ****             if(trimStep < 0)
 609:Generated_Source\PSoC4/CyLFClk.c ****             {
 610:Generated_Source\PSoC4/CyLFClk.c ****                 trimStep = 0;
 611:Generated_Source\PSoC4/CyLFClk.c ****             }
 612:Generated_Source\PSoC4/CyLFClk.c ****             CY_SYS_CLK_ILO_TRIM_REG = (CY_SYS_CLK_ILO_TRIM_REG & (uint32)(~CY_SYS_CLK_ILO_TRIM_MASK
 613:Generated_Source\PSoC4/CyLFClk.c ****                                                                  ((uint32) trimStep);
 614:Generated_Source\PSoC4/CyLFClk.c ****             errorRangeStatus = CYRET_STARTED;
 615:Generated_Source\PSoC4/CyLFClk.c ****         } /* Else return success because error is in +/- 10% range*/
 616:Generated_Source\PSoC4/CyLFClk.c ****         else
 617:Generated_Source\PSoC4/CyLFClk.c ****         {
 618:Generated_Source\PSoC4/CyLFClk.c ****             /* Write trimmed ILO accuracy through pointer. */
 619:Generated_Source\PSoC4/CyLFClk.c ****             *iloAccuracyInPPT = iloAccuracyValue;
 620:Generated_Source\PSoC4/CyLFClk.c ****             errorRangeStatus = CYRET_SUCCESS;
ARM GAS  C:\Users\g\AppData\Local\Temp\ccelQmmg.s 			page 18


 621:Generated_Source\PSoC4/CyLFClk.c ****         }
 622:Generated_Source\PSoC4/CyLFClk.c ****     }
 623:Generated_Source\PSoC4/CyLFClk.c ****     else
 624:Generated_Source\PSoC4/CyLFClk.c ****     {
 625:Generated_Source\PSoC4/CyLFClk.c ****         errorRangeStatus = CYRET_INVALID_STATE;
 626:Generated_Source\PSoC4/CyLFClk.c ****     }
 627:Generated_Source\PSoC4/CyLFClk.c **** return (errorRangeStatus);
 628:Generated_Source\PSoC4/CyLFClk.c **** }
 629:Generated_Source\PSoC4/CyLFClk.c **** 
 630:Generated_Source\PSoC4/CyLFClk.c **** 
 631:Generated_Source\PSoC4/CyLFClk.c **** /*******************************************************************************
 632:Generated_Source\PSoC4/CyLFClk.c **** * Function Name: CySysClkIloRestoreFactoryTrim
 633:Generated_Source\PSoC4/CyLFClk.c **** ****************************************************************************//**
 634:Generated_Source\PSoC4/CyLFClk.c **** * \brief
 635:Generated_Source\PSoC4/CyLFClk.c **** * Restores the ILO Trim Register to factory value.
 636:Generated_Source\PSoC4/CyLFClk.c **** *
 637:Generated_Source\PSoC4/CyLFClk.c **** * The CySysClkIloStartMeasurement() API should be called prior to 
 638:Generated_Source\PSoC4/CyLFClk.c **** * calling this API. Otherwise CYRET_UNKNOWN will be returned.
 639:Generated_Source\PSoC4/CyLFClk.c **** *
 640:Generated_Source\PSoC4/CyLFClk.c **** * Available for all PSoC 4 devices except for PSoC 4000 / PSoC 4100 / PSoC 4200 
 641:Generated_Source\PSoC4/CyLFClk.c **** * / PSoC 4000S / PSoC 4100S / PSoC Analog Coprocessor devices.
 642:Generated_Source\PSoC4/CyLFClk.c **** *
 643:Generated_Source\PSoC4/CyLFClk.c **** * \return CYRET_SUCCESS - Operation was successful. 
 644:Generated_Source\PSoC4/CyLFClk.c **** * \return CYRET_UNKNOWN - CySysClkIloStartMeasurement() was not called 
 645:Generated_Source\PSoC4/CyLFClk.c **** * before this API. Hence the trim value cannot be updated.
 646:Generated_Source\PSoC4/CyLFClk.c **** *
 647:Generated_Source\PSoC4/CyLFClk.c **** ******************************************************************************/
 648:Generated_Source\PSoC4/CyLFClk.c **** cystatus CySysClkIloRestoreFactoryTrim(void)
 649:Generated_Source\PSoC4/CyLFClk.c **** {
 650:Generated_Source\PSoC4/CyLFClk.c ****     cystatus returnStatus = CYRET_SUCCESS;
 651:Generated_Source\PSoC4/CyLFClk.c **** 
 652:Generated_Source\PSoC4/CyLFClk.c ****     /* Check was defaultIloTrimRegValue modified in CySysClkIloStartMeasurement */
 653:Generated_Source\PSoC4/CyLFClk.c ****     if(CY_SYS_CLK_ILO_TRIM_DEFAULT_VALUE != defaultIloTrimRegValue)
 654:Generated_Source\PSoC4/CyLFClk.c ****         {
 655:Generated_Source\PSoC4/CyLFClk.c ****             CY_SYS_CLK_ILO_TRIM_REG = ((CY_SYS_CLK_ILO_TRIM_REG & (uint32)(~CY_SYS_CLK_ILO_TRIM_MAS
 656:Generated_Source\PSoC4/CyLFClk.c ****                                        (defaultIloTrimRegValue & CY_SYS_CLK_ILO_TRIM_MASK));
 657:Generated_Source\PSoC4/CyLFClk.c ****         }
 658:Generated_Source\PSoC4/CyLFClk.c ****         else
 659:Generated_Source\PSoC4/CyLFClk.c ****         {
 660:Generated_Source\PSoC4/CyLFClk.c ****             returnStatus = CYRET_UNKNOWN;
 661:Generated_Source\PSoC4/CyLFClk.c ****         }
 662:Generated_Source\PSoC4/CyLFClk.c **** 
 663:Generated_Source\PSoC4/CyLFClk.c ****         return (returnStatus);
 664:Generated_Source\PSoC4/CyLFClk.c **** }
 665:Generated_Source\PSoC4/CyLFClk.c **** #endif /* (CY_IP_SRSSV2 && (!(CY_PSOC4_4100 || CY_PSOC4_4200))) */
 666:Generated_Source\PSoC4/CyLFClk.c **** 
 667:Generated_Source\PSoC4/CyLFClk.c **** 
 668:Generated_Source\PSoC4/CyLFClk.c **** #if (CY_IP_WCO && CY_IP_SRSSV2)
 669:Generated_Source\PSoC4/CyLFClk.c **** /*******************************************************************************
 670:Generated_Source\PSoC4/CyLFClk.c **** * Function Name: CySysClkGetLfclkSource
 671:Generated_Source\PSoC4/CyLFClk.c **** ********************************************************************************
 672:Generated_Source\PSoC4/CyLFClk.c **** *
 673:Generated_Source\PSoC4/CyLFClk.c **** * \internal
 674:Generated_Source\PSoC4/CyLFClk.c **** *  Gets the clock source for the LFCLK clock.
 675:Generated_Source\PSoC4/CyLFClk.c **** *  The function is applicable only for PSoC 4100 BLE / PSoC 4200 BLE / PSoC 4100M /
 676:Generated_Source\PSoC4/CyLFClk.c **** *  PSoC 4200M / PSoC 4200L.
 677:Generated_Source\PSoC4/CyLFClk.c **** *
ARM GAS  C:\Users\g\AppData\Local\Temp\ccelQmmg.s 			page 19


 678:Generated_Source\PSoC4/CyLFClk.c **** * \return The LFCLK source:
 679:Generated_Source\PSoC4/CyLFClk.c **** * CY_SYS_CLK_LFCLK_SRC_ILO Internal Low Frequency (32 kHz) Oscillator (ILO)
 680:Generated_Source\PSoC4/CyLFClk.c **** * CY_SYS_CLK_LFCLK_SRC_WCO Low Frequency Watch Crystal Oscillator (WCO)
 681:Generated_Source\PSoC4/CyLFClk.c **** *
 682:Generated_Source\PSoC4/CyLFClk.c **** * \endinternal
 683:Generated_Source\PSoC4/CyLFClk.c **** *
 684:Generated_Source\PSoC4/CyLFClk.c **** *******************************************************************************/
 685:Generated_Source\PSoC4/CyLFClk.c ****     static uint32 CySysClkGetLfclkSource(void)
 686:Generated_Source\PSoC4/CyLFClk.c ****     {
 687:Generated_Source\PSoC4/CyLFClk.c ****         uint32 lfclkSource;
 688:Generated_Source\PSoC4/CyLFClk.c ****         lfclkSource = CY_SYS_WDT_CONFIG_REG & CY_SYS_CLK_LFCLK_SEL_MASK;
 689:Generated_Source\PSoC4/CyLFClk.c ****         return (lfclkSource);
 690:Generated_Source\PSoC4/CyLFClk.c ****     }
 691:Generated_Source\PSoC4/CyLFClk.c **** 
 692:Generated_Source\PSoC4/CyLFClk.c ****     
 693:Generated_Source\PSoC4/CyLFClk.c **** /*******************************************************************************
 694:Generated_Source\PSoC4/CyLFClk.c **** * Function Name: CySysClkSetLfclkSource
 695:Generated_Source\PSoC4/CyLFClk.c **** ****************************************************************************//**
 696:Generated_Source\PSoC4/CyLFClk.c **** * \brief
 697:Generated_Source\PSoC4/CyLFClk.c **** *  Sets the clock source for the LFCLK clock.
 698:Generated_Source\PSoC4/CyLFClk.c **** *
 699:Generated_Source\PSoC4/CyLFClk.c **** * The switch between LFCLK sources must be done between the positive edges of
 700:Generated_Source\PSoC4/CyLFClk.c **** * LFCLK, because the glitch risk is around the LFCLK positive edge. To ensure
 701:Generated_Source\PSoC4/CyLFClk.c **** * that the switch can be done safely, the WDT counter value is read until it
 702:Generated_Source\PSoC4/CyLFClk.c **** * changes.
 703:Generated_Source\PSoC4/CyLFClk.c **** *
 704:Generated_Source\PSoC4/CyLFClk.c **** * That means that the positive edge just finished and the switch is performed.
 705:Generated_Source\PSoC4/CyLFClk.c **** * The enabled WDT counter is used for that purpose. If no counters are enabled,
 706:Generated_Source\PSoC4/CyLFClk.c **** * counter 0 is enabled. And after the LFCLK source is switched, counter 0
 707:Generated_Source\PSoC4/CyLFClk.c **** * configuration is restored.
 708:Generated_Source\PSoC4/CyLFClk.c **** *
 709:Generated_Source\PSoC4/CyLFClk.c **** *  The function is applicable only for devices with more than one source for 
 710:Generated_Source\PSoC4/CyLFClk.c **** * LFCLK - PSoC 4100 BLE / PSoC 4200 BLE / PRoC BLE / PSoC 4100M / PSoC 4200M / 
 711:Generated_Source\PSoC4/CyLFClk.c **** * PSoC 4200L.
 712:Generated_Source\PSoC4/CyLFClk.c **** *
 713:Generated_Source\PSoC4/CyLFClk.c **** * \note For PSoC 4000S / PSoC 4100S / PSoC Analog Coprocessor devices LFCLK can
 714:Generated_Source\PSoC4/CyLFClk.c **** * only be sourced from ILO even though WCO is available.
 715:Generated_Source\PSoC4/CyLFClk.c **** *
 716:Generated_Source\PSoC4/CyLFClk.c **** * \param
 717:Generated_Source\PSoC4/CyLFClk.c **** * source
 718:Generated_Source\PSoC4/CyLFClk.c **** * CY_SYS_CLK_LFCLK_SRC_ILO - Internal Low Frequency (32 kHz) 
 719:Generated_Source\PSoC4/CyLFClk.c **** * Oscillator (ILO).<br>
 720:Generated_Source\PSoC4/CyLFClk.c **** * CY_SYS_CLK_LFCLK_SRC_WCO - Low Frequency Watch Crystal Oscillator (WCO).
 721:Generated_Source\PSoC4/CyLFClk.c **** *
 722:Generated_Source\PSoC4/CyLFClk.c **** * \details
 723:Generated_Source\PSoC4/CyLFClk.c **** * This function has no effect if WDT is locked (CySysWdtLock() is called). 
 724:Generated_Source\PSoC4/CyLFClk.c **** * Call CySysWdtUnlock() to unlock WDT.
 725:Generated_Source\PSoC4/CyLFClk.c **** *
 726:Generated_Source\PSoC4/CyLFClk.c **** * Both the current source and the new source must be running and stable before
 727:Generated_Source\PSoC4/CyLFClk.c **** * calling this function.
 728:Generated_Source\PSoC4/CyLFClk.c **** *
 729:Generated_Source\PSoC4/CyLFClk.c **** * Changing the LFCLK clock source may change the LFCLK clock frequency and
 730:Generated_Source\PSoC4/CyLFClk.c **** * affect the functionality that uses this clock. For example, watchdog timer
 731:Generated_Source\PSoC4/CyLFClk.c **** * "uses this clock" or "this clock uses" (WDT) is clocked by LFCLK.
 732:Generated_Source\PSoC4/CyLFClk.c **** *
 733:Generated_Source\PSoC4/CyLFClk.c **** *******************************************************************************/
 734:Generated_Source\PSoC4/CyLFClk.c ****     void CySysClkSetLfclkSource(uint32 source)
ARM GAS  C:\Users\g\AppData\Local\Temp\ccelQmmg.s 			page 20


 735:Generated_Source\PSoC4/CyLFClk.c ****     {
 736:Generated_Source\PSoC4/CyLFClk.c ****         uint8  interruptState;
 737:Generated_Source\PSoC4/CyLFClk.c **** 
 738:Generated_Source\PSoC4/CyLFClk.c ****         if (CySysClkGetLfclkSource() != source)
 739:Generated_Source\PSoC4/CyLFClk.c ****         {
 740:Generated_Source\PSoC4/CyLFClk.c ****             interruptState = CyEnterCriticalSection();
 741:Generated_Source\PSoC4/CyLFClk.c ****             CySysClkLfclkPosedgeCatch();
 742:Generated_Source\PSoC4/CyLFClk.c ****             CY_SYS_WDT_CONFIG_REG = (CY_SYS_WDT_CONFIG_REG & (uint32)(~CY_SYS_CLK_LFCLK_SEL_MASK)) 
 743:Generated_Source\PSoC4/CyLFClk.c ****                                     (source & CY_SYS_CLK_LFCLK_SEL_MASK);
 744:Generated_Source\PSoC4/CyLFClk.c ****             CySysClkLfclkPosedgeRestore();
 745:Generated_Source\PSoC4/CyLFClk.c ****             CyExitCriticalSection(interruptState);
 746:Generated_Source\PSoC4/CyLFClk.c ****         }
 747:Generated_Source\PSoC4/CyLFClk.c ****     }
 748:Generated_Source\PSoC4/CyLFClk.c **** #endif /* (CY_IP_WCO && CY_IP_SRSSV2) */
 749:Generated_Source\PSoC4/CyLFClk.c **** 
 750:Generated_Source\PSoC4/CyLFClk.c **** 
 751:Generated_Source\PSoC4/CyLFClk.c **** #if (CY_IP_WCO)
 752:Generated_Source\PSoC4/CyLFClk.c ****     /*******************************************************************************
 753:Generated_Source\PSoC4/CyLFClk.c ****     * Function Name: CySysClkWcoStart
 754:Generated_Source\PSoC4/CyLFClk.c ****     ****************************************************************************//**
 755:Generated_Source\PSoC4/CyLFClk.c ****     * \brief
 756:Generated_Source\PSoC4/CyLFClk.c ****     *  Enables Watch Crystal Oscillator (WCO).
 757:Generated_Source\PSoC4/CyLFClk.c ****     * 
 758:Generated_Source\PSoC4/CyLFClk.c ****     * This API enables WCO which is used as a source for LFCLK. Similar to ILO, 
 759:Generated_Source\PSoC4/CyLFClk.c ****     * WCO is also available in all modes except Hibernate and Stop modes.
 760:Generated_Source\PSoC4/CyLFClk.c ****     * \note In PSoC 4000S / PSoC 4100S / PSoC Analog Coprocessor devices
 761:Generated_Source\PSoC4/CyLFClk.c ****     * WCO cannot be a source for the LFCLK. 
 762:Generated_Source\PSoC4/CyLFClk.c ****     *
 763:Generated_Source\PSoC4/CyLFClk.c ****     *  WCO is always enabled in High Power Mode (HPM). Refer to the device
 764:Generated_Source\PSoC4/CyLFClk.c ****     *  datasheet for the  WCO startup time. Once WCO becomes stable it can be
 765:Generated_Source\PSoC4/CyLFClk.c ****     *  switched to Low Power Mode (LPM). Note that oscillator can be unstable
 766:Generated_Source\PSoC4/CyLFClk.c ****     *  during a switch and hence its output should not be used at that moment.
 767:Generated_Source\PSoC4/CyLFClk.c ****     *
 768:Generated_Source\PSoC4/CyLFClk.c ****     *  The CySysClkWcoSetPowerMode() function configures the WCO power mode.
 769:Generated_Source\PSoC4/CyLFClk.c ****     *
 770:Generated_Source\PSoC4/CyLFClk.c ****     *******************************************************************************/
 771:Generated_Source\PSoC4/CyLFClk.c ****     void CySysClkWcoStart(void)
 772:Generated_Source\PSoC4/CyLFClk.c ****     {
 773:Generated_Source\PSoC4/CyLFClk.c ****         CySysClkWcoSetHighPowerMode();
 774:Generated_Source\PSoC4/CyLFClk.c ****         CY_SYS_CLK_WCO_CONFIG_REG |= CY_SYS_CLK_WCO_CONFIG_LPM_ENABLE;
 775:Generated_Source\PSoC4/CyLFClk.c ****     }
 776:Generated_Source\PSoC4/CyLFClk.c **** 
 777:Generated_Source\PSoC4/CyLFClk.c **** 
 778:Generated_Source\PSoC4/CyLFClk.c ****     /*******************************************************************************
 779:Generated_Source\PSoC4/CyLFClk.c ****     * Function Name: CySysClkWcoStop
 780:Generated_Source\PSoC4/CyLFClk.c ****     ****************************************************************************//**
 781:Generated_Source\PSoC4/CyLFClk.c ****     * \brief
 782:Generated_Source\PSoC4/CyLFClk.c ****     * Disables the 32 KHz Crystal Oscillator.
 783:Generated_Source\PSoC4/CyLFClk.c ****     *
 784:Generated_Source\PSoC4/CyLFClk.c ****     * API switch of WCO.
 785:Generated_Source\PSoC4/CyLFClk.c ****     * \note PSoC 4100S / PSoC Analog Coprocessor: WCO is required for DeepSleep 
 786:Generated_Source\PSoC4/CyLFClk.c ****     * Timer's operation.
 787:Generated_Source\PSoC4/CyLFClk.c ****     *
 788:Generated_Source\PSoC4/CyLFClk.c ****     *******************************************************************************/
 789:Generated_Source\PSoC4/CyLFClk.c ****     void  CySysClkWcoStop(void)
 790:Generated_Source\PSoC4/CyLFClk.c ****     {
 791:Generated_Source\PSoC4/CyLFClk.c ****         #if (CY_IP_SRSSV2)
ARM GAS  C:\Users\g\AppData\Local\Temp\ccelQmmg.s 			page 21


 792:Generated_Source\PSoC4/CyLFClk.c ****             uint8  interruptState;
 793:Generated_Source\PSoC4/CyLFClk.c ****         #endif /* (CY_IP_SRSSV2) */
 794:Generated_Source\PSoC4/CyLFClk.c **** 
 795:Generated_Source\PSoC4/CyLFClk.c ****         if (0u != CySysClkWcoEnabled())
 796:Generated_Source\PSoC4/CyLFClk.c ****         {
 797:Generated_Source\PSoC4/CyLFClk.c ****             #if (CY_IP_SRSSV2)
 798:Generated_Source\PSoC4/CyLFClk.c ****                 if (CY_SYS_CLK_LFCLK_SRC_WCO == CySysClkGetLfclkSource())
 799:Generated_Source\PSoC4/CyLFClk.c ****                 {
 800:Generated_Source\PSoC4/CyLFClk.c ****                     interruptState = CyEnterCriticalSection();
 801:Generated_Source\PSoC4/CyLFClk.c ****                     CySysClkLfclkPosedgeCatch();
 802:Generated_Source\PSoC4/CyLFClk.c ****                     CY_SYS_CLK_WCO_CONFIG_REG &= (uint32) ~CY_SYS_CLK_WCO_CONFIG_LPM_ENABLE;
 803:Generated_Source\PSoC4/CyLFClk.c ****                     CySysClkLfclkPosedgeRestore();
 804:Generated_Source\PSoC4/CyLFClk.c ****                     CyExitCriticalSection(interruptState);
 805:Generated_Source\PSoC4/CyLFClk.c ****                 }
 806:Generated_Source\PSoC4/CyLFClk.c ****                 else /* Safe to disable - shortened pulse does not impact peripheral */
 807:Generated_Source\PSoC4/CyLFClk.c ****             #endif /* (CY_IP_SRSSV2) */
 808:Generated_Source\PSoC4/CyLFClk.c ****             {
 809:Generated_Source\PSoC4/CyLFClk.c ****                 CY_SYS_CLK_WCO_CONFIG_REG &= (uint32) ~CY_SYS_CLK_WCO_CONFIG_LPM_ENABLE;
 810:Generated_Source\PSoC4/CyLFClk.c ****             }
 811:Generated_Source\PSoC4/CyLFClk.c ****         } /* Otherwise do nothing. WCO configuration cannot be changed. */
 812:Generated_Source\PSoC4/CyLFClk.c ****     }
 813:Generated_Source\PSoC4/CyLFClk.c **** 
 814:Generated_Source\PSoC4/CyLFClk.c **** 
 815:Generated_Source\PSoC4/CyLFClk.c ****     /*******************************************************************************
 816:Generated_Source\PSoC4/CyLFClk.c ****     * Function Name: CySysClkWcoEnabled
 817:Generated_Source\PSoC4/CyLFClk.c ****     ****************************************************************************//**
 818:Generated_Source\PSoC4/CyLFClk.c ****     * \internal Reports the WCO enable state.
 819:Generated_Source\PSoC4/CyLFClk.c ****     *
 820:Generated_Source\PSoC4/CyLFClk.c ****     * \return 1 if WCO is enabled
 821:Generated_Source\PSoC4/CyLFClk.c ****     * \return 0 if WCO is disabled.
 822:Generated_Source\PSoC4/CyLFClk.c ****     * \endinternal
 823:Generated_Source\PSoC4/CyLFClk.c ****     *******************************************************************************/
 824:Generated_Source\PSoC4/CyLFClk.c ****     uint32 CySysClkWcoEnabled(void)
 825:Generated_Source\PSoC4/CyLFClk.c ****     {
 826:Generated_Source\PSoC4/CyLFClk.c ****         return ((0u != (CY_SYS_CLK_WCO_CONFIG_REG & (uint32)(CY_SYS_CLK_WCO_CONFIG_LPM_ENABLE))) ?
 827:Generated_Source\PSoC4/CyLFClk.c ****                 (uint32) 1u :
 828:Generated_Source\PSoC4/CyLFClk.c ****                 (uint32) 0u);
 829:Generated_Source\PSoC4/CyLFClk.c ****     }
 830:Generated_Source\PSoC4/CyLFClk.c **** 
 831:Generated_Source\PSoC4/CyLFClk.c **** 
 832:Generated_Source\PSoC4/CyLFClk.c ****     /*******************************************************************************
 833:Generated_Source\PSoC4/CyLFClk.c ****     * Function Name: CySysClkWcoSetPowerMode
 834:Generated_Source\PSoC4/CyLFClk.c ****     ****************************************************************************//**
 835:Generated_Source\PSoC4/CyLFClk.c ****     * \brief
 836:Generated_Source\PSoC4/CyLFClk.c ****     * Sets the power mode for the 32 KHz WCO.
 837:Generated_Source\PSoC4/CyLFClk.c ****     *
 838:Generated_Source\PSoC4/CyLFClk.c ****     * By default (if this function is not called), the WCO is in High power mode 
 839:Generated_Source\PSoC4/CyLFClk.c ****     * during Active and device's low power modes
 840:Generated_Source\PSoC4/CyLFClk.c ****     *
 841:Generated_Source\PSoC4/CyLFClk.c ****     * \param mode
 842:Generated_Source\PSoC4/CyLFClk.c ****     * CY_SYS_CLK_WCO_HPM - The High Power mode.<br>
 843:Generated_Source\PSoC4/CyLFClk.c ****     * CY_SYS_CLK_WCO_LPM - The Low Power mode.
 844:Generated_Source\PSoC4/CyLFClk.c ****     *
 845:Generated_Source\PSoC4/CyLFClk.c ****     * \return A previous power mode. The same as the parameters.
 846:Generated_Source\PSoC4/CyLFClk.c ****     *
 847:Generated_Source\PSoC4/CyLFClk.c ****     * \note
 848:Generated_Source\PSoC4/CyLFClk.c ****     * The WCO Low Power mode is applicable for PSoC 4100 BLE / PSoC 4200 BLE devices.
ARM GAS  C:\Users\g\AppData\Local\Temp\ccelQmmg.s 			page 22


 849:Generated_Source\PSoC4/CyLFClk.c ****     *
 850:Generated_Source\PSoC4/CyLFClk.c ****     *******************************************************************************/
 851:Generated_Source\PSoC4/CyLFClk.c ****     uint32 CySysClkWcoSetPowerMode(uint32 mode)
 852:Generated_Source\PSoC4/CyLFClk.c ****     {
 853:Generated_Source\PSoC4/CyLFClk.c ****         uint32 powerModeStatus;
 854:Generated_Source\PSoC4/CyLFClk.c **** 
 855:Generated_Source\PSoC4/CyLFClk.c ****         powerModeStatus = CY_SYS_CLK_WCO_CONFIG_REG & CY_SYS_CLK_WCO_CONFIG_LPM_EN;
 856:Generated_Source\PSoC4/CyLFClk.c **** 
 857:Generated_Source\PSoC4/CyLFClk.c ****         switch(mode)
 858:Generated_Source\PSoC4/CyLFClk.c ****         {
 859:Generated_Source\PSoC4/CyLFClk.c ****         case CY_SYS_CLK_WCO_HPM:
 860:Generated_Source\PSoC4/CyLFClk.c ****                 CySysClkWcoSetHighPowerMode();
 861:Generated_Source\PSoC4/CyLFClk.c ****             break;
 862:Generated_Source\PSoC4/CyLFClk.c **** 
 863:Generated_Source\PSoC4/CyLFClk.c ****         #if(CY_PSOC4_4100BL || CY_PSOC4_4200BL)
 864:Generated_Source\PSoC4/CyLFClk.c ****             case CY_SYS_CLK_WCO_LPM:
 865:Generated_Source\PSoC4/CyLFClk.c ****                     CySysClkWcoSetLowPowerMode();
 866:Generated_Source\PSoC4/CyLFClk.c ****                 break;
 867:Generated_Source\PSoC4/CyLFClk.c ****         #endif /* (CY_PSOC4_4100BL || CY_PSOC4_4200BL) */
 868:Generated_Source\PSoC4/CyLFClk.c **** 
 869:Generated_Source\PSoC4/CyLFClk.c ****         default:
 870:Generated_Source\PSoC4/CyLFClk.c ****             CYASSERT(0u != 0u);
 871:Generated_Source\PSoC4/CyLFClk.c ****             break;
 872:Generated_Source\PSoC4/CyLFClk.c ****         }
 873:Generated_Source\PSoC4/CyLFClk.c **** 
 874:Generated_Source\PSoC4/CyLFClk.c ****         return (powerModeStatus);
 875:Generated_Source\PSoC4/CyLFClk.c ****     }
 876:Generated_Source\PSoC4/CyLFClk.c **** 
 877:Generated_Source\PSoC4/CyLFClk.c **** 
 878:Generated_Source\PSoC4/CyLFClk.c **** /*******************************************************************************
 879:Generated_Source\PSoC4/CyLFClk.c **** * Function Name: CySysClkWcoClockOutSelect
 880:Generated_Source\PSoC4/CyLFClk.c **** ****************************************************************************//**
 881:Generated_Source\PSoC4/CyLFClk.c **** * \brief
 882:Generated_Source\PSoC4/CyLFClk.c **** * Selects the WCO block output source.
 883:Generated_Source\PSoC4/CyLFClk.c **** *
 884:Generated_Source\PSoC4/CyLFClk.c **** * In addition to generating 32.768 kHz clock from external crystals, WCO 
 885:Generated_Source\PSoC4/CyLFClk.c **** * can be sourced by external clock source using wco_out pin. The API help to
 886:Generated_Source\PSoC4/CyLFClk.c **** * lets you select between the sources: External crystal or external pin.
 887:Generated_Source\PSoC4/CyLFClk.c **** *
 888:Generated_Source\PSoC4/CyLFClk.c **** * If you want to use external pin to drive WCO the next procedure is required:
 889:Generated_Source\PSoC4/CyLFClk.c **** * <br> 1) Disable the WCO.
 890:Generated_Source\PSoC4/CyLFClk.c **** * <br> 2) Drive the wco_out pin to an external signal source.
 891:Generated_Source\PSoC4/CyLFClk.c **** * <br> 3) Call CySysClkWcoClockOutSelect(CY_SYS_CLK_WCO_SEL_PIN).
 892:Generated_Source\PSoC4/CyLFClk.c **** * <br> 4) Enable the WCO and wait for 15 us before clocking the XO pad at the high 
 893:Generated_Source\PSoC4/CyLFClk.c **** * potential. Let's assume you are using the 1.6v clock amplitude, then the
 894:Generated_Source\PSoC4/CyLFClk.c **** * sequence would start at 1.6v, then 0v, then 1.6v etc at a chosen frequency.
 895:Generated_Source\PSoC4/CyLFClk.c **** *
 896:Generated_Source\PSoC4/CyLFClk.c **** * If you want to use WCO after using an external pin source:
 897:Generated_Source\PSoC4/CyLFClk.c **** * <br> 1) Disable the WCO.
 898:Generated_Source\PSoC4/CyLFClk.c **** * <br> 2) Drive off wco_out pin with external signal source.
 899:Generated_Source\PSoC4/CyLFClk.c **** * <br> 3) Call CySysClkWcoClockOutSelect(CY_SYS_CLK_WCO_SEL_CRYSTAL).
 900:Generated_Source\PSoC4/CyLFClk.c **** * <br> 4) Enable the WCO.
 901:Generated_Source\PSoC4/CyLFClk.c **** *
 902:Generated_Source\PSoC4/CyLFClk.c **** * \warning 
 903:Generated_Source\PSoC4/CyLFClk.c **** * Do not use the oscillator output clock prior to a 15uS delay in your system.
 904:Generated_Source\PSoC4/CyLFClk.c **** * There are no limitations on the external clock frequency.
 905:Generated_Source\PSoC4/CyLFClk.c **** * \warning 
ARM GAS  C:\Users\g\AppData\Local\Temp\ccelQmmg.s 			page 23


 906:Generated_Source\PSoC4/CyLFClk.c **** * When external clock source was selected to drive WCO block the IMO can be 
 907:Generated_Source\PSoC4/CyLFClk.c **** * trimmed only when external clock source period is equal to WCO external
 908:Generated_Source\PSoC4/CyLFClk.c **** * crystal period. Also external clock source accuracy should be higher 
 909:Generated_Source\PSoC4/CyLFClk.c **** * or equal to WCO external crystal accuracy.
 910:Generated_Source\PSoC4/CyLFClk.c **** *
 911:Generated_Source\PSoC4/CyLFClk.c **** * \param clockSel
 912:Generated_Source\PSoC4/CyLFClk.c **** * CY_SYS_CLK_WCO_SEL_CRYSTAL - Selects External crystal as clock 
 913:Generated_Source\PSoC4/CyLFClk.c **** * source of WCO.<br>
 914:Generated_Source\PSoC4/CyLFClk.c **** * CY_SYS_CLK_WCO_SEL_PIN - Selects External clock input on wco_in pin as 
 915:Generated_Source\PSoC4/CyLFClk.c **** * clock source of WCO.
 916:Generated_Source\PSoC4/CyLFClk.c **** *
 917:Generated_Source\PSoC4/CyLFClk.c **** *******************************************************************************/
 918:Generated_Source\PSoC4/CyLFClk.c **** void CySysClkWcoClockOutSelect(uint32 clockSel)
 919:Generated_Source\PSoC4/CyLFClk.c ****     {
 920:Generated_Source\PSoC4/CyLFClk.c ****         if (0u != CySysClkWcoEnabled())
 921:Generated_Source\PSoC4/CyLFClk.c ****         {
 922:Generated_Source\PSoC4/CyLFClk.c ****             if (1u >= clockSel)
 923:Generated_Source\PSoC4/CyLFClk.c ****             {
 924:Generated_Source\PSoC4/CyLFClk.c ****                 CY_SYS_CLK_WCO_CONFIG_REG = (CY_SYS_CLK_WCO_CONFIG_REG & (uint32)(~CY_SYS_CLK_WCO_S
 925:Generated_Source\PSoC4/CyLFClk.c ****                                         (clockSel << CY_SYS_CLK_WCO_SELECT_PIN_OFFSET);
 926:Generated_Source\PSoC4/CyLFClk.c ****             }
 927:Generated_Source\PSoC4/CyLFClk.c ****             else
 928:Generated_Source\PSoC4/CyLFClk.c ****             {
 929:Generated_Source\PSoC4/CyLFClk.c ****                 CYASSERT(0u != 0u);
 930:Generated_Source\PSoC4/CyLFClk.c ****             }
 931:Generated_Source\PSoC4/CyLFClk.c ****         }
 932:Generated_Source\PSoC4/CyLFClk.c ****     }
 933:Generated_Source\PSoC4/CyLFClk.c **** #endif  /* (CY_IP_WCO) */
 934:Generated_Source\PSoC4/CyLFClk.c **** 
 935:Generated_Source\PSoC4/CyLFClk.c **** 
 936:Generated_Source\PSoC4/CyLFClk.c **** #if(CY_IP_SRSSV2)
 937:Generated_Source\PSoC4/CyLFClk.c ****     /*******************************************************************************
 938:Generated_Source\PSoC4/CyLFClk.c ****     * Function Name: CySysWdtLock
 939:Generated_Source\PSoC4/CyLFClk.c ****     ****************************************************************************//**
 940:Generated_Source\PSoC4/CyLFClk.c ****     * \brief
 941:Generated_Source\PSoC4/CyLFClk.c ****     * Locks out configuration changes to the Watchdog timer registers and ILO
 942:Generated_Source\PSoC4/CyLFClk.c ****     * configuration register.
 943:Generated_Source\PSoC4/CyLFClk.c ****     *
 944:Generated_Source\PSoC4/CyLFClk.c ****     * After this function is called, ILO clock can't be disabled until
 945:Generated_Source\PSoC4/CyLFClk.c ****     * CySysWdtUnlock() is called.
 946:Generated_Source\PSoC4/CyLFClk.c ****     *
 947:Generated_Source\PSoC4/CyLFClk.c ****     *******************************************************************************/
 948:Generated_Source\PSoC4/CyLFClk.c ****     void CySysWdtLock(void)
 949:Generated_Source\PSoC4/CyLFClk.c ****     {
 313              		.loc 1 949 0
 314              		.cfi_startproc
 315 0000 08B5     		push	{r3, lr}
 316              		.cfi_def_cfa_offset 8
 317              		.cfi_offset 3, -8
 318              		.cfi_offset 14, -4
 950:Generated_Source\PSoC4/CyLFClk.c ****         uint8 interruptState;
 951:Generated_Source\PSoC4/CyLFClk.c ****         interruptState = CyEnterCriticalSection();
 319              		.loc 1 951 0
 320 0002 FFF7FEFF 		bl	CyEnterCriticalSection
 321              	.LVL19:
 952:Generated_Source\PSoC4/CyLFClk.c **** 
 953:Generated_Source\PSoC4/CyLFClk.c ****         CY_SYS_CLK_SELECT_REG = (CY_SYS_CLK_SELECT_REG & (uint32)(~CY_SYS_WDT_CLK_LOCK_BITS_MASK)) 
ARM GAS  C:\Users\g\AppData\Local\Temp\ccelQmmg.s 			page 24


 322              		.loc 1 953 0
 323 0006 C021     		mov	r1, #192
 324 0008 034A     		ldr	r2, .L26
 325 000a 0902     		lsl	r1, r1, #8
 326 000c 1368     		ldr	r3, [r2]
 954:Generated_Source\PSoC4/CyLFClk.c ****                  CY_SYS_WDT_CLK_LOCK_BITS_MASK;
 955:Generated_Source\PSoC4/CyLFClk.c **** 
 956:Generated_Source\PSoC4/CyLFClk.c ****         CyExitCriticalSection(interruptState);
 957:Generated_Source\PSoC4/CyLFClk.c ****     }
 327              		.loc 1 957 0
 328              		@ sp needed
 953:Generated_Source\PSoC4/CyLFClk.c ****                  CY_SYS_WDT_CLK_LOCK_BITS_MASK;
 329              		.loc 1 953 0
 330 000e 0B43     		orr	r3, r1
 331 0010 1360     		str	r3, [r2]
 956:Generated_Source\PSoC4/CyLFClk.c ****     }
 332              		.loc 1 956 0
 333 0012 FFF7FEFF 		bl	CyExitCriticalSection
 334              	.LVL20:
 335              		.loc 1 957 0
 336 0016 08BD     		pop	{r3, pc}
 337              	.L27:
 338              		.align	2
 339              	.L26:
 340 0018 00010B40 		.word	1074462976
 341              		.cfi_endproc
 342              	.LFE6:
 343              		.size	CySysWdtLock, .-CySysWdtLock
 344              		.section	.text.CySysWdtUnlock,"ax",%progbits
 345              		.align	1
 346              		.global	CySysWdtUnlock
 347              		.code	16
 348              		.thumb_func
 349              		.type	CySysWdtUnlock, %function
 350              	CySysWdtUnlock:
 351              	.LFB8:
 958:Generated_Source\PSoC4/CyLFClk.c **** 
 959:Generated_Source\PSoC4/CyLFClk.c **** 
 960:Generated_Source\PSoC4/CyLFClk.c ****     /*******************************************************************************
 961:Generated_Source\PSoC4/CyLFClk.c ****     * Function Name: CySysWdtLocked
 962:Generated_Source\PSoC4/CyLFClk.c ****     ****************************************************************************//**
 963:Generated_Source\PSoC4/CyLFClk.c ****     * \internal
 964:Generated_Source\PSoC4/CyLFClk.c ****     * Reports the WDT lock state.
 965:Generated_Source\PSoC4/CyLFClk.c ****     *
 966:Generated_Source\PSoC4/CyLFClk.c ****     * \return 1 - WDT is locked, and 0 - WDT is unlocked.
 967:Generated_Source\PSoC4/CyLFClk.c ****     * \endinternal
 968:Generated_Source\PSoC4/CyLFClk.c ****     *******************************************************************************/
 969:Generated_Source\PSoC4/CyLFClk.c ****     static uint32 CySysWdtLocked(void)
 970:Generated_Source\PSoC4/CyLFClk.c ****     {
 971:Generated_Source\PSoC4/CyLFClk.c ****         /* Prohibits writing to WDT registers and ILO/WCO registers when not equal 0 */
 972:Generated_Source\PSoC4/CyLFClk.c ****         return ((0u != (CY_SYS_CLK_SELECT_REG & (uint32)(CY_SYS_WDT_CLK_LOCK_BITS_MASK))) ? (uint32
 973:Generated_Source\PSoC4/CyLFClk.c ****     }
 974:Generated_Source\PSoC4/CyLFClk.c **** 
 975:Generated_Source\PSoC4/CyLFClk.c **** 
 976:Generated_Source\PSoC4/CyLFClk.c ****     /*******************************************************************************
 977:Generated_Source\PSoC4/CyLFClk.c ****     * Function Name: CySysWdtUnlock
 978:Generated_Source\PSoC4/CyLFClk.c ****     ****************************************************************************//**
ARM GAS  C:\Users\g\AppData\Local\Temp\ccelQmmg.s 			page 25


 979:Generated_Source\PSoC4/CyLFClk.c ****     * \brief
 980:Generated_Source\PSoC4/CyLFClk.c ****     *  Unlocks the Watchdog Timer configuration register.
 981:Generated_Source\PSoC4/CyLFClk.c ****     *
 982:Generated_Source\PSoC4/CyLFClk.c ****     *******************************************************************************/
 983:Generated_Source\PSoC4/CyLFClk.c ****     void CySysWdtUnlock(void)
 984:Generated_Source\PSoC4/CyLFClk.c ****     {
 352              		.loc 1 984 0
 353              		.cfi_startproc
 354 0000 10B5     		push	{r4, lr}
 355              		.cfi_def_cfa_offset 8
 356              		.cfi_offset 4, -8
 357              		.cfi_offset 14, -4
 985:Generated_Source\PSoC4/CyLFClk.c ****         uint8 interruptState;
 986:Generated_Source\PSoC4/CyLFClk.c ****         interruptState = CyEnterCriticalSection();
 987:Generated_Source\PSoC4/CyLFClk.c **** 
 988:Generated_Source\PSoC4/CyLFClk.c ****         /* Removing WDT lock requires two writes */
 989:Generated_Source\PSoC4/CyLFClk.c ****         CY_SYS_CLK_SELECT_REG = ((CY_SYS_CLK_SELECT_REG & (uint32)(~CY_SYS_WDT_CLK_LOCK_BITS_MASK))
 358              		.loc 1 989 0
 359 0002 8024     		mov	r4, #128
 986:Generated_Source\PSoC4/CyLFClk.c **** 
 360              		.loc 1 986 0
 361 0004 FFF7FEFF 		bl	CyEnterCriticalSection
 362              	.LVL21:
 363              		.loc 1 989 0
 364 0008 0749     		ldr	r1, .L29
 365 000a 084B     		ldr	r3, .L29+4
 366 000c 0A68     		ldr	r2, [r1]
 367 000e E401     		lsl	r4, r4, #7
 368 0010 1A40     		and	r2, r3
 369 0012 2243     		orr	r2, r4
 370 0014 0A60     		str	r2, [r1]
 990:Generated_Source\PSoC4/CyLFClk.c ****                 CY_SYS_WDT_CLK_LOCK_BIT0);
 991:Generated_Source\PSoC4/CyLFClk.c **** 
 992:Generated_Source\PSoC4/CyLFClk.c ****         CY_SYS_CLK_SELECT_REG = ((CY_SYS_CLK_SELECT_REG & (uint32)(~CY_SYS_WDT_CLK_LOCK_BITS_MASK))
 371              		.loc 1 992 0
 372 0016 0A68     		ldr	r2, [r1]
 993:Generated_Source\PSoC4/CyLFClk.c ****                 CY_SYS_WDT_CLK_LOCK_BIT1);
 994:Generated_Source\PSoC4/CyLFClk.c **** 
 995:Generated_Source\PSoC4/CyLFClk.c ****         CyExitCriticalSection(interruptState);
 996:Generated_Source\PSoC4/CyLFClk.c ****     }
 373              		.loc 1 996 0
 374              		@ sp needed
 992:Generated_Source\PSoC4/CyLFClk.c ****                 CY_SYS_WDT_CLK_LOCK_BIT1);
 375              		.loc 1 992 0
 376 0018 1340     		and	r3, r2
 377 001a 8022     		mov	r2, #128
 378 001c 1202     		lsl	r2, r2, #8
 379 001e 1343     		orr	r3, r2
 380 0020 0B60     		str	r3, [r1]
 995:Generated_Source\PSoC4/CyLFClk.c ****     }
 381              		.loc 1 995 0
 382 0022 FFF7FEFF 		bl	CyExitCriticalSection
 383              	.LVL22:
 384              		.loc 1 996 0
 385 0026 10BD     		pop	{r4, pc}
 386              	.L30:
 387              		.align	2
ARM GAS  C:\Users\g\AppData\Local\Temp\ccelQmmg.s 			page 26


 388              	.L29:
 389 0028 00010B40 		.word	1074462976
 390 002c FF3FFFFF 		.word	-49153
 391              		.cfi_endproc
 392              	.LFE8:
 393              		.size	CySysWdtUnlock, .-CySysWdtUnlock
 394              		.section	.text.CySysWdtGetEnabledStatus,"ax",%progbits
 395              		.align	1
 396              		.global	CySysWdtGetEnabledStatus
 397              		.code	16
 398              		.thumb_func
 399              		.type	CySysWdtGetEnabledStatus, %function
 400              	CySysWdtGetEnabledStatus:
 401              	.LFB9:
 997:Generated_Source\PSoC4/CyLFClk.c **** 
 998:Generated_Source\PSoC4/CyLFClk.c **** 
 999:Generated_Source\PSoC4/CyLFClk.c ****     /*******************************************************************************
1000:Generated_Source\PSoC4/CyLFClk.c ****     * Function Name: CySysWdtGetEnabledStatus
1001:Generated_Source\PSoC4/CyLFClk.c ****     ****************************************************************************//**
1002:Generated_Source\PSoC4/CyLFClk.c ****     * \brief
1003:Generated_Source\PSoC4/CyLFClk.c ****     *  Reads the enabled status of one of the three WDT counters.
1004:Generated_Source\PSoC4/CyLFClk.c ****     *
1005:Generated_Source\PSoC4/CyLFClk.c ****     * \param counterNum: Valid range [0-2].  The number of the WDT counter.
1006:Generated_Source\PSoC4/CyLFClk.c ****     *
1007:Generated_Source\PSoC4/CyLFClk.c ****     * \return The status of the WDT counter:
1008:Generated_Source\PSoC4/CyLFClk.c ****     * \return 0 - If the counter is disabled.
1009:Generated_Source\PSoC4/CyLFClk.c ****     * \return 1 - If the counter is enabled.
1010:Generated_Source\PSoC4/CyLFClk.c ****     *
1011:Generated_Source\PSoC4/CyLFClk.c ****     * \details
1012:Generated_Source\PSoC4/CyLFClk.c ****     * This function returns an actual WDT counter status from the status register. It may
1013:Generated_Source\PSoC4/CyLFClk.c ****     * take up to 3 LFCLK cycles for the WDT status register to contain actual data
1014:Generated_Source\PSoC4/CyLFClk.c ****     * after the WDT counter is enabled.
1015:Generated_Source\PSoC4/CyLFClk.c ****     *
1016:Generated_Source\PSoC4/CyLFClk.c ****     *******************************************************************************/
1017:Generated_Source\PSoC4/CyLFClk.c ****     uint32 CySysWdtGetEnabledStatus(uint32 counterNum)
1018:Generated_Source\PSoC4/CyLFClk.c ****     {
 402              		.loc 1 1018 0
 403              		.cfi_startproc
 404              	.LVL23:
 405 0000 10B5     		push	{r4, lr}
 406              		.cfi_def_cfa_offset 8
 407              		.cfi_offset 4, -8
 408              		.cfi_offset 14, -4
 409              		.loc 1 1018 0
 410 0002 041E     		sub	r4, r0, #0
1019:Generated_Source\PSoC4/CyLFClk.c ****         CYASSERT(counterNum < CY_SYS_WDT_COUNTERS_MAX);
 411              		.loc 1 1019 0
 412 0004 022C     		cmp	r4, #2
 413 0006 02D9     		bls	.L32
 414              		.loc 1 1019 0 is_stmt 0 discriminator 1
 415 0008 0020     		mov	r0, #0
 416              	.LVL24:
 417 000a FFF7FEFF 		bl	CyHalt
 418              	.LVL25:
 419              	.L32:
1020:Generated_Source\PSoC4/CyLFClk.c ****         return ((CY_SYS_WDT_CONTROL_REG >> ((CY_SYS_WDT_CNT_SHIFT * counterNum) + CY_SYS_WDT_CNT_ST
 420              		.loc 1 1020 0 is_stmt 1
ARM GAS  C:\Users\g\AppData\Local\Temp\ccelQmmg.s 			page 27


 421 000e 044B     		ldr	r3, .L33
 422 0010 E400     		lsl	r4, r4, #3
 423              	.LVL26:
 424 0012 1868     		ldr	r0, [r3]
 425 0014 0134     		add	r4, r4, #1
 426 0016 E040     		lsr	r0, r0, r4
 427 0018 0123     		mov	r3, #1
1021:Generated_Source\PSoC4/CyLFClk.c ****     }
 428              		.loc 1 1021 0
 429              		@ sp needed
1020:Generated_Source\PSoC4/CyLFClk.c ****         return ((CY_SYS_WDT_CONTROL_REG >> ((CY_SYS_WDT_CNT_SHIFT * counterNum) + CY_SYS_WDT_CNT_ST
 430              		.loc 1 1020 0
 431 001a 1840     		and	r0, r3
 432              		.loc 1 1021 0
 433 001c 10BD     		pop	{r4, pc}
 434              	.L34:
 435 001e C046     		.align	2
 436              	.L33:
 437 0020 10020B40 		.word	1074463248
 438              		.cfi_endproc
 439              	.LFE9:
 440              		.size	CySysWdtGetEnabledStatus, .-CySysWdtGetEnabledStatus
 441              		.section	.text.CySysWdtSetMode,"ax",%progbits
 442              		.align	1
 443              		.global	CySysWdtSetMode
 444              		.code	16
 445              		.thumb_func
 446              		.type	CySysWdtSetMode, %function
 447              	CySysWdtSetMode:
 448              	.LFB10:
1022:Generated_Source\PSoC4/CyLFClk.c **** 
1023:Generated_Source\PSoC4/CyLFClk.c **** 
1024:Generated_Source\PSoC4/CyLFClk.c ****     /*******************************************************************************
1025:Generated_Source\PSoC4/CyLFClk.c ****     * Function Name: CySysWdtSetMode
1026:Generated_Source\PSoC4/CyLFClk.c ****     ****************************************************************************//**
1027:Generated_Source\PSoC4/CyLFClk.c ****     * \brief
1028:Generated_Source\PSoC4/CyLFClk.c ****     * Writes the mode of one of the three WDT counters.
1029:Generated_Source\PSoC4/CyLFClk.c ****     *
1030:Generated_Source\PSoC4/CyLFClk.c ****     * \param counterNum: Valid range [0-2].  The number of the WDT counter.
1031:Generated_Source\PSoC4/CyLFClk.c ****     *
1032:Generated_Source\PSoC4/CyLFClk.c ****     * \param mode
1033:Generated_Source\PSoC4/CyLFClk.c ****     *  CY_SYS_WDT_MODE_NONE - Free running.<br>
1034:Generated_Source\PSoC4/CyLFClk.c ****     * CY_SYS_WDT_MODE_INT - The interrupt generated on match for counter 0
1035:Generated_Source\PSoC4/CyLFClk.c ****     * and 1, and on bit toggle for counter 2.<br>
1036:Generated_Source\PSoC4/CyLFClk.c ****     * CY_SYS_WDT_MODE_RESET - Reset on match (valid for counter 0 and 1 only).<br>
1037:Generated_Source\PSoC4/CyLFClk.c ****     * CY_SYS_WDT_MODE_INT_RESET - Generate an interrupt.  Generate a reset on
1038:Generated_Source\PSoC4/CyLFClk.c ****     * the 3rd non-handled interrupt (valid for counter 0 and counter 1 only).
1039:Generated_Source\PSoC4/CyLFClk.c ****     *
1040:Generated_Source\PSoC4/CyLFClk.c ****     * \details
1041:Generated_Source\PSoC4/CyLFClk.c ****     * WDT counter counterNum should be disabled to set a mode. Otherwise, this
1042:Generated_Source\PSoC4/CyLFClk.c ****     * function call has no effect. If the specified counter is enabled,
1043:Generated_Source\PSoC4/CyLFClk.c ****     * call the CySysWdtDisable() function with the corresponding parameter to
1044:Generated_Source\PSoC4/CyLFClk.c ****     * disable the specified counter and wait for it to stop.
1045:Generated_Source\PSoC4/CyLFClk.c ****     *
1046:Generated_Source\PSoC4/CyLFClk.c ****     *******************************************************************************/
1047:Generated_Source\PSoC4/CyLFClk.c ****     void CySysWdtSetMode(uint32 counterNum, uint32 mode)
1048:Generated_Source\PSoC4/CyLFClk.c ****     {
ARM GAS  C:\Users\g\AppData\Local\Temp\ccelQmmg.s 			page 28


 449              		.loc 1 1048 0
 450              		.cfi_startproc
 451              	.LVL27:
 452 0000 38B5     		push	{r3, r4, r5, lr}
 453              		.cfi_def_cfa_offset 16
 454              		.cfi_offset 3, -16
 455              		.cfi_offset 4, -12
 456              		.cfi_offset 5, -8
 457              		.cfi_offset 14, -4
 458              		.loc 1 1048 0
 459 0002 041C     		mov	r4, r0
 460 0004 0D1C     		mov	r5, r1
1049:Generated_Source\PSoC4/CyLFClk.c ****         uint32 configRegValue;
1050:Generated_Source\PSoC4/CyLFClk.c **** 
1051:Generated_Source\PSoC4/CyLFClk.c ****         CYASSERT(counterNum < CY_SYS_WDT_COUNTERS_MAX);
 461              		.loc 1 1051 0
 462 0006 0228     		cmp	r0, #2
 463 0008 02D9     		bls	.L36
 464              		.loc 1 1051 0 is_stmt 0 discriminator 1
 465 000a 0020     		mov	r0, #0
 466              	.LVL28:
 467 000c FFF7FEFF 		bl	CyHalt
 468              	.LVL29:
 469              	.L36:
1052:Generated_Source\PSoC4/CyLFClk.c **** 
1053:Generated_Source\PSoC4/CyLFClk.c ****         if(0u == CySysWdtGetEnabledStatus(counterNum))
 470              		.loc 1 1053 0 is_stmt 1
 471 0010 201C     		mov	r0, r4
 472 0012 FFF7FEFF 		bl	CySysWdtGetEnabledStatus
 473              	.LVL30:
 474 0016 0028     		cmp	r0, #0
 475 0018 0AD1     		bne	.L35
 476              	.LVL31:
 477              	.LBB4:
 478              	.LBB5:
1054:Generated_Source\PSoC4/CyLFClk.c ****         {
1055:Generated_Source\PSoC4/CyLFClk.c ****             configRegValue = CY_SYS_WDT_CONFIG_REG &
1056:Generated_Source\PSoC4/CyLFClk.c ****                                 (uint32)~((uint32)(CY_SYS_WDT_MODE_MASK << (counterNum * CY_SYS_WDT
 479              		.loc 1 1056 0
 480 001a 0321     		mov	r1, #3
 481 001c 081C     		mov	r0, r1
 482 001e E400     		lsl	r4, r4, #3
 483              	.LVL32:
 484 0020 A040     		lsl	r0, r0, r4
1057:Generated_Source\PSoC4/CyLFClk.c ****             configRegValue |= (uint32)((mode & CY_SYS_WDT_MODE_MASK) << (counterNum * CY_SYS_WDT_CN
 485              		.loc 1 1057 0
 486 0022 2940     		and	r1, r5
 487 0024 A140     		lsl	r1, r1, r4
1055:Generated_Source\PSoC4/CyLFClk.c ****                                 (uint32)~((uint32)(CY_SYS_WDT_MODE_MASK << (counterNum * CY_SYS_WDT
 488              		.loc 1 1055 0
 489 0026 034A     		ldr	r2, .L38
 490 0028 1368     		ldr	r3, [r2]
 491 002a 8343     		bic	r3, r0
 492              	.LVL33:
 493              		.loc 1 1057 0
 494 002c 1943     		orr	r1, r3
 495              	.LVL34:
ARM GAS  C:\Users\g\AppData\Local\Temp\ccelQmmg.s 			page 29


1058:Generated_Source\PSoC4/CyLFClk.c ****             CY_SYS_WDT_CONFIG_REG = configRegValue;
 496              		.loc 1 1058 0
 497 002e 1160     		str	r1, [r2]
 498              	.LVL35:
 499              	.L35:
 500              	.LBE5:
 501              	.LBE4:
1059:Generated_Source\PSoC4/CyLFClk.c ****         }
1060:Generated_Source\PSoC4/CyLFClk.c ****     }
 502              		.loc 1 1060 0
 503              		@ sp needed
 504              	.LVL36:
 505 0030 38BD     		pop	{r3, r4, r5, pc}
 506              	.L39:
 507 0032 C046     		.align	2
 508              	.L38:
 509 0034 0C020B40 		.word	1074463244
 510              		.cfi_endproc
 511              	.LFE10:
 512              		.size	CySysWdtSetMode, .-CySysWdtSetMode
 513              		.section	.text.CySysWdtGetMode,"ax",%progbits
 514              		.align	1
 515              		.global	CySysWdtGetMode
 516              		.code	16
 517              		.thumb_func
 518              		.type	CySysWdtGetMode, %function
 519              	CySysWdtGetMode:
 520              	.LFB11:
1061:Generated_Source\PSoC4/CyLFClk.c **** 
1062:Generated_Source\PSoC4/CyLFClk.c **** 
1063:Generated_Source\PSoC4/CyLFClk.c ****     /*******************************************************************************
1064:Generated_Source\PSoC4/CyLFClk.c ****     * Function Name: CySysWdtGetMode
1065:Generated_Source\PSoC4/CyLFClk.c ****     ****************************************************************************//**
1066:Generated_Source\PSoC4/CyLFClk.c ****     * 
1067:Generated_Source\PSoC4/CyLFClk.c ****     * \brief Reads the mode of one of the three WDT counters.
1068:Generated_Source\PSoC4/CyLFClk.c ****     *
1069:Generated_Source\PSoC4/CyLFClk.c ****     * \param counterNum Valid range [0-2]. The number of the WDT counter.
1070:Generated_Source\PSoC4/CyLFClk.c ****     *
1071:Generated_Source\PSoC4/CyLFClk.c ****     * \return The mode of the counter. The same enumerated values as the mode 
1072:Generated_Source\PSoC4/CyLFClk.c ****     * parameter used in CySysWdtSetMode().
1073:Generated_Source\PSoC4/CyLFClk.c ****     *
1074:Generated_Source\PSoC4/CyLFClk.c ****     *******************************************************************************/
1075:Generated_Source\PSoC4/CyLFClk.c ****     uint32 CySysWdtGetMode(uint32 counterNum)
1076:Generated_Source\PSoC4/CyLFClk.c ****     {
 521              		.loc 1 1076 0
 522              		.cfi_startproc
 523              	.LVL37:
1077:Generated_Source\PSoC4/CyLFClk.c ****         return ((CY_SYS_WDT_CONFIG_REG >> (counterNum * CY_SYS_WDT_CNT_SHIFT)) & CY_SYS_WDT_MODE_MA
 524              		.loc 1 1077 0
 525 0000 034B     		ldr	r3, .L41
 526 0002 C000     		lsl	r0, r0, #3
 527              	.LVL38:
 528 0004 1B68     		ldr	r3, [r3]
1078:Generated_Source\PSoC4/CyLFClk.c ****     }
 529              		.loc 1 1078 0
 530              		@ sp needed
1077:Generated_Source\PSoC4/CyLFClk.c ****         return ((CY_SYS_WDT_CONFIG_REG >> (counterNum * CY_SYS_WDT_CNT_SHIFT)) & CY_SYS_WDT_MODE_MA
ARM GAS  C:\Users\g\AppData\Local\Temp\ccelQmmg.s 			page 30


 531              		.loc 1 1077 0
 532 0006 C340     		lsr	r3, r3, r0
 533 0008 181C     		mov	r0, r3
 534 000a 0323     		mov	r3, #3
 535 000c 1840     		and	r0, r3
 536              		.loc 1 1078 0
 537 000e 7047     		bx	lr
 538              	.L42:
 539              		.align	2
 540              	.L41:
 541 0010 0C020B40 		.word	1074463244
 542              		.cfi_endproc
 543              	.LFE11:
 544              		.size	CySysWdtGetMode, .-CySysWdtGetMode
 545              		.section	.text.CySysWdtSetClearOnMatch,"ax",%progbits
 546              		.align	1
 547              		.global	CySysWdtSetClearOnMatch
 548              		.code	16
 549              		.thumb_func
 550              		.type	CySysWdtSetClearOnMatch, %function
 551              	CySysWdtSetClearOnMatch:
 552              	.LFB12:
1079:Generated_Source\PSoC4/CyLFClk.c **** 
1080:Generated_Source\PSoC4/CyLFClk.c **** 
1081:Generated_Source\PSoC4/CyLFClk.c ****     /*******************************************************************************
1082:Generated_Source\PSoC4/CyLFClk.c ****     * Function Name: CySysWdtSetClearOnMatch
1083:Generated_Source\PSoC4/CyLFClk.c ****     ****************************************************************************//**
1084:Generated_Source\PSoC4/CyLFClk.c ****     * 
1085:Generated_Source\PSoC4/CyLFClk.c ****     * \brief Configures the WDT counter "clear on match" setting.
1086:Generated_Source\PSoC4/CyLFClk.c ****     *
1087:Generated_Source\PSoC4/CyLFClk.c ****     * If configured to "clear on match", the counter counts from 0 to MatchValue
1088:Generated_Source\PSoC4/CyLFClk.c ****     * giving it a period of (MatchValue + 1).
1089:Generated_Source\PSoC4/CyLFClk.c ****     *
1090:Generated_Source\PSoC4/CyLFClk.c ****     * \param counterNum
1091:Generated_Source\PSoC4/CyLFClk.c ****     * Valid range [0-1]. The number of the WDT counter. The match values are not
1092:Generated_Source\PSoC4/CyLFClk.c ****     * supported by counter 2.
1093:Generated_Source\PSoC4/CyLFClk.c ****     *
1094:Generated_Source\PSoC4/CyLFClk.c ****     * \param enable 0 to disable appropriate counter <br>
1095:Generated_Source\PSoC4/CyLFClk.c ****     *  1 to enable appropriate counter
1096:Generated_Source\PSoC4/CyLFClk.c ****     *
1097:Generated_Source\PSoC4/CyLFClk.c ****     * \details
1098:Generated_Source\PSoC4/CyLFClk.c ****     * WDT counter counterNum should be disabled. Otherwise this function call
1099:Generated_Source\PSoC4/CyLFClk.c ****     * has no effect. If the specified counter is enabled, call the CySysWdtDisable()
1100:Generated_Source\PSoC4/CyLFClk.c ****     * function with the corresponding parameter to disable the specified counter and
1101:Generated_Source\PSoC4/CyLFClk.c ****     * wait for it to stop. This may take up to three LFCLK cycles.
1102:Generated_Source\PSoC4/CyLFClk.c ****     *
1103:Generated_Source\PSoC4/CyLFClk.c ****     *******************************************************************************/
1104:Generated_Source\PSoC4/CyLFClk.c ****     void CySysWdtSetClearOnMatch(uint32 counterNum, uint32 enable)
1105:Generated_Source\PSoC4/CyLFClk.c ****     {
 553              		.loc 1 1105 0
 554              		.cfi_startproc
 555              	.LVL39:
 556 0000 38B5     		push	{r3, r4, r5, lr}
 557              		.cfi_def_cfa_offset 16
 558              		.cfi_offset 3, -16
 559              		.cfi_offset 4, -12
 560              		.cfi_offset 5, -8
ARM GAS  C:\Users\g\AppData\Local\Temp\ccelQmmg.s 			page 31


 561              		.cfi_offset 14, -4
 562              		.loc 1 1105 0
 563 0002 041C     		mov	r4, r0
 564 0004 0D1C     		mov	r5, r1
1106:Generated_Source\PSoC4/CyLFClk.c ****         uint32 configRegValue;
1107:Generated_Source\PSoC4/CyLFClk.c **** 
1108:Generated_Source\PSoC4/CyLFClk.c ****         CYASSERT((counterNum == CY_SYS_WDT_COUNTER0) ||
 565              		.loc 1 1108 0
 566 0006 0128     		cmp	r0, #1
 567 0008 02D9     		bls	.L44
 568              		.loc 1 1108 0 is_stmt 0 discriminator 1
 569 000a 0020     		mov	r0, #0
 570              	.LVL40:
 571 000c FFF7FEFF 		bl	CyHalt
 572              	.LVL41:
 573              	.L44:
1109:Generated_Source\PSoC4/CyLFClk.c ****                  (counterNum == CY_SYS_WDT_COUNTER1));
1110:Generated_Source\PSoC4/CyLFClk.c **** 
1111:Generated_Source\PSoC4/CyLFClk.c ****         if(0u == CySysWdtGetEnabledStatus(counterNum))
 574              		.loc 1 1111 0 is_stmt 1
 575 0010 201C     		mov	r0, r4
 576 0012 FFF7FEFF 		bl	CySysWdtGetEnabledStatus
 577              	.LVL42:
 578 0016 0028     		cmp	r0, #0
 579 0018 0AD1     		bne	.L43
1112:Generated_Source\PSoC4/CyLFClk.c ****         {
1113:Generated_Source\PSoC4/CyLFClk.c ****             configRegValue = CY_SYS_WDT_CONFIG_REG & (uint32)~((uint32)((uint32)1u << 
1114:Generated_Source\PSoC4/CyLFClk.c ****                                      ((counterNum * CY_SYS_WDT_CNT_SHIFT) + CY_SYS_WDT_CNT_MATCH_CL
 580              		.loc 1 1114 0
 581 001a E400     		lsl	r4, r4, #3
 582              	.LVL43:
 583 001c 0234     		add	r4, r4, #2
1113:Generated_Source\PSoC4/CyLFClk.c ****                                      ((counterNum * CY_SYS_WDT_CNT_SHIFT) + CY_SYS_WDT_CNT_MATCH_CL
 584              		.loc 1 1113 0
 585 001e 0121     		mov	r1, #1
1115:Generated_Source\PSoC4/CyLFClk.c **** 
1116:Generated_Source\PSoC4/CyLFClk.c ****             configRegValue
1117:Generated_Source\PSoC4/CyLFClk.c ****                 |= (uint32)(enable << ((counterNum * CY_SYS_WDT_CNT_SHIFT) + CY_SYS_WDT_CNT_MATCH_C
 586              		.loc 1 1117 0
 587 0020 A540     		lsl	r5, r5, r4
 588              	.LVL44:
1113:Generated_Source\PSoC4/CyLFClk.c ****                                      ((counterNum * CY_SYS_WDT_CNT_SHIFT) + CY_SYS_WDT_CNT_MATCH_CL
 589              		.loc 1 1113 0
 590 0022 A140     		lsl	r1, r1, r4
 591              		.loc 1 1117 0
 592 0024 2C1C     		mov	r4, r5
1113:Generated_Source\PSoC4/CyLFClk.c ****                                      ((counterNum * CY_SYS_WDT_CNT_SHIFT) + CY_SYS_WDT_CNT_MATCH_CL
 593              		.loc 1 1113 0
 594 0026 034A     		ldr	r2, .L46
 595 0028 1368     		ldr	r3, [r2]
 596 002a 8B43     		bic	r3, r1
 597              	.LVL45:
 598              		.loc 1 1117 0
 599 002c 1C43     		orr	r4, r3
 600              	.LVL46:
1118:Generated_Source\PSoC4/CyLFClk.c **** 
1119:Generated_Source\PSoC4/CyLFClk.c ****             CY_SYS_WDT_CONFIG_REG = configRegValue;
ARM GAS  C:\Users\g\AppData\Local\Temp\ccelQmmg.s 			page 32


 601              		.loc 1 1119 0
 602 002e 1460     		str	r4, [r2]
 603              	.LVL47:
 604              	.L43:
1120:Generated_Source\PSoC4/CyLFClk.c ****         }
1121:Generated_Source\PSoC4/CyLFClk.c ****     }
 605              		.loc 1 1121 0
 606              		@ sp needed
 607 0030 38BD     		pop	{r3, r4, r5, pc}
 608              	.L47:
 609 0032 C046     		.align	2
 610              	.L46:
 611 0034 0C020B40 		.word	1074463244
 612              		.cfi_endproc
 613              	.LFE12:
 614              		.size	CySysWdtSetClearOnMatch, .-CySysWdtSetClearOnMatch
 615              		.section	.text.CySysWdtGetClearOnMatch,"ax",%progbits
 616              		.align	1
 617              		.global	CySysWdtGetClearOnMatch
 618              		.code	16
 619              		.thumb_func
 620              		.type	CySysWdtGetClearOnMatch, %function
 621              	CySysWdtGetClearOnMatch:
 622              	.LFB13:
1122:Generated_Source\PSoC4/CyLFClk.c **** 
1123:Generated_Source\PSoC4/CyLFClk.c **** 
1124:Generated_Source\PSoC4/CyLFClk.c ****     /*******************************************************************************
1125:Generated_Source\PSoC4/CyLFClk.c ****     * Function Name: CySysWdtGetClearOnMatch
1126:Generated_Source\PSoC4/CyLFClk.c ****     ****************************************************************************//**
1127:Generated_Source\PSoC4/CyLFClk.c ****     * \brief
1128:Generated_Source\PSoC4/CyLFClk.c ****     * Reads the "clear on match" setting for the specified counter.
1129:Generated_Source\PSoC4/CyLFClk.c ****     *
1130:Generated_Source\PSoC4/CyLFClk.c ****     * \param
1131:Generated_Source\PSoC4/CyLFClk.c ****     * counterNum Valid range [0-1]. The number of the WDT counter. The match values
1132:Generated_Source\PSoC4/CyLFClk.c ****     * are not supported by counter 2.
1133:Generated_Source\PSoC4/CyLFClk.c ****     *
1134:Generated_Source\PSoC4/CyLFClk.c ****     * \return The "clear on match" status: <br>1 if enabled <br>0 if disabled
1135:Generated_Source\PSoC4/CyLFClk.c ****     *
1136:Generated_Source\PSoC4/CyLFClk.c ****     *******************************************************************************/
1137:Generated_Source\PSoC4/CyLFClk.c ****     uint32 CySysWdtGetClearOnMatch(uint32 counterNum)
1138:Generated_Source\PSoC4/CyLFClk.c ****     {
 623              		.loc 1 1138 0
 624              		.cfi_startproc
 625              	.LVL48:
 626 0000 10B5     		push	{r4, lr}
 627              		.cfi_def_cfa_offset 8
 628              		.cfi_offset 4, -8
 629              		.cfi_offset 14, -4
 630              		.loc 1 1138 0
 631 0002 041E     		sub	r4, r0, #0
1139:Generated_Source\PSoC4/CyLFClk.c ****         CYASSERT((counterNum == CY_SYS_WDT_COUNTER0) ||
 632              		.loc 1 1139 0
 633 0004 012C     		cmp	r4, #1
 634 0006 02D9     		bls	.L49
 635              		.loc 1 1139 0 is_stmt 0 discriminator 1
 636 0008 0020     		mov	r0, #0
 637              	.LVL49:
ARM GAS  C:\Users\g\AppData\Local\Temp\ccelQmmg.s 			page 33


 638 000a FFF7FEFF 		bl	CyHalt
 639              	.LVL50:
 640              	.L49:
1140:Generated_Source\PSoC4/CyLFClk.c ****                  (counterNum == CY_SYS_WDT_COUNTER1));
1141:Generated_Source\PSoC4/CyLFClk.c **** 
1142:Generated_Source\PSoC4/CyLFClk.c ****         return (uint32)((CY_SYS_WDT_CONFIG_REG >>
 641              		.loc 1 1142 0 is_stmt 1
 642 000e 044B     		ldr	r3, .L50
1143:Generated_Source\PSoC4/CyLFClk.c ****                         ((counterNum * CY_SYS_WDT_CNT_SHIFT) + CY_SYS_WDT_CNT_MATCH_CLR_SHIFT)) & 0
 643              		.loc 1 1143 0
 644 0010 E400     		lsl	r4, r4, #3
 645              	.LVL51:
1142:Generated_Source\PSoC4/CyLFClk.c ****                         ((counterNum * CY_SYS_WDT_CNT_SHIFT) + CY_SYS_WDT_CNT_MATCH_CLR_SHIFT)) & 0
 646              		.loc 1 1142 0
 647 0012 1868     		ldr	r0, [r3]
 648              		.loc 1 1143 0
 649 0014 0234     		add	r4, r4, #2
1142:Generated_Source\PSoC4/CyLFClk.c ****                         ((counterNum * CY_SYS_WDT_CNT_SHIFT) + CY_SYS_WDT_CNT_MATCH_CLR_SHIFT)) & 0
 650              		.loc 1 1142 0
 651 0016 E040     		lsr	r0, r0, r4
 652 0018 0123     		mov	r3, #1
1144:Generated_Source\PSoC4/CyLFClk.c ****     }
 653              		.loc 1 1144 0
 654              		@ sp needed
1142:Generated_Source\PSoC4/CyLFClk.c ****                         ((counterNum * CY_SYS_WDT_CNT_SHIFT) + CY_SYS_WDT_CNT_MATCH_CLR_SHIFT)) & 0
 655              		.loc 1 1142 0
 656 001a 1840     		and	r0, r3
 657              		.loc 1 1144 0
 658 001c 10BD     		pop	{r4, pc}
 659              	.L51:
 660 001e C046     		.align	2
 661              	.L50:
 662 0020 0C020B40 		.word	1074463244
 663              		.cfi_endproc
 664              	.LFE13:
 665              		.size	CySysWdtGetClearOnMatch, .-CySysWdtGetClearOnMatch
 666              		.section	.text.CySysWdtEnable,"ax",%progbits
 667              		.align	1
 668              		.global	CySysWdtEnable
 669              		.code	16
 670              		.thumb_func
 671              		.type	CySysWdtEnable, %function
 672              	CySysWdtEnable:
 673              	.LFB14:
1145:Generated_Source\PSoC4/CyLFClk.c **** 
1146:Generated_Source\PSoC4/CyLFClk.c **** 
1147:Generated_Source\PSoC4/CyLFClk.c ****     /*******************************************************************************
1148:Generated_Source\PSoC4/CyLFClk.c ****     * Function Name: CySysWdtEnable
1149:Generated_Source\PSoC4/CyLFClk.c ****     ****************************************************************************//**
1150:Generated_Source\PSoC4/CyLFClk.c ****     *
1151:Generated_Source\PSoC4/CyLFClk.c ****     * \brief Enables the specified WDT counters.
1152:Generated_Source\PSoC4/CyLFClk.c ****     *
1153:Generated_Source\PSoC4/CyLFClk.c ****     * All the counters specified in the mask are enabled.
1154:Generated_Source\PSoC4/CyLFClk.c ****     *
1155:Generated_Source\PSoC4/CyLFClk.c ****     * \param counterMask
1156:Generated_Source\PSoC4/CyLFClk.c ****     *  CY_SYS_WDT_COUNTER0_MASK - The mask for counter 0 to enable.<br>
1157:Generated_Source\PSoC4/CyLFClk.c ****     * CY_SYS_WDT_COUNTER1_MASK - The mask for counter 1 to enable.<br>
ARM GAS  C:\Users\g\AppData\Local\Temp\ccelQmmg.s 			page 34


1158:Generated_Source\PSoC4/CyLFClk.c ****     * CY_SYS_WDT_COUNTER2_MASK - The mask for counter 2 to enable.
1159:Generated_Source\PSoC4/CyLFClk.c ****     *
1160:Generated_Source\PSoC4/CyLFClk.c ****     * \details
1161:Generated_Source\PSoC4/CyLFClk.c ****     * Enabling or disabling WDT requires 3 LFCLK cycles to come into effect.
1162:Generated_Source\PSoC4/CyLFClk.c ****     * Therefore, the WDT enable state must not be changed more than once in
1163:Generated_Source\PSoC4/CyLFClk.c ****     * that period.
1164:Generated_Source\PSoC4/CyLFClk.c ****     *
1165:Generated_Source\PSoC4/CyLFClk.c ****     * After WDT is enabled, it is illegal to write WDT configuration (WDT_CONFIG)
1166:Generated_Source\PSoC4/CyLFClk.c ****     * and control (WDT_CONTROL) registers. This means that all WDT functions that
1167:Generated_Source\PSoC4/CyLFClk.c ****     * contain 'write' in the name (with the exception of CySysWdtSetMatch()
1168:Generated_Source\PSoC4/CyLFClk.c ****     * function) are illegal to call if WDT is enabled.
1169:Generated_Source\PSoC4/CyLFClk.c ****     *
1170:Generated_Source\PSoC4/CyLFClk.c ****     * PSoC 4100 / PSoC 4200: This function enables ILO.
1171:Generated_Source\PSoC4/CyLFClk.c ****     *
1172:Generated_Source\PSoC4/CyLFClk.c ****     * PSoC 4100 BLE / PSoC 4200 BLE / PSoC4200L / PSoC 4100M 
1173:Generated_Source\PSoC4/CyLFClk.c ****     * / PSoC 4200M:
1174:Generated_Source\PSoC4/CyLFClk.c ****     * LFLCK should be configured before calling this function. The desired
1175:Generated_Source\PSoC4/CyLFClk.c ****     * source should be enabled and configured to be the source for LFCLK.
1176:Generated_Source\PSoC4/CyLFClk.c ****     *
1177:Generated_Source\PSoC4/CyLFClk.c ****     *******************************************************************************/
1178:Generated_Source\PSoC4/CyLFClk.c ****     void CySysWdtEnable(uint32 counterMask)
1179:Generated_Source\PSoC4/CyLFClk.c ****     {
 674              		.loc 1 1179 0
 675              		.cfi_startproc
 676              	.LVL52:
 677 0000 10B5     		push	{r4, lr}
 678              		.cfi_def_cfa_offset 8
 679              		.cfi_offset 4, -8
 680              		.cfi_offset 14, -4
 681              		.loc 1 1179 0
 682 0002 041C     		mov	r4, r0
1180:Generated_Source\PSoC4/CyLFClk.c ****         #if (!CY_IP_WCO)
1181:Generated_Source\PSoC4/CyLFClk.c ****             CySysClkIloStart();
 683              		.loc 1 1181 0
 684 0004 FFF7FEFF 		bl	CySysClkIloStart
 685              	.LVL53:
1182:Generated_Source\PSoC4/CyLFClk.c ****         #endif /* (!CY_IP_WCO) */
1183:Generated_Source\PSoC4/CyLFClk.c **** 
1184:Generated_Source\PSoC4/CyLFClk.c ****         CY_SYS_WDT_CONTROL_REG |= counterMask;
 686              		.loc 1 1184 0
 687 0008 094B     		ldr	r3, .L71
 688 000a 1A68     		ldr	r2, [r3]
 689 000c 2243     		orr	r2, r4
 690 000e 1A60     		str	r2, [r3]
1185:Generated_Source\PSoC4/CyLFClk.c **** 
1186:Generated_Source\PSoC4/CyLFClk.c ****         if(0u != (counterMask & CY_SYS_WDT_COUNTER0_MASK))
 691              		.loc 1 1186 0
 692 0010 E207     		lsl	r2, r4, #31
 693 0012 02D5     		bpl	.L53
 694              	.L54:
 695              	.LVL54:
 696              	.LBB14:
 697              	.LBB15:
1020:Generated_Source\PSoC4/CyLFClk.c ****     }
 698              		.loc 1 1020 0 discriminator 1
 699 0014 1A68     		ldr	r2, [r3]
 700              	.LBE15:
ARM GAS  C:\Users\g\AppData\Local\Temp\ccelQmmg.s 			page 35


 701              	.LBE14:
1187:Generated_Source\PSoC4/CyLFClk.c ****         {
1188:Generated_Source\PSoC4/CyLFClk.c ****             while (0u == CySysWdtGetEnabledStatus(CY_SYS_WDT_COUNTER0))
 702              		.loc 1 1188 0 discriminator 1
 703 0016 9207     		lsl	r2, r2, #30
 704 0018 FCD5     		bpl	.L54
 705              	.LVL55:
 706              	.L53:
1189:Generated_Source\PSoC4/CyLFClk.c ****             {
1190:Generated_Source\PSoC4/CyLFClk.c ****                 /* Wait for changes to come into effect */
1191:Generated_Source\PSoC4/CyLFClk.c ****             }
1192:Generated_Source\PSoC4/CyLFClk.c ****         }
1193:Generated_Source\PSoC4/CyLFClk.c **** 
1194:Generated_Source\PSoC4/CyLFClk.c ****         if(0u != (counterMask & CY_SYS_WDT_COUNTER1_MASK))
 707              		.loc 1 1194 0
 708 001a E205     		lsl	r2, r4, #23
 709 001c 02D5     		bpl	.L55
 710              	.L56:
 711              	.LVL56:
 712              	.LBB16:
 713              	.LBB17:
1020:Generated_Source\PSoC4/CyLFClk.c ****     }
 714              		.loc 1 1020 0 discriminator 1
 715 001e 1A68     		ldr	r2, [r3]
 716              	.LBE17:
 717              	.LBE16:
1195:Generated_Source\PSoC4/CyLFClk.c ****         {
1196:Generated_Source\PSoC4/CyLFClk.c ****             while (0u == CySysWdtGetEnabledStatus(CY_SYS_WDT_COUNTER1))
 718              		.loc 1 1196 0 discriminator 1
 719 0020 9205     		lsl	r2, r2, #22
 720 0022 FCD5     		bpl	.L56
 721              	.LVL57:
 722              	.L55:
1197:Generated_Source\PSoC4/CyLFClk.c ****             {
1198:Generated_Source\PSoC4/CyLFClk.c ****                 /* Wait for changes to come into effect */
1199:Generated_Source\PSoC4/CyLFClk.c ****             }
1200:Generated_Source\PSoC4/CyLFClk.c ****         }
1201:Generated_Source\PSoC4/CyLFClk.c **** 
1202:Generated_Source\PSoC4/CyLFClk.c ****         if(0u != (counterMask & CY_SYS_WDT_COUNTER2_MASK))
 723              		.loc 1 1202 0
 724 0024 E203     		lsl	r2, r4, #15
 725 0026 02D5     		bpl	.L52
 726              	.L58:
 727              	.LVL58:
 728              	.LBB18:
 729              	.LBB19:
 730              	.LBB20:
 731              	.LBB21:
1020:Generated_Source\PSoC4/CyLFClk.c ****     }
 732              		.loc 1 1020 0
 733 0028 1A68     		ldr	r2, [r3]
 734              	.LBE21:
 735              	.LBE20:
1203:Generated_Source\PSoC4/CyLFClk.c ****         {
1204:Generated_Source\PSoC4/CyLFClk.c ****             while (0u == CySysWdtGetEnabledStatus(CY_SYS_WDT_COUNTER2))
 736              		.loc 1 1204 0
 737 002a 9203     		lsl	r2, r2, #14
ARM GAS  C:\Users\g\AppData\Local\Temp\ccelQmmg.s 			page 36


 738 002c FCD5     		bpl	.L58
 739              	.LVL59:
 740              	.L52:
 741              	.LBE19:
 742              	.LBE18:
1205:Generated_Source\PSoC4/CyLFClk.c ****             {
1206:Generated_Source\PSoC4/CyLFClk.c ****                 /* Wait for changes to come into effect */
1207:Generated_Source\PSoC4/CyLFClk.c ****             }
1208:Generated_Source\PSoC4/CyLFClk.c ****         }
1209:Generated_Source\PSoC4/CyLFClk.c ****     }
 743              		.loc 1 1209 0
 744              		@ sp needed
 745              	.LVL60:
 746 002e 10BD     		pop	{r4, pc}
 747              	.L72:
 748              		.align	2
 749              	.L71:
 750 0030 10020B40 		.word	1074463248
 751              		.cfi_endproc
 752              	.LFE14:
 753              		.size	CySysWdtEnable, .-CySysWdtEnable
 754              		.section	.text.CySysWdtDisable,"ax",%progbits
 755              		.align	1
 756              		.global	CySysWdtDisable
 757              		.code	16
 758              		.thumb_func
 759              		.type	CySysWdtDisable, %function
 760              	CySysWdtDisable:
 761              	.LFB15:
1210:Generated_Source\PSoC4/CyLFClk.c **** 
1211:Generated_Source\PSoC4/CyLFClk.c **** 
1212:Generated_Source\PSoC4/CyLFClk.c ****     /*******************************************************************************
1213:Generated_Source\PSoC4/CyLFClk.c ****     * Function Name: CySysWdtDisable
1214:Generated_Source\PSoC4/CyLFClk.c ****     ****************************************************************************//**
1215:Generated_Source\PSoC4/CyLFClk.c ****     *
1216:Generated_Source\PSoC4/CyLFClk.c ****     * \brief Disables the specified WDT counters.
1217:Generated_Source\PSoC4/CyLFClk.c ****     * All the counters specified in the mask are disabled. The function waits for 
1218:Generated_Source\PSoC4/CyLFClk.c ****     * the changes to come into effect.
1219:Generated_Source\PSoC4/CyLFClk.c ****     *
1220:Generated_Source\PSoC4/CyLFClk.c ****     * \param counterMask
1221:Generated_Source\PSoC4/CyLFClk.c ****     * CY_SYS_WDT_COUNTER0_MASK - The mask for counter 0 to disable. <br>
1222:Generated_Source\PSoC4/CyLFClk.c ****     * CY_SYS_WDT_COUNTER1_MASK - The mask for counter 1 to disable. <br>
1223:Generated_Source\PSoC4/CyLFClk.c ****     * CY_SYS_WDT_COUNTER2_MASK - The mask for counter 2 to disable.
1224:Generated_Source\PSoC4/CyLFClk.c ****     *
1225:Generated_Source\PSoC4/CyLFClk.c ****     *******************************************************************************/
1226:Generated_Source\PSoC4/CyLFClk.c ****     void CySysWdtDisable(uint32 counterMask)
1227:Generated_Source\PSoC4/CyLFClk.c ****     {
 762              		.loc 1 1227 0
 763              		.cfi_startproc
 764              	.LVL61:
 765              	.LBB30:
 766              	.LBB31:
 972:Generated_Source\PSoC4/CyLFClk.c ****     }
 767              		.loc 1 972 0
 768 0000 0C4B     		ldr	r3, .L87
 769 0002 1A68     		ldr	r2, [r3]
 770 0004 C023     		mov	r3, #192
ARM GAS  C:\Users\g\AppData\Local\Temp\ccelQmmg.s 			page 37


 771 0006 1B02     		lsl	r3, r3, #8
 772 0008 1A42     		tst	r2, r3
 773 000a 12D1     		bne	.L73
 774              	.LBE31:
 775              	.LBE30:
1228:Generated_Source\PSoC4/CyLFClk.c ****         if (0uL == CySysWdtLocked())
1229:Generated_Source\PSoC4/CyLFClk.c ****         {
1230:Generated_Source\PSoC4/CyLFClk.c ****             CY_SYS_WDT_CONTROL_REG &= ~counterMask;
 776              		.loc 1 1230 0
 777 000c 0A4B     		ldr	r3, .L87+4
 778 000e 1A68     		ldr	r2, [r3]
 779 0010 8243     		bic	r2, r0
 780 0012 1A60     		str	r2, [r3]
1231:Generated_Source\PSoC4/CyLFClk.c **** 
1232:Generated_Source\PSoC4/CyLFClk.c ****             if(0u != (counterMask & CY_SYS_WDT_COUNTER0_MASK))
 781              		.loc 1 1232 0
 782 0014 C207     		lsl	r2, r0, #31
 783 0016 02D5     		bpl	.L80
 784              	.L75:
 785              	.LVL62:
 786              	.LBB32:
 787              	.LBB33:
1020:Generated_Source\PSoC4/CyLFClk.c ****     }
 788              		.loc 1 1020 0 discriminator 1
 789 0018 1A68     		ldr	r2, [r3]
 790              	.LBE33:
 791              	.LBE32:
1233:Generated_Source\PSoC4/CyLFClk.c ****             {
1234:Generated_Source\PSoC4/CyLFClk.c ****                 while (0u != CySysWdtGetEnabledStatus(CY_SYS_WDT_COUNTER0))
 792              		.loc 1 1234 0 discriminator 1
 793 001a 9207     		lsl	r2, r2, #30
 794 001c FCD4     		bmi	.L75
 795              	.LVL63:
 796              	.L80:
1235:Generated_Source\PSoC4/CyLFClk.c ****                 {
1236:Generated_Source\PSoC4/CyLFClk.c ****                     /* Wait for changes to come into effect */
1237:Generated_Source\PSoC4/CyLFClk.c ****                 }
1238:Generated_Source\PSoC4/CyLFClk.c ****             }
1239:Generated_Source\PSoC4/CyLFClk.c **** 
1240:Generated_Source\PSoC4/CyLFClk.c ****             if(0u != (counterMask & CY_SYS_WDT_COUNTER1_MASK))
 797              		.loc 1 1240 0
 798 001e C205     		lsl	r2, r0, #23
 799 0020 02D5     		bpl	.L76
 800              	.L77:
 801              	.LVL64:
 802              	.LBB34:
 803              	.LBB35:
1020:Generated_Source\PSoC4/CyLFClk.c ****     }
 804              		.loc 1 1020 0 discriminator 1
 805 0022 1A68     		ldr	r2, [r3]
 806              	.LBE35:
 807              	.LBE34:
1241:Generated_Source\PSoC4/CyLFClk.c ****             {
1242:Generated_Source\PSoC4/CyLFClk.c ****                 while (0u != CySysWdtGetEnabledStatus(CY_SYS_WDT_COUNTER1))
 808              		.loc 1 1242 0 discriminator 1
 809 0024 9205     		lsl	r2, r2, #22
 810 0026 FCD4     		bmi	.L77
ARM GAS  C:\Users\g\AppData\Local\Temp\ccelQmmg.s 			page 38


 811              	.LVL65:
 812              	.L76:
1243:Generated_Source\PSoC4/CyLFClk.c ****                 {
1244:Generated_Source\PSoC4/CyLFClk.c ****                     /* Wait for changes to come into effect */
1245:Generated_Source\PSoC4/CyLFClk.c ****                 }
1246:Generated_Source\PSoC4/CyLFClk.c ****             }
1247:Generated_Source\PSoC4/CyLFClk.c **** 
1248:Generated_Source\PSoC4/CyLFClk.c ****             if(0u != (counterMask & CY_SYS_WDT_COUNTER2_MASK))
 813              		.loc 1 1248 0
 814 0028 C203     		lsl	r2, r0, #15
 815 002a 02D5     		bpl	.L73
 816              	.L79:
 817              	.LVL66:
 818              	.LBB36:
 819              	.LBB37:
1020:Generated_Source\PSoC4/CyLFClk.c ****     }
 820              		.loc 1 1020 0 discriminator 1
 821 002c 1A68     		ldr	r2, [r3]
 822              	.LBE37:
 823              	.LBE36:
1249:Generated_Source\PSoC4/CyLFClk.c ****             {
1250:Generated_Source\PSoC4/CyLFClk.c ****                 while (0u != CySysWdtGetEnabledStatus(CY_SYS_WDT_COUNTER2))
 824              		.loc 1 1250 0 discriminator 1
 825 002e 9203     		lsl	r2, r2, #14
 826 0030 FCD4     		bmi	.L79
 827              	.LVL67:
 828              	.L73:
1251:Generated_Source\PSoC4/CyLFClk.c ****                 {
1252:Generated_Source\PSoC4/CyLFClk.c ****                     /* Wait for changes to come into effect */
1253:Generated_Source\PSoC4/CyLFClk.c ****                 }
1254:Generated_Source\PSoC4/CyLFClk.c ****             }
1255:Generated_Source\PSoC4/CyLFClk.c ****         }
1256:Generated_Source\PSoC4/CyLFClk.c ****     }
 829              		.loc 1 1256 0
 830              		@ sp needed
 831 0032 7047     		bx	lr
 832              	.L88:
 833              		.align	2
 834              	.L87:
 835 0034 00010B40 		.word	1074462976
 836 0038 10020B40 		.word	1074463248
 837              		.cfi_endproc
 838              	.LFE15:
 839              		.size	CySysWdtDisable, .-CySysWdtDisable
 840              		.section	.text.CySysWdtSetCascade,"ax",%progbits
 841              		.align	1
 842              		.global	CySysWdtSetCascade
 843              		.code	16
 844              		.thumb_func
 845              		.type	CySysWdtSetCascade, %function
 846              	CySysWdtSetCascade:
 847              	.LFB16:
1257:Generated_Source\PSoC4/CyLFClk.c **** 
1258:Generated_Source\PSoC4/CyLFClk.c **** 
1259:Generated_Source\PSoC4/CyLFClk.c ****     /*******************************************************************************
1260:Generated_Source\PSoC4/CyLFClk.c ****     * Function Name: CySysWdtSetCascade
1261:Generated_Source\PSoC4/CyLFClk.c ****     ****************************************************************************//**
ARM GAS  C:\Users\g\AppData\Local\Temp\ccelQmmg.s 			page 39


1262:Generated_Source\PSoC4/CyLFClk.c ****     * \brief
1263:Generated_Source\PSoC4/CyLFClk.c ****     * Writes the two WDT cascade values based on the combination of mask values
1264:Generated_Source\PSoC4/CyLFClk.c ****     * specified.
1265:Generated_Source\PSoC4/CyLFClk.c ****     *
1266:Generated_Source\PSoC4/CyLFClk.c ****     * \param cascadeMask The mask value used to set or clear the cascade values:
1267:Generated_Source\PSoC4/CyLFClk.c ****     * CY_SYS_WDT_CASCADE_NONE - Neither <br>
1268:Generated_Source\PSoC4/CyLFClk.c ****     * CY_SYS_WDT_CASCADE_01 - Cascade 01 <br>
1269:Generated_Source\PSoC4/CyLFClk.c ****     * CY_SYS_WDT_CASCADE_12 - Cascade 12
1270:Generated_Source\PSoC4/CyLFClk.c ****     *
1271:Generated_Source\PSoC4/CyLFClk.c ****     * If only one cascade mask is specified, the second cascade is disabled.
1272:Generated_Source\PSoC4/CyLFClk.c ****     * To set both cascade modes, two defines should be ORed:
1273:Generated_Source\PSoC4/CyLFClk.c ****     * (CY_SYS_TIMER_CASCADE_01 | CY_SYS_TIMER_CASCADE_12).
1274:Generated_Source\PSoC4/CyLFClk.c ****     * \note If CySysWdtSetCascade() was called with ORed defines it is necessary 
1275:Generated_Source\PSoC4/CyLFClk.c ****     * to call CySysWdtSetClearOnMatch(1,1). It is needed to make sure that 
1276:Generated_Source\PSoC4/CyLFClk.c ****     * Counter 2 will be updated in the expected way.
1277:Generated_Source\PSoC4/CyLFClk.c ****     *
1278:Generated_Source\PSoC4/CyLFClk.c ****     * WDT counters that are part of the specified cascade should be disabled.
1279:Generated_Source\PSoC4/CyLFClk.c ****     * Otherwise this function call has no effect. If the specified
1280:Generated_Source\PSoC4/CyLFClk.c ****     * counter is enabled, call CySysWdtDisable() function with the corresponding
1281:Generated_Source\PSoC4/CyLFClk.c ****     * parameter to disable the specified counter and wait for it to stop. This may
1282:Generated_Source\PSoC4/CyLFClk.c ****     * take up to 3 LFCLK cycles.
1283:Generated_Source\PSoC4/CyLFClk.c ****     *
1284:Generated_Source\PSoC4/CyLFClk.c ****     *******************************************************************************/
1285:Generated_Source\PSoC4/CyLFClk.c ****     void CySysWdtSetCascade(uint32 cascadeMask)
1286:Generated_Source\PSoC4/CyLFClk.c ****     {
 848              		.loc 1 1286 0
 849              		.cfi_startproc
 850              	.LVL68:
 851              	.LBB44:
 852              	.LBB45:
1020:Generated_Source\PSoC4/CyLFClk.c ****     }
 853              		.loc 1 1020 0
 854 0000 094A     		ldr	r2, .L91
 855              	.LBE45:
 856              	.LBE44:
 857              		.loc 1 1286 0
 858 0002 10B5     		push	{r4, lr}
 859              		.cfi_def_cfa_offset 8
 860              		.cfi_offset 4, -8
 861              		.cfi_offset 14, -4
 862              	.LBB48:
 863              	.LBB46:
1020:Generated_Source\PSoC4/CyLFClk.c ****     }
 864              		.loc 1 1020 0
 865 0004 1168     		ldr	r1, [r2]
 866              	.LVL69:
 867              	.LBE46:
 868              	.LBE48:
 869              	.LBB49:
 870              	.LBB50:
 871 0006 1368     		ldr	r3, [r2]
 872              	.LVL70:
 873              	.LBE50:
 874              	.LBE49:
 875              	.LBB52:
 876              	.LBB53:
 877 0008 1268     		ldr	r2, [r2]
ARM GAS  C:\Users\g\AppData\Local\Temp\ccelQmmg.s 			page 40


 878              	.LVL71:
 879              	.LBE53:
 880              	.LBE52:
 881              	.LBB55:
 882              	.LBB51:
 883 000a 5C0A     		lsr	r4, r3, #9
 884              	.LBE51:
 885              	.LBE55:
 886              	.LBB56:
 887              	.LBB47:
 888 000c 4B08     		lsr	r3, r1, #1
 889              	.LVL72:
 890              	.LBE47:
 891              	.LBE56:
1287:Generated_Source\PSoC4/CyLFClk.c ****         uint32 configRegValue;
1288:Generated_Source\PSoC4/CyLFClk.c ****         uint32 countersEnableStatus;
1289:Generated_Source\PSoC4/CyLFClk.c **** 
1290:Generated_Source\PSoC4/CyLFClk.c ****         countersEnableStatus = CySysWdtGetEnabledStatus(CY_SYS_WDT_COUNTER0) |
 892              		.loc 1 1290 0
 893 000e 2343     		orr	r3, r4
 894              	.LBB57:
 895              	.LBB54:
1020:Generated_Source\PSoC4/CyLFClk.c ****     }
 896              		.loc 1 1020 0
 897 0010 520C     		lsr	r2, r2, #17
 898              	.LBE54:
 899              	.LBE57:
 900              		.loc 1 1290 0
 901 0012 1343     		orr	r3, r2
1291:Generated_Source\PSoC4/CyLFClk.c ****                             CySysWdtGetEnabledStatus(CY_SYS_WDT_COUNTER1) |
1292:Generated_Source\PSoC4/CyLFClk.c ****                             CySysWdtGetEnabledStatus(CY_SYS_WDT_COUNTER2);
1293:Generated_Source\PSoC4/CyLFClk.c **** 
1294:Generated_Source\PSoC4/CyLFClk.c ****         if (0u == countersEnableStatus)
 902              		.loc 1 1294 0
 903 0014 DB07     		lsl	r3, r3, #31
 904 0016 05D4     		bmi	.L89
1295:Generated_Source\PSoC4/CyLFClk.c ****         {
1296:Generated_Source\PSoC4/CyLFClk.c ****             configRegValue = CY_SYS_WDT_CONFIG_REG;
 905              		.loc 1 1296 0
 906 0018 044A     		ldr	r2, .L91+4
1297:Generated_Source\PSoC4/CyLFClk.c ****             configRegValue &= ((uint32)(~(CY_SYS_WDT_CASCADE_01|CY_SYS_WDT_CASCADE_12)));
 907              		.loc 1 1297 0
 908 001a 054B     		ldr	r3, .L91+8
1296:Generated_Source\PSoC4/CyLFClk.c ****             configRegValue &= ((uint32)(~(CY_SYS_WDT_CASCADE_01|CY_SYS_WDT_CASCADE_12)));
 909              		.loc 1 1296 0
 910 001c 1168     		ldr	r1, [r2]
 911              	.LVL73:
 912              		.loc 1 1297 0
 913 001e 0B40     		and	r3, r1
 914              	.LVL74:
1298:Generated_Source\PSoC4/CyLFClk.c ****             configRegValue |= cascadeMask;
 915              		.loc 1 1298 0
 916 0020 1843     		orr	r0, r3
 917              	.LVL75:
1299:Generated_Source\PSoC4/CyLFClk.c ****             CY_SYS_WDT_CONFIG_REG = configRegValue;
 918              		.loc 1 1299 0
 919 0022 1060     		str	r0, [r2]
ARM GAS  C:\Users\g\AppData\Local\Temp\ccelQmmg.s 			page 41


 920              	.LVL76:
 921              	.L89:
1300:Generated_Source\PSoC4/CyLFClk.c ****         }
1301:Generated_Source\PSoC4/CyLFClk.c ****     }
 922              		.loc 1 1301 0
 923              		@ sp needed
 924 0024 10BD     		pop	{r4, pc}
 925              	.L92:
 926 0026 C046     		.align	2
 927              	.L91:
 928 0028 10020B40 		.word	1074463248
 929 002c 0C020B40 		.word	1074463244
 930 0030 F7F7FFFF 		.word	-2057
 931              		.cfi_endproc
 932              	.LFE16:
 933              		.size	CySysWdtSetCascade, .-CySysWdtSetCascade
 934              		.section	.text.CySysWdtGetCascade,"ax",%progbits
 935              		.align	1
 936              		.global	CySysWdtGetCascade
 937              		.code	16
 938              		.thumb_func
 939              		.type	CySysWdtGetCascade, %function
 940              	CySysWdtGetCascade:
 941              	.LFB17:
1302:Generated_Source\PSoC4/CyLFClk.c **** 
1303:Generated_Source\PSoC4/CyLFClk.c **** 
1304:Generated_Source\PSoC4/CyLFClk.c ****     /*******************************************************************************
1305:Generated_Source\PSoC4/CyLFClk.c ****     * Function Name: CySysWdtGetCascade
1306:Generated_Source\PSoC4/CyLFClk.c ****     ****************************************************************************//**
1307:Generated_Source\PSoC4/CyLFClk.c ****     *
1308:Generated_Source\PSoC4/CyLFClk.c ****     * \brief Reads the two WDT cascade values returning a mask of the bits set.
1309:Generated_Source\PSoC4/CyLFClk.c ****     *
1310:Generated_Source\PSoC4/CyLFClk.c ****     * \return The mask of the cascade values set.
1311:Generated_Source\PSoC4/CyLFClk.c ****     * \return CY_SYS_WDT_CASCADE_NONE - Neither
1312:Generated_Source\PSoC4/CyLFClk.c ****     * \return CY_SYS_WDT_CASCADE_01 - Cascade 01
1313:Generated_Source\PSoC4/CyLFClk.c ****     * \return CY_SYS_WDT_CASCADE_12 - Cascade 12
1314:Generated_Source\PSoC4/CyLFClk.c ****     *
1315:Generated_Source\PSoC4/CyLFClk.c ****     *******************************************************************************/
1316:Generated_Source\PSoC4/CyLFClk.c ****     uint32 CySysWdtGetCascade(void)
1317:Generated_Source\PSoC4/CyLFClk.c ****     {
 942              		.loc 1 1317 0
 943              		.cfi_startproc
1318:Generated_Source\PSoC4/CyLFClk.c ****         return (CY_SYS_WDT_CONFIG_REG & (CY_SYS_WDT_CASCADE_01 | CY_SYS_WDT_CASCADE_12));
 944              		.loc 1 1318 0
 945 0000 024B     		ldr	r3, .L94
1319:Generated_Source\PSoC4/CyLFClk.c ****     }
 946              		.loc 1 1319 0
 947              		@ sp needed
1318:Generated_Source\PSoC4/CyLFClk.c ****         return (CY_SYS_WDT_CONFIG_REG & (CY_SYS_WDT_CASCADE_01 | CY_SYS_WDT_CASCADE_12));
 948              		.loc 1 1318 0
 949 0002 1868     		ldr	r0, [r3]
 950 0004 024B     		ldr	r3, .L94+4
 951 0006 1840     		and	r0, r3
 952              		.loc 1 1319 0
 953 0008 7047     		bx	lr
 954              	.L95:
 955 000a C046     		.align	2
ARM GAS  C:\Users\g\AppData\Local\Temp\ccelQmmg.s 			page 42


 956              	.L94:
 957 000c 0C020B40 		.word	1074463244
 958 0010 08080000 		.word	2056
 959              		.cfi_endproc
 960              	.LFE17:
 961              		.size	CySysWdtGetCascade, .-CySysWdtGetCascade
 962              		.section	.text.CySysWdtSetMatch,"ax",%progbits
 963              		.align	1
 964              		.global	CySysWdtSetMatch
 965              		.code	16
 966              		.thumb_func
 967              		.type	CySysWdtSetMatch, %function
 968              	CySysWdtSetMatch:
 969              	.LFB18:
1320:Generated_Source\PSoC4/CyLFClk.c **** 
1321:Generated_Source\PSoC4/CyLFClk.c **** 
1322:Generated_Source\PSoC4/CyLFClk.c ****     /*******************************************************************************
1323:Generated_Source\PSoC4/CyLFClk.c ****     * Function Name: CySysWdtSetMatch
1324:Generated_Source\PSoC4/CyLFClk.c ****     ****************************************************************************//**
1325:Generated_Source\PSoC4/CyLFClk.c ****     *
1326:Generated_Source\PSoC4/CyLFClk.c ****     * \brief Configures the WDT counter match comparison value.
1327:Generated_Source\PSoC4/CyLFClk.c ****     *
1328:Generated_Source\PSoC4/CyLFClk.c ****     * \param counterNum
1329:Generated_Source\PSoC4/CyLFClk.c ****     * Valid range [0-1]. The number of the WDT counter. The match values are not
1330:Generated_Source\PSoC4/CyLFClk.c ****     * supported by counter 2.
1331:Generated_Source\PSoC4/CyLFClk.c ****     *
1332:Generated_Source\PSoC4/CyLFClk.c ****     * \param match
1333:Generated_Source\PSoC4/CyLFClk.c ****     * Valid range [0-65535]. The value to be used to match against the counter.
1334:Generated_Source\PSoC4/CyLFClk.c ****     *
1335:Generated_Source\PSoC4/CyLFClk.c ****     *******************************************************************************/
1336:Generated_Source\PSoC4/CyLFClk.c ****     void CySysWdtSetMatch(uint32 counterNum, uint32 match)
1337:Generated_Source\PSoC4/CyLFClk.c ****     {
 970              		.loc 1 1337 0
 971              		.cfi_startproc
 972              	.LVL77:
 973 0000 38B5     		push	{r3, r4, r5, lr}
 974              		.cfi_def_cfa_offset 16
 975              		.cfi_offset 3, -16
 976              		.cfi_offset 4, -12
 977              		.cfi_offset 5, -8
 978              		.cfi_offset 14, -4
 979              		.loc 1 1337 0
 980 0002 051C     		mov	r5, r0
 981 0004 0C1C     		mov	r4, r1
1338:Generated_Source\PSoC4/CyLFClk.c ****         uint32 regValue;
1339:Generated_Source\PSoC4/CyLFClk.c **** 
1340:Generated_Source\PSoC4/CyLFClk.c ****         CYASSERT((counterNum == CY_SYS_WDT_COUNTER0) ||
 982              		.loc 1 1340 0
 983 0006 0128     		cmp	r0, #1
 984 0008 02D9     		bls	.L97
 985              		.loc 1 1340 0 is_stmt 0 discriminator 1
 986 000a 0020     		mov	r0, #0
 987              	.LVL78:
 988 000c FFF7FEFF 		bl	CyHalt
 989              	.LVL79:
 990              	.L97:
1341:Generated_Source\PSoC4/CyLFClk.c ****                  (counterNum == CY_SYS_WDT_COUNTER1));
ARM GAS  C:\Users\g\AppData\Local\Temp\ccelQmmg.s 			page 43


1342:Generated_Source\PSoC4/CyLFClk.c **** 
1343:Generated_Source\PSoC4/CyLFClk.c ****         /* Wait for previous changes to come into effect */
1344:Generated_Source\PSoC4/CyLFClk.c ****         CyDelayUs(CY_SYS_WDT_3LFCLK_DELAY_US);
 991              		.loc 1 1344 0 is_stmt 1
 992 0010 C920     		mov	r0, #201
 993 0012 FFF7FEFF 		bl	CyDelayUs
 994              	.LVL80:
1345:Generated_Source\PSoC4/CyLFClk.c **** 
1346:Generated_Source\PSoC4/CyLFClk.c ****         regValue = CY_SYS_WDT_MATCH_REG;
1347:Generated_Source\PSoC4/CyLFClk.c ****         regValue &= (uint32)~((uint32)(CY_SYS_WDT_LOWER_16BITS_MASK << (counterNum * CY_SYS_WDT_CNT
1348:Generated_Source\PSoC4/CyLFClk.c ****         CY_SYS_WDT_MATCH_REG = (regValue | (match << (counterNum * CY_SYS_WDT_CNT_MATCH_SHIFT)));
 995              		.loc 1 1348 0
 996 0016 201C     		mov	r0, r4
1347:Generated_Source\PSoC4/CyLFClk.c ****         CY_SYS_WDT_MATCH_REG = (regValue | (match << (counterNum * CY_SYS_WDT_CNT_MATCH_SHIFT)));
 997              		.loc 1 1347 0
 998 0018 064A     		ldr	r2, .L98
 999 001a 2D01     		lsl	r5, r5, #4
 1000              	.LVL81:
 1001 001c AA40     		lsl	r2, r2, r5
 1002              		.loc 1 1348 0
 1003 001e A840     		lsl	r0, r0, r5
1346:Generated_Source\PSoC4/CyLFClk.c ****         regValue &= (uint32)~((uint32)(CY_SYS_WDT_LOWER_16BITS_MASK << (counterNum * CY_SYS_WDT_CNT
 1004              		.loc 1 1346 0
 1005 0020 0549     		ldr	r1, .L98+4
1349:Generated_Source\PSoC4/CyLFClk.c **** 
1350:Generated_Source\PSoC4/CyLFClk.c ****         /* Make sure match synchronization has started */
1351:Generated_Source\PSoC4/CyLFClk.c ****         CyDelayUs(CY_SYS_WDT_1LFCLK_DELAY_US);
1352:Generated_Source\PSoC4/CyLFClk.c ****     }
 1006              		.loc 1 1352 0
 1007              		@ sp needed
1346:Generated_Source\PSoC4/CyLFClk.c ****         regValue &= (uint32)~((uint32)(CY_SYS_WDT_LOWER_16BITS_MASK << (counterNum * CY_SYS_WDT_CNT
 1008              		.loc 1 1346 0
 1009 0022 0B68     		ldr	r3, [r1]
 1010              	.LVL82:
1347:Generated_Source\PSoC4/CyLFClk.c ****         CY_SYS_WDT_MATCH_REG = (regValue | (match << (counterNum * CY_SYS_WDT_CNT_MATCH_SHIFT)));
 1011              		.loc 1 1347 0
 1012 0024 9343     		bic	r3, r2
 1013              	.LVL83:
1348:Generated_Source\PSoC4/CyLFClk.c **** 
 1014              		.loc 1 1348 0
 1015 0026 0343     		orr	r3, r0
 1016              	.LVL84:
 1017 0028 0B60     		str	r3, [r1]
1351:Generated_Source\PSoC4/CyLFClk.c ****     }
 1018              		.loc 1 1351 0
 1019 002a 4320     		mov	r0, #67
 1020 002c FFF7FEFF 		bl	CyDelayUs
 1021              	.LVL85:
 1022              	.LVL86:
 1023              		.loc 1 1352 0
 1024 0030 38BD     		pop	{r3, r4, r5, pc}
 1025              	.L99:
 1026 0032 C046     		.align	2
 1027              	.L98:
 1028 0034 FFFF0000 		.word	65535
 1029 0038 08020B40 		.word	1074463240
 1030              		.cfi_endproc
ARM GAS  C:\Users\g\AppData\Local\Temp\ccelQmmg.s 			page 44


 1031              	.LFE18:
 1032              		.size	CySysWdtSetMatch, .-CySysWdtSetMatch
 1033              		.section	.text.CySysWdtSetToggleBit,"ax",%progbits
 1034              		.align	1
 1035              		.global	CySysWdtSetToggleBit
 1036              		.code	16
 1037              		.thumb_func
 1038              		.type	CySysWdtSetToggleBit, %function
 1039              	CySysWdtSetToggleBit:
 1040              	.LFB19:
1353:Generated_Source\PSoC4/CyLFClk.c **** 
1354:Generated_Source\PSoC4/CyLFClk.c **** 
1355:Generated_Source\PSoC4/CyLFClk.c ****     /*******************************************************************************
1356:Generated_Source\PSoC4/CyLFClk.c ****     * Function Name: CySysWdtSetToggleBit
1357:Generated_Source\PSoC4/CyLFClk.c ****     ****************************************************************************//**
1358:Generated_Source\PSoC4/CyLFClk.c ****     * \brief
1359:Generated_Source\PSoC4/CyLFClk.c ****     * Configures which bit in WDT counter 2 to monitor for a toggle.
1360:Generated_Source\PSoC4/CyLFClk.c ****     *
1361:Generated_Source\PSoC4/CyLFClk.c ****     * When that bit toggles, an interrupt is generated if the mode for counter 2 has
1362:Generated_Source\PSoC4/CyLFClk.c ****     * enabled interrupts.
1363:Generated_Source\PSoC4/CyLFClk.c ****     *
1364:Generated_Source\PSoC4/CyLFClk.c ****     * \param bits Valid range [0-31].  Counter 2 bit to monitor for a toggle.
1365:Generated_Source\PSoC4/CyLFClk.c ****     *
1366:Generated_Source\PSoC4/CyLFClk.c ****     * \details
1367:Generated_Source\PSoC4/CyLFClk.c ****     * WDT Counter 2 should be disabled. Otherwise this function call has no
1368:Generated_Source\PSoC4/CyLFClk.c ****     * effect.
1369:Generated_Source\PSoC4/CyLFClk.c ****     *
1370:Generated_Source\PSoC4/CyLFClk.c ****     * If the specified counter is enabled, call the CySysWdtDisable() function with
1371:Generated_Source\PSoC4/CyLFClk.c ****     * the corresponding parameter to disable the specified counter and wait for it to
1372:Generated_Source\PSoC4/CyLFClk.c ****     * stop. This may take up to 3 LFCLK cycles.
1373:Generated_Source\PSoC4/CyLFClk.c ****     *
1374:Generated_Source\PSoC4/CyLFClk.c ****     *******************************************************************************/
1375:Generated_Source\PSoC4/CyLFClk.c ****     void CySysWdtSetToggleBit(uint32 bits)
1376:Generated_Source\PSoC4/CyLFClk.c ****     {
 1041              		.loc 1 1376 0
 1042              		.cfi_startproc
 1043              	.LVL87:
 1044              	.LBB60:
 1045              	.LBB61:
1020:Generated_Source\PSoC4/CyLFClk.c ****     }
 1046              		.loc 1 1020 0
 1047 0000 064B     		ldr	r3, .L102
 1048 0002 1B68     		ldr	r3, [r3]
 1049              	.LBE61:
 1050              	.LBE60:
1377:Generated_Source\PSoC4/CyLFClk.c ****         uint32 configRegValue;
1378:Generated_Source\PSoC4/CyLFClk.c **** 
1379:Generated_Source\PSoC4/CyLFClk.c ****         if (0u == CySysWdtGetEnabledStatus(CY_SYS_WDT_COUNTER2))
 1051              		.loc 1 1379 0
 1052 0004 9B03     		lsl	r3, r3, #14
 1053 0006 08D4     		bmi	.L100
1380:Generated_Source\PSoC4/CyLFClk.c ****         {
1381:Generated_Source\PSoC4/CyLFClk.c ****             configRegValue = CY_SYS_WDT_CONFIG_REG;
 1054              		.loc 1 1381 0
 1055 0008 0549     		ldr	r1, .L102+4
1382:Generated_Source\PSoC4/CyLFClk.c ****             configRegValue &= (uint32)(~((uint32)(CY_SYS_WDT_CONFIG_BITS2_MASK << CY_SYS_WDT_CONFIG
 1056              		.loc 1 1382 0
ARM GAS  C:\Users\g\AppData\Local\Temp\ccelQmmg.s 			page 45


 1057 000a 064B     		ldr	r3, .L102+8
1381:Generated_Source\PSoC4/CyLFClk.c ****             configRegValue &= (uint32)(~((uint32)(CY_SYS_WDT_CONFIG_BITS2_MASK << CY_SYS_WDT_CONFIG
 1058              		.loc 1 1381 0
 1059 000c 0A68     		ldr	r2, [r1]
 1060              	.LVL88:
 1061              		.loc 1 1382 0
 1062 000e 1340     		and	r3, r2
 1063              	.LVL89:
1383:Generated_Source\PSoC4/CyLFClk.c ****             configRegValue |= ((bits & CY_SYS_WDT_CONFIG_BITS2_MASK) << CY_SYS_WDT_CONFIG_BITS2_POS
 1064              		.loc 1 1383 0
 1065 0010 1F22     		mov	r2, #31
 1066 0012 1040     		and	r0, r2
 1067              	.LVL90:
 1068 0014 0006     		lsl	r0, r0, #24
 1069 0016 1843     		orr	r0, r3
 1070              	.LVL91:
1384:Generated_Source\PSoC4/CyLFClk.c ****             CY_SYS_WDT_CONFIG_REG = configRegValue;
 1071              		.loc 1 1384 0
 1072 0018 0860     		str	r0, [r1]
 1073              	.LVL92:
 1074              	.L100:
1385:Generated_Source\PSoC4/CyLFClk.c ****         }
1386:Generated_Source\PSoC4/CyLFClk.c ****     }
 1075              		.loc 1 1386 0
 1076              		@ sp needed
 1077 001a 7047     		bx	lr
 1078              	.L103:
 1079              		.align	2
 1080              	.L102:
 1081 001c 10020B40 		.word	1074463248
 1082 0020 0C020B40 		.word	1074463244
 1083 0024 FFFFFFE0 		.word	-520093697
 1084              		.cfi_endproc
 1085              	.LFE19:
 1086              		.size	CySysWdtSetToggleBit, .-CySysWdtSetToggleBit
 1087              		.section	.text.CySysWdtGetToggleBit,"ax",%progbits
 1088              		.align	1
 1089              		.global	CySysWdtGetToggleBit
 1090              		.code	16
 1091              		.thumb_func
 1092              		.type	CySysWdtGetToggleBit, %function
 1093              	CySysWdtGetToggleBit:
 1094              	.LFB20:
1387:Generated_Source\PSoC4/CyLFClk.c **** 
1388:Generated_Source\PSoC4/CyLFClk.c **** 
1389:Generated_Source\PSoC4/CyLFClk.c ****     /*******************************************************************************
1390:Generated_Source\PSoC4/CyLFClk.c ****     * Function Name: CySysWdtGetToggleBit
1391:Generated_Source\PSoC4/CyLFClk.c ****     ****************************************************************************//**
1392:Generated_Source\PSoC4/CyLFClk.c ****     * \brief
1393:Generated_Source\PSoC4/CyLFClk.c ****     * Reads which bit in WDT counter 2 is monitored for a toggle.
1394:Generated_Source\PSoC4/CyLFClk.c ****     *
1395:Generated_Source\PSoC4/CyLFClk.c ****     * \return The bit that is monitored (range of 0 to 31)
1396:Generated_Source\PSoC4/CyLFClk.c ****     *
1397:Generated_Source\PSoC4/CyLFClk.c ****     *******************************************************************************/
1398:Generated_Source\PSoC4/CyLFClk.c ****     uint32 CySysWdtGetToggleBit(void)
1399:Generated_Source\PSoC4/CyLFClk.c ****     {
 1095              		.loc 1 1399 0
ARM GAS  C:\Users\g\AppData\Local\Temp\ccelQmmg.s 			page 46


 1096              		.cfi_startproc
1400:Generated_Source\PSoC4/CyLFClk.c ****         return ((CY_SYS_WDT_CONFIG_REG >> CY_SYS_WDT_CONFIG_BITS2_POS) & CY_SYS_WDT_CONFIG_BITS2_MA
 1097              		.loc 1 1400 0
 1098 0000 024B     		ldr	r3, .L105
1401:Generated_Source\PSoC4/CyLFClk.c ****     }
 1099              		.loc 1 1401 0
 1100              		@ sp needed
1400:Generated_Source\PSoC4/CyLFClk.c ****         return ((CY_SYS_WDT_CONFIG_REG >> CY_SYS_WDT_CONFIG_BITS2_POS) & CY_SYS_WDT_CONFIG_BITS2_MA
 1101              		.loc 1 1400 0
 1102 0002 1868     		ldr	r0, [r3]
 1103 0004 C000     		lsl	r0, r0, #3
 1104 0006 C00E     		lsr	r0, r0, #27
 1105              		.loc 1 1401 0
 1106 0008 7047     		bx	lr
 1107              	.L106:
 1108 000a C046     		.align	2
 1109              	.L105:
 1110 000c 0C020B40 		.word	1074463244
 1111              		.cfi_endproc
 1112              	.LFE20:
 1113              		.size	CySysWdtGetToggleBit, .-CySysWdtGetToggleBit
 1114              		.section	.text.CySysWdtGetMatch,"ax",%progbits
 1115              		.align	1
 1116              		.global	CySysWdtGetMatch
 1117              		.code	16
 1118              		.thumb_func
 1119              		.type	CySysWdtGetMatch, %function
 1120              	CySysWdtGetMatch:
 1121              	.LFB21:
1402:Generated_Source\PSoC4/CyLFClk.c **** 
1403:Generated_Source\PSoC4/CyLFClk.c **** 
1404:Generated_Source\PSoC4/CyLFClk.c ****     /*******************************************************************************
1405:Generated_Source\PSoC4/CyLFClk.c ****     * Function Name: CySysWdtGetMatch
1406:Generated_Source\PSoC4/CyLFClk.c ****     ****************************************************************************//**
1407:Generated_Source\PSoC4/CyLFClk.c ****     *
1408:Generated_Source\PSoC4/CyLFClk.c ****     * \brief Reads the WDT counter match comparison value.
1409:Generated_Source\PSoC4/CyLFClk.c ****     *
1410:Generated_Source\PSoC4/CyLFClk.c ****     * \param counterNum Valid range [0-1].  The number of the WDT counter. The match
1411:Generated_Source\PSoC4/CyLFClk.c ****     * values are not supported by counter 2.
1412:Generated_Source\PSoC4/CyLFClk.c ****     *
1413:Generated_Source\PSoC4/CyLFClk.c ****     * \return A 16-bit match value.
1414:Generated_Source\PSoC4/CyLFClk.c ****     *
1415:Generated_Source\PSoC4/CyLFClk.c ****     *******************************************************************************/
1416:Generated_Source\PSoC4/CyLFClk.c ****     uint32 CySysWdtGetMatch(uint32 counterNum)
1417:Generated_Source\PSoC4/CyLFClk.c ****     {
 1122              		.loc 1 1417 0
 1123              		.cfi_startproc
 1124              	.LVL93:
 1125 0000 10B5     		push	{r4, lr}
 1126              		.cfi_def_cfa_offset 8
 1127              		.cfi_offset 4, -8
 1128              		.cfi_offset 14, -4
 1129              		.loc 1 1417 0
 1130 0002 041E     		sub	r4, r0, #0
1418:Generated_Source\PSoC4/CyLFClk.c ****         CYASSERT((counterNum == CY_SYS_WDT_COUNTER0) ||
 1131              		.loc 1 1418 0
 1132 0004 012C     		cmp	r4, #1
ARM GAS  C:\Users\g\AppData\Local\Temp\ccelQmmg.s 			page 47


 1133 0006 02D9     		bls	.L108
 1134              		.loc 1 1418 0 is_stmt 0 discriminator 1
 1135 0008 0020     		mov	r0, #0
 1136              	.LVL94:
 1137 000a FFF7FEFF 		bl	CyHalt
 1138              	.LVL95:
 1139              	.L108:
1419:Generated_Source\PSoC4/CyLFClk.c ****                  (counterNum == CY_SYS_WDT_COUNTER1));
1420:Generated_Source\PSoC4/CyLFClk.c **** 
1421:Generated_Source\PSoC4/CyLFClk.c ****         return ((uint32)(CY_SYS_WDT_MATCH_REG >> 
 1140              		.loc 1 1421 0 is_stmt 1
 1141 000e 034B     		ldr	r3, .L109
1422:Generated_Source\PSoC4/CyLFClk.c ****                                             (counterNum * CY_SYS_WDT_CNT_MATCH_SHIFT)) & CY_SYS_WDT
 1142              		.loc 1 1422 0
 1143 0010 2401     		lsl	r4, r4, #4
 1144              	.LVL96:
1421:Generated_Source\PSoC4/CyLFClk.c ****                                             (counterNum * CY_SYS_WDT_CNT_MATCH_SHIFT)) & CY_SYS_WDT
 1145              		.loc 1 1421 0
 1146 0012 1B68     		ldr	r3, [r3]
1423:Generated_Source\PSoC4/CyLFClk.c ****     }
 1147              		.loc 1 1423 0
 1148              		@ sp needed
1421:Generated_Source\PSoC4/CyLFClk.c ****                                             (counterNum * CY_SYS_WDT_CNT_MATCH_SHIFT)) & CY_SYS_WDT
 1149              		.loc 1 1421 0
 1150 0014 E340     		lsr	r3, r3, r4
 1151 0016 98B2     		uxth	r0, r3
 1152              		.loc 1 1423 0
 1153 0018 10BD     		pop	{r4, pc}
 1154              	.L110:
 1155 001a C046     		.align	2
 1156              	.L109:
 1157 001c 08020B40 		.word	1074463240
 1158              		.cfi_endproc
 1159              	.LFE21:
 1160              		.size	CySysWdtGetMatch, .-CySysWdtGetMatch
 1161              		.section	.text.CySysWdtGetCount,"ax",%progbits
 1162              		.align	1
 1163              		.global	CySysWdtGetCount
 1164              		.code	16
 1165              		.thumb_func
 1166              		.type	CySysWdtGetCount, %function
 1167              	CySysWdtGetCount:
 1168              	.LFB22:
1424:Generated_Source\PSoC4/CyLFClk.c **** 
1425:Generated_Source\PSoC4/CyLFClk.c **** 
1426:Generated_Source\PSoC4/CyLFClk.c ****     /*******************************************************************************
1427:Generated_Source\PSoC4/CyLFClk.c ****     * Function Name: CySysWdtGetCount
1428:Generated_Source\PSoC4/CyLFClk.c ****     ****************************************************************************//**
1429:Generated_Source\PSoC4/CyLFClk.c ****     *
1430:Generated_Source\PSoC4/CyLFClk.c ****     * \brief Reads the current WDT counter value.
1431:Generated_Source\PSoC4/CyLFClk.c ****     *
1432:Generated_Source\PSoC4/CyLFClk.c ****     * \param counterNum: Valid range [0-2]. The number of the WDT counter.
1433:Generated_Source\PSoC4/CyLFClk.c ****     *
1434:Generated_Source\PSoC4/CyLFClk.c ****     * \return A live counter value.  Counter 0 and Counter 1 are 16 bit counters 
1435:Generated_Source\PSoC4/CyLFClk.c ****     * and counter 2 is a 32 bit counter.
1436:Generated_Source\PSoC4/CyLFClk.c ****     *
1437:Generated_Source\PSoC4/CyLFClk.c ****     *******************************************************************************/
ARM GAS  C:\Users\g\AppData\Local\Temp\ccelQmmg.s 			page 48


1438:Generated_Source\PSoC4/CyLFClk.c ****     uint32 CySysWdtGetCount(uint32 counterNum)
1439:Generated_Source\PSoC4/CyLFClk.c ****     {
 1169              		.loc 1 1439 0
 1170              		.cfi_startproc
 1171              	.LVL97:
 1172 0000 08B5     		push	{r3, lr}
 1173              		.cfi_def_cfa_offset 8
 1174              		.cfi_offset 3, -8
 1175              		.cfi_offset 14, -4
1440:Generated_Source\PSoC4/CyLFClk.c ****         uint32 regValue = 0u;
1441:Generated_Source\PSoC4/CyLFClk.c **** 
1442:Generated_Source\PSoC4/CyLFClk.c ****         switch(counterNum)
 1176              		.loc 1 1442 0
 1177 0002 0128     		cmp	r0, #1
 1178 0004 0AD0     		beq	.L113
 1179 0006 0028     		cmp	r0, #0
 1180 0008 04D0     		beq	.L114
 1181 000a 0228     		cmp	r0, #2
 1182 000c 0AD1     		bne	.L118
1443:Generated_Source\PSoC4/CyLFClk.c ****         {
1444:Generated_Source\PSoC4/CyLFClk.c ****             /* WDT Counter 0 */
1445:Generated_Source\PSoC4/CyLFClk.c ****             case 0u:
1446:Generated_Source\PSoC4/CyLFClk.c ****                 regValue = CY_SYS_WDT_CTRLOW_REG & CY_SYS_WDT_LOWER_16BITS_MASK;
1447:Generated_Source\PSoC4/CyLFClk.c ****             break;
1448:Generated_Source\PSoC4/CyLFClk.c **** 
1449:Generated_Source\PSoC4/CyLFClk.c ****             /* WDT Counter 1 */
1450:Generated_Source\PSoC4/CyLFClk.c ****             case 1u:
1451:Generated_Source\PSoC4/CyLFClk.c ****                 regValue = (CY_SYS_WDT_CTRLOW_REG >> CY_SYS_WDT_CNT_MATCH_SHIFT) & CY_SYS_WDT_LOWER
1452:Generated_Source\PSoC4/CyLFClk.c ****             break;
1453:Generated_Source\PSoC4/CyLFClk.c **** 
1454:Generated_Source\PSoC4/CyLFClk.c ****             /* WDT Counter 2 */
1455:Generated_Source\PSoC4/CyLFClk.c ****             case 2u:
1456:Generated_Source\PSoC4/CyLFClk.c ****                 regValue = CY_SYS_WDT_CTRHIGH_REG;
 1183              		.loc 1 1456 0
 1184 000e 084B     		ldr	r3, .L119
 1185 0010 1868     		ldr	r0, [r3]
 1186              	.LVL98:
1457:Generated_Source\PSoC4/CyLFClk.c ****             break;
 1187              		.loc 1 1457 0
 1188 0012 0BE0     		b	.L116
 1189              	.LVL99:
 1190              	.L114:
1446:Generated_Source\PSoC4/CyLFClk.c ****             break;
 1191              		.loc 1 1446 0
 1192 0014 074B     		ldr	r3, .L119+4
 1193 0016 1868     		ldr	r0, [r3]
 1194              	.LVL100:
 1195 0018 80B2     		uxth	r0, r0
 1196              	.LVL101:
1447:Generated_Source\PSoC4/CyLFClk.c **** 
 1197              		.loc 1 1447 0
 1198 001a 07E0     		b	.L116
 1199              	.LVL102:
 1200              	.L113:
1451:Generated_Source\PSoC4/CyLFClk.c ****             break;
 1201              		.loc 1 1451 0
 1202 001c 054B     		ldr	r3, .L119+4
ARM GAS  C:\Users\g\AppData\Local\Temp\ccelQmmg.s 			page 49


 1203 001e 1868     		ldr	r0, [r3]
 1204              	.LVL103:
 1205 0020 000C     		lsr	r0, r0, #16
 1206              	.LVL104:
1452:Generated_Source\PSoC4/CyLFClk.c **** 
 1207              		.loc 1 1452 0
 1208 0022 03E0     		b	.L116
 1209              	.LVL105:
 1210              	.L118:
1458:Generated_Source\PSoC4/CyLFClk.c **** 
1459:Generated_Source\PSoC4/CyLFClk.c ****             default:
1460:Generated_Source\PSoC4/CyLFClk.c ****                 CYASSERT(0u != 0u);
 1211              		.loc 1 1460 0 discriminator 1
 1212 0024 0020     		mov	r0, #0
 1213              	.LVL106:
 1214 0026 FFF7FEFF 		bl	CyHalt
 1215              	.LVL107:
1440:Generated_Source\PSoC4/CyLFClk.c **** 
 1216              		.loc 1 1440 0 discriminator 1
 1217 002a 0020     		mov	r0, #0
 1218              	.LVL108:
 1219              	.L116:
1461:Generated_Source\PSoC4/CyLFClk.c ****             break;
1462:Generated_Source\PSoC4/CyLFClk.c ****         }
1463:Generated_Source\PSoC4/CyLFClk.c **** 
1464:Generated_Source\PSoC4/CyLFClk.c ****         return (regValue);
1465:Generated_Source\PSoC4/CyLFClk.c ****     }
 1220              		.loc 1 1465 0
 1221              		@ sp needed
 1222 002c 08BD     		pop	{r3, pc}
 1223              	.L120:
 1224 002e C046     		.align	2
 1225              	.L119:
 1226 0030 04020B40 		.word	1074463236
 1227 0034 00020B40 		.word	1074463232
 1228              		.cfi_endproc
 1229              	.LFE22:
 1230              		.size	CySysWdtGetCount, .-CySysWdtGetCount
 1231              		.section	.text.CySysClkIloStop,"ax",%progbits
 1232              		.align	1
 1233              		.global	CySysClkIloStop
 1234              		.code	16
 1235              		.thumb_func
 1236              		.type	CySysClkIloStop, %function
 1237              	CySysClkIloStop:
 1238              	.LFB1:
 109:Generated_Source\PSoC4/CyLFClk.c ****     #if(CY_IP_SRSSV2)
 1239              		.loc 1 109 0
 1240              		.cfi_startproc
 1241              	.LBB78:
 1242              	.LBB79:
 972:Generated_Source\PSoC4/CyLFClk.c ****     }
 1243              		.loc 1 972 0
 1244 0000 274B     		ldr	r3, .L138
 1245              	.LBE79:
 1246              	.LBE78:
 109:Generated_Source\PSoC4/CyLFClk.c ****     #if(CY_IP_SRSSV2)
ARM GAS  C:\Users\g\AppData\Local\Temp\ccelQmmg.s 			page 50


 1247              		.loc 1 109 0
 1248 0002 F7B5     		push	{r0, r1, r2, r4, r5, r6, r7, lr}
 1249              		.cfi_def_cfa_offset 32
 1250              		.cfi_offset 0, -32
 1251              		.cfi_offset 1, -28
 1252              		.cfi_offset 2, -24
 1253              		.cfi_offset 4, -20
 1254              		.cfi_offset 5, -16
 1255              		.cfi_offset 6, -12
 1256              		.cfi_offset 7, -8
 1257              		.cfi_offset 14, -4
 1258              	.LBB81:
 1259              	.LBB80:
 972:Generated_Source\PSoC4/CyLFClk.c ****     }
 1260              		.loc 1 972 0
 1261 0004 1A68     		ldr	r2, [r3]
 1262 0006 C023     		mov	r3, #192
 1263 0008 1B02     		lsl	r3, r3, #8
 1264 000a 1A40     		and	r2, r3
 1265 000c 0092     		str	r2, [sp]
 1266 000e 45D1     		bne	.L121
 1267              	.LBE80:
 1268              	.LBE81:
 1269              	.LBB82:
 1270              	.LBB83:
 373:Generated_Source\PSoC4/CyLFClk.c ****             (uint32) 1u :
 1271              		.loc 1 373 0
 1272 0010 244F     		ldr	r7, .L138+4
 1273 0012 3B68     		ldr	r3, [r7]
 374:Generated_Source\PSoC4/CyLFClk.c ****             (uint32) 0u);
 1274              		.loc 1 374 0
 1275 0014 002B     		cmp	r3, #0
 1276 0016 41DA     		bge	.L121
 1277              	.LBE83:
 1278              	.LBE82:
 124:Generated_Source\PSoC4/CyLFClk.c ****                 CySysClkLfclkPosedgeCatch();
 1279              		.loc 1 124 0
 1280 0018 FFF7FEFF 		bl	CyEnterCriticalSection
 1281              	.LVL109:
 1282              	.LBB84:
 1283              	.LBB85:
 1284              	.LBB86:
 1285              	.LBB87:
1020:Generated_Source\PSoC4/CyLFClk.c ****     }
 1286              		.loc 1 1020 0
 1287 001c 224D     		ldr	r5, .L138+8
 1288              	.LBE87:
 1289              	.LBE86:
 1290              	.LBE85:
 1291              	.LBE84:
 124:Generated_Source\PSoC4/CyLFClk.c ****                 CySysClkLfclkPosedgeCatch();
 1292              		.loc 1 124 0
 1293 001e 0190     		str	r0, [sp, #4]
 1294              	.LVL110:
 1295              	.LBB101:
 1296              	.LBB100:
 1297              	.LBB89:
ARM GAS  C:\Users\g\AppData\Local\Temp\ccelQmmg.s 			page 51


 1298              	.LBB88:
1020:Generated_Source\PSoC4/CyLFClk.c ****     }
 1299              		.loc 1 1020 0
 1300 0020 2B68     		ldr	r3, [r5]
 1301 0022 0126     		mov	r6, #1
 1302 0024 214C     		ldr	r4, .L138+12
 1303              	.LBE88:
 1304              	.LBE89:
1466:Generated_Source\PSoC4/CyLFClk.c **** 
1467:Generated_Source\PSoC4/CyLFClk.c **** 
1468:Generated_Source\PSoC4/CyLFClk.c ****     /*******************************************************************************
1469:Generated_Source\PSoC4/CyLFClk.c ****     * Function Name: CySysWdtGetInterruptSource
1470:Generated_Source\PSoC4/CyLFClk.c ****     ****************************************************************************//**
1471:Generated_Source\PSoC4/CyLFClk.c ****     * \brief
1472:Generated_Source\PSoC4/CyLFClk.c ****     * Reads a mask containing all the WDT counters interrupts that are currently
1473:Generated_Source\PSoC4/CyLFClk.c ****     * set by the hardware, if a corresponding mode is selected.
1474:Generated_Source\PSoC4/CyLFClk.c ****     *
1475:Generated_Source\PSoC4/CyLFClk.c ****     * \return The mask of interrupts set
1476:Generated_Source\PSoC4/CyLFClk.c ****     * \return CY_SYS_WDT_COUNTER0_INT - Counter 0
1477:Generated_Source\PSoC4/CyLFClk.c ****     * \return CY_SYS_WDT_COUNTER1_INT - Counter 1
1478:Generated_Source\PSoC4/CyLFClk.c ****     * \return CY_SYS_WDT_COUNTER2_INT - Counter 2
1479:Generated_Source\PSoC4/CyLFClk.c ****     *
1480:Generated_Source\PSoC4/CyLFClk.c ****     *******************************************************************************/
1481:Generated_Source\PSoC4/CyLFClk.c ****     uint32 CySysWdtGetInterruptSource(void)
1482:Generated_Source\PSoC4/CyLFClk.c ****     {
1483:Generated_Source\PSoC4/CyLFClk.c ****         return (CY_SYS_WDT_CONTROL_REG & (CY_SYS_WDT_COUNTER0_INT | CY_SYS_WDT_COUNTER1_INT | CY_SY
1484:Generated_Source\PSoC4/CyLFClk.c ****     }
1485:Generated_Source\PSoC4/CyLFClk.c **** 
1486:Generated_Source\PSoC4/CyLFClk.c **** 
1487:Generated_Source\PSoC4/CyLFClk.c ****     /*******************************************************************************
1488:Generated_Source\PSoC4/CyLFClk.c ****     * Function Name: CySysWdtClearInterrupt
1489:Generated_Source\PSoC4/CyLFClk.c ****     ****************************************************************************//**
1490:Generated_Source\PSoC4/CyLFClk.c ****     * \brief
1491:Generated_Source\PSoC4/CyLFClk.c ****     * Clears all the WDT counter interrupts set in the mask.
1492:Generated_Source\PSoC4/CyLFClk.c ****     *
1493:Generated_Source\PSoC4/CyLFClk.c ****     * Calling this function also prevents from Reset when the counter mode is set 
1494:Generated_Source\PSoC4/CyLFClk.c ****     * to generate 3 interrupts and then the device resets.
1495:Generated_Source\PSoC4/CyLFClk.c ****     *
1496:Generated_Source\PSoC4/CyLFClk.c ****     * All the WDT interrupts are to be cleared by the firmware, otherwise
1497:Generated_Source\PSoC4/CyLFClk.c ****     * interrupts are generated continuously.
1498:Generated_Source\PSoC4/CyLFClk.c ****     *
1499:Generated_Source\PSoC4/CyLFClk.c ****     * \param counterMask
1500:Generated_Source\PSoC4/CyLFClk.c ****     * CY_SYS_WDT_COUNTER0_INT - Clears counter 0 interrupts <br>
1501:Generated_Source\PSoC4/CyLFClk.c ****     * CY_SYS_WDT_COUNTER1_INT - Clears counter 1 interrupts <br>
1502:Generated_Source\PSoC4/CyLFClk.c ****     * CY_SYS_WDT_COUNTER2_INT - Clears counter 2 interrupts
1503:Generated_Source\PSoC4/CyLFClk.c ****     *
1504:Generated_Source\PSoC4/CyLFClk.c ****     * \details
1505:Generated_Source\PSoC4/CyLFClk.c ****     * This function temporary removes the watchdog lock, if it was set, and
1506:Generated_Source\PSoC4/CyLFClk.c ****     * restores the lock state after cleaning the WDT interrupts that are set in
1507:Generated_Source\PSoC4/CyLFClk.c ****     * a mask.
1508:Generated_Source\PSoC4/CyLFClk.c ****     *
1509:Generated_Source\PSoC4/CyLFClk.c ****     *******************************************************************************/
1510:Generated_Source\PSoC4/CyLFClk.c ****     void CySysWdtClearInterrupt(uint32 counterMask)
1511:Generated_Source\PSoC4/CyLFClk.c ****     {
1512:Generated_Source\PSoC4/CyLFClk.c ****         uint8 interruptState;
1513:Generated_Source\PSoC4/CyLFClk.c ****         uint32 wdtLockState;
1514:Generated_Source\PSoC4/CyLFClk.c **** 
ARM GAS  C:\Users\g\AppData\Local\Temp\ccelQmmg.s 			page 52


1515:Generated_Source\PSoC4/CyLFClk.c ****         interruptState = CyEnterCriticalSection();
1516:Generated_Source\PSoC4/CyLFClk.c **** 
1517:Generated_Source\PSoC4/CyLFClk.c ****         if (0u != CySysWdtLocked())
1518:Generated_Source\PSoC4/CyLFClk.c ****         {
1519:Generated_Source\PSoC4/CyLFClk.c ****             wdtLockState = 1u;
1520:Generated_Source\PSoC4/CyLFClk.c ****             CySysWdtUnlock();
1521:Generated_Source\PSoC4/CyLFClk.c ****         }
1522:Generated_Source\PSoC4/CyLFClk.c ****         else
1523:Generated_Source\PSoC4/CyLFClk.c ****         {
1524:Generated_Source\PSoC4/CyLFClk.c ****             wdtLockState = 0u;
1525:Generated_Source\PSoC4/CyLFClk.c ****         }
1526:Generated_Source\PSoC4/CyLFClk.c **** 
1527:Generated_Source\PSoC4/CyLFClk.c ****         /* Set new WDT control register value */
1528:Generated_Source\PSoC4/CyLFClk.c ****         counterMask &= (CY_SYS_WDT_COUNTER0_INT |
1529:Generated_Source\PSoC4/CyLFClk.c ****                         CY_SYS_WDT_COUNTER1_INT |
1530:Generated_Source\PSoC4/CyLFClk.c ****                         CY_SYS_WDT_COUNTER2_INT);
1531:Generated_Source\PSoC4/CyLFClk.c **** 
1532:Generated_Source\PSoC4/CyLFClk.c ****         CY_SYS_WDT_CONTROL_REG = counterMask | (CY_SYS_WDT_CONTROL_REG & ~(CY_SYS_WDT_COUNTER0_INT 
1533:Generated_Source\PSoC4/CyLFClk.c ****                                                                            CY_SYS_WDT_COUNTER1_INT 
1534:Generated_Source\PSoC4/CyLFClk.c ****                                                                            CY_SYS_WDT_COUNTER2_INT)
1535:Generated_Source\PSoC4/CyLFClk.c **** 
1536:Generated_Source\PSoC4/CyLFClk.c ****         /* Read the CY_SYS_WDT_CONTROL_REG to clear the interrupt request.
1537:Generated_Source\PSoC4/CyLFClk.c ****          * Cypress ID #207093, #206231
1538:Generated_Source\PSoC4/CyLFClk.c ****         */
1539:Generated_Source\PSoC4/CyLFClk.c ****         (void)CY_SYS_WDT_CONTROL_REG;
1540:Generated_Source\PSoC4/CyLFClk.c **** 
1541:Generated_Source\PSoC4/CyLFClk.c ****         if (1u == wdtLockState)
1542:Generated_Source\PSoC4/CyLFClk.c ****         {
1543:Generated_Source\PSoC4/CyLFClk.c ****             CySysWdtLock();
1544:Generated_Source\PSoC4/CyLFClk.c ****         }
1545:Generated_Source\PSoC4/CyLFClk.c **** 
1546:Generated_Source\PSoC4/CyLFClk.c ****         CyExitCriticalSection(interruptState);
1547:Generated_Source\PSoC4/CyLFClk.c ****     }
1548:Generated_Source\PSoC4/CyLFClk.c **** 
1549:Generated_Source\PSoC4/CyLFClk.c **** 
1550:Generated_Source\PSoC4/CyLFClk.c ****     /*******************************************************************************
1551:Generated_Source\PSoC4/CyLFClk.c ****     * Function Name: CySysWdtResetCounters
1552:Generated_Source\PSoC4/CyLFClk.c ****     ****************************************************************************//**
1553:Generated_Source\PSoC4/CyLFClk.c ****     * \brief
1554:Generated_Source\PSoC4/CyLFClk.c ****     * Resets all the WDT counters set in the mask.
1555:Generated_Source\PSoC4/CyLFClk.c ****     *
1556:Generated_Source\PSoC4/CyLFClk.c ****     * \param countersMask
1557:Generated_Source\PSoC4/CyLFClk.c ****     * CY_SYS_WDT_COUNTER0_RESET - Reset counter 0 <br>
1558:Generated_Source\PSoC4/CyLFClk.c ****     * CY_SYS_WDT_COUNTER1_RESET - Reset counter 1 <br>
1559:Generated_Source\PSoC4/CyLFClk.c ****     * CY_SYS_WDT_COUNTER2_RESET - Reset counter 2
1560:Generated_Source\PSoC4/CyLFClk.c ****     *
1561:Generated_Source\PSoC4/CyLFClk.c ****     * \details
1562:Generated_Source\PSoC4/CyLFClk.c ****     * This function does not reset counter values if the Watchdog is locked.
1563:Generated_Source\PSoC4/CyLFClk.c ****     * This function waits while corresponding counters will be reset. This may
1564:Generated_Source\PSoC4/CyLFClk.c ****     * take up to 3 LFCLK cycles.
1565:Generated_Source\PSoC4/CyLFClk.c ****     * The LFCLK source must be enabled. Otherwise, the function will never exit.
1566:Generated_Source\PSoC4/CyLFClk.c ****     *
1567:Generated_Source\PSoC4/CyLFClk.c ****     *******************************************************************************/
1568:Generated_Source\PSoC4/CyLFClk.c ****     void CySysWdtResetCounters(uint32 countersMask)
1569:Generated_Source\PSoC4/CyLFClk.c ****     {
1570:Generated_Source\PSoC4/CyLFClk.c ****         /* Set new WDT reset value */
1571:Generated_Source\PSoC4/CyLFClk.c ****         CY_SYS_WDT_CONTROL_REG |= (countersMask & CY_SYS_WDT_COUNTERS_RESET);
ARM GAS  C:\Users\g\AppData\Local\Temp\ccelQmmg.s 			page 53


1572:Generated_Source\PSoC4/CyLFClk.c **** 
1573:Generated_Source\PSoC4/CyLFClk.c ****         while (0uL != (CY_SYS_WDT_CONTROL_REG & CY_SYS_WDT_COUNTERS_RESET))
1574:Generated_Source\PSoC4/CyLFClk.c ****         {
1575:Generated_Source\PSoC4/CyLFClk.c ****             /* Wait for reset to come into effect */
1576:Generated_Source\PSoC4/CyLFClk.c ****         }
1577:Generated_Source\PSoC4/CyLFClk.c ****     }
1578:Generated_Source\PSoC4/CyLFClk.c **** 
1579:Generated_Source\PSoC4/CyLFClk.c **** 
1580:Generated_Source\PSoC4/CyLFClk.c ****     /*******************************************************************************
1581:Generated_Source\PSoC4/CyLFClk.c ****     * Function Name: CySysWdtSetInterruptCallback
1582:Generated_Source\PSoC4/CyLFClk.c ****     ****************************************************************************//**
1583:Generated_Source\PSoC4/CyLFClk.c ****     * \brief
1584:Generated_Source\PSoC4/CyLFClk.c ****     * Sets the ISR callback function for the particular WDT counter.
1585:Generated_Source\PSoC4/CyLFClk.c ****     * These functions are called on the WDT interrupt.
1586:Generated_Source\PSoC4/CyLFClk.c ****     *
1587:Generated_Source\PSoC4/CyLFClk.c ****     * \param counterNum The number of the WDT counter.
1588:Generated_Source\PSoC4/CyLFClk.c ****     * \param function The pointer to the callback function.
1589:Generated_Source\PSoC4/CyLFClk.c ****     *
1590:Generated_Source\PSoC4/CyLFClk.c ****     * \return The pointer to the previous callback function.
1591:Generated_Source\PSoC4/CyLFClk.c ****     * \return NULL is returned if the specified address is not set.
1592:Generated_Source\PSoC4/CyLFClk.c ****     *
1593:Generated_Source\PSoC4/CyLFClk.c ****     *******************************************************************************/
1594:Generated_Source\PSoC4/CyLFClk.c ****     cyWdtCallback CySysWdtSetInterruptCallback(uint32 counterNum, cyWdtCallback function)
1595:Generated_Source\PSoC4/CyLFClk.c ****     {
1596:Generated_Source\PSoC4/CyLFClk.c ****         cyWdtCallback prevCallback = (void *)0;
1597:Generated_Source\PSoC4/CyLFClk.c **** 
1598:Generated_Source\PSoC4/CyLFClk.c ****         if(counterNum < CY_WDT_NUM_OF_WDT)
1599:Generated_Source\PSoC4/CyLFClk.c ****         {
1600:Generated_Source\PSoC4/CyLFClk.c ****             prevCallback = cySysWdtCallback[counterNum];
1601:Generated_Source\PSoC4/CyLFClk.c ****             cySysWdtCallback[counterNum] = function;
1602:Generated_Source\PSoC4/CyLFClk.c ****         }
1603:Generated_Source\PSoC4/CyLFClk.c ****         else
1604:Generated_Source\PSoC4/CyLFClk.c ****         {
1605:Generated_Source\PSoC4/CyLFClk.c ****             CYASSERT(0u != 0u);
1606:Generated_Source\PSoC4/CyLFClk.c ****         }
1607:Generated_Source\PSoC4/CyLFClk.c **** 
1608:Generated_Source\PSoC4/CyLFClk.c ****         return((cyWdtCallback)prevCallback);
1609:Generated_Source\PSoC4/CyLFClk.c ****     }
1610:Generated_Source\PSoC4/CyLFClk.c **** 
1611:Generated_Source\PSoC4/CyLFClk.c **** 
1612:Generated_Source\PSoC4/CyLFClk.c ****     /*******************************************************************************
1613:Generated_Source\PSoC4/CyLFClk.c ****     * Function Name: CySysWdtGetInterruptCallback
1614:Generated_Source\PSoC4/CyLFClk.c ****     ****************************************************************************//**
1615:Generated_Source\PSoC4/CyLFClk.c ****     * \brief
1616:Generated_Source\PSoC4/CyLFClk.c ****     * Gets the ISR callback function for the particular WDT counter.
1617:Generated_Source\PSoC4/CyLFClk.c ****     *
1618:Generated_Source\PSoC4/CyLFClk.c ****     * \param counterNum The number of the WDT counter.
1619:Generated_Source\PSoC4/CyLFClk.c ****     *
1620:Generated_Source\PSoC4/CyLFClk.c ****     * \return The pointer to the callback function registered for a particular WDT by
1621:Generated_Source\PSoC4/CyLFClk.c ****     * a particular address that are passed through arguments.
1622:Generated_Source\PSoC4/CyLFClk.c ****     *
1623:Generated_Source\PSoC4/CyLFClk.c ****     *******************************************************************************/
1624:Generated_Source\PSoC4/CyLFClk.c ****     cyWdtCallback CySysWdtGetInterruptCallback(uint32 counterNum)
1625:Generated_Source\PSoC4/CyLFClk.c ****     {
1626:Generated_Source\PSoC4/CyLFClk.c ****         cyWdtCallback retCallback = (void *)0;
1627:Generated_Source\PSoC4/CyLFClk.c **** 
1628:Generated_Source\PSoC4/CyLFClk.c ****         if(counterNum < CY_WDT_NUM_OF_WDT)
ARM GAS  C:\Users\g\AppData\Local\Temp\ccelQmmg.s 			page 54


1629:Generated_Source\PSoC4/CyLFClk.c ****         {
1630:Generated_Source\PSoC4/CyLFClk.c ****             retCallback = (cyWdtCallback)cySysWdtCallback[counterNum];
1631:Generated_Source\PSoC4/CyLFClk.c ****         }
1632:Generated_Source\PSoC4/CyLFClk.c ****         else
1633:Generated_Source\PSoC4/CyLFClk.c ****         {
1634:Generated_Source\PSoC4/CyLFClk.c ****             CYASSERT(0u != 0u);
1635:Generated_Source\PSoC4/CyLFClk.c ****         }
1636:Generated_Source\PSoC4/CyLFClk.c **** 
1637:Generated_Source\PSoC4/CyLFClk.c ****         return(retCallback);
1638:Generated_Source\PSoC4/CyLFClk.c ****     }
1639:Generated_Source\PSoC4/CyLFClk.c **** 
1640:Generated_Source\PSoC4/CyLFClk.c **** 
1641:Generated_Source\PSoC4/CyLFClk.c ****     /*******************************************************************************
1642:Generated_Source\PSoC4/CyLFClk.c ****     * Function Name: CySysWdtEnableCounterIsr
1643:Generated_Source\PSoC4/CyLFClk.c ****     ****************************************************************************//**
1644:Generated_Source\PSoC4/CyLFClk.c ****     * \brief
1645:Generated_Source\PSoC4/CyLFClk.c ****     * Enables the ISR callback servicing for the particular WDT counter
1646:Generated_Source\PSoC4/CyLFClk.c ****     *
1647:Generated_Source\PSoC4/CyLFClk.c ****     * \param counterNum Valid range [0-2]. The number of the WDT counter.
1648:Generated_Source\PSoC4/CyLFClk.c ****     *
1649:Generated_Source\PSoC4/CyLFClk.c ****     * Value corresponds to appropriate WDT counter. For example value 1 
1650:Generated_Source\PSoC4/CyLFClk.c ****     * corresponds to second WDT counter.
1651:Generated_Source\PSoC4/CyLFClk.c ****     *
1652:Generated_Source\PSoC4/CyLFClk.c ****     *******************************************************************************/
1653:Generated_Source\PSoC4/CyLFClk.c ****     void CySysWdtEnableCounterIsr(uint32 counterNum)
1654:Generated_Source\PSoC4/CyLFClk.c ****     {
1655:Generated_Source\PSoC4/CyLFClk.c ****         if(counterNum <= CY_SYS_WDT_COUNTER2)
1656:Generated_Source\PSoC4/CyLFClk.c ****         {
1657:Generated_Source\PSoC4/CyLFClk.c ****             disableServicedIsr &= ~counterIntMaskTbl[counterNum];
1658:Generated_Source\PSoC4/CyLFClk.c ****             wdtIsrMask |= counterIntMaskTbl[counterNum];
1659:Generated_Source\PSoC4/CyLFClk.c ****         }
1660:Generated_Source\PSoC4/CyLFClk.c ****         else
1661:Generated_Source\PSoC4/CyLFClk.c ****         {
1662:Generated_Source\PSoC4/CyLFClk.c ****             CYASSERT(0u != 0u);
1663:Generated_Source\PSoC4/CyLFClk.c ****         }
1664:Generated_Source\PSoC4/CyLFClk.c ****     }
1665:Generated_Source\PSoC4/CyLFClk.c **** 
1666:Generated_Source\PSoC4/CyLFClk.c **** 
1667:Generated_Source\PSoC4/CyLFClk.c ****     /*******************************************************************************
1668:Generated_Source\PSoC4/CyLFClk.c ****     * Function Name: CySysWdtDisableCounterIsr
1669:Generated_Source\PSoC4/CyLFClk.c ****     ****************************************************************************//**
1670:Generated_Source\PSoC4/CyLFClk.c ****     * \brief
1671:Generated_Source\PSoC4/CyLFClk.c ****     * Disables the ISR callback servicing for the particular WDT counter
1672:Generated_Source\PSoC4/CyLFClk.c ****     *
1673:Generated_Source\PSoC4/CyLFClk.c ****     * \param counterNum Valid range [0-2]. The number of the WDT counter.
1674:Generated_Source\PSoC4/CyLFClk.c ****     *
1675:Generated_Source\PSoC4/CyLFClk.c ****     *******************************************************************************/
1676:Generated_Source\PSoC4/CyLFClk.c ****     void CySysWdtDisableCounterIsr(uint32 counterNum)
1677:Generated_Source\PSoC4/CyLFClk.c ****     {
1678:Generated_Source\PSoC4/CyLFClk.c ****         if(counterNum <= CY_SYS_WDT_COUNTER2)
1679:Generated_Source\PSoC4/CyLFClk.c ****         {
1680:Generated_Source\PSoC4/CyLFClk.c ****             wdtIsrMask &= ~counterIntMaskTbl[counterNum];
1681:Generated_Source\PSoC4/CyLFClk.c ****         }
1682:Generated_Source\PSoC4/CyLFClk.c ****         else
1683:Generated_Source\PSoC4/CyLFClk.c ****         {
1684:Generated_Source\PSoC4/CyLFClk.c ****             CYASSERT(0u != 0u);
1685:Generated_Source\PSoC4/CyLFClk.c ****         }
ARM GAS  C:\Users\g\AppData\Local\Temp\ccelQmmg.s 			page 55


1686:Generated_Source\PSoC4/CyLFClk.c ****     }
1687:Generated_Source\PSoC4/CyLFClk.c **** 
1688:Generated_Source\PSoC4/CyLFClk.c **** 
1689:Generated_Source\PSoC4/CyLFClk.c ****     /*******************************************************************************
1690:Generated_Source\PSoC4/CyLFClk.c ****     * Function Name: CySysWdtIsr
1691:Generated_Source\PSoC4/CyLFClk.c ****     ****************************************************************************//**
1692:Generated_Source\PSoC4/CyLFClk.c ****     * \brief
1693:Generated_Source\PSoC4/CyLFClk.c ****     * This is the handler of the WDT interrupt in CPU NVIC.
1694:Generated_Source\PSoC4/CyLFClk.c ****     *
1695:Generated_Source\PSoC4/CyLFClk.c ****     * The handler checks which WDT triggered in the interrupt and calls the 
1696:Generated_Source\PSoC4/CyLFClk.c ****     * respective callback functions configured by the user by using 
1697:Generated_Source\PSoC4/CyLFClk.c ****     * CySysWdtSetIsrCallback() API.
1698:Generated_Source\PSoC4/CyLFClk.c ****     *
1699:Generated_Source\PSoC4/CyLFClk.c ****     * The order of the callback execution is incremental. Callback-0 is
1700:Generated_Source\PSoC4/CyLFClk.c ****     * run as the first one and callback-2 is called as the last one.
1701:Generated_Source\PSoC4/CyLFClk.c ****     *
1702:Generated_Source\PSoC4/CyLFClk.c ****     * \details
1703:Generated_Source\PSoC4/CyLFClk.c ****     * This function clears the WDT interrupt every time when it is called.
1704:Generated_Source\PSoC4/CyLFClk.c ****     * Reset after the 3rd interrupt does not happen if this function is registered
1705:Generated_Source\PSoC4/CyLFClk.c ****     * as the interrupt handler even if the "Watchdog with Interrupt" mode is
1706:Generated_Source\PSoC4/CyLFClk.c ****     * selected on the "Low Frequency Clocks" tab.
1707:Generated_Source\PSoC4/CyLFClk.c ****     *
1708:Generated_Source\PSoC4/CyLFClk.c ****     *******************************************************************************/
1709:Generated_Source\PSoC4/CyLFClk.c ****     void CySysWdtIsr(void)
1710:Generated_Source\PSoC4/CyLFClk.c ****     {
1711:Generated_Source\PSoC4/CyLFClk.c ****         if(0u != (CY_SYS_WDT_COUNTER0_INT & CY_SYS_WDT_CONTROL_REG))
1712:Generated_Source\PSoC4/CyLFClk.c ****         {
1713:Generated_Source\PSoC4/CyLFClk.c ****             if(0u != (CY_SYS_WDT_COUNTER0_INT & wdtIsrMask))
1714:Generated_Source\PSoC4/CyLFClk.c ****             {
1715:Generated_Source\PSoC4/CyLFClk.c ****                 wdtIsrMask &= ~(disableServicedIsr & CY_SYS_WDT_COUNTER0_INT);
1716:Generated_Source\PSoC4/CyLFClk.c ****                 disableServicedIsr  &= ~CY_SYS_WDT_COUNTER0_INT;
1717:Generated_Source\PSoC4/CyLFClk.c ****                 if(cySysWdtCallback[CY_SYS_WDT_COUNTER0] != (void *) 0)
1718:Generated_Source\PSoC4/CyLFClk.c ****                 {
1719:Generated_Source\PSoC4/CyLFClk.c ****                     (void)(cySysWdtCallback[CY_SYS_WDT_COUNTER0])();
1720:Generated_Source\PSoC4/CyLFClk.c ****                 }
1721:Generated_Source\PSoC4/CyLFClk.c ****             }
1722:Generated_Source\PSoC4/CyLFClk.c ****             CySysWdtClearInterrupt(CY_SYS_WDT_COUNTER0_INT);
1723:Generated_Source\PSoC4/CyLFClk.c ****         }
1724:Generated_Source\PSoC4/CyLFClk.c **** 
1725:Generated_Source\PSoC4/CyLFClk.c ****         if(0u != (CY_SYS_WDT_COUNTER1_INT & CY_SYS_WDT_CONTROL_REG))
1726:Generated_Source\PSoC4/CyLFClk.c ****         {
1727:Generated_Source\PSoC4/CyLFClk.c ****             if(0u != (CY_SYS_WDT_COUNTER1_INT & wdtIsrMask))
1728:Generated_Source\PSoC4/CyLFClk.c ****             {
1729:Generated_Source\PSoC4/CyLFClk.c ****                 wdtIsrMask &= ~(disableServicedIsr & CY_SYS_WDT_COUNTER1_INT);
1730:Generated_Source\PSoC4/CyLFClk.c ****                 disableServicedIsr  &= ~CY_SYS_WDT_COUNTER1_INT;
1731:Generated_Source\PSoC4/CyLFClk.c ****                 if(cySysWdtCallback[CY_SYS_WDT_COUNTER1] != (void *) 0)
1732:Generated_Source\PSoC4/CyLFClk.c ****                 {
1733:Generated_Source\PSoC4/CyLFClk.c ****                     (void)(cySysWdtCallback[CY_SYS_WDT_COUNTER1])();
1734:Generated_Source\PSoC4/CyLFClk.c ****                 }
1735:Generated_Source\PSoC4/CyLFClk.c ****             }
1736:Generated_Source\PSoC4/CyLFClk.c ****             CySysWdtClearInterrupt(CY_SYS_WDT_COUNTER1_INT);
1737:Generated_Source\PSoC4/CyLFClk.c ****         }
1738:Generated_Source\PSoC4/CyLFClk.c **** 
1739:Generated_Source\PSoC4/CyLFClk.c ****         if(0u != (CY_SYS_WDT_COUNTER2_INT & CY_SYS_WDT_CONTROL_REG))
1740:Generated_Source\PSoC4/CyLFClk.c ****         {
1741:Generated_Source\PSoC4/CyLFClk.c ****             if(0u != (CY_SYS_WDT_COUNTER2_INT & wdtIsrMask))
1742:Generated_Source\PSoC4/CyLFClk.c ****             {
ARM GAS  C:\Users\g\AppData\Local\Temp\ccelQmmg.s 			page 56


1743:Generated_Source\PSoC4/CyLFClk.c ****                 if(cySysWdtCallback[CY_SYS_WDT_COUNTER2] != (void *) 0)
1744:Generated_Source\PSoC4/CyLFClk.c ****                 {
1745:Generated_Source\PSoC4/CyLFClk.c ****                     (void)(cySysWdtCallback[CY_SYS_WDT_COUNTER2])();
1746:Generated_Source\PSoC4/CyLFClk.c ****                 }
1747:Generated_Source\PSoC4/CyLFClk.c ****             }
1748:Generated_Source\PSoC4/CyLFClk.c ****             CySysWdtClearInterrupt(CY_SYS_WDT_COUNTER2_INT);
1749:Generated_Source\PSoC4/CyLFClk.c ****         }
1750:Generated_Source\PSoC4/CyLFClk.c ****     }
1751:Generated_Source\PSoC4/CyLFClk.c **** 
1752:Generated_Source\PSoC4/CyLFClk.c **** 
1753:Generated_Source\PSoC4/CyLFClk.c ****     /*******************************************************************************
1754:Generated_Source\PSoC4/CyLFClk.c ****     * Function Name: CySysWatchdogFeed
1755:Generated_Source\PSoC4/CyLFClk.c ****     ****************************************************************************//**
1756:Generated_Source\PSoC4/CyLFClk.c ****     * \brief
1757:Generated_Source\PSoC4/CyLFClk.c ****     * Feeds the corresponded Watchdog Counter before it causes the device reset.
1758:Generated_Source\PSoC4/CyLFClk.c ****     *
1759:Generated_Source\PSoC4/CyLFClk.c ****     * Supported only for first WDT0 and second WDT1 counters in the "Watchdog" or 
1760:Generated_Source\PSoC4/CyLFClk.c ****     * "Watchdog w/ Interrupts" modes.
1761:Generated_Source\PSoC4/CyLFClk.c ****     *
1762:Generated_Source\PSoC4/CyLFClk.c ****     * \param counterNum
1763:Generated_Source\PSoC4/CyLFClk.c ****     * CY_SYS_WDT_COUNTER0 - Feeds the Counter 0 <br>
1764:Generated_Source\PSoC4/CyLFClk.c ****     * CY_SYS_WDT_COUNTER1 - Feeds the Counter 1
1765:Generated_Source\PSoC4/CyLFClk.c ****     *
1766:Generated_Source\PSoC4/CyLFClk.c ****     * Value of counterNum corresponds to appropriate counter. For example value 1 
1767:Generated_Source\PSoC4/CyLFClk.c ****     * corresponds to second WDT1 Counter.
1768:Generated_Source\PSoC4/CyLFClk.c ****     *
1769:Generated_Source\PSoC4/CyLFClk.c ****     * \details
1770:Generated_Source\PSoC4/CyLFClk.c ****     * Clears the WDT counter in the "Watchdog" mode or clears the WDT interrupt in
1771:Generated_Source\PSoC4/CyLFClk.c ****     * "Watchdog w/ Interrupts" mode. Does nothing in other modes.
1772:Generated_Source\PSoC4/CyLFClk.c ****     *
1773:Generated_Source\PSoC4/CyLFClk.c ****     *******************************************************************************/
1774:Generated_Source\PSoC4/CyLFClk.c ****     void CySysWatchdogFeed(uint32 counterNum)
1775:Generated_Source\PSoC4/CyLFClk.c ****     {
1776:Generated_Source\PSoC4/CyLFClk.c ****         if(counterNum == CY_SYS_WDT_COUNTER0)
1777:Generated_Source\PSoC4/CyLFClk.c ****         {
1778:Generated_Source\PSoC4/CyLFClk.c ****             if(CY_SYS_WDT_MODE_INT_RESET == CySysWdtGetMode(counterNum))
1779:Generated_Source\PSoC4/CyLFClk.c ****             {
1780:Generated_Source\PSoC4/CyLFClk.c ****                 CySysWdtClearInterrupt(CY_SYS_WDT_COUNTER0_INT);
1781:Generated_Source\PSoC4/CyLFClk.c ****             }
1782:Generated_Source\PSoC4/CyLFClk.c ****             else if(CY_SYS_WDT_MODE_RESET == CySysWdtGetMode(counterNum))
1783:Generated_Source\PSoC4/CyLFClk.c ****             {
1784:Generated_Source\PSoC4/CyLFClk.c ****                 CySysWdtResetCounters(CY_SYS_WDT_COUNTER0_RESET);
1785:Generated_Source\PSoC4/CyLFClk.c ****                 CySysWdtClearInterrupt(CY_SYS_WDT_COUNTER0_INT);
1786:Generated_Source\PSoC4/CyLFClk.c ****             }
1787:Generated_Source\PSoC4/CyLFClk.c ****             else
1788:Generated_Source\PSoC4/CyLFClk.c ****             {
1789:Generated_Source\PSoC4/CyLFClk.c ****                 /* Do nothing. */
1790:Generated_Source\PSoC4/CyLFClk.c ****             }
1791:Generated_Source\PSoC4/CyLFClk.c ****         }
1792:Generated_Source\PSoC4/CyLFClk.c ****         else if(counterNum == CY_SYS_WDT_COUNTER1)
1793:Generated_Source\PSoC4/CyLFClk.c ****         {
1794:Generated_Source\PSoC4/CyLFClk.c ****             if(CY_SYS_WDT_MODE_INT_RESET == CySysWdtGetMode(counterNum))
1795:Generated_Source\PSoC4/CyLFClk.c ****             {
1796:Generated_Source\PSoC4/CyLFClk.c ****                 CySysWdtClearInterrupt(CY_SYS_WDT_COUNTER1_INT);
1797:Generated_Source\PSoC4/CyLFClk.c ****             }
1798:Generated_Source\PSoC4/CyLFClk.c ****             else if(CY_SYS_WDT_MODE_RESET == CySysWdtGetMode(counterNum))
1799:Generated_Source\PSoC4/CyLFClk.c ****             {
ARM GAS  C:\Users\g\AppData\Local\Temp\ccelQmmg.s 			page 57


1800:Generated_Source\PSoC4/CyLFClk.c ****                 CySysWdtResetCounters(CY_SYS_WDT_COUNTER1_RESET);
1801:Generated_Source\PSoC4/CyLFClk.c ****                 CySysWdtClearInterrupt(CY_SYS_WDT_COUNTER1_INT);
1802:Generated_Source\PSoC4/CyLFClk.c ****             }
1803:Generated_Source\PSoC4/CyLFClk.c ****             else
1804:Generated_Source\PSoC4/CyLFClk.c ****             {
1805:Generated_Source\PSoC4/CyLFClk.c ****                 /* Do nothing. */
1806:Generated_Source\PSoC4/CyLFClk.c ****             }
1807:Generated_Source\PSoC4/CyLFClk.c ****         }
1808:Generated_Source\PSoC4/CyLFClk.c ****         else
1809:Generated_Source\PSoC4/CyLFClk.c ****         {
1810:Generated_Source\PSoC4/CyLFClk.c ****             /* Do nothing. */
1811:Generated_Source\PSoC4/CyLFClk.c ****         }
1812:Generated_Source\PSoC4/CyLFClk.c ****     }
1813:Generated_Source\PSoC4/CyLFClk.c **** 
1814:Generated_Source\PSoC4/CyLFClk.c **** 
1815:Generated_Source\PSoC4/CyLFClk.c ****     /*******************************************************************************
1816:Generated_Source\PSoC4/CyLFClk.c ****     * Function Name: CySysClkLfclkPosedgeCatch
1817:Generated_Source\PSoC4/CyLFClk.c ****     ****************************************************************************//**
1818:Generated_Source\PSoC4/CyLFClk.c ****     * \internal
1819:Generated_Source\PSoC4/CyLFClk.c ****     * Returns once the LFCLK positive edge occurred.
1820:Generated_Source\PSoC4/CyLFClk.c ****     *
1821:Generated_Source\PSoC4/CyLFClk.c ****     * CySysClkLfclkPosedgeRestore() should be called after this function
1822:Generated_Source\PSoC4/CyLFClk.c ****     * to restore the WDT configuration.
1823:Generated_Source\PSoC4/CyLFClk.c ****     *
1824:Generated_Source\PSoC4/CyLFClk.c ****     * A pair of the CySysClkLfclkPosedgeCatch() and CySysClkLfclkPosedgeRestore()
1825:Generated_Source\PSoC4/CyLFClk.c ****     * functions is expected to be called inside a critical section.
1826:Generated_Source\PSoC4/CyLFClk.c ****     *
1827:Generated_Source\PSoC4/CyLFClk.c ****     * To ensure that the WDT counter value is read until it changes, the enabled
1828:Generated_Source\PSoC4/CyLFClk.c ****     * WDT counter is used. If no counter is enabled, counter 0 is enabled.
1829:Generated_Source\PSoC4/CyLFClk.c ****     * And after the LFCLK source is switched, the counter 0 configuration
1830:Generated_Source\PSoC4/CyLFClk.c ****     * is restored.
1831:Generated_Source\PSoC4/CyLFClk.c ****     *
1832:Generated_Source\PSoC4/CyLFClk.c ****     * Not applicable for the PSoC 4000 / PSoC 4000S / PSoC 4100S / PSoC Analog 
1833:Generated_Source\PSoC4/CyLFClk.c ****     * Coprocessor devices.
1834:Generated_Source\PSoC4/CyLFClk.c ****     *
1835:Generated_Source\PSoC4/CyLFClk.c ****     * \details
1836:Generated_Source\PSoC4/CyLFClk.c ****     * This function has no effect if WDT is locked (CySysWdtLock() is
1837:Generated_Source\PSoC4/CyLFClk.c ****     * called). Call CySysWdtUnlock() to unlock WDT.
1838:Generated_Source\PSoC4/CyLFClk.c ****     * \endinternal
1839:Generated_Source\PSoC4/CyLFClk.c ****     *******************************************************************************/
1840:Generated_Source\PSoC4/CyLFClk.c ****     static void CySysClkLfclkPosedgeCatch(void)
1841:Generated_Source\PSoC4/CyLFClk.c ****     {
1842:Generated_Source\PSoC4/CyLFClk.c ****         uint32 firstCount;
1843:Generated_Source\PSoC4/CyLFClk.c ****         static uint32 lfclkPosedgeEnabledWdtCounter = 0u;
1844:Generated_Source\PSoC4/CyLFClk.c **** 
1845:Generated_Source\PSoC4/CyLFClk.c ****         if (0u != CySysWdtGetEnabledStatus(CY_SYS_WDT_COUNTER0))
 1305              		.loc 1 1845 0
 1306 0026 9B07     		lsl	r3, r3, #30
 1307 0028 01D5     		bpl	.L137
1846:Generated_Source\PSoC4/CyLFClk.c ****         {
1847:Generated_Source\PSoC4/CyLFClk.c ****             lfclkPosedgeEnabledWdtCounter = CY_SYS_WDT_COUNTER0;
 1308              		.loc 1 1847 0
 1309 002a 009B     		ldr	r3, [sp]
 1310 002c 0AE0     		b	.L136
 1311              	.L137:
 1312              	.LVL111:
 1313              	.LBB90:
ARM GAS  C:\Users\g\AppData\Local\Temp\ccelQmmg.s 			page 58


 1314              	.LBB91:
1020:Generated_Source\PSoC4/CyLFClk.c ****     }
 1315              		.loc 1 1020 0
 1316 002e 2B68     		ldr	r3, [r5]
 1317 0030 5B0A     		lsr	r3, r3, #9
 1318              	.LBE91:
 1319              	.LBE90:
1848:Generated_Source\PSoC4/CyLFClk.c ****         }
1849:Generated_Source\PSoC4/CyLFClk.c ****         else if (0u != CySysWdtGetEnabledStatus(CY_SYS_WDT_COUNTER1))
 1320              		.loc 1 1849 0
 1321 0032 3342     		tst	r3, r6
 1322 0034 01D0     		beq	.L125
1850:Generated_Source\PSoC4/CyLFClk.c ****         {
1851:Generated_Source\PSoC4/CyLFClk.c ****             lfclkPosedgeEnabledWdtCounter = CY_SYS_WDT_COUNTER1;
 1323              		.loc 1 1851 0
 1324 0036 6660     		str	r6, [r4, #4]
 1325 0038 13E0     		b	.L124
 1326              	.L125:
 1327              	.LVL112:
 1328              	.LBB92:
 1329              	.LBB93:
1020:Generated_Source\PSoC4/CyLFClk.c ****     }
 1330              		.loc 1 1020 0
 1331 003a 2968     		ldr	r1, [r5]
 1332 003c 490C     		lsr	r1, r1, #17
 1333 003e 3140     		and	r1, r6
 1334              	.LBE93:
 1335              	.LBE92:
1852:Generated_Source\PSoC4/CyLFClk.c ****         }
1853:Generated_Source\PSoC4/CyLFClk.c ****         else if (0u != CySysWdtGetEnabledStatus(CY_SYS_WDT_COUNTER2))
 1336              		.loc 1 1853 0
 1337 0040 02D0     		beq	.L126
1854:Generated_Source\PSoC4/CyLFClk.c ****         {
1855:Generated_Source\PSoC4/CyLFClk.c ****             lfclkPosedgeEnabledWdtCounter = CY_SYS_WDT_COUNTER2;
 1338              		.loc 1 1855 0
 1339 0042 0223     		mov	r3, #2
 1340              	.LVL113:
 1341              	.L136:
 1342 0044 6360     		str	r3, [r4, #4]
 1343 0046 0CE0     		b	.L124
 1344              	.LVL114:
 1345              	.L126:
 1346              	.LBB94:
 1347              	.LBB95:
1077:Generated_Source\PSoC4/CyLFClk.c ****     }
 1348              		.loc 1 1077 0
 1349 0048 194B     		ldr	r3, .L138+16
 1350              	.LBE95:
 1351              	.LBE94:
1856:Generated_Source\PSoC4/CyLFClk.c ****         }
1857:Generated_Source\PSoC4/CyLFClk.c ****         else /* All WDT counters are disabled */
1858:Generated_Source\PSoC4/CyLFClk.c ****         {
1859:Generated_Source\PSoC4/CyLFClk.c ****             /* Configure WDT counter # 0 */
1860:Generated_Source\PSoC4/CyLFClk.c ****             lfclkPosedgeWdtCounter0Enabled = 1u;
 1352              		.loc 1 1860 0
 1353 004a A660     		str	r6, [r4, #8]
1861:Generated_Source\PSoC4/CyLFClk.c ****             lfclkPosedgeEnabledWdtCounter = CY_SYS_WDT_COUNTER0;
ARM GAS  C:\Users\g\AppData\Local\Temp\ccelQmmg.s 			page 59


 1354              		.loc 1 1861 0
 1355 004c 6160     		str	r1, [r4, #4]
 1356              	.LVL115:
 1357              	.LBB98:
 1358              	.LBB96:
1077:Generated_Source\PSoC4/CyLFClk.c ****     }
 1359              		.loc 1 1077 0
 1360 004e 1A68     		ldr	r2, [r3]
 1361 0050 0323     		mov	r3, #3
 1362              	.LBE96:
 1363              	.LBE98:
1862:Generated_Source\PSoC4/CyLFClk.c **** 
1863:Generated_Source\PSoC4/CyLFClk.c ****             lfclkPosedgeWdtCounter0Mode = CySysWdtGetMode(CY_SYS_WDT_COUNTER0);
1864:Generated_Source\PSoC4/CyLFClk.c ****             CySysWdtSetMode(CY_SYS_WDT_COUNTER0, CY_SYS_WDT_MODE_NONE);
 1364              		.loc 1 1864 0
 1365 0052 081C     		mov	r0, r1
 1366              	.LBB99:
 1367              	.LBB97:
1077:Generated_Source\PSoC4/CyLFClk.c ****     }
 1368              		.loc 1 1077 0
 1369 0054 1340     		and	r3, r2
 1370              	.LBE97:
 1371              	.LBE99:
1863:Generated_Source\PSoC4/CyLFClk.c ****             CySysWdtSetMode(CY_SYS_WDT_COUNTER0, CY_SYS_WDT_MODE_NONE);
 1372              		.loc 1 1863 0
 1373 0056 E360     		str	r3, [r4, #12]
 1374              		.loc 1 1864 0
 1375 0058 FFF7FEFF 		bl	CySysWdtSetMode
 1376              	.LVL116:
1865:Generated_Source\PSoC4/CyLFClk.c ****             CySysWdtEnable(CY_SYS_WDT_COUNTER0_MASK);
 1377              		.loc 1 1865 0
 1378 005c 301C     		mov	r0, r6
 1379 005e FFF7FEFF 		bl	CySysWdtEnable
 1380              	.LVL117:
 1381              	.L124:
1866:Generated_Source\PSoC4/CyLFClk.c ****         }
1867:Generated_Source\PSoC4/CyLFClk.c **** 
1868:Generated_Source\PSoC4/CyLFClk.c ****         firstCount = CySysWdtGetCount(lfclkPosedgeEnabledWdtCounter);
 1382              		.loc 1 1868 0
 1383 0062 6068     		ldr	r0, [r4, #4]
 1384 0064 FFF7FEFF 		bl	CySysWdtGetCount
 1385              	.LVL118:
 1386 0068 061C     		mov	r6, r0
 1387              	.LVL119:
 1388              	.L127:
1869:Generated_Source\PSoC4/CyLFClk.c ****         while (CySysWdtGetCount(lfclkPosedgeEnabledWdtCounter) == firstCount)
 1389              		.loc 1 1869 0
 1390 006a 6068     		ldr	r0, [r4, #4]
 1391 006c FFF7FEFF 		bl	CySysWdtGetCount
 1392              	.LVL120:
 1393 0070 B042     		cmp	r0, r6
 1394 0072 FAD0     		beq	.L127
 1395              	.LBE100:
 1396              	.LBE101:
 126:Generated_Source\PSoC4/CyLFClk.c ****                 CySysClkLfclkPosedgeRestore();
 1397              		.loc 1 126 0
 1398 0074 3B68     		ldr	r3, [r7]
ARM GAS  C:\Users\g\AppData\Local\Temp\ccelQmmg.s 			page 60


 1399 0076 5B00     		lsl	r3, r3, #1
 1400 0078 5B08     		lsr	r3, r3, #1
 1401 007a 3B60     		str	r3, [r7]
 1402              	.LBB102:
 1403              	.LBB103:
1870:Generated_Source\PSoC4/CyLFClk.c ****         {
1871:Generated_Source\PSoC4/CyLFClk.c ****             /* Wait for counter to increment */
1872:Generated_Source\PSoC4/CyLFClk.c ****         }
1873:Generated_Source\PSoC4/CyLFClk.c ****     }
1874:Generated_Source\PSoC4/CyLFClk.c **** 
1875:Generated_Source\PSoC4/CyLFClk.c **** 
1876:Generated_Source\PSoC4/CyLFClk.c ****     /*******************************************************************************
1877:Generated_Source\PSoC4/CyLFClk.c ****     * Function Name: CySysClkLfclkPosedgeRestore
1878:Generated_Source\PSoC4/CyLFClk.c ****     ****************************************************************************//**
1879:Generated_Source\PSoC4/CyLFClk.c ****     * \internal
1880:Generated_Source\PSoC4/CyLFClk.c ****     *  Restores the WDT configuration after a CySysClkLfclkPosedgeCatch() call.
1881:Generated_Source\PSoC4/CyLFClk.c ****     *
1882:Generated_Source\PSoC4/CyLFClk.c ****     *  A pair of the CySysClkLfclkPosedgeCatch() and CySysClkLfclkPosedgeRestore()
1883:Generated_Source\PSoC4/CyLFClk.c ****     *  functions is expected to be called inside a critical section.
1884:Generated_Source\PSoC4/CyLFClk.c ****     *
1885:Generated_Source\PSoC4/CyLFClk.c ****     * Not applicable for the PSoC 4000/PSoC 4000S / PSoC 4100S / PSoC Analog 
1886:Generated_Source\PSoC4/CyLFClk.c ****     * Coprocessor devices.
1887:Generated_Source\PSoC4/CyLFClk.c ****     *
1888:Generated_Source\PSoC4/CyLFClk.c ****     * \details
1889:Generated_Source\PSoC4/CyLFClk.c ****     *  This function has no effect if WDT is locked (CySysWdtLock() is
1890:Generated_Source\PSoC4/CyLFClk.c ****     *  called). Call CySysWdtUnlock() to unlock WDT.
1891:Generated_Source\PSoC4/CyLFClk.c ****     *
1892:Generated_Source\PSoC4/CyLFClk.c ****     * \endinternal
1893:Generated_Source\PSoC4/CyLFClk.c ****     *******************************************************************************/
1894:Generated_Source\PSoC4/CyLFClk.c ****     static void CySysClkLfclkPosedgeRestore(void)
1895:Generated_Source\PSoC4/CyLFClk.c ****     {
1896:Generated_Source\PSoC4/CyLFClk.c ****         if (lfclkPosedgeWdtCounter0Enabled != 0u)
 1404              		.loc 1 1896 0
 1405 007c A368     		ldr	r3, [r4, #8]
 1406 007e 002B     		cmp	r3, #0
 1407 0080 09D0     		beq	.L128
1897:Generated_Source\PSoC4/CyLFClk.c ****         {
1898:Generated_Source\PSoC4/CyLFClk.c ****             /* Restore counter # 0 configuration and force its shutdown */
1899:Generated_Source\PSoC4/CyLFClk.c ****             CY_SYS_WDT_CONTROL_REG &= (uint32)(~CY_SYS_WDT_COUNTER0_MASK);
 1408              		.loc 1 1899 0
 1409 0082 0122     		mov	r2, #1
 1410 0084 2B68     		ldr	r3, [r5]
1900:Generated_Source\PSoC4/CyLFClk.c ****             CySysWdtSetMode(CY_SYS_WDT_COUNTER0, lfclkPosedgeWdtCounter0Mode);
 1411              		.loc 1 1900 0
 1412 0086 0020     		mov	r0, #0
1899:Generated_Source\PSoC4/CyLFClk.c ****             CySysWdtSetMode(CY_SYS_WDT_COUNTER0, lfclkPosedgeWdtCounter0Mode);
 1413              		.loc 1 1899 0
 1414 0088 9343     		bic	r3, r2
 1415 008a 2B60     		str	r3, [r5]
 1416              		.loc 1 1900 0
 1417 008c E168     		ldr	r1, [r4, #12]
 1418 008e FFF7FEFF 		bl	CySysWdtSetMode
 1419              	.LVL121:
1901:Generated_Source\PSoC4/CyLFClk.c ****             lfclkPosedgeWdtCounter0Enabled = 0u;
 1420              		.loc 1 1901 0
 1421 0092 0023     		mov	r3, #0
 1422 0094 A360     		str	r3, [r4, #8]
ARM GAS  C:\Users\g\AppData\Local\Temp\ccelQmmg.s 			page 61


 1423              	.L128:
 1424              	.LBE103:
 1425              	.LBE102:
 128:Generated_Source\PSoC4/CyLFClk.c **** 
 1426              		.loc 1 128 0
 1427 0096 0198     		ldr	r0, [sp, #4]
 1428 0098 FFF7FEFF 		bl	CyExitCriticalSection
 1429              	.LVL122:
 1430              	.L121:
 143:Generated_Source\PSoC4/CyLFClk.c **** 
 1431              		.loc 1 143 0
 1432              		@ sp needed
 1433 009c F7BD     		pop	{r0, r1, r2, r4, r5, r6, r7, pc}
 1434              	.L139:
 1435 009e C046     		.align	2
 1436              	.L138:
 1437 00a0 00010B40 		.word	1074462976
 1438 00a4 04010B40 		.word	1074462980
 1439 00a8 10020B40 		.word	1074463248
 1440 00ac 00000000 		.word	.LANCHOR0
 1441 00b0 0C020B40 		.word	1074463244
 1442              		.cfi_endproc
 1443              	.LFE1:
 1444              		.size	CySysClkIloStop, .-CySysClkIloStop
 1445              		.section	.text.CySysWdtGetInterruptSource,"ax",%progbits
 1446              		.align	1
 1447              		.global	CySysWdtGetInterruptSource
 1448              		.code	16
 1449              		.thumb_func
 1450              		.type	CySysWdtGetInterruptSource, %function
 1451              	CySysWdtGetInterruptSource:
 1452              	.LFB23:
1482:Generated_Source\PSoC4/CyLFClk.c ****         return (CY_SYS_WDT_CONTROL_REG & (CY_SYS_WDT_COUNTER0_INT | CY_SYS_WDT_COUNTER1_INT | CY_SY
 1453              		.loc 1 1482 0
 1454              		.cfi_startproc
1483:Generated_Source\PSoC4/CyLFClk.c ****     }
 1455              		.loc 1 1483 0
 1456 0000 024B     		ldr	r3, .L141
1484:Generated_Source\PSoC4/CyLFClk.c **** 
 1457              		.loc 1 1484 0
 1458              		@ sp needed
1483:Generated_Source\PSoC4/CyLFClk.c ****     }
 1459              		.loc 1 1483 0
 1460 0002 1868     		ldr	r0, [r3]
 1461 0004 024B     		ldr	r3, .L141+4
 1462 0006 1840     		and	r0, r3
1484:Generated_Source\PSoC4/CyLFClk.c **** 
 1463              		.loc 1 1484 0
 1464 0008 7047     		bx	lr
 1465              	.L142:
 1466 000a C046     		.align	2
 1467              	.L141:
 1468 000c 10020B40 		.word	1074463248
 1469 0010 04040400 		.word	263172
 1470              		.cfi_endproc
 1471              	.LFE23:
 1472              		.size	CySysWdtGetInterruptSource, .-CySysWdtGetInterruptSource
ARM GAS  C:\Users\g\AppData\Local\Temp\ccelQmmg.s 			page 62


 1473              		.section	.text.CySysWdtClearInterrupt,"ax",%progbits
 1474              		.align	1
 1475              		.global	CySysWdtClearInterrupt
 1476              		.code	16
 1477              		.thumb_func
 1478              		.type	CySysWdtClearInterrupt, %function
 1479              	CySysWdtClearInterrupt:
 1480              	.LFB24:
1511:Generated_Source\PSoC4/CyLFClk.c ****         uint8 interruptState;
 1481              		.loc 1 1511 0
 1482              		.cfi_startproc
 1483              	.LVL123:
 1484 0000 70B5     		push	{r4, r5, r6, lr}
 1485              		.cfi_def_cfa_offset 16
 1486              		.cfi_offset 4, -16
 1487              		.cfi_offset 5, -12
 1488              		.cfi_offset 6, -8
 1489              		.cfi_offset 14, -4
1511:Generated_Source\PSoC4/CyLFClk.c ****         uint8 interruptState;
 1490              		.loc 1 1511 0
 1491 0002 051C     		mov	r5, r0
1515:Generated_Source\PSoC4/CyLFClk.c **** 
 1492              		.loc 1 1515 0
 1493 0004 FFF7FEFF 		bl	CyEnterCriticalSection
 1494              	.LVL124:
 1495              	.LBB106:
 1496              	.LBB107:
 972:Generated_Source\PSoC4/CyLFClk.c ****     }
 1497              		.loc 1 972 0
 1498 0008 0E4B     		ldr	r3, .L148
 1499              	.LBE107:
 1500              	.LBE106:
1515:Generated_Source\PSoC4/CyLFClk.c **** 
 1501              		.loc 1 1515 0
 1502 000a 041C     		mov	r4, r0
 1503              	.LVL125:
 1504              	.LBB109:
 1505              	.LBB108:
 972:Generated_Source\PSoC4/CyLFClk.c ****     }
 1506              		.loc 1 972 0
 1507 000c 1A68     		ldr	r2, [r3]
 1508 000e C023     		mov	r3, #192
 1509 0010 1B02     		lsl	r3, r3, #8
 1510 0012 1340     		and	r3, r2
 1511 0014 11D1     		bne	.L144
 1512              	.L146:
 1513              	.LVL126:
 1514              	.LBE108:
 1515              	.LBE109:
1528:Generated_Source\PSoC4/CyLFClk.c ****                         CY_SYS_WDT_COUNTER1_INT |
 1516              		.loc 1 1528 0
 1517 0016 0C48     		ldr	r0, .L148+4
1532:Generated_Source\PSoC4/CyLFClk.c ****                                                                            CY_SYS_WDT_COUNTER1_INT 
 1518              		.loc 1 1532 0
 1519 0018 0C49     		ldr	r1, .L148+8
1528:Generated_Source\PSoC4/CyLFClk.c ****                         CY_SYS_WDT_COUNTER1_INT |
 1520              		.loc 1 1528 0
ARM GAS  C:\Users\g\AppData\Local\Temp\ccelQmmg.s 			page 63


 1521 001a 0540     		and	r5, r0
 1522              	.LVL127:
1532:Generated_Source\PSoC4/CyLFClk.c ****                                                                            CY_SYS_WDT_COUNTER1_INT 
 1523              		.loc 1 1532 0
 1524 001c 281C     		mov	r0, r5
 1525 001e 0E68     		ldr	r6, [r1]
 1526 0020 0B4A     		ldr	r2, .L148+12
 1527 0022 3240     		and	r2, r6
 1528 0024 1043     		orr	r0, r2
 1529 0026 0860     		str	r0, [r1]
1539:Generated_Source\PSoC4/CyLFClk.c **** 
 1530              		.loc 1 1539 0
 1531 0028 0A68     		ldr	r2, [r1]
1541:Generated_Source\PSoC4/CyLFClk.c ****         {
 1532              		.loc 1 1541 0
 1533 002a 012B     		cmp	r3, #1
 1534 002c 01D1     		bne	.L145
 1535              	.LVL128:
1543:Generated_Source\PSoC4/CyLFClk.c ****         }
 1536              		.loc 1 1543 0
 1537 002e FFF7FEFF 		bl	CySysWdtLock
 1538              	.LVL129:
 1539              	.L145:
1546:Generated_Source\PSoC4/CyLFClk.c ****     }
 1540              		.loc 1 1546 0
 1541 0032 201C     		mov	r0, r4
 1542 0034 FFF7FEFF 		bl	CyExitCriticalSection
 1543              	.LVL130:
1547:Generated_Source\PSoC4/CyLFClk.c **** 
 1544              		.loc 1 1547 0
 1545              		@ sp needed
 1546              	.LVL131:
 1547 0038 70BD     		pop	{r4, r5, r6, pc}
 1548              	.LVL132:
 1549              	.L144:
1520:Generated_Source\PSoC4/CyLFClk.c ****         }
 1550              		.loc 1 1520 0
 1551 003a FFF7FEFF 		bl	CySysWdtUnlock
 1552              	.LVL133:
1519:Generated_Source\PSoC4/CyLFClk.c ****             CySysWdtUnlock();
 1553              		.loc 1 1519 0
 1554 003e 0123     		mov	r3, #1
 1555 0040 E9E7     		b	.L146
 1556              	.L149:
 1557 0042 C046     		.align	2
 1558              	.L148:
 1559 0044 00010B40 		.word	1074462976
 1560 0048 04040400 		.word	263172
 1561 004c 10020B40 		.word	1074463248
 1562 0050 FBFBFBFF 		.word	-263173
 1563              		.cfi_endproc
 1564              	.LFE24:
 1565              		.size	CySysWdtClearInterrupt, .-CySysWdtClearInterrupt
 1566              		.section	.text.CySysWdtResetCounters,"ax",%progbits
 1567              		.align	1
 1568              		.global	CySysWdtResetCounters
 1569              		.code	16
ARM GAS  C:\Users\g\AppData\Local\Temp\ccelQmmg.s 			page 64


 1570              		.thumb_func
 1571              		.type	CySysWdtResetCounters, %function
 1572              	CySysWdtResetCounters:
 1573              	.LFB25:
1569:Generated_Source\PSoC4/CyLFClk.c ****         /* Set new WDT reset value */
 1574              		.loc 1 1569 0
 1575              		.cfi_startproc
 1576              	.LVL134:
1571:Generated_Source\PSoC4/CyLFClk.c **** 
 1577              		.loc 1 1571 0
 1578 0000 044B     		ldr	r3, .L152
 1579 0002 054A     		ldr	r2, .L152+4
 1580 0004 1968     		ldr	r1, [r3]
 1581 0006 1040     		and	r0, r2
 1582              	.LVL135:
 1583 0008 0843     		orr	r0, r1
 1584 000a 1860     		str	r0, [r3]
 1585              	.L151:
1573:Generated_Source\PSoC4/CyLFClk.c ****         {
 1586              		.loc 1 1573 0 discriminator 1
 1587 000c 1968     		ldr	r1, [r3]
 1588 000e 1142     		tst	r1, r2
 1589 0010 FCD1     		bne	.L151
1577:Generated_Source\PSoC4/CyLFClk.c **** 
 1590              		.loc 1 1577 0
 1591              		@ sp needed
 1592 0012 7047     		bx	lr
 1593              	.L153:
 1594              		.align	2
 1595              	.L152:
 1596 0014 10020B40 		.word	1074463248
 1597 0018 08080800 		.word	526344
 1598              		.cfi_endproc
 1599              	.LFE25:
 1600              		.size	CySysWdtResetCounters, .-CySysWdtResetCounters
 1601              		.section	.text.CySysWdtSetInterruptCallback,"ax",%progbits
 1602              		.align	1
 1603              		.global	CySysWdtSetInterruptCallback
 1604              		.code	16
 1605              		.thumb_func
 1606              		.type	CySysWdtSetInterruptCallback, %function
 1607              	CySysWdtSetInterruptCallback:
 1608              	.LFB26:
1595:Generated_Source\PSoC4/CyLFClk.c ****         cyWdtCallback prevCallback = (void *)0;
 1609              		.loc 1 1595 0
 1610              		.cfi_startproc
 1611              	.LVL136:
 1612 0000 08B5     		push	{r3, lr}
 1613              		.cfi_def_cfa_offset 8
 1614              		.cfi_offset 3, -8
 1615              		.cfi_offset 14, -4
1598:Generated_Source\PSoC4/CyLFClk.c ****         {
 1616              		.loc 1 1598 0
 1617 0002 0228     		cmp	r0, #2
 1618 0004 05D8     		bhi	.L155
1600:Generated_Source\PSoC4/CyLFClk.c ****             cySysWdtCallback[counterNum] = function;
 1619              		.loc 1 1600 0
ARM GAS  C:\Users\g\AppData\Local\Temp\ccelQmmg.s 			page 65


 1620 0006 054B     		ldr	r3, .L157
 1621 0008 8000     		lsl	r0, r0, #2
 1622              	.LVL137:
 1623 000a 1B18     		add	r3, r3, r0
 1624 000c 1869     		ldr	r0, [r3, #16]
 1625              	.LVL138:
1601:Generated_Source\PSoC4/CyLFClk.c ****         }
 1626              		.loc 1 1601 0
 1627 000e 1961     		str	r1, [r3, #16]
 1628 0010 03E0     		b	.L156
 1629              	.LVL139:
 1630              	.L155:
1605:Generated_Source\PSoC4/CyLFClk.c ****         }
 1631              		.loc 1 1605 0 discriminator 1
 1632 0012 0020     		mov	r0, #0
 1633              	.LVL140:
 1634 0014 FFF7FEFF 		bl	CyHalt
 1635              	.LVL141:
1596:Generated_Source\PSoC4/CyLFClk.c **** 
 1636              		.loc 1 1596 0 discriminator 1
 1637 0018 0020     		mov	r0, #0
 1638              	.LVL142:
 1639              	.L156:
1609:Generated_Source\PSoC4/CyLFClk.c **** 
 1640              		.loc 1 1609 0
 1641              		@ sp needed
 1642 001a 08BD     		pop	{r3, pc}
 1643              	.L158:
 1644              		.align	2
 1645              	.L157:
 1646 001c 00000000 		.word	.LANCHOR0
 1647              		.cfi_endproc
 1648              	.LFE26:
 1649              		.size	CySysWdtSetInterruptCallback, .-CySysWdtSetInterruptCallback
 1650              		.section	.text.CySysWdtGetInterruptCallback,"ax",%progbits
 1651              		.align	1
 1652              		.global	CySysWdtGetInterruptCallback
 1653              		.code	16
 1654              		.thumb_func
 1655              		.type	CySysWdtGetInterruptCallback, %function
 1656              	CySysWdtGetInterruptCallback:
 1657              	.LFB27:
1625:Generated_Source\PSoC4/CyLFClk.c ****         cyWdtCallback retCallback = (void *)0;
 1658              		.loc 1 1625 0
 1659              		.cfi_startproc
 1660              	.LVL143:
 1661 0000 08B5     		push	{r3, lr}
 1662              		.cfi_def_cfa_offset 8
 1663              		.cfi_offset 3, -8
 1664              		.cfi_offset 14, -4
1628:Generated_Source\PSoC4/CyLFClk.c ****         {
 1665              		.loc 1 1628 0
 1666 0002 0228     		cmp	r0, #2
 1667 0004 04D8     		bhi	.L160
1630:Generated_Source\PSoC4/CyLFClk.c ****         }
 1668              		.loc 1 1630 0
 1669 0006 054B     		ldr	r3, .L162
ARM GAS  C:\Users\g\AppData\Local\Temp\ccelQmmg.s 			page 66


 1670 0008 8000     		lsl	r0, r0, #2
 1671              	.LVL144:
 1672 000a 1818     		add	r0, r3, r0
 1673 000c 0069     		ldr	r0, [r0, #16]
 1674              	.LVL145:
 1675 000e 03E0     		b	.L161
 1676              	.LVL146:
 1677              	.L160:
1634:Generated_Source\PSoC4/CyLFClk.c ****         }
 1678              		.loc 1 1634 0 discriminator 1
 1679 0010 0020     		mov	r0, #0
 1680              	.LVL147:
 1681 0012 FFF7FEFF 		bl	CyHalt
 1682              	.LVL148:
1626:Generated_Source\PSoC4/CyLFClk.c **** 
 1683              		.loc 1 1626 0 discriminator 1
 1684 0016 0020     		mov	r0, #0
 1685              	.LVL149:
 1686              	.L161:
1638:Generated_Source\PSoC4/CyLFClk.c **** 
 1687              		.loc 1 1638 0
 1688              		@ sp needed
 1689 0018 08BD     		pop	{r3, pc}
 1690              	.L163:
 1691 001a C046     		.align	2
 1692              	.L162:
 1693 001c 00000000 		.word	.LANCHOR0
 1694              		.cfi_endproc
 1695              	.LFE27:
 1696              		.size	CySysWdtGetInterruptCallback, .-CySysWdtGetInterruptCallback
 1697              		.section	.text.CySysWdtEnableCounterIsr,"ax",%progbits
 1698              		.align	1
 1699              		.global	CySysWdtEnableCounterIsr
 1700              		.code	16
 1701              		.thumb_func
 1702              		.type	CySysWdtEnableCounterIsr, %function
 1703              	CySysWdtEnableCounterIsr:
 1704              	.LFB28:
1654:Generated_Source\PSoC4/CyLFClk.c ****         if(counterNum <= CY_SYS_WDT_COUNTER2)
 1705              		.loc 1 1654 0
 1706              		.cfi_startproc
 1707              	.LVL150:
 1708 0000 08B5     		push	{r3, lr}
 1709              		.cfi_def_cfa_offset 8
 1710              		.cfi_offset 3, -8
 1711              		.cfi_offset 14, -4
1655:Generated_Source\PSoC4/CyLFClk.c ****         {
 1712              		.loc 1 1655 0
 1713 0002 0228     		cmp	r0, #2
 1714 0004 0BD8     		bhi	.L165
1657:Generated_Source\PSoC4/CyLFClk.c ****             wdtIsrMask |= counterIntMaskTbl[counterNum];
 1715              		.loc 1 1657 0
 1716 0006 084B     		ldr	r3, .L167
 1717 0008 0849     		ldr	r1, .L167+4
 1718 000a 8000     		lsl	r0, r0, #2
 1719              	.LVL151:
 1720 000c DA69     		ldr	r2, [r3, #28]
ARM GAS  C:\Users\g\AppData\Local\Temp\ccelQmmg.s 			page 67


 1721 000e 4158     		ldr	r1, [r0, r1]
 1722 0010 8A43     		bic	r2, r1
 1723 0012 DA61     		str	r2, [r3, #28]
1658:Generated_Source\PSoC4/CyLFClk.c ****         }
 1724              		.loc 1 1658 0
 1725 0014 064A     		ldr	r2, .L167+8
 1726 0016 1368     		ldr	r3, [r2]
 1727 0018 0B43     		orr	r3, r1
 1728 001a 1360     		str	r3, [r2]
 1729 001c 02E0     		b	.L164
 1730              	.LVL152:
 1731              	.L165:
1662:Generated_Source\PSoC4/CyLFClk.c ****         }
 1732              		.loc 1 1662 0 discriminator 1
 1733 001e 0020     		mov	r0, #0
 1734              	.LVL153:
 1735 0020 FFF7FEFF 		bl	CyHalt
 1736              	.LVL154:
 1737              	.L164:
1664:Generated_Source\PSoC4/CyLFClk.c **** 
 1738              		.loc 1 1664 0
 1739              		@ sp needed
 1740 0024 08BD     		pop	{r3, pc}
 1741              	.L168:
 1742 0026 C046     		.align	2
 1743              	.L167:
 1744 0028 00000000 		.word	.LANCHOR0
 1745 002c 00000000 		.word	.LANCHOR1
 1746 0030 00000000 		.word	.LANCHOR2
 1747              		.cfi_endproc
 1748              	.LFE28:
 1749              		.size	CySysWdtEnableCounterIsr, .-CySysWdtEnableCounterIsr
 1750              		.section	.text.CySysWdtDisableCounterIsr,"ax",%progbits
 1751              		.align	1
 1752              		.global	CySysWdtDisableCounterIsr
 1753              		.code	16
 1754              		.thumb_func
 1755              		.type	CySysWdtDisableCounterIsr, %function
 1756              	CySysWdtDisableCounterIsr:
 1757              	.LFB29:
1677:Generated_Source\PSoC4/CyLFClk.c ****         if(counterNum <= CY_SYS_WDT_COUNTER2)
 1758              		.loc 1 1677 0
 1759              		.cfi_startproc
 1760              	.LVL155:
 1761 0000 08B5     		push	{r3, lr}
 1762              		.cfi_def_cfa_offset 8
 1763              		.cfi_offset 3, -8
 1764              		.cfi_offset 14, -4
1678:Generated_Source\PSoC4/CyLFClk.c ****         {
 1765              		.loc 1 1678 0
 1766 0002 0228     		cmp	r0, #2
 1767 0004 07D8     		bhi	.L170
1680:Generated_Source\PSoC4/CyLFClk.c ****         }
 1768              		.loc 1 1680 0
 1769 0006 064A     		ldr	r2, .L172
 1770 0008 0649     		ldr	r1, .L172+4
 1771 000a 8000     		lsl	r0, r0, #2
ARM GAS  C:\Users\g\AppData\Local\Temp\ccelQmmg.s 			page 68


 1772              	.LVL156:
 1773 000c 1368     		ldr	r3, [r2]
 1774 000e 4158     		ldr	r1, [r0, r1]
 1775 0010 8B43     		bic	r3, r1
 1776 0012 1360     		str	r3, [r2]
 1777 0014 02E0     		b	.L169
 1778              	.LVL157:
 1779              	.L170:
1684:Generated_Source\PSoC4/CyLFClk.c ****         }
 1780              		.loc 1 1684 0 discriminator 1
 1781 0016 0020     		mov	r0, #0
 1782              	.LVL158:
 1783 0018 FFF7FEFF 		bl	CyHalt
 1784              	.LVL159:
 1785              	.L169:
1686:Generated_Source\PSoC4/CyLFClk.c **** 
 1786              		.loc 1 1686 0
 1787              		@ sp needed
 1788 001c 08BD     		pop	{r3, pc}
 1789              	.L173:
 1790 001e C046     		.align	2
 1791              	.L172:
 1792 0020 00000000 		.word	.LANCHOR2
 1793 0024 00000000 		.word	.LANCHOR1
 1794              		.cfi_endproc
 1795              	.LFE29:
 1796              		.size	CySysWdtDisableCounterIsr, .-CySysWdtDisableCounterIsr
 1797              		.section	.text.CySysWdtIsr,"ax",%progbits
 1798              		.align	1
 1799              		.global	CySysWdtIsr
 1800              		.code	16
 1801              		.thumb_func
 1802              		.type	CySysWdtIsr, %function
 1803              	CySysWdtIsr:
 1804              	.LFB30:
1710:Generated_Source\PSoC4/CyLFClk.c ****         if(0u != (CY_SYS_WDT_COUNTER0_INT & CY_SYS_WDT_CONTROL_REG))
 1805              		.loc 1 1710 0
 1806              		.cfi_startproc
1711:Generated_Source\PSoC4/CyLFClk.c ****         {
 1807              		.loc 1 1711 0
 1808 0000 0422     		mov	r2, #4
1710:Generated_Source\PSoC4/CyLFClk.c ****         if(0u != (CY_SYS_WDT_COUNTER0_INT & CY_SYS_WDT_CONTROL_REG))
 1809              		.loc 1 1710 0
 1810 0002 38B5     		push	{r3, r4, r5, lr}
 1811              		.cfi_def_cfa_offset 16
 1812              		.cfi_offset 3, -16
 1813              		.cfi_offset 4, -12
 1814              		.cfi_offset 5, -8
 1815              		.cfi_offset 14, -4
1711:Generated_Source\PSoC4/CyLFClk.c ****         {
 1816              		.loc 1 1711 0
 1817 0004 224C     		ldr	r4, .L206
 1818 0006 2368     		ldr	r3, [r4]
 1819 0008 1342     		tst	r3, r2
 1820 000a 13D0     		beq	.L175
1713:Generated_Source\PSoC4/CyLFClk.c ****             {
 1821              		.loc 1 1713 0
ARM GAS  C:\Users\g\AppData\Local\Temp\ccelQmmg.s 			page 69


 1822 000c 2149     		ldr	r1, .L206+4
 1823 000e 0B68     		ldr	r3, [r1]
 1824 0010 1342     		tst	r3, r2
 1825 0012 0CD0     		beq	.L177
1715:Generated_Source\PSoC4/CyLFClk.c ****                 disableServicedIsr  &= ~CY_SYS_WDT_COUNTER0_INT;
 1826              		.loc 1 1715 0
 1827 0014 204B     		ldr	r3, .L206+8
 1828 0016 DD69     		ldr	r5, [r3, #28]
 1829 0018 0868     		ldr	r0, [r1]
 1830 001a 1540     		and	r5, r2
 1831 001c A843     		bic	r0, r5
 1832 001e 0860     		str	r0, [r1]
1716:Generated_Source\PSoC4/CyLFClk.c ****                 if(cySysWdtCallback[CY_SYS_WDT_COUNTER0] != (void *) 0)
 1833              		.loc 1 1716 0
 1834 0020 D969     		ldr	r1, [r3, #28]
 1835 0022 9143     		bic	r1, r2
 1836 0024 D961     		str	r1, [r3, #28]
1717:Generated_Source\PSoC4/CyLFClk.c ****                 {
 1837              		.loc 1 1717 0
 1838 0026 1B69     		ldr	r3, [r3, #16]
 1839 0028 002B     		cmp	r3, #0
 1840 002a 00D0     		beq	.L177
1719:Generated_Source\PSoC4/CyLFClk.c ****                 }
 1841              		.loc 1 1719 0
 1842 002c 9847     		blx	r3
 1843              	.LVL160:
 1844              	.L177:
1722:Generated_Source\PSoC4/CyLFClk.c ****         }
 1845              		.loc 1 1722 0
 1846 002e 0420     		mov	r0, #4
 1847 0030 FFF7FEFF 		bl	CySysWdtClearInterrupt
 1848              	.LVL161:
 1849              	.L175:
1725:Generated_Source\PSoC4/CyLFClk.c ****         {
 1850              		.loc 1 1725 0
 1851 0034 8023     		mov	r3, #128
 1852 0036 2268     		ldr	r2, [r4]
 1853 0038 DB00     		lsl	r3, r3, #3
 1854 003a 1A42     		tst	r2, r3
 1855 003c 15D0     		beq	.L179
1727:Generated_Source\PSoC4/CyLFClk.c ****             {
 1856              		.loc 1 1727 0
 1857 003e 1549     		ldr	r1, .L206+4
 1858 0040 0A68     		ldr	r2, [r1]
 1859 0042 1A42     		tst	r2, r3
 1860 0044 0DD0     		beq	.L181
1729:Generated_Source\PSoC4/CyLFClk.c ****                 disableServicedIsr  &= ~CY_SYS_WDT_COUNTER1_INT;
 1861              		.loc 1 1729 0
 1862 0046 144A     		ldr	r2, .L206+8
 1863 0048 D569     		ldr	r5, [r2, #28]
 1864 004a 0868     		ldr	r0, [r1]
 1865 004c 2B40     		and	r3, r5
 1866 004e 9843     		bic	r0, r3
 1867 0050 0860     		str	r0, [r1]
1730:Generated_Source\PSoC4/CyLFClk.c ****                 if(cySysWdtCallback[CY_SYS_WDT_COUNTER1] != (void *) 0)
 1868              		.loc 1 1730 0
 1869 0052 D169     		ldr	r1, [r2, #28]
ARM GAS  C:\Users\g\AppData\Local\Temp\ccelQmmg.s 			page 70


 1870 0054 114B     		ldr	r3, .L206+12
 1871 0056 0B40     		and	r3, r1
 1872 0058 D361     		str	r3, [r2, #28]
1731:Generated_Source\PSoC4/CyLFClk.c ****                 {
 1873              		.loc 1 1731 0
 1874 005a 5369     		ldr	r3, [r2, #20]
 1875 005c 002B     		cmp	r3, #0
 1876 005e 00D0     		beq	.L181
1733:Generated_Source\PSoC4/CyLFClk.c ****                 }
 1877              		.loc 1 1733 0
 1878 0060 9847     		blx	r3
 1879              	.LVL162:
 1880              	.L181:
1736:Generated_Source\PSoC4/CyLFClk.c ****         }
 1881              		.loc 1 1736 0
 1882 0062 8020     		mov	r0, #128
 1883 0064 C000     		lsl	r0, r0, #3
 1884 0066 FFF7FEFF 		bl	CySysWdtClearInterrupt
 1885              	.LVL163:
 1886              	.L179:
1739:Generated_Source\PSoC4/CyLFClk.c ****         {
 1887              		.loc 1 1739 0
 1888 006a 8023     		mov	r3, #128
 1889 006c 2268     		ldr	r2, [r4]
 1890 006e DB02     		lsl	r3, r3, #11
 1891 0070 1A42     		tst	r2, r3
 1892 0072 0CD0     		beq	.L174
1741:Generated_Source\PSoC4/CyLFClk.c ****             {
 1893              		.loc 1 1741 0
 1894 0074 074A     		ldr	r2, .L206+4
 1895 0076 1268     		ldr	r2, [r2]
 1896 0078 1A42     		tst	r2, r3
 1897 007a 04D0     		beq	.L184
1743:Generated_Source\PSoC4/CyLFClk.c ****                 {
 1898              		.loc 1 1743 0
 1899 007c 064B     		ldr	r3, .L206+8
 1900 007e 9B69     		ldr	r3, [r3, #24]
 1901 0080 002B     		cmp	r3, #0
 1902 0082 00D0     		beq	.L184
1745:Generated_Source\PSoC4/CyLFClk.c ****                 }
 1903              		.loc 1 1745 0
 1904 0084 9847     		blx	r3
 1905              	.LVL164:
 1906              	.L184:
1748:Generated_Source\PSoC4/CyLFClk.c ****         }
 1907              		.loc 1 1748 0
 1908 0086 8020     		mov	r0, #128
 1909 0088 C002     		lsl	r0, r0, #11
 1910 008a FFF7FEFF 		bl	CySysWdtClearInterrupt
 1911              	.LVL165:
 1912              	.L174:
1750:Generated_Source\PSoC4/CyLFClk.c **** 
 1913              		.loc 1 1750 0
 1914              		@ sp needed
 1915 008e 38BD     		pop	{r3, r4, r5, pc}
 1916              	.L207:
 1917              		.align	2
ARM GAS  C:\Users\g\AppData\Local\Temp\ccelQmmg.s 			page 71


 1918              	.L206:
 1919 0090 10020B40 		.word	1074463248
 1920 0094 00000000 		.word	.LANCHOR2
 1921 0098 00000000 		.word	.LANCHOR0
 1922 009c FFFBFFFF 		.word	-1025
 1923              		.cfi_endproc
 1924              	.LFE30:
 1925              		.size	CySysWdtIsr, .-CySysWdtIsr
 1926              		.section	.text.CySysWatchdogFeed,"ax",%progbits
 1927              		.align	1
 1928              		.global	CySysWatchdogFeed
 1929              		.code	16
 1930              		.thumb_func
 1931              		.type	CySysWatchdogFeed, %function
 1932              	CySysWatchdogFeed:
 1933              	.LFB31:
1775:Generated_Source\PSoC4/CyLFClk.c ****         if(counterNum == CY_SYS_WDT_COUNTER0)
 1934              		.loc 1 1775 0
 1935              		.cfi_startproc
 1936              	.LVL166:
 1937 0000 10B5     		push	{r4, lr}
 1938              		.cfi_def_cfa_offset 8
 1939              		.cfi_offset 4, -8
 1940              		.cfi_offset 14, -4
1775:Generated_Source\PSoC4/CyLFClk.c ****         if(counterNum == CY_SYS_WDT_COUNTER0)
 1941              		.loc 1 1775 0
 1942 0002 041E     		sub	r4, r0, #0
1776:Generated_Source\PSoC4/CyLFClk.c ****         {
 1943              		.loc 1 1776 0
 1944 0004 0FD1     		bne	.L209
1778:Generated_Source\PSoC4/CyLFClk.c ****             {
 1945              		.loc 1 1778 0
 1946 0006 FFF7FEFF 		bl	CySysWdtGetMode
 1947              	.LVL167:
 1948 000a 0328     		cmp	r0, #3
 1949 000c 01D1     		bne	.L210
1780:Generated_Source\PSoC4/CyLFClk.c ****             }
 1950              		.loc 1 1780 0
 1951 000e 0130     		add	r0, r0, #1
 1952 0010 1AE0     		b	.L215
 1953              	.L210:
1782:Generated_Source\PSoC4/CyLFClk.c ****             {
 1954              		.loc 1 1782 0
 1955 0012 201C     		mov	r0, r4
 1956 0014 FFF7FEFF 		bl	CySysWdtGetMode
 1957              	.LVL168:
 1958 0018 0228     		cmp	r0, #2
 1959 001a 17D1     		bne	.L208
1784:Generated_Source\PSoC4/CyLFClk.c ****                 CySysWdtClearInterrupt(CY_SYS_WDT_COUNTER0_INT);
 1960              		.loc 1 1784 0
 1961 001c 0630     		add	r0, r0, #6
 1962 001e FFF7FEFF 		bl	CySysWdtResetCounters
 1963              	.LVL169:
1785:Generated_Source\PSoC4/CyLFClk.c ****             }
 1964              		.loc 1 1785 0
 1965 0022 0420     		mov	r0, #4
 1966 0024 10E0     		b	.L215
ARM GAS  C:\Users\g\AppData\Local\Temp\ccelQmmg.s 			page 72


 1967              	.LVL170:
 1968              	.L209:
1792:Generated_Source\PSoC4/CyLFClk.c ****         {
 1969              		.loc 1 1792 0
 1970 0026 0128     		cmp	r0, #1
 1971 0028 10D1     		bne	.L208
1794:Generated_Source\PSoC4/CyLFClk.c ****             {
 1972              		.loc 1 1794 0
 1973 002a FFF7FEFF 		bl	CySysWdtGetMode
 1974              	.LVL171:
 1975 002e 0328     		cmp	r0, #3
 1976 0030 08D0     		beq	.L216
1798:Generated_Source\PSoC4/CyLFClk.c ****             {
 1977              		.loc 1 1798 0
 1978 0032 201C     		mov	r0, r4
 1979 0034 FFF7FEFF 		bl	CySysWdtGetMode
 1980              	.LVL172:
 1981 0038 0228     		cmp	r0, #2
 1982 003a 07D1     		bne	.L208
1800:Generated_Source\PSoC4/CyLFClk.c ****                 CySysWdtClearInterrupt(CY_SYS_WDT_COUNTER1_INT);
 1983              		.loc 1 1800 0
 1984 003c 8020     		mov	r0, #128
 1985 003e 0001     		lsl	r0, r0, #4
 1986 0040 FFF7FEFF 		bl	CySysWdtResetCounters
 1987              	.LVL173:
 1988              	.L216:
1801:Generated_Source\PSoC4/CyLFClk.c ****             }
 1989              		.loc 1 1801 0
 1990 0044 8020     		mov	r0, #128
 1991 0046 C000     		lsl	r0, r0, #3
 1992              	.L215:
 1993 0048 FFF7FEFF 		bl	CySysWdtClearInterrupt
 1994              	.LVL174:
 1995              	.L208:
1812:Generated_Source\PSoC4/CyLFClk.c **** 
 1996              		.loc 1 1812 0
 1997              		@ sp needed
 1998              	.LVL175:
 1999 004c 10BD     		pop	{r4, pc}
 2000              		.cfi_endproc
 2001              	.LFE31:
 2002              		.size	CySysWatchdogFeed, .-CySysWatchdogFeed
 2003              		.section	.text.CySysTimerDelayUntilMatch,"ax",%progbits
 2004              		.align	1
 2005              		.global	CySysTimerDelayUntilMatch
 2006              		.code	16
 2007              		.thumb_func
 2008              		.type	CySysTimerDelayUntilMatch, %function
 2009              	CySysTimerDelayUntilMatch:
 2010              	.LFB35:
1902:Generated_Source\PSoC4/CyLFClk.c ****         }
1903:Generated_Source\PSoC4/CyLFClk.c ****     }
1904:Generated_Source\PSoC4/CyLFClk.c **** 
1905:Generated_Source\PSoC4/CyLFClk.c **** #else
1906:Generated_Source\PSoC4/CyLFClk.c **** 
1907:Generated_Source\PSoC4/CyLFClk.c ****     /*******************************************************************************
1908:Generated_Source\PSoC4/CyLFClk.c ****     * Function Name: CySysWdtGetEnabledStatus
ARM GAS  C:\Users\g\AppData\Local\Temp\ccelQmmg.s 			page 73


1909:Generated_Source\PSoC4/CyLFClk.c ****     ****************************************************************************//**
1910:Generated_Source\PSoC4/CyLFClk.c ****     *
1911:Generated_Source\PSoC4/CyLFClk.c ****     * \brief Reads the enabled status of the WDT counter.
1912:Generated_Source\PSoC4/CyLFClk.c ****     *
1913:Generated_Source\PSoC4/CyLFClk.c ****     * \return The status of the WDT counter:
1914:Generated_Source\PSoC4/CyLFClk.c ****     * \return 0 - Counter is disabled
1915:Generated_Source\PSoC4/CyLFClk.c ****     * \return 1 - Counter is enabled
1916:Generated_Source\PSoC4/CyLFClk.c ****     *
1917:Generated_Source\PSoC4/CyLFClk.c ****     *******************************************************************************/
1918:Generated_Source\PSoC4/CyLFClk.c ****     uint32 CySysWdtGetEnabledStatus(void)
1919:Generated_Source\PSoC4/CyLFClk.c ****     {
1920:Generated_Source\PSoC4/CyLFClk.c ****         return ((CY_SYS_WDT_DISABLE_KEY_REG == CY_SYS_WDT_KEY) ? (uint32) 0u : (uint32) 1u);
1921:Generated_Source\PSoC4/CyLFClk.c ****     }
1922:Generated_Source\PSoC4/CyLFClk.c **** 
1923:Generated_Source\PSoC4/CyLFClk.c **** 
1924:Generated_Source\PSoC4/CyLFClk.c ****     /*******************************************************************************
1925:Generated_Source\PSoC4/CyLFClk.c ****     * Function Name: CySysWdtEnable
1926:Generated_Source\PSoC4/CyLFClk.c ****     ****************************************************************************//**
1927:Generated_Source\PSoC4/CyLFClk.c ****     *
1928:Generated_Source\PSoC4/CyLFClk.c ****     * \brief
1929:Generated_Source\PSoC4/CyLFClk.c ****     * Enables watchdog timer reset generation.
1930:Generated_Source\PSoC4/CyLFClk.c ****     *
1931:Generated_Source\PSoC4/CyLFClk.c ****     * CySysWdtClearInterrupt() feeds the watchdog. Two unserviced interrupts lead 
1932:Generated_Source\PSoC4/CyLFClk.c ****     * to a system reset (i.e. at the third match).
1933:Generated_Source\PSoC4/CyLFClk.c ****     *
1934:Generated_Source\PSoC4/CyLFClk.c ****     * ILO is enabled by the hardware once WDT is started.
1935:Generated_Source\PSoC4/CyLFClk.c ****     *
1936:Generated_Source\PSoC4/CyLFClk.c ****     *******************************************************************************/
1937:Generated_Source\PSoC4/CyLFClk.c ****     void CySysWdtEnable(void)
1938:Generated_Source\PSoC4/CyLFClk.c ****     {
1939:Generated_Source\PSoC4/CyLFClk.c ****         CY_SYS_WDT_DISABLE_KEY_REG = 0u;
1940:Generated_Source\PSoC4/CyLFClk.c ****     }
1941:Generated_Source\PSoC4/CyLFClk.c **** 
1942:Generated_Source\PSoC4/CyLFClk.c **** 
1943:Generated_Source\PSoC4/CyLFClk.c ****     /*******************************************************************************
1944:Generated_Source\PSoC4/CyLFClk.c ****     * Function Name: CySysWdtDisable
