ARM GAS  C:\Users\g\AppData\Local\Temp\cct9EVYy.s 			page 1


   1              		.cpu cortex-m0
   2              		.fpu softvfp
   3              		.eabi_attribute 20, 1
   4              		.eabi_attribute 21, 1
   5              		.eabi_attribute 23, 3
   6              		.eabi_attribute 24, 1
   7              		.eabi_attribute 25, 1
   8              		.eabi_attribute 26, 1
   9              		.eabi_attribute 30, 4
  10              		.eabi_attribute 34, 0
  11              		.eabi_attribute 18, 4
  12              		.code	16
  13              		.file	"PWM_PM.c"
  14              		.text
  15              	.Ltext0:
  16              		.cfi_sections	.debug_frame
  17              		.section	.text.PWM_SaveConfig,"ax",%progbits
  18              		.align	1
  19              		.global	PWM_SaveConfig
  20              		.code	16
  21              		.thumb_func
  22              		.type	PWM_SaveConfig, %function
  23              	PWM_SaveConfig:
  24              	.LFB0:
  25              		.file 1 "Generated_Source\\PSoC4\\PWM_PM.c"
   1:Generated_Source\PSoC4/PWM_PM.c **** /*******************************************************************************
   2:Generated_Source\PSoC4/PWM_PM.c **** * File Name: PWM_PM.c
   3:Generated_Source\PSoC4/PWM_PM.c **** * Version 2.10
   4:Generated_Source\PSoC4/PWM_PM.c **** *
   5:Generated_Source\PSoC4/PWM_PM.c **** * Description:
   6:Generated_Source\PSoC4/PWM_PM.c **** *  This file contains the setup, control, and status commands to support
   7:Generated_Source\PSoC4/PWM_PM.c **** *  the component operations in the low power mode.
   8:Generated_Source\PSoC4/PWM_PM.c **** *
   9:Generated_Source\PSoC4/PWM_PM.c **** * Note:
  10:Generated_Source\PSoC4/PWM_PM.c **** *  None
  11:Generated_Source\PSoC4/PWM_PM.c **** *
  12:Generated_Source\PSoC4/PWM_PM.c **** ********************************************************************************
  13:Generated_Source\PSoC4/PWM_PM.c **** * Copyright 2013-2015, Cypress Semiconductor Corporation.  All rights reserved.
  14:Generated_Source\PSoC4/PWM_PM.c **** * You may use this file only in accordance with the license, terms, conditions,
  15:Generated_Source\PSoC4/PWM_PM.c **** * disclaimers, and limitations in the end user license agreement accompanying
  16:Generated_Source\PSoC4/PWM_PM.c **** * the software package with which this file was provided.
  17:Generated_Source\PSoC4/PWM_PM.c **** *******************************************************************************/
  18:Generated_Source\PSoC4/PWM_PM.c **** 
  19:Generated_Source\PSoC4/PWM_PM.c **** #include "PWM.h"
  20:Generated_Source\PSoC4/PWM_PM.c **** 
  21:Generated_Source\PSoC4/PWM_PM.c **** static PWM_BACKUP_STRUCT PWM_backup;
  22:Generated_Source\PSoC4/PWM_PM.c **** 
  23:Generated_Source\PSoC4/PWM_PM.c **** 
  24:Generated_Source\PSoC4/PWM_PM.c **** /*******************************************************************************
  25:Generated_Source\PSoC4/PWM_PM.c **** * Function Name: PWM_SaveConfig
  26:Generated_Source\PSoC4/PWM_PM.c **** ********************************************************************************
  27:Generated_Source\PSoC4/PWM_PM.c **** *
  28:Generated_Source\PSoC4/PWM_PM.c **** * Summary:
  29:Generated_Source\PSoC4/PWM_PM.c **** *  All configuration registers are retention. Nothing to save here.
  30:Generated_Source\PSoC4/PWM_PM.c **** *
  31:Generated_Source\PSoC4/PWM_PM.c **** * Parameters:
  32:Generated_Source\PSoC4/PWM_PM.c **** *  None
ARM GAS  C:\Users\g\AppData\Local\Temp\cct9EVYy.s 			page 2


  33:Generated_Source\PSoC4/PWM_PM.c **** *
  34:Generated_Source\PSoC4/PWM_PM.c **** * Return:
  35:Generated_Source\PSoC4/PWM_PM.c **** *  None
  36:Generated_Source\PSoC4/PWM_PM.c **** *
  37:Generated_Source\PSoC4/PWM_PM.c **** *******************************************************************************/
  38:Generated_Source\PSoC4/PWM_PM.c **** void PWM_SaveConfig(void)
  39:Generated_Source\PSoC4/PWM_PM.c **** {
  26              		.loc 1 39 0
  27              		.cfi_startproc
  40:Generated_Source\PSoC4/PWM_PM.c **** 
  41:Generated_Source\PSoC4/PWM_PM.c **** }
  28              		.loc 1 41 0
  29              		@ sp needed
  30 0000 7047     		bx	lr
  31              		.cfi_endproc
  32              	.LFE0:
  33              		.size	PWM_SaveConfig, .-PWM_SaveConfig
  34              		.section	.text.PWM_Sleep,"ax",%progbits
  35              		.align	1
  36              		.global	PWM_Sleep
  37              		.code	16
  38              		.thumb_func
  39              		.type	PWM_Sleep, %function
  40              	PWM_Sleep:
  41              	.LFB1:
  42:Generated_Source\PSoC4/PWM_PM.c **** 
  43:Generated_Source\PSoC4/PWM_PM.c **** 
  44:Generated_Source\PSoC4/PWM_PM.c **** /*******************************************************************************
  45:Generated_Source\PSoC4/PWM_PM.c **** * Function Name: PWM_Sleep
  46:Generated_Source\PSoC4/PWM_PM.c **** ********************************************************************************
  47:Generated_Source\PSoC4/PWM_PM.c **** *
  48:Generated_Source\PSoC4/PWM_PM.c **** * Summary:
  49:Generated_Source\PSoC4/PWM_PM.c **** *  Stops the component operation and saves the user configuration.
  50:Generated_Source\PSoC4/PWM_PM.c **** *
  51:Generated_Source\PSoC4/PWM_PM.c **** * Parameters:
  52:Generated_Source\PSoC4/PWM_PM.c **** *  None
  53:Generated_Source\PSoC4/PWM_PM.c **** *
  54:Generated_Source\PSoC4/PWM_PM.c **** * Return:
  55:Generated_Source\PSoC4/PWM_PM.c **** *  None
  56:Generated_Source\PSoC4/PWM_PM.c **** *
  57:Generated_Source\PSoC4/PWM_PM.c **** *******************************************************************************/
  58:Generated_Source\PSoC4/PWM_PM.c **** void PWM_Sleep(void)
  59:Generated_Source\PSoC4/PWM_PM.c **** {
  42              		.loc 1 59 0
  43              		.cfi_startproc
  60:Generated_Source\PSoC4/PWM_PM.c ****     if(0u != (PWM_BLOCK_CONTROL_REG & PWM_MASK))
  44              		.loc 1 60 0
  45 0000 0121     		mov	r1, #1
  59:Generated_Source\PSoC4/PWM_PM.c ****     if(0u != (PWM_BLOCK_CONTROL_REG & PWM_MASK))
  46              		.loc 1 59 0
  47 0002 08B5     		push	{r3, lr}
  48              		.cfi_def_cfa_offset 8
  49              		.cfi_offset 3, -8
  50              		.cfi_offset 14, -4
  51              		.loc 1 60 0
  52 0004 054B     		ldr	r3, .L6
  53 0006 064A     		ldr	r2, .L6+4
ARM GAS  C:\Users\g\AppData\Local\Temp\cct9EVYy.s 			page 3


  54 0008 1B68     		ldr	r3, [r3]
  55 000a 0B40     		and	r3, r1
  56 000c 01D0     		beq	.L3
  61:Generated_Source\PSoC4/PWM_PM.c ****     {
  62:Generated_Source\PSoC4/PWM_PM.c ****         PWM_backup.enableState = 1u;
  57              		.loc 1 62 0
  58 000e 1170     		strb	r1, [r2]
  59 0010 00E0     		b	.L4
  60              	.L3:
  63:Generated_Source\PSoC4/PWM_PM.c ****     }
  64:Generated_Source\PSoC4/PWM_PM.c ****     else
  65:Generated_Source\PSoC4/PWM_PM.c ****     {
  66:Generated_Source\PSoC4/PWM_PM.c ****         PWM_backup.enableState = 0u;
  61              		.loc 1 66 0
  62 0012 1370     		strb	r3, [r2]
  63              	.L4:
  67:Generated_Source\PSoC4/PWM_PM.c ****     }
  68:Generated_Source\PSoC4/PWM_PM.c **** 
  69:Generated_Source\PSoC4/PWM_PM.c ****     PWM_Stop();
  64              		.loc 1 69 0
  65 0014 FFF7FEFF 		bl	PWM_Stop
  66              	.LVL0:
  70:Generated_Source\PSoC4/PWM_PM.c ****     PWM_SaveConfig();
  71:Generated_Source\PSoC4/PWM_PM.c **** }
  67              		.loc 1 71 0
  68              		@ sp needed
  69 0018 08BD     		pop	{r3, pc}
  70              	.L7:
  71 001a C046     		.align	2
  72              	.L6:
  73 001c 00000540 		.word	1074069504
  74 0020 00000000 		.word	.LANCHOR0
  75              		.cfi_endproc
  76              	.LFE1:
  77              		.size	PWM_Sleep, .-PWM_Sleep
  78              		.section	.text.PWM_RestoreConfig,"ax",%progbits
  79              		.align	1
  80              		.global	PWM_RestoreConfig
  81              		.code	16
  82              		.thumb_func
  83              		.type	PWM_RestoreConfig, %function
  84              	PWM_RestoreConfig:
  85              	.LFB2:
  72:Generated_Source\PSoC4/PWM_PM.c **** 
  73:Generated_Source\PSoC4/PWM_PM.c **** 
  74:Generated_Source\PSoC4/PWM_PM.c **** /*******************************************************************************
  75:Generated_Source\PSoC4/PWM_PM.c **** * Function Name: PWM_RestoreConfig
  76:Generated_Source\PSoC4/PWM_PM.c **** ********************************************************************************
  77:Generated_Source\PSoC4/PWM_PM.c **** *
  78:Generated_Source\PSoC4/PWM_PM.c **** * Summary:
  79:Generated_Source\PSoC4/PWM_PM.c **** *  All configuration registers are retention. Nothing to restore here.
  80:Generated_Source\PSoC4/PWM_PM.c **** *
  81:Generated_Source\PSoC4/PWM_PM.c **** * Parameters:
  82:Generated_Source\PSoC4/PWM_PM.c **** *  None
  83:Generated_Source\PSoC4/PWM_PM.c **** *
  84:Generated_Source\PSoC4/PWM_PM.c **** * Return:
  85:Generated_Source\PSoC4/PWM_PM.c **** *  None
ARM GAS  C:\Users\g\AppData\Local\Temp\cct9EVYy.s 			page 4


  86:Generated_Source\PSoC4/PWM_PM.c **** *
  87:Generated_Source\PSoC4/PWM_PM.c **** *******************************************************************************/
  88:Generated_Source\PSoC4/PWM_PM.c **** void PWM_RestoreConfig(void)
  89:Generated_Source\PSoC4/PWM_PM.c **** {
  86              		.loc 1 89 0
  87              		.cfi_startproc
  90:Generated_Source\PSoC4/PWM_PM.c **** 
  91:Generated_Source\PSoC4/PWM_PM.c **** }
  88              		.loc 1 91 0
  89              		@ sp needed
  90 0000 7047     		bx	lr
  91              		.cfi_endproc
  92              	.LFE2:
  93              		.size	PWM_RestoreConfig, .-PWM_RestoreConfig
  94              		.section	.text.PWM_Wakeup,"ax",%progbits
  95              		.align	1
  96              		.global	PWM_Wakeup
  97              		.code	16
  98              		.thumb_func
  99              		.type	PWM_Wakeup, %function
 100              	PWM_Wakeup:
 101              	.LFB3:
  92:Generated_Source\PSoC4/PWM_PM.c **** 
  93:Generated_Source\PSoC4/PWM_PM.c **** 
  94:Generated_Source\PSoC4/PWM_PM.c **** /*******************************************************************************
  95:Generated_Source\PSoC4/PWM_PM.c **** * Function Name: PWM_Wakeup
  96:Generated_Source\PSoC4/PWM_PM.c **** ********************************************************************************
  97:Generated_Source\PSoC4/PWM_PM.c **** *
  98:Generated_Source\PSoC4/PWM_PM.c **** * Summary:
  99:Generated_Source\PSoC4/PWM_PM.c **** *  Restores the user configuration and restores the enable state.
 100:Generated_Source\PSoC4/PWM_PM.c **** *
 101:Generated_Source\PSoC4/PWM_PM.c **** * Parameters:
 102:Generated_Source\PSoC4/PWM_PM.c **** *  None
 103:Generated_Source\PSoC4/PWM_PM.c **** *
 104:Generated_Source\PSoC4/PWM_PM.c **** * Return:
 105:Generated_Source\PSoC4/PWM_PM.c **** *  None
 106:Generated_Source\PSoC4/PWM_PM.c **** *
 107:Generated_Source\PSoC4/PWM_PM.c **** *******************************************************************************/
 108:Generated_Source\PSoC4/PWM_PM.c **** void PWM_Wakeup(void)
 109:Generated_Source\PSoC4/PWM_PM.c **** {
 102              		.loc 1 109 0
 103              		.cfi_startproc
 104 0000 08B5     		push	{r3, lr}
 105              		.cfi_def_cfa_offset 8
 106              		.cfi_offset 3, -8
 107              		.cfi_offset 14, -4
 110:Generated_Source\PSoC4/PWM_PM.c ****     PWM_RestoreConfig();
 111:Generated_Source\PSoC4/PWM_PM.c **** 
 112:Generated_Source\PSoC4/PWM_PM.c ****     if(0u != PWM_backup.enableState)
 108              		.loc 1 112 0
 109 0002 034B     		ldr	r3, .L14
 110 0004 1B78     		ldrb	r3, [r3]
 111 0006 002B     		cmp	r3, #0
 112 0008 01D0     		beq	.L9
 113:Generated_Source\PSoC4/PWM_PM.c ****     {
 114:Generated_Source\PSoC4/PWM_PM.c ****         PWM_Enable();
 113              		.loc 1 114 0
ARM GAS  C:\Users\g\AppData\Local\Temp\cct9EVYy.s 			page 5


 114 000a FFF7FEFF 		bl	PWM_Enable
 115              	.LVL1:
 116              	.L9:
 115:Generated_Source\PSoC4/PWM_PM.c ****     }
 116:Generated_Source\PSoC4/PWM_PM.c **** }
 117              		.loc 1 116 0
 118              		@ sp needed
 119 000e 08BD     		pop	{r3, pc}
 120              	.L15:
 121              		.align	2
 122              	.L14:
 123 0010 00000000 		.word	.LANCHOR0
 124              		.cfi_endproc
 125              	.LFE3:
 126              		.size	PWM_Wakeup, .-PWM_Wakeup
 127              		.bss
 128              		.set	.LANCHOR0,. + 0
 129              		.type	PWM_backup, %object
 130              		.size	PWM_backup, 1
 131              	PWM_backup:
 132 0000 00       		.space	1
 133              		.text
 134              	.Letext0:
 135              		.file 2 "Generated_Source\\PSoC4\\cytypes.h"
 136              		.file 3 "Generated_Source\\PSoC4\\PWM.h"