ARM GAS  C:\Users\g\AppData\Local\Temp\ccV6rAIG.s 			page 1


   1              		.cpu cortex-m0
   2              		.fpu softvfp
   3              		.eabi_attribute 20, 1
   4              		.eabi_attribute 21, 1
   5              		.eabi_attribute 23, 3
   6              		.eabi_attribute 24, 1
   7              		.eabi_attribute 25, 1
   8              		.eabi_attribute 26, 1
   9              		.eabi_attribute 30, 4
  10              		.eabi_attribute 34, 0
  11              		.eabi_attribute 18, 4
  12              		.code	16
  13              		.file	"UART_SPI_UART.c"
  14              		.text
  15              	.Ltext0:
  16              		.cfi_sections	.debug_frame
  17              		.section	.text.UART_SpiUartReadRxData,"ax",%progbits
  18              		.align	1
  19              		.global	UART_SpiUartReadRxData
  20              		.code	16
  21              		.thumb_func
  22              		.type	UART_SpiUartReadRxData, %function
  23              	UART_SpiUartReadRxData:
  24              	.LFB0:
  25              		.file 1 "Generated_Source\\PSoC4\\UART_SPI_UART.c"
   1:Generated_Source\PSoC4/UART_SPI_UART.c **** /***************************************************************************//**
   2:Generated_Source\PSoC4/UART_SPI_UART.c **** * \file UART_SPI_UART.c
   3:Generated_Source\PSoC4/UART_SPI_UART.c **** * \version 3.20
   4:Generated_Source\PSoC4/UART_SPI_UART.c **** *
   5:Generated_Source\PSoC4/UART_SPI_UART.c **** * \brief
   6:Generated_Source\PSoC4/UART_SPI_UART.c **** *  This file provides the source code to the API for the SCB Component in
   7:Generated_Source\PSoC4/UART_SPI_UART.c **** *  SPI and UART modes.
   8:Generated_Source\PSoC4/UART_SPI_UART.c **** *
   9:Generated_Source\PSoC4/UART_SPI_UART.c **** * Note:
  10:Generated_Source\PSoC4/UART_SPI_UART.c **** *
  11:Generated_Source\PSoC4/UART_SPI_UART.c **** *******************************************************************************
  12:Generated_Source\PSoC4/UART_SPI_UART.c **** * \copyright
  13:Generated_Source\PSoC4/UART_SPI_UART.c **** * Copyright 2013-2016, Cypress Semiconductor Corporation.  All rights reserved.
  14:Generated_Source\PSoC4/UART_SPI_UART.c **** * You may use this file only in accordance with the license, terms, conditions,
  15:Generated_Source\PSoC4/UART_SPI_UART.c **** * disclaimers, and limitations in the end user license agreement accompanying
  16:Generated_Source\PSoC4/UART_SPI_UART.c **** * the software package with which this file was provided.
  17:Generated_Source\PSoC4/UART_SPI_UART.c **** *******************************************************************************/
  18:Generated_Source\PSoC4/UART_SPI_UART.c **** 
  19:Generated_Source\PSoC4/UART_SPI_UART.c **** #include "UART_PVT.h"
  20:Generated_Source\PSoC4/UART_SPI_UART.c **** #include "UART_SPI_UART_PVT.h"
  21:Generated_Source\PSoC4/UART_SPI_UART.c **** 
  22:Generated_Source\PSoC4/UART_SPI_UART.c **** /***************************************
  23:Generated_Source\PSoC4/UART_SPI_UART.c **** *        SPI/UART Private Vars
  24:Generated_Source\PSoC4/UART_SPI_UART.c **** ***************************************/
  25:Generated_Source\PSoC4/UART_SPI_UART.c **** 
  26:Generated_Source\PSoC4/UART_SPI_UART.c **** #if(UART_INTERNAL_RX_SW_BUFFER_CONST)
  27:Generated_Source\PSoC4/UART_SPI_UART.c ****     /* Start index to put data into the software receive buffer.*/
  28:Generated_Source\PSoC4/UART_SPI_UART.c ****     volatile uint32 UART_rxBufferHead;
  29:Generated_Source\PSoC4/UART_SPI_UART.c ****     /* Start index to get data from the software receive buffer.*/
  30:Generated_Source\PSoC4/UART_SPI_UART.c ****     volatile uint32 UART_rxBufferTail;
  31:Generated_Source\PSoC4/UART_SPI_UART.c ****     /**
  32:Generated_Source\PSoC4/UART_SPI_UART.c ****     * \addtogroup group_globals
ARM GAS  C:\Users\g\AppData\Local\Temp\ccV6rAIG.s 			page 2


  33:Generated_Source\PSoC4/UART_SPI_UART.c ****     * \{
  34:Generated_Source\PSoC4/UART_SPI_UART.c ****     */
  35:Generated_Source\PSoC4/UART_SPI_UART.c ****     /** Sets when internal software receive buffer overflow
  36:Generated_Source\PSoC4/UART_SPI_UART.c ****     *  was occurred.
  37:Generated_Source\PSoC4/UART_SPI_UART.c ****     */
  38:Generated_Source\PSoC4/UART_SPI_UART.c ****     volatile uint8  UART_rxBufferOverflow;
  39:Generated_Source\PSoC4/UART_SPI_UART.c ****     /** \} globals */
  40:Generated_Source\PSoC4/UART_SPI_UART.c **** #endif /* (UART_INTERNAL_RX_SW_BUFFER_CONST) */
  41:Generated_Source\PSoC4/UART_SPI_UART.c **** 
  42:Generated_Source\PSoC4/UART_SPI_UART.c **** #if(UART_INTERNAL_TX_SW_BUFFER_CONST)
  43:Generated_Source\PSoC4/UART_SPI_UART.c ****     /* Start index to put data into the software transmit buffer.*/
  44:Generated_Source\PSoC4/UART_SPI_UART.c ****     volatile uint32 UART_txBufferHead;
  45:Generated_Source\PSoC4/UART_SPI_UART.c ****     /* Start index to get data from the software transmit buffer.*/
  46:Generated_Source\PSoC4/UART_SPI_UART.c ****     volatile uint32 UART_txBufferTail;
  47:Generated_Source\PSoC4/UART_SPI_UART.c **** #endif /* (UART_INTERNAL_TX_SW_BUFFER_CONST) */
  48:Generated_Source\PSoC4/UART_SPI_UART.c **** 
  49:Generated_Source\PSoC4/UART_SPI_UART.c **** #if(UART_INTERNAL_RX_SW_BUFFER)
  50:Generated_Source\PSoC4/UART_SPI_UART.c ****     /* Add one element to the buffer to receive full packet. One byte in receive buffer is always e
  51:Generated_Source\PSoC4/UART_SPI_UART.c ****     volatile uint8 UART_rxBufferInternal[UART_INTERNAL_RX_BUFFER_SIZE];
  52:Generated_Source\PSoC4/UART_SPI_UART.c **** #endif /* (UART_INTERNAL_RX_SW_BUFFER) */
  53:Generated_Source\PSoC4/UART_SPI_UART.c **** 
  54:Generated_Source\PSoC4/UART_SPI_UART.c **** #if(UART_INTERNAL_TX_SW_BUFFER)
  55:Generated_Source\PSoC4/UART_SPI_UART.c ****     volatile uint8 UART_txBufferInternal[UART_TX_BUFFER_SIZE];
  56:Generated_Source\PSoC4/UART_SPI_UART.c **** #endif /* (UART_INTERNAL_TX_SW_BUFFER) */
  57:Generated_Source\PSoC4/UART_SPI_UART.c **** 
  58:Generated_Source\PSoC4/UART_SPI_UART.c **** 
  59:Generated_Source\PSoC4/UART_SPI_UART.c **** #if(UART_RX_DIRECTION)
  60:Generated_Source\PSoC4/UART_SPI_UART.c ****     /*******************************************************************************
  61:Generated_Source\PSoC4/UART_SPI_UART.c ****     * Function Name: UART_SpiUartReadRxData
  62:Generated_Source\PSoC4/UART_SPI_UART.c ****     ****************************************************************************//**
  63:Generated_Source\PSoC4/UART_SPI_UART.c ****     *
  64:Generated_Source\PSoC4/UART_SPI_UART.c ****     *  Retrieves the next data element from the receive buffer.
  65:Generated_Source\PSoC4/UART_SPI_UART.c ****     *   - RX software buffer is disabled: Returns data element retrieved from
  66:Generated_Source\PSoC4/UART_SPI_UART.c ****     *     RX FIFO. Undefined data will be returned if the RX FIFO is empty.
  67:Generated_Source\PSoC4/UART_SPI_UART.c ****     *   - RX software buffer is enabled: Returns data element from the software
  68:Generated_Source\PSoC4/UART_SPI_UART.c ****     *     receive buffer. Zero value is returned if the software receive buffer
  69:Generated_Source\PSoC4/UART_SPI_UART.c ****     *     is empty.
  70:Generated_Source\PSoC4/UART_SPI_UART.c ****     *
  71:Generated_Source\PSoC4/UART_SPI_UART.c ****     * \return
  72:Generated_Source\PSoC4/UART_SPI_UART.c ****     *  Next data element from the receive buffer. 
  73:Generated_Source\PSoC4/UART_SPI_UART.c ****     *  The amount of data bits to be received depends on RX data bits selection 
  74:Generated_Source\PSoC4/UART_SPI_UART.c ****     *  (the data bit counting starts from LSB of return value).
  75:Generated_Source\PSoC4/UART_SPI_UART.c ****     *
  76:Generated_Source\PSoC4/UART_SPI_UART.c ****     * \globalvars
  77:Generated_Source\PSoC4/UART_SPI_UART.c ****     *  UART_rxBufferHead - the start index to put data into the 
  78:Generated_Source\PSoC4/UART_SPI_UART.c ****     *  software receive buffer.
  79:Generated_Source\PSoC4/UART_SPI_UART.c ****     *  UART_rxBufferTail - the start index to get data from the 
  80:Generated_Source\PSoC4/UART_SPI_UART.c ****     *  software receive buffer.
  81:Generated_Source\PSoC4/UART_SPI_UART.c ****     *
  82:Generated_Source\PSoC4/UART_SPI_UART.c ****     *******************************************************************************/
  83:Generated_Source\PSoC4/UART_SPI_UART.c ****     uint32 UART_SpiUartReadRxData(void)
  84:Generated_Source\PSoC4/UART_SPI_UART.c ****     {
  26              		.loc 1 84 0
  27              		.cfi_startproc
  28              	.LVL0:
  85:Generated_Source\PSoC4/UART_SPI_UART.c ****         uint32 rxData = 0u;
  86:Generated_Source\PSoC4/UART_SPI_UART.c **** 
ARM GAS  C:\Users\g\AppData\Local\Temp\ccV6rAIG.s 			page 3


  87:Generated_Source\PSoC4/UART_SPI_UART.c ****     #if (UART_INTERNAL_RX_SW_BUFFER_CONST)
  88:Generated_Source\PSoC4/UART_SPI_UART.c ****         uint32 locTail;
  89:Generated_Source\PSoC4/UART_SPI_UART.c ****     #endif /* (UART_INTERNAL_RX_SW_BUFFER_CONST) */
  90:Generated_Source\PSoC4/UART_SPI_UART.c **** 
  91:Generated_Source\PSoC4/UART_SPI_UART.c ****         #if (UART_CHECK_RX_SW_BUFFER)
  92:Generated_Source\PSoC4/UART_SPI_UART.c ****         {
  93:Generated_Source\PSoC4/UART_SPI_UART.c ****             if (UART_rxBufferHead != UART_rxBufferTail)
  29              		.loc 1 93 0
  30 0000 094B     		ldr	r3, .L6
  31 0002 0A49     		ldr	r1, .L6+4
  32 0004 1A68     		ldr	r2, [r3]
  33 0006 0B68     		ldr	r3, [r1]
  85:Generated_Source\PSoC4/UART_SPI_UART.c ****         uint32 rxData = 0u;
  34              		.loc 1 85 0
  35 0008 0020     		mov	r0, #0
  36              		.loc 1 93 0
  37 000a 9A42     		cmp	r2, r3
  38 000c 0AD0     		beq	.L2
  94:Generated_Source\PSoC4/UART_SPI_UART.c ****             {
  95:Generated_Source\PSoC4/UART_SPI_UART.c ****                 /* There is data in RX software buffer */
  96:Generated_Source\PSoC4/UART_SPI_UART.c **** 
  97:Generated_Source\PSoC4/UART_SPI_UART.c ****                 /* Calculate index to read from */
  98:Generated_Source\PSoC4/UART_SPI_UART.c ****                 locTail = (UART_rxBufferTail + 1u);
  39              		.loc 1 98 0
  40 000e 0B68     		ldr	r3, [r1]
  41 0010 5A1C     		add	r2, r3, #1
  42              	.LVL1:
  99:Generated_Source\PSoC4/UART_SPI_UART.c **** 
 100:Generated_Source\PSoC4/UART_SPI_UART.c ****                 if (UART_INTERNAL_RX_BUFFER_SIZE == locTail)
 101:Generated_Source\PSoC4/UART_SPI_UART.c ****                 {
 102:Generated_Source\PSoC4/UART_SPI_UART.c ****                     locTail = 0u;
  43              		.loc 1 102 0
  44 0012 403B     		sub	r3, r3, #64
  45 0014 581E     		sub	r0, r3, #1
  46 0016 8341     		sbc	r3, r3, r0
  47 0018 5B42     		neg	r3, r3
  48 001a 1A40     		and	r2, r3
  49              	.LVL2:
 103:Generated_Source\PSoC4/UART_SPI_UART.c ****                 }
 104:Generated_Source\PSoC4/UART_SPI_UART.c **** 
 105:Generated_Source\PSoC4/UART_SPI_UART.c ****                 /* Get data from RX software buffer */
 106:Generated_Source\PSoC4/UART_SPI_UART.c ****                 rxData = UART_GetWordFromRxBuffer(locTail);
  50              		.loc 1 106 0
  51 001c 044B     		ldr	r3, .L6+8
  52 001e 985C     		ldrb	r0, [r3, r2]
 107:Generated_Source\PSoC4/UART_SPI_UART.c **** 
 108:Generated_Source\PSoC4/UART_SPI_UART.c ****                 /* Change index in the buffer */
 109:Generated_Source\PSoC4/UART_SPI_UART.c ****                 UART_rxBufferTail = locTail;
  53              		.loc 1 109 0
  54 0020 0A60     		str	r2, [r1]
 106:Generated_Source\PSoC4/UART_SPI_UART.c **** 
  55              		.loc 1 106 0
  56 0022 C0B2     		uxtb	r0, r0
  57              	.LVL3:
  58              	.L2:
 110:Generated_Source\PSoC4/UART_SPI_UART.c **** 
 111:Generated_Source\PSoC4/UART_SPI_UART.c ****                 #if (UART_CHECK_UART_RTS_CONTROL_FLOW)
ARM GAS  C:\Users\g\AppData\Local\Temp\ccV6rAIG.s 			page 4


 112:Generated_Source\PSoC4/UART_SPI_UART.c ****                 {
 113:Generated_Source\PSoC4/UART_SPI_UART.c ****                     /* Check if RX Not Empty is disabled in the interrupt */
 114:Generated_Source\PSoC4/UART_SPI_UART.c ****                     if (0u == (UART_INTR_RX_MASK_REG & UART_INTR_RX_NOT_EMPTY))
 115:Generated_Source\PSoC4/UART_SPI_UART.c ****                     {
 116:Generated_Source\PSoC4/UART_SPI_UART.c ****                         /* Enable RX Not Empty interrupt source to continue
 117:Generated_Source\PSoC4/UART_SPI_UART.c ****                         * receiving data into software buffer.
 118:Generated_Source\PSoC4/UART_SPI_UART.c ****                         */
 119:Generated_Source\PSoC4/UART_SPI_UART.c ****                         UART_INTR_RX_MASK_REG |= UART_INTR_RX_NOT_EMPTY;
 120:Generated_Source\PSoC4/UART_SPI_UART.c ****                     }
 121:Generated_Source\PSoC4/UART_SPI_UART.c ****                 }
 122:Generated_Source\PSoC4/UART_SPI_UART.c ****                 #endif
 123:Generated_Source\PSoC4/UART_SPI_UART.c **** 
 124:Generated_Source\PSoC4/UART_SPI_UART.c ****             }
 125:Generated_Source\PSoC4/UART_SPI_UART.c ****         }
 126:Generated_Source\PSoC4/UART_SPI_UART.c ****         #else
 127:Generated_Source\PSoC4/UART_SPI_UART.c ****         {
 128:Generated_Source\PSoC4/UART_SPI_UART.c ****             /* Read data from RX FIFO */
 129:Generated_Source\PSoC4/UART_SPI_UART.c ****             rxData = UART_RX_FIFO_RD_REG;
 130:Generated_Source\PSoC4/UART_SPI_UART.c ****         }
 131:Generated_Source\PSoC4/UART_SPI_UART.c ****         #endif
 132:Generated_Source\PSoC4/UART_SPI_UART.c **** 
 133:Generated_Source\PSoC4/UART_SPI_UART.c ****         return (rxData);
 134:Generated_Source\PSoC4/UART_SPI_UART.c ****     }
  59              		.loc 1 134 0
  60              		@ sp needed
  61 0024 7047     		bx	lr
  62              	.L7:
  63 0026 C046     		.align	2
  64              	.L6:
  65 0028 00000000 		.word	UART_rxBufferHead
  66 002c 00000000 		.word	UART_rxBufferTail
  67 0030 00000000 		.word	UART_rxBufferInternal
  68              		.cfi_endproc
  69              	.LFE0:
  70              		.size	UART_SpiUartReadRxData, .-UART_SpiUartReadRxData
  71              		.section	.text.UART_SpiUartGetRxBufferSize,"ax",%progbits
  72              		.align	1
  73              		.global	UART_SpiUartGetRxBufferSize
  74              		.code	16
  75              		.thumb_func
  76              		.type	UART_SpiUartGetRxBufferSize, %function
  77              	UART_SpiUartGetRxBufferSize:
  78              	.LFB1:
 135:Generated_Source\PSoC4/UART_SPI_UART.c **** 
 136:Generated_Source\PSoC4/UART_SPI_UART.c **** 
 137:Generated_Source\PSoC4/UART_SPI_UART.c ****     /*******************************************************************************
 138:Generated_Source\PSoC4/UART_SPI_UART.c ****     * Function Name: UART_SpiUartGetRxBufferSize
 139:Generated_Source\PSoC4/UART_SPI_UART.c ****     ****************************************************************************//**
 140:Generated_Source\PSoC4/UART_SPI_UART.c ****     *
 141:Generated_Source\PSoC4/UART_SPI_UART.c ****     *  Returns the number of received data elements in the receive buffer.
 142:Generated_Source\PSoC4/UART_SPI_UART.c ****     *   - RX software buffer disabled: returns the number of used entries in
 143:Generated_Source\PSoC4/UART_SPI_UART.c ****     *     RX FIFO.
 144:Generated_Source\PSoC4/UART_SPI_UART.c ****     *   - RX software buffer enabled: returns the number of elements which were
 145:Generated_Source\PSoC4/UART_SPI_UART.c ****     *     placed in the receive buffer. This does not include the hardware RX FIFO.
 146:Generated_Source\PSoC4/UART_SPI_UART.c ****     *
 147:Generated_Source\PSoC4/UART_SPI_UART.c ****     * \return
 148:Generated_Source\PSoC4/UART_SPI_UART.c ****     *  Number of received data elements.
ARM GAS  C:\Users\g\AppData\Local\Temp\ccV6rAIG.s 			page 5


 149:Generated_Source\PSoC4/UART_SPI_UART.c ****     *
 150:Generated_Source\PSoC4/UART_SPI_UART.c ****     * \globalvars
 151:Generated_Source\PSoC4/UART_SPI_UART.c ****     *  UART_rxBufferHead - the start index to put data into the 
 152:Generated_Source\PSoC4/UART_SPI_UART.c ****     *  software receive buffer.
 153:Generated_Source\PSoC4/UART_SPI_UART.c ****     *  UART_rxBufferTail - the start index to get data from the 
 154:Generated_Source\PSoC4/UART_SPI_UART.c ****     *  software receive buffer.
 155:Generated_Source\PSoC4/UART_SPI_UART.c ****     *
 156:Generated_Source\PSoC4/UART_SPI_UART.c ****     *******************************************************************************/
 157:Generated_Source\PSoC4/UART_SPI_UART.c ****     uint32 UART_SpiUartGetRxBufferSize(void)
 158:Generated_Source\PSoC4/UART_SPI_UART.c ****     {
  79              		.loc 1 158 0
  80              		.cfi_startproc
 159:Generated_Source\PSoC4/UART_SPI_UART.c ****         uint32 size;
 160:Generated_Source\PSoC4/UART_SPI_UART.c ****     #if (UART_INTERNAL_RX_SW_BUFFER_CONST)
 161:Generated_Source\PSoC4/UART_SPI_UART.c ****         uint32 locHead;
 162:Generated_Source\PSoC4/UART_SPI_UART.c ****     #endif /* (UART_INTERNAL_RX_SW_BUFFER_CONST) */
 163:Generated_Source\PSoC4/UART_SPI_UART.c **** 
 164:Generated_Source\PSoC4/UART_SPI_UART.c ****         #if (UART_CHECK_RX_SW_BUFFER)
 165:Generated_Source\PSoC4/UART_SPI_UART.c ****         {
 166:Generated_Source\PSoC4/UART_SPI_UART.c ****             locHead = UART_rxBufferHead;
  81              		.loc 1 166 0
  82 0000 044B     		ldr	r3, .L12
  83 0002 1868     		ldr	r0, [r3]
  84              	.LVL4:
 167:Generated_Source\PSoC4/UART_SPI_UART.c **** 
 168:Generated_Source\PSoC4/UART_SPI_UART.c ****             if(locHead >= UART_rxBufferTail)
  85              		.loc 1 168 0
  86 0004 044B     		ldr	r3, .L12+4
  87 0006 1A68     		ldr	r2, [r3]
 169:Generated_Source\PSoC4/UART_SPI_UART.c ****             {
 170:Generated_Source\PSoC4/UART_SPI_UART.c ****                 size = (locHead - UART_rxBufferTail);
  88              		.loc 1 170 0
  89 0008 1B68     		ldr	r3, [r3]
 168:Generated_Source\PSoC4/UART_SPI_UART.c ****             {
  90              		.loc 1 168 0
  91 000a 9042     		cmp	r0, r2
  92 000c 00D2     		bcs	.L11
  93 000e 4130     		add	r0, r0, #65
  94              	.LVL5:
  95              	.L11:
 171:Generated_Source\PSoC4/UART_SPI_UART.c ****             }
 172:Generated_Source\PSoC4/UART_SPI_UART.c ****             else
 173:Generated_Source\PSoC4/UART_SPI_UART.c ****             {
 174:Generated_Source\PSoC4/UART_SPI_UART.c ****                 size = (locHead + (UART_INTERNAL_RX_BUFFER_SIZE - UART_rxBufferTail));
  96              		.loc 1 174 0
  97 0010 C01A     		sub	r0, r0, r3
  98              	.LVL6:
 175:Generated_Source\PSoC4/UART_SPI_UART.c ****             }
 176:Generated_Source\PSoC4/UART_SPI_UART.c ****         }
 177:Generated_Source\PSoC4/UART_SPI_UART.c ****         #else
 178:Generated_Source\PSoC4/UART_SPI_UART.c ****         {
 179:Generated_Source\PSoC4/UART_SPI_UART.c ****             size = UART_GET_RX_FIFO_ENTRIES;
 180:Generated_Source\PSoC4/UART_SPI_UART.c ****         }
 181:Generated_Source\PSoC4/UART_SPI_UART.c ****         #endif
 182:Generated_Source\PSoC4/UART_SPI_UART.c **** 
 183:Generated_Source\PSoC4/UART_SPI_UART.c ****         return (size);
 184:Generated_Source\PSoC4/UART_SPI_UART.c ****     }
ARM GAS  C:\Users\g\AppData\Local\Temp\ccV6rAIG.s 			page 6


  99              		.loc 1 184 0
 100              		@ sp needed
 101 0012 7047     		bx	lr
 102              	.L13:
 103              		.align	2
 104              	.L12:
 105 0014 00000000 		.word	UART_rxBufferHead
 106 0018 00000000 		.word	UART_rxBufferTail
 107              		.cfi_endproc
 108              	.LFE1:
 109              		.size	UART_SpiUartGetRxBufferSize, .-UART_SpiUartGetRxBufferSize
 110              		.section	.text.UART_SpiUartClearRxBuffer,"ax",%progbits
 111              		.align	1
 112              		.global	UART_SpiUartClearRxBuffer
 113              		.code	16
 114              		.thumb_func
 115              		.type	UART_SpiUartClearRxBuffer, %function
 116              	UART_SpiUartClearRxBuffer:
 117              	.LFB2:
 185:Generated_Source\PSoC4/UART_SPI_UART.c **** 
 186:Generated_Source\PSoC4/UART_SPI_UART.c **** 
 187:Generated_Source\PSoC4/UART_SPI_UART.c ****     /*******************************************************************************
 188:Generated_Source\PSoC4/UART_SPI_UART.c ****     * Function Name: UART_SpiUartClearRxBuffer
 189:Generated_Source\PSoC4/UART_SPI_UART.c ****     ****************************************************************************//**
 190:Generated_Source\PSoC4/UART_SPI_UART.c ****     *
 191:Generated_Source\PSoC4/UART_SPI_UART.c ****     *  Clears the receive buffer and RX FIFO.
 192:Generated_Source\PSoC4/UART_SPI_UART.c ****     *
 193:Generated_Source\PSoC4/UART_SPI_UART.c ****     * \globalvars
 194:Generated_Source\PSoC4/UART_SPI_UART.c ****     *  UART_rxBufferHead - the start index to put data into the 
 195:Generated_Source\PSoC4/UART_SPI_UART.c ****     *  software receive buffer.
 196:Generated_Source\PSoC4/UART_SPI_UART.c ****     *  UART_rxBufferTail - the start index to get data from the 
 197:Generated_Source\PSoC4/UART_SPI_UART.c ****     *  software receive buffer.
 198:Generated_Source\PSoC4/UART_SPI_UART.c ****     *
 199:Generated_Source\PSoC4/UART_SPI_UART.c ****     *******************************************************************************/
 200:Generated_Source\PSoC4/UART_SPI_UART.c ****     void UART_SpiUartClearRxBuffer(void)
 201:Generated_Source\PSoC4/UART_SPI_UART.c ****     {
 118              		.loc 1 201 0
 119              		.cfi_startproc
 120 0000 08B5     		push	{r3, lr}
 121              		.cfi_def_cfa_offset 8
 122              		.cfi_offset 3, -8
 123              		.cfi_offset 14, -4
 202:Generated_Source\PSoC4/UART_SPI_UART.c ****         #if (UART_CHECK_RX_SW_BUFFER)
 203:Generated_Source\PSoC4/UART_SPI_UART.c ****         {
 204:Generated_Source\PSoC4/UART_SPI_UART.c ****             /* Lock from component interruption */
 205:Generated_Source\PSoC4/UART_SPI_UART.c ****             UART_DisableInt();
 124              		.loc 1 205 0
 125 0002 0B20     		mov	r0, #11
 126 0004 FFF7FEFF 		bl	CyIntDisable
 127              	.LVL7:
 206:Generated_Source\PSoC4/UART_SPI_UART.c **** 
 207:Generated_Source\PSoC4/UART_SPI_UART.c ****             /* Flush RX software buffer */
 208:Generated_Source\PSoC4/UART_SPI_UART.c ****             UART_rxBufferHead = UART_rxBufferTail;
 128              		.loc 1 208 0
 129 0008 0B4B     		ldr	r3, .L15
 209:Generated_Source\PSoC4/UART_SPI_UART.c ****             UART_rxBufferOverflow = 0u;
 210:Generated_Source\PSoC4/UART_SPI_UART.c **** 
ARM GAS  C:\Users\g\AppData\Local\Temp\ccV6rAIG.s 			page 7


 211:Generated_Source\PSoC4/UART_SPI_UART.c ****             UART_CLEAR_RX_FIFO;
 130              		.loc 1 211 0
 131 000a 8021     		mov	r1, #128
 208:Generated_Source\PSoC4/UART_SPI_UART.c ****             UART_rxBufferOverflow = 0u;
 132              		.loc 1 208 0
 133 000c 1A68     		ldr	r2, [r3]
 134 000e 0B4B     		ldr	r3, .L15+4
 135              		.loc 1 211 0
 136 0010 4902     		lsl	r1, r1, #9
 208:Generated_Source\PSoC4/UART_SPI_UART.c ****             UART_rxBufferOverflow = 0u;
 137              		.loc 1 208 0
 138 0012 1A60     		str	r2, [r3]
 209:Generated_Source\PSoC4/UART_SPI_UART.c ****             UART_rxBufferOverflow = 0u;
 139              		.loc 1 209 0
 140 0014 0022     		mov	r2, #0
 141 0016 0A4B     		ldr	r3, .L15+8
 212:Generated_Source\PSoC4/UART_SPI_UART.c ****             UART_ClearRxInterruptSource(UART_INTR_RX_ALL);
 213:Generated_Source\PSoC4/UART_SPI_UART.c **** 
 214:Generated_Source\PSoC4/UART_SPI_UART.c ****             #if (UART_CHECK_UART_RTS_CONTROL_FLOW)
 215:Generated_Source\PSoC4/UART_SPI_UART.c ****             {
 216:Generated_Source\PSoC4/UART_SPI_UART.c ****                 /* Enable RX Not Empty interrupt source to continue receiving
 217:Generated_Source\PSoC4/UART_SPI_UART.c ****                 * data into software buffer.
 218:Generated_Source\PSoC4/UART_SPI_UART.c ****                 */
 219:Generated_Source\PSoC4/UART_SPI_UART.c ****                 UART_INTR_RX_MASK_REG |= UART_INTR_RX_NOT_EMPTY;
 220:Generated_Source\PSoC4/UART_SPI_UART.c ****             }
 221:Generated_Source\PSoC4/UART_SPI_UART.c ****             #endif
 222:Generated_Source\PSoC4/UART_SPI_UART.c ****             
 223:Generated_Source\PSoC4/UART_SPI_UART.c ****             /* Release lock */
 224:Generated_Source\PSoC4/UART_SPI_UART.c ****             UART_EnableInt();
 142              		.loc 1 224 0
 143 0018 0B20     		mov	r0, #11
 209:Generated_Source\PSoC4/UART_SPI_UART.c **** 
 144              		.loc 1 209 0
 145 001a 1A70     		strb	r2, [r3]
 211:Generated_Source\PSoC4/UART_SPI_UART.c ****             UART_ClearRxInterruptSource(UART_INTR_RX_ALL);
 146              		.loc 1 211 0
 147 001c 094B     		ldr	r3, .L15+12
 225:Generated_Source\PSoC4/UART_SPI_UART.c ****         }
 226:Generated_Source\PSoC4/UART_SPI_UART.c ****         #else
 227:Generated_Source\PSoC4/UART_SPI_UART.c ****         {
 228:Generated_Source\PSoC4/UART_SPI_UART.c ****             UART_CLEAR_RX_FIFO;
 229:Generated_Source\PSoC4/UART_SPI_UART.c ****         }
 230:Generated_Source\PSoC4/UART_SPI_UART.c ****         #endif
 231:Generated_Source\PSoC4/UART_SPI_UART.c ****     }
 148              		.loc 1 231 0
 149              		@ sp needed
 211:Generated_Source\PSoC4/UART_SPI_UART.c ****             UART_ClearRxInterruptSource(UART_INTR_RX_ALL);
 150              		.loc 1 211 0
 151 001e 1A68     		ldr	r2, [r3]
 152 0020 0A43     		orr	r2, r1
 153 0022 1A60     		str	r2, [r3]
 154 0024 1968     		ldr	r1, [r3]
 155 0026 084A     		ldr	r2, .L15+16
 156 0028 0A40     		and	r2, r1
 157 002a 1A60     		str	r2, [r3]
 212:Generated_Source\PSoC4/UART_SPI_UART.c **** 
 158              		.loc 1 212 0
ARM GAS  C:\Users\g\AppData\Local\Temp\ccV6rAIG.s 			page 8


 159 002c 074A     		ldr	r2, .L15+20
 160 002e 084B     		ldr	r3, .L15+24
 161 0030 1A60     		str	r2, [r3]
 224:Generated_Source\PSoC4/UART_SPI_UART.c ****         }
 162              		.loc 1 224 0
 163 0032 FFF7FEFF 		bl	CyIntEnable
 164              	.LVL8:
 165              		.loc 1 231 0
 166 0036 08BD     		pop	{r3, pc}
 167              	.L16:
 168              		.align	2
 169              	.L15:
 170 0038 00000000 		.word	UART_rxBufferTail
 171 003c 00000000 		.word	UART_rxBufferHead
 172 0040 00000000 		.word	UART_rxBufferOverflow
 173 0044 04030740 		.word	1074201348
 174 0048 FFFFFEFF 		.word	-65537
 175 004c ED0F0000 		.word	4077
 176 0050 C00F0740 		.word	1074204608
 177              		.cfi_endproc
 178              	.LFE2:
 179              		.size	UART_SpiUartClearRxBuffer, .-UART_SpiUartClearRxBuffer
 180              		.section	.text.UART_SpiUartWriteTxData,"ax",%progbits
 181              		.align	1
 182              		.global	UART_SpiUartWriteTxData
 183              		.code	16
 184              		.thumb_func
 185              		.type	UART_SpiUartWriteTxData, %function
 186              	UART_SpiUartWriteTxData:
 187              	.LFB3:
 232:Generated_Source\PSoC4/UART_SPI_UART.c **** 
 233:Generated_Source\PSoC4/UART_SPI_UART.c **** #endif /* (UART_RX_DIRECTION) */
 234:Generated_Source\PSoC4/UART_SPI_UART.c **** 
 235:Generated_Source\PSoC4/UART_SPI_UART.c **** 
 236:Generated_Source\PSoC4/UART_SPI_UART.c **** #if(UART_TX_DIRECTION)
 237:Generated_Source\PSoC4/UART_SPI_UART.c ****     /*******************************************************************************
 238:Generated_Source\PSoC4/UART_SPI_UART.c ****     * Function Name: UART_SpiUartWriteTxData
 239:Generated_Source\PSoC4/UART_SPI_UART.c ****     ****************************************************************************//**
 240:Generated_Source\PSoC4/UART_SPI_UART.c ****     *
 241:Generated_Source\PSoC4/UART_SPI_UART.c ****     *  Places a data entry into the transmit buffer to be sent at the next available
 242:Generated_Source\PSoC4/UART_SPI_UART.c ****     *  bus time.
 243:Generated_Source\PSoC4/UART_SPI_UART.c ****     *  This function is blocking and waits until there is space available to put the
 244:Generated_Source\PSoC4/UART_SPI_UART.c ****     *  requested data in the transmit buffer.
 245:Generated_Source\PSoC4/UART_SPI_UART.c ****     *
 246:Generated_Source\PSoC4/UART_SPI_UART.c ****     *  \param txDataByte: the data to be transmitted.
 247:Generated_Source\PSoC4/UART_SPI_UART.c ****     *   The amount of data bits to be transmitted depends on TX data bits selection 
 248:Generated_Source\PSoC4/UART_SPI_UART.c ****     *   (the data bit counting starts from LSB of txDataByte).
 249:Generated_Source\PSoC4/UART_SPI_UART.c ****     *
 250:Generated_Source\PSoC4/UART_SPI_UART.c ****     * \globalvars
 251:Generated_Source\PSoC4/UART_SPI_UART.c ****     *  UART_txBufferHead - the start index to put data into the 
 252:Generated_Source\PSoC4/UART_SPI_UART.c ****     *  software transmit buffer.
 253:Generated_Source\PSoC4/UART_SPI_UART.c ****     *  UART_txBufferTail - start index to get data from the software
 254:Generated_Source\PSoC4/UART_SPI_UART.c ****     *  transmit buffer.
 255:Generated_Source\PSoC4/UART_SPI_UART.c ****     *
 256:Generated_Source\PSoC4/UART_SPI_UART.c ****     *******************************************************************************/
 257:Generated_Source\PSoC4/UART_SPI_UART.c ****     void UART_SpiUartWriteTxData(uint32 txData)
 258:Generated_Source\PSoC4/UART_SPI_UART.c ****     {
ARM GAS  C:\Users\g\AppData\Local\Temp\ccV6rAIG.s 			page 9


 188              		.loc 1 258 0
 189              		.cfi_startproc
 190              	.LVL9:
 191 0000 30B5     		push	{r4, r5, lr}
 192              		.cfi_def_cfa_offset 12
 193              		.cfi_offset 4, -12
 194              		.cfi_offset 5, -8
 195              		.cfi_offset 14, -4
 259:Generated_Source\PSoC4/UART_SPI_UART.c ****     #if (UART_INTERNAL_TX_SW_BUFFER_CONST)
 260:Generated_Source\PSoC4/UART_SPI_UART.c ****         uint32 locHead;
 261:Generated_Source\PSoC4/UART_SPI_UART.c ****     #endif /* (UART_INTERNAL_TX_SW_BUFFER_CONST) */
 262:Generated_Source\PSoC4/UART_SPI_UART.c **** 
 263:Generated_Source\PSoC4/UART_SPI_UART.c ****         #if (UART_CHECK_TX_SW_BUFFER)
 264:Generated_Source\PSoC4/UART_SPI_UART.c ****         {
 265:Generated_Source\PSoC4/UART_SPI_UART.c ****             /* Put data directly into the TX FIFO */
 266:Generated_Source\PSoC4/UART_SPI_UART.c ****             if ((UART_txBufferHead == UART_txBufferTail) &&
 196              		.loc 1 266 0
 197 0002 144A     		ldr	r2, .L25
 198 0004 144C     		ldr	r4, .L25+4
 199 0006 1168     		ldr	r1, [r2]
 200 0008 2368     		ldr	r3, [r4]
 201 000a 9942     		cmp	r1, r3
 202 000c 08D1     		bne	.L18
 267:Generated_Source\PSoC4/UART_SPI_UART.c ****                 (UART_SPI_UART_FIFO_SIZE != UART_GET_TX_FIFO_ENTRIES))
 203              		.loc 1 267 0 discriminator 1
 204 000e 134B     		ldr	r3, .L25+8
 205 0010 1968     		ldr	r1, [r3]
 206 0012 0F23     		mov	r3, #15
 207 0014 0B40     		and	r3, r1
 266:Generated_Source\PSoC4/UART_SPI_UART.c ****                 (UART_SPI_UART_FIFO_SIZE != UART_GET_TX_FIFO_ENTRIES))
 208              		.loc 1 266 0 discriminator 1
 209 0016 082B     		cmp	r3, #8
 210 0018 02D0     		beq	.L18
 268:Generated_Source\PSoC4/UART_SPI_UART.c ****             {
 269:Generated_Source\PSoC4/UART_SPI_UART.c ****                 /* TX software buffer is empty: put data directly in TX FIFO */
 270:Generated_Source\PSoC4/UART_SPI_UART.c ****                 UART_TX_FIFO_WR_REG = txData;
 211              		.loc 1 270 0
 212 001a 114B     		ldr	r3, .L25+12
 213 001c 1860     		str	r0, [r3]
 214 001e 17E0     		b	.L17
 215              	.L18:
 271:Generated_Source\PSoC4/UART_SPI_UART.c ****             }
 272:Generated_Source\PSoC4/UART_SPI_UART.c ****             /* Put data into TX software buffer */
 273:Generated_Source\PSoC4/UART_SPI_UART.c ****             else
 274:Generated_Source\PSoC4/UART_SPI_UART.c ****             {
 275:Generated_Source\PSoC4/UART_SPI_UART.c ****                 /* Head index to put data */
 276:Generated_Source\PSoC4/UART_SPI_UART.c ****                 locHead = (UART_txBufferHead + 1u);
 216              		.loc 1 276 0
 217 0020 1368     		ldr	r3, [r2]
 218 0022 591C     		add	r1, r3, #1
 219              	.LVL10:
 277:Generated_Source\PSoC4/UART_SPI_UART.c **** 
 278:Generated_Source\PSoC4/UART_SPI_UART.c ****                 /* Adjust TX software buffer index */
 279:Generated_Source\PSoC4/UART_SPI_UART.c ****                 if (UART_TX_BUFFER_SIZE == locHead)
 280:Generated_Source\PSoC4/UART_SPI_UART.c ****                 {
 281:Generated_Source\PSoC4/UART_SPI_UART.c ****                     locHead = 0u;
 220              		.loc 1 281 0
ARM GAS  C:\Users\g\AppData\Local\Temp\ccV6rAIG.s 			page 10


 221 0024 3F3B     		sub	r3, r3, #63
 222 0026 5D1E     		sub	r5, r3, #1
 223 0028 AB41     		sbc	r3, r3, r5
 224 002a 5B42     		neg	r3, r3
 225 002c 1940     		and	r1, r3
 226              	.LVL11:
 227              	.L21:
 282:Generated_Source\PSoC4/UART_SPI_UART.c ****                 }
 283:Generated_Source\PSoC4/UART_SPI_UART.c **** 
 284:Generated_Source\PSoC4/UART_SPI_UART.c ****                 /* Wait for space in TX software buffer */
 285:Generated_Source\PSoC4/UART_SPI_UART.c ****                 while (locHead == UART_txBufferTail)
 228              		.loc 1 285 0 discriminator 1
 229 002e 2368     		ldr	r3, [r4]
 230 0030 9942     		cmp	r1, r3
 231 0032 FCD0     		beq	.L21
 286:Generated_Source\PSoC4/UART_SPI_UART.c ****                 {
 287:Generated_Source\PSoC4/UART_SPI_UART.c ****                 }
 288:Generated_Source\PSoC4/UART_SPI_UART.c **** 
 289:Generated_Source\PSoC4/UART_SPI_UART.c ****                 /* TX software buffer has at least one room */
 290:Generated_Source\PSoC4/UART_SPI_UART.c **** 
 291:Generated_Source\PSoC4/UART_SPI_UART.c ****                 /* Clear old status of INTR_TX_NOT_FULL. It sets at the end of transfer when TX FIF
 292:Generated_Source\PSoC4/UART_SPI_UART.c ****                 UART_ClearTxInterruptSource(UART_INTR_TX_NOT_FULL);
 232              		.loc 1 292 0
 233 0034 0224     		mov	r4, #2
 234 0036 0B4B     		ldr	r3, .L25+16
 293:Generated_Source\PSoC4/UART_SPI_UART.c **** 
 294:Generated_Source\PSoC4/UART_SPI_UART.c ****                 UART_PutWordInTxBuffer(locHead, txData);
 235              		.loc 1 294 0
 236 0038 C0B2     		uxtb	r0, r0
 237              	.LVL12:
 292:Generated_Source\PSoC4/UART_SPI_UART.c **** 
 238              		.loc 1 292 0
 239 003a 1C60     		str	r4, [r3]
 240              		.loc 1 294 0
 241 003c 0A4B     		ldr	r3, .L25+20
 242 003e 5854     		strb	r0, [r3, r1]
 295:Generated_Source\PSoC4/UART_SPI_UART.c **** 
 296:Generated_Source\PSoC4/UART_SPI_UART.c ****                 UART_txBufferHead = locHead;
 297:Generated_Source\PSoC4/UART_SPI_UART.c **** 
 298:Generated_Source\PSoC4/UART_SPI_UART.c ****                 /* Check if TX Not Full is disabled in interrupt */
 299:Generated_Source\PSoC4/UART_SPI_UART.c ****                 if (0u == (UART_INTR_TX_MASK_REG & UART_INTR_TX_NOT_FULL))
 243              		.loc 1 299 0
 244 0040 0A4B     		ldr	r3, .L25+24
 296:Generated_Source\PSoC4/UART_SPI_UART.c **** 
 245              		.loc 1 296 0
 246 0042 1160     		str	r1, [r2]
 247              		.loc 1 299 0
 248 0044 1A68     		ldr	r2, [r3]
 249 0046 2242     		tst	r2, r4
 250 0048 02D1     		bne	.L17
 251              	.LVL13:
 252              	.LBB4:
 253              	.LBB5:
 300:Generated_Source\PSoC4/UART_SPI_UART.c ****                 {
 301:Generated_Source\PSoC4/UART_SPI_UART.c ****                     /* Enable TX Not Full interrupt source to transmit from software buffer */
 302:Generated_Source\PSoC4/UART_SPI_UART.c ****                     UART_INTR_TX_MASK_REG |= (uint32) UART_INTR_TX_NOT_FULL;
 254              		.loc 1 302 0
ARM GAS  C:\Users\g\AppData\Local\Temp\ccV6rAIG.s 			page 11


 255 004a 1A68     		ldr	r2, [r3]
 256 004c 2243     		orr	r2, r4
 257 004e 1A60     		str	r2, [r3]
 258              	.LVL14:
 259              	.L17:
 260              	.LBE5:
 261              	.LBE4:
 303:Generated_Source\PSoC4/UART_SPI_UART.c ****                 }
 304:Generated_Source\PSoC4/UART_SPI_UART.c ****             }
 305:Generated_Source\PSoC4/UART_SPI_UART.c ****         }
 306:Generated_Source\PSoC4/UART_SPI_UART.c ****         #else
 307:Generated_Source\PSoC4/UART_SPI_UART.c ****         {
 308:Generated_Source\PSoC4/UART_SPI_UART.c ****             /* Wait until TX FIFO has space to put data element */
 309:Generated_Source\PSoC4/UART_SPI_UART.c ****             while (UART_SPI_UART_FIFO_SIZE == UART_GET_TX_FIFO_ENTRIES)
 310:Generated_Source\PSoC4/UART_SPI_UART.c ****             {
 311:Generated_Source\PSoC4/UART_SPI_UART.c ****             }
 312:Generated_Source\PSoC4/UART_SPI_UART.c **** 
 313:Generated_Source\PSoC4/UART_SPI_UART.c ****             UART_TX_FIFO_WR_REG = txData;
 314:Generated_Source\PSoC4/UART_SPI_UART.c ****         }
 315:Generated_Source\PSoC4/UART_SPI_UART.c ****         #endif
 316:Generated_Source\PSoC4/UART_SPI_UART.c ****     }
 262              		.loc 1 316 0
 263              		@ sp needed
 264 0050 30BD     		pop	{r4, r5, pc}
 265              	.L26:
 266 0052 C046     		.align	2
 267              	.L25:
 268 0054 00000000 		.word	UART_txBufferHead
 269 0058 00000000 		.word	UART_txBufferTail
 270 005c 08020740 		.word	1074201096
 271 0060 40020740 		.word	1074201152
 272 0064 800F0740 		.word	1074204544
 273 0068 00000000 		.word	UART_txBufferInternal
 274 006c 880F0740 		.word	1074204552
 275              		.cfi_endproc
 276              	.LFE3:
 277              		.size	UART_SpiUartWriteTxData, .-UART_SpiUartWriteTxData
 278              		.section	.text.UART_SpiUartPutArray,"ax",%progbits
 279              		.align	1
 280              		.global	UART_SpiUartPutArray
 281              		.code	16
 282              		.thumb_func
 283              		.type	UART_SpiUartPutArray, %function
 284              	UART_SpiUartPutArray:
 285              	.LFB4:
 317:Generated_Source\PSoC4/UART_SPI_UART.c **** 
 318:Generated_Source\PSoC4/UART_SPI_UART.c **** 
 319:Generated_Source\PSoC4/UART_SPI_UART.c ****     /*******************************************************************************
 320:Generated_Source\PSoC4/UART_SPI_UART.c ****     * Function Name: UART_SpiUartPutArray
 321:Generated_Source\PSoC4/UART_SPI_UART.c ****     ****************************************************************************//**
 322:Generated_Source\PSoC4/UART_SPI_UART.c ****     *
 323:Generated_Source\PSoC4/UART_SPI_UART.c ****     *  Places an array of data into the transmit buffer to be sent.
 324:Generated_Source\PSoC4/UART_SPI_UART.c ****     *  This function is blocking and waits until there is a space available to put
 325:Generated_Source\PSoC4/UART_SPI_UART.c ****     *  all the requested data in the transmit buffer. The array size can be greater
 326:Generated_Source\PSoC4/UART_SPI_UART.c ****     *  than transmit buffer size.
 327:Generated_Source\PSoC4/UART_SPI_UART.c ****     *
 328:Generated_Source\PSoC4/UART_SPI_UART.c ****     * \param wrBuf: pointer to an array of data to be placed in transmit buffer. 
ARM GAS  C:\Users\g\AppData\Local\Temp\ccV6rAIG.s 			page 12


 329:Generated_Source\PSoC4/UART_SPI_UART.c ****     *  The width of the data to be transmitted depends on TX data width selection 
 330:Generated_Source\PSoC4/UART_SPI_UART.c ****     *  (the data bit counting starts from LSB for each array element).
 331:Generated_Source\PSoC4/UART_SPI_UART.c ****     * \param count: number of data elements to be placed in the transmit buffer.
 332:Generated_Source\PSoC4/UART_SPI_UART.c ****     *
 333:Generated_Source\PSoC4/UART_SPI_UART.c ****     * \globalvars
 334:Generated_Source\PSoC4/UART_SPI_UART.c ****     *  UART_txBufferHead - the start index to put data into the 
 335:Generated_Source\PSoC4/UART_SPI_UART.c ****     *  software transmit buffer.
 336:Generated_Source\PSoC4/UART_SPI_UART.c ****     *  UART_txBufferTail - start index to get data from the software
 337:Generated_Source\PSoC4/UART_SPI_UART.c ****     *  transmit buffer.
 338:Generated_Source\PSoC4/UART_SPI_UART.c ****     *
 339:Generated_Source\PSoC4/UART_SPI_UART.c ****     *******************************************************************************/
 340:Generated_Source\PSoC4/UART_SPI_UART.c ****     void UART_SpiUartPutArray(const uint8 wrBuf[], uint32 count)
 341:Generated_Source\PSoC4/UART_SPI_UART.c ****     {
 286              		.loc 1 341 0
 287              		.cfi_startproc
 288              	.LVL15:
 289 0000 38B5     		push	{r3, r4, r5, lr}
 290              		.cfi_def_cfa_offset 16
 291              		.cfi_offset 3, -16
 292              		.cfi_offset 4, -12
 293              		.cfi_offset 5, -8
 294              		.cfi_offset 14, -4
 295 0002 041C     		mov	r4, r0
 296 0004 4518     		add	r5, r0, r1
 297              	.LVL16:
 298              	.L28:
 342:Generated_Source\PSoC4/UART_SPI_UART.c ****         uint32 i;
 343:Generated_Source\PSoC4/UART_SPI_UART.c **** 
 344:Generated_Source\PSoC4/UART_SPI_UART.c ****         for (i=0u; i < count; i++)
 299              		.loc 1 344 0 discriminator 1
 300 0006 AC42     		cmp	r4, r5
 301 0008 04D0     		beq	.L30
 345:Generated_Source\PSoC4/UART_SPI_UART.c ****         {
 346:Generated_Source\PSoC4/UART_SPI_UART.c ****             UART_SpiUartWriteTxData((uint32) wrBuf[i]);
 302              		.loc 1 346 0 discriminator 3
 303 000a 2078     		ldrb	r0, [r4]
 304 000c FFF7FEFF 		bl	UART_SpiUartWriteTxData
 305              	.LVL17:
 306 0010 0134     		add	r4, r4, #1
 307              	.LVL18:
 308 0012 F8E7     		b	.L28
 309              	.L30:
 347:Generated_Source\PSoC4/UART_SPI_UART.c ****         }
 348:Generated_Source\PSoC4/UART_SPI_UART.c ****     }
 310              		.loc 1 348 0
 311              		@ sp needed
 312              	.LVL19:
 313 0014 38BD     		pop	{r3, r4, r5, pc}
 314              		.cfi_endproc
 315              	.LFE4:
 316              		.size	UART_SpiUartPutArray, .-UART_SpiUartPutArray
 317              		.section	.text.UART_SpiUartGetTxBufferSize,"ax",%progbits
 318              		.align	1
 319              		.global	UART_SpiUartGetTxBufferSize
 320              		.code	16
 321              		.thumb_func
 322              		.type	UART_SpiUartGetTxBufferSize, %function
ARM GAS  C:\Users\g\AppData\Local\Temp\ccV6rAIG.s 			page 13


 323              	UART_SpiUartGetTxBufferSize:
 324              	.LFB5:
 349:Generated_Source\PSoC4/UART_SPI_UART.c **** 
 350:Generated_Source\PSoC4/UART_SPI_UART.c **** 
 351:Generated_Source\PSoC4/UART_SPI_UART.c ****     /*******************************************************************************
 352:Generated_Source\PSoC4/UART_SPI_UART.c ****     * Function Name: UART_SpiUartGetTxBufferSize
 353:Generated_Source\PSoC4/UART_SPI_UART.c ****     ****************************************************************************//**
 354:Generated_Source\PSoC4/UART_SPI_UART.c ****     *
 355:Generated_Source\PSoC4/UART_SPI_UART.c ****     *  Returns the number of elements currently in the transmit buffer.
 356:Generated_Source\PSoC4/UART_SPI_UART.c ****     *   - TX software buffer is disabled: returns the number of used entries in
 357:Generated_Source\PSoC4/UART_SPI_UART.c ****     *     TX FIFO.
 358:Generated_Source\PSoC4/UART_SPI_UART.c ****     *   - TX software buffer is enabled: returns the number of elements currently
 359:Generated_Source\PSoC4/UART_SPI_UART.c ****     *     used in the transmit buffer. This number does not include used entries in
 360:Generated_Source\PSoC4/UART_SPI_UART.c ****     *     the TX FIFO. The transmit buffer size is zero until the TX FIFO is
 361:Generated_Source\PSoC4/UART_SPI_UART.c ****     *     not full.
 362:Generated_Source\PSoC4/UART_SPI_UART.c ****     *
 363:Generated_Source\PSoC4/UART_SPI_UART.c ****     * \return
 364:Generated_Source\PSoC4/UART_SPI_UART.c ****     *  Number of data elements ready to transmit.
 365:Generated_Source\PSoC4/UART_SPI_UART.c ****     *
 366:Generated_Source\PSoC4/UART_SPI_UART.c ****     * \globalvars
 367:Generated_Source\PSoC4/UART_SPI_UART.c ****     *  UART_txBufferHead - the start index to put data into the 
 368:Generated_Source\PSoC4/UART_SPI_UART.c ****     *  software transmit buffer.
 369:Generated_Source\PSoC4/UART_SPI_UART.c ****     *  UART_txBufferTail - start index to get data from the software
 370:Generated_Source\PSoC4/UART_SPI_UART.c ****     *  transmit buffer.
 371:Generated_Source\PSoC4/UART_SPI_UART.c ****     *
 372:Generated_Source\PSoC4/UART_SPI_UART.c ****     *******************************************************************************/
 373:Generated_Source\PSoC4/UART_SPI_UART.c ****     uint32 UART_SpiUartGetTxBufferSize(void)
 374:Generated_Source\PSoC4/UART_SPI_UART.c ****     {
 325              		.loc 1 374 0
 326              		.cfi_startproc
 375:Generated_Source\PSoC4/UART_SPI_UART.c ****         uint32 size;
 376:Generated_Source\PSoC4/UART_SPI_UART.c ****     #if (UART_INTERNAL_TX_SW_BUFFER_CONST)
 377:Generated_Source\PSoC4/UART_SPI_UART.c ****         uint32 locTail;
 378:Generated_Source\PSoC4/UART_SPI_UART.c ****     #endif /* (UART_INTERNAL_TX_SW_BUFFER_CONST) */
 379:Generated_Source\PSoC4/UART_SPI_UART.c **** 
 380:Generated_Source\PSoC4/UART_SPI_UART.c ****         #if (UART_CHECK_TX_SW_BUFFER)
 381:Generated_Source\PSoC4/UART_SPI_UART.c ****         {
 382:Generated_Source\PSoC4/UART_SPI_UART.c ****             /* Get current Tail index */
 383:Generated_Source\PSoC4/UART_SPI_UART.c ****             locTail = UART_txBufferTail;
 384:Generated_Source\PSoC4/UART_SPI_UART.c **** 
 385:Generated_Source\PSoC4/UART_SPI_UART.c ****             if (UART_txBufferHead >= locTail)
 327              		.loc 1 385 0
 328 0000 044A     		ldr	r2, .L35
 383:Generated_Source\PSoC4/UART_SPI_UART.c **** 
 329              		.loc 1 383 0
 330 0002 054B     		ldr	r3, .L35+4
 331 0004 1B68     		ldr	r3, [r3]
 332              	.LVL20:
 333              		.loc 1 385 0
 334 0006 1168     		ldr	r1, [r2]
 386:Generated_Source\PSoC4/UART_SPI_UART.c ****             {
 387:Generated_Source\PSoC4/UART_SPI_UART.c ****                 size = (UART_txBufferHead - locTail);
 335              		.loc 1 387 0
 336 0008 1068     		ldr	r0, [r2]
 385:Generated_Source\PSoC4/UART_SPI_UART.c ****             {
 337              		.loc 1 385 0
 338 000a 9942     		cmp	r1, r3
ARM GAS  C:\Users\g\AppData\Local\Temp\ccV6rAIG.s 			page 14


 339 000c 00D2     		bcs	.L34
 340 000e 4030     		add	r0, r0, #64
 341              	.L34:
 388:Generated_Source\PSoC4/UART_SPI_UART.c ****             }
 389:Generated_Source\PSoC4/UART_SPI_UART.c ****             else
 390:Generated_Source\PSoC4/UART_SPI_UART.c ****             {
 391:Generated_Source\PSoC4/UART_SPI_UART.c ****                 size = (UART_txBufferHead + (UART_TX_BUFFER_SIZE - locTail));
 342              		.loc 1 391 0
 343 0010 C01A     		sub	r0, r0, r3
 344              	.LVL21:
 392:Generated_Source\PSoC4/UART_SPI_UART.c ****             }
 393:Generated_Source\PSoC4/UART_SPI_UART.c ****         }
 394:Generated_Source\PSoC4/UART_SPI_UART.c ****         #else
 395:Generated_Source\PSoC4/UART_SPI_UART.c ****         {
 396:Generated_Source\PSoC4/UART_SPI_UART.c ****             size = UART_GET_TX_FIFO_ENTRIES;
 397:Generated_Source\PSoC4/UART_SPI_UART.c ****         }
 398:Generated_Source\PSoC4/UART_SPI_UART.c ****         #endif
 399:Generated_Source\PSoC4/UART_SPI_UART.c **** 
 400:Generated_Source\PSoC4/UART_SPI_UART.c ****         return (size);
 401:Generated_Source\PSoC4/UART_SPI_UART.c ****     }
 345              		.loc 1 401 0
 346              		@ sp needed
 347 0012 7047     		bx	lr
 348              	.L36:
 349              		.align	2
 350              	.L35:
 351 0014 00000000 		.word	UART_txBufferHead
 352 0018 00000000 		.word	UART_txBufferTail
 353              		.cfi_endproc
 354              	.LFE5:
 355              		.size	UART_SpiUartGetTxBufferSize, .-UART_SpiUartGetTxBufferSize
 356              		.section	.text.UART_SpiUartClearTxBuffer,"ax",%progbits
 357              		.align	1
 358              		.global	UART_SpiUartClearTxBuffer
 359              		.code	16
 360              		.thumb_func
 361              		.type	UART_SpiUartClearTxBuffer, %function
 362              	UART_SpiUartClearTxBuffer:
 363              	.LFB6:
 402:Generated_Source\PSoC4/UART_SPI_UART.c **** 
 403:Generated_Source\PSoC4/UART_SPI_UART.c **** 
 404:Generated_Source\PSoC4/UART_SPI_UART.c ****     /*******************************************************************************
 405:Generated_Source\PSoC4/UART_SPI_UART.c ****     * Function Name: UART_SpiUartClearTxBuffer
 406:Generated_Source\PSoC4/UART_SPI_UART.c ****     ****************************************************************************//**
 407:Generated_Source\PSoC4/UART_SPI_UART.c ****     *
 408:Generated_Source\PSoC4/UART_SPI_UART.c ****     *  Clears the transmit buffer and TX FIFO.
 409:Generated_Source\PSoC4/UART_SPI_UART.c ****     *
 410:Generated_Source\PSoC4/UART_SPI_UART.c ****     * \globalvars
 411:Generated_Source\PSoC4/UART_SPI_UART.c ****     *  UART_txBufferHead - the start index to put data into the 
 412:Generated_Source\PSoC4/UART_SPI_UART.c ****     *  software transmit buffer.
 413:Generated_Source\PSoC4/UART_SPI_UART.c ****     *  UART_txBufferTail - start index to get data from the software
 414:Generated_Source\PSoC4/UART_SPI_UART.c ****     *  transmit buffer.
 415:Generated_Source\PSoC4/UART_SPI_UART.c ****     *
 416:Generated_Source\PSoC4/UART_SPI_UART.c ****     *******************************************************************************/
 417:Generated_Source\PSoC4/UART_SPI_UART.c ****     void UART_SpiUartClearTxBuffer(void)
 418:Generated_Source\PSoC4/UART_SPI_UART.c ****     {
 364              		.loc 1 418 0
ARM GAS  C:\Users\g\AppData\Local\Temp\ccV6rAIG.s 			page 15


 365              		.cfi_startproc
 366 0000 08B5     		push	{r3, lr}
 367              		.cfi_def_cfa_offset 8
 368              		.cfi_offset 3, -8
 369              		.cfi_offset 14, -4
 419:Generated_Source\PSoC4/UART_SPI_UART.c ****         #if (UART_CHECK_TX_SW_BUFFER)
 420:Generated_Source\PSoC4/UART_SPI_UART.c ****         {
 421:Generated_Source\PSoC4/UART_SPI_UART.c ****             /* Lock from component interruption */
 422:Generated_Source\PSoC4/UART_SPI_UART.c ****             UART_DisableInt();
 370              		.loc 1 422 0
 371 0002 0B20     		mov	r0, #11
 372 0004 FFF7FEFF 		bl	CyIntDisable
 373              	.LVL22:
 423:Generated_Source\PSoC4/UART_SPI_UART.c **** 
 424:Generated_Source\PSoC4/UART_SPI_UART.c ****             /* Flush TX software buffer */
 425:Generated_Source\PSoC4/UART_SPI_UART.c ****             UART_txBufferHead = UART_txBufferTail;
 426:Generated_Source\PSoC4/UART_SPI_UART.c **** 
 427:Generated_Source\PSoC4/UART_SPI_UART.c ****             UART_INTR_TX_MASK_REG &= (uint32) ~UART_INTR_TX_NOT_FULL;
 374              		.loc 1 427 0
 375 0008 0221     		mov	r1, #2
 425:Generated_Source\PSoC4/UART_SPI_UART.c **** 
 376              		.loc 1 425 0
 377 000a 0C4B     		ldr	r3, .L38
 428:Generated_Source\PSoC4/UART_SPI_UART.c ****             UART_CLEAR_TX_FIFO;
 429:Generated_Source\PSoC4/UART_SPI_UART.c ****             UART_ClearTxInterruptSource(UART_INTR_TX_ALL);
 430:Generated_Source\PSoC4/UART_SPI_UART.c **** 
 431:Generated_Source\PSoC4/UART_SPI_UART.c ****             /* Release lock */
 432:Generated_Source\PSoC4/UART_SPI_UART.c ****             UART_EnableInt();
 378              		.loc 1 432 0
 379 000c 0B20     		mov	r0, #11
 425:Generated_Source\PSoC4/UART_SPI_UART.c **** 
 380              		.loc 1 425 0
 381 000e 1A68     		ldr	r2, [r3]
 382 0010 0B4B     		ldr	r3, .L38+4
 433:Generated_Source\PSoC4/UART_SPI_UART.c ****         }
 434:Generated_Source\PSoC4/UART_SPI_UART.c ****         #else
 435:Generated_Source\PSoC4/UART_SPI_UART.c ****         {
 436:Generated_Source\PSoC4/UART_SPI_UART.c ****             UART_CLEAR_TX_FIFO;
 437:Generated_Source\PSoC4/UART_SPI_UART.c ****         }
 438:Generated_Source\PSoC4/UART_SPI_UART.c ****         #endif
 439:Generated_Source\PSoC4/UART_SPI_UART.c ****     }
 383              		.loc 1 439 0
 384              		@ sp needed
 425:Generated_Source\PSoC4/UART_SPI_UART.c **** 
 385              		.loc 1 425 0
 386 0012 1A60     		str	r2, [r3]
 427:Generated_Source\PSoC4/UART_SPI_UART.c ****             UART_CLEAR_TX_FIFO;
 387              		.loc 1 427 0
 388 0014 0B4A     		ldr	r2, .L38+8
 389 0016 1368     		ldr	r3, [r2]
 390 0018 8B43     		bic	r3, r1
 428:Generated_Source\PSoC4/UART_SPI_UART.c ****             UART_ClearTxInterruptSource(UART_INTR_TX_ALL);
 391              		.loc 1 428 0
 392 001a 8021     		mov	r1, #128
 427:Generated_Source\PSoC4/UART_SPI_UART.c ****             UART_CLEAR_TX_FIFO;
 393              		.loc 1 427 0
 394 001c 1360     		str	r3, [r2]
ARM GAS  C:\Users\g\AppData\Local\Temp\ccV6rAIG.s 			page 16


 428:Generated_Source\PSoC4/UART_SPI_UART.c ****             UART_ClearTxInterruptSource(UART_INTR_TX_ALL);
 395              		.loc 1 428 0
 396 001e 0A4B     		ldr	r3, .L38+12
 397 0020 4902     		lsl	r1, r1, #9
 398 0022 1A68     		ldr	r2, [r3]
 399 0024 0A43     		orr	r2, r1
 400 0026 1A60     		str	r2, [r3]
 401 0028 1968     		ldr	r1, [r3]
 402 002a 084A     		ldr	r2, .L38+16
 403 002c 0A40     		and	r2, r1
 404 002e 1A60     		str	r2, [r3]
 429:Generated_Source\PSoC4/UART_SPI_UART.c **** 
 405              		.loc 1 429 0
 406 0030 074A     		ldr	r2, .L38+20
 407 0032 084B     		ldr	r3, .L38+24
 408 0034 1A60     		str	r2, [r3]
 432:Generated_Source\PSoC4/UART_SPI_UART.c ****         }
 409              		.loc 1 432 0
 410 0036 FFF7FEFF 		bl	CyIntEnable
 411              	.LVL23:
 412              		.loc 1 439 0
 413 003a 08BD     		pop	{r3, pc}
 414              	.L39:
 415              		.align	2
 416              	.L38:
 417 003c 00000000 		.word	UART_txBufferTail
 418 0040 00000000 		.word	UART_txBufferHead
 419 0044 880F0740 		.word	1074204552
 420 0048 04020740 		.word	1074201092
 421 004c FFFFFEFF 		.word	-65537
 422 0050 F3070000 		.word	2035
 423 0054 800F0740 		.word	1074204544
 424              		.cfi_endproc
 425              	.LFE6:
 426              		.size	UART_SpiUartClearTxBuffer, .-UART_SpiUartClearTxBuffer
 427              		.section	.text.UART_SpiUartDisableIntRx,"ax",%progbits
 428              		.align	1
 429              		.global	UART_SpiUartDisableIntRx
 430              		.code	16
 431              		.thumb_func
 432              		.type	UART_SpiUartDisableIntRx, %function
 433              	UART_SpiUartDisableIntRx:
 434              	.LFB7:
 440:Generated_Source\PSoC4/UART_SPI_UART.c **** 
 441:Generated_Source\PSoC4/UART_SPI_UART.c **** #endif /* (UART_TX_DIRECTION) */
 442:Generated_Source\PSoC4/UART_SPI_UART.c **** 
 443:Generated_Source\PSoC4/UART_SPI_UART.c **** 
 444:Generated_Source\PSoC4/UART_SPI_UART.c **** /*******************************************************************************
 445:Generated_Source\PSoC4/UART_SPI_UART.c **** * Function Name: UART_SpiUartDisableIntRx
 446:Generated_Source\PSoC4/UART_SPI_UART.c **** ****************************************************************************//**
 447:Generated_Source\PSoC4/UART_SPI_UART.c **** *
 448:Generated_Source\PSoC4/UART_SPI_UART.c **** *  Disables the RX interrupt sources.
 449:Generated_Source\PSoC4/UART_SPI_UART.c **** *
 450:Generated_Source\PSoC4/UART_SPI_UART.c **** *  \return
 451:Generated_Source\PSoC4/UART_SPI_UART.c **** *   Returns the RX interrupt sources enabled before the function call.
 452:Generated_Source\PSoC4/UART_SPI_UART.c **** *
 453:Generated_Source\PSoC4/UART_SPI_UART.c **** *******************************************************************************/
ARM GAS  C:\Users\g\AppData\Local\Temp\ccV6rAIG.s 			page 17


 454:Generated_Source\PSoC4/UART_SPI_UART.c **** uint32 UART_SpiUartDisableIntRx(void)
 455:Generated_Source\PSoC4/UART_SPI_UART.c **** {
 435              		.loc 1 455 0
 436              		.cfi_startproc
 456:Generated_Source\PSoC4/UART_SPI_UART.c ****     uint32 intSource;
 457:Generated_Source\PSoC4/UART_SPI_UART.c **** 
 458:Generated_Source\PSoC4/UART_SPI_UART.c ****     intSource = UART_GetRxInterruptMode();
 459:Generated_Source\PSoC4/UART_SPI_UART.c **** 
 460:Generated_Source\PSoC4/UART_SPI_UART.c ****     UART_SetRxInterruptMode(UART_NO_INTR_SOURCES);
 437              		.loc 1 460 0
 438 0000 0022     		mov	r2, #0
 458:Generated_Source\PSoC4/UART_SPI_UART.c **** 
 439              		.loc 1 458 0
 440 0002 024B     		ldr	r3, .L41
 461:Generated_Source\PSoC4/UART_SPI_UART.c **** 
 462:Generated_Source\PSoC4/UART_SPI_UART.c ****     return (intSource);
 463:Generated_Source\PSoC4/UART_SPI_UART.c **** }
 441              		.loc 1 463 0
 442              		@ sp needed
 458:Generated_Source\PSoC4/UART_SPI_UART.c **** 
 443              		.loc 1 458 0
 444 0004 1868     		ldr	r0, [r3]
 445              	.LVL24:
 460:Generated_Source\PSoC4/UART_SPI_UART.c **** 
 446              		.loc 1 460 0
 447 0006 1A60     		str	r2, [r3]
 448              		.loc 1 463 0
 449 0008 7047     		bx	lr
 450              	.L42:
 451 000a C046     		.align	2
 452              	.L41:
 453 000c C80F0740 		.word	1074204616
 454              		.cfi_endproc
 455              	.LFE7:
 456              		.size	UART_SpiUartDisableIntRx, .-UART_SpiUartDisableIntRx
 457              		.section	.text.UART_SpiUartDisableIntTx,"ax",%progbits
 458              		.align	1
 459              		.global	UART_SpiUartDisableIntTx
 460              		.code	16
 461              		.thumb_func
 462              		.type	UART_SpiUartDisableIntTx, %function
 463              	UART_SpiUartDisableIntTx:
 464              	.LFB8:
 464:Generated_Source\PSoC4/UART_SPI_UART.c **** 
 465:Generated_Source\PSoC4/UART_SPI_UART.c **** 
 466:Generated_Source\PSoC4/UART_SPI_UART.c **** /*******************************************************************************
 467:Generated_Source\PSoC4/UART_SPI_UART.c **** * Function Name: UART_SpiUartDisableIntTx
 468:Generated_Source\PSoC4/UART_SPI_UART.c **** ****************************************************************************//**
 469:Generated_Source\PSoC4/UART_SPI_UART.c **** *
 470:Generated_Source\PSoC4/UART_SPI_UART.c **** *  Disables TX interrupt sources.
 471:Generated_Source\PSoC4/UART_SPI_UART.c **** *
 472:Generated_Source\PSoC4/UART_SPI_UART.c **** *  \return
 473:Generated_Source\PSoC4/UART_SPI_UART.c **** *   Returns TX interrupt sources enabled before function call.
 474:Generated_Source\PSoC4/UART_SPI_UART.c **** *
 475:Generated_Source\PSoC4/UART_SPI_UART.c **** *******************************************************************************/
 476:Generated_Source\PSoC4/UART_SPI_UART.c **** uint32 UART_SpiUartDisableIntTx(void)
 477:Generated_Source\PSoC4/UART_SPI_UART.c **** {
ARM GAS  C:\Users\g\AppData\Local\Temp\ccV6rAIG.s 			page 18


 465              		.loc 1 477 0
 466              		.cfi_startproc
 478:Generated_Source\PSoC4/UART_SPI_UART.c ****     uint32 intSourceMask;
 479:Generated_Source\PSoC4/UART_SPI_UART.c **** 
 480:Generated_Source\PSoC4/UART_SPI_UART.c ****     intSourceMask = UART_GetTxInterruptMode();
 481:Generated_Source\PSoC4/UART_SPI_UART.c **** 
 482:Generated_Source\PSoC4/UART_SPI_UART.c ****     UART_SetTxInterruptMode(UART_NO_INTR_SOURCES);
 467              		.loc 1 482 0
 468 0000 0022     		mov	r2, #0
 480:Generated_Source\PSoC4/UART_SPI_UART.c **** 
 469              		.loc 1 480 0
 470 0002 024B     		ldr	r3, .L44
 483:Generated_Source\PSoC4/UART_SPI_UART.c **** 
 484:Generated_Source\PSoC4/UART_SPI_UART.c ****     return (intSourceMask);
 485:Generated_Source\PSoC4/UART_SPI_UART.c **** }
 471              		.loc 1 485 0
 472              		@ sp needed
 480:Generated_Source\PSoC4/UART_SPI_UART.c **** 
 473              		.loc 1 480 0
 474 0004 1868     		ldr	r0, [r3]
 475              	.LVL25:
 482:Generated_Source\PSoC4/UART_SPI_UART.c **** 
 476              		.loc 1 482 0
 477 0006 1A60     		str	r2, [r3]
 478              		.loc 1 485 0
 479 0008 7047     		bx	lr
 480              	.L45:
 481 000a C046     		.align	2
 482              	.L44:
 483 000c 880F0740 		.word	1074204552
 484              		.cfi_endproc
 485              	.LFE8:
 486              		.size	UART_SpiUartDisableIntTx, .-UART_SpiUartDisableIntTx
 487              		.comm	UART_txBufferInternal,64,1
 488              		.comm	UART_rxBufferInternal,65,1
 489              		.comm	UART_txBufferTail,4,4
 490              		.comm	UART_txBufferHead,4,4
 491              		.comm	UART_rxBufferOverflow,1,1
 492              		.comm	UART_rxBufferTail,4,4
 493              		.comm	UART_rxBufferHead,4,4
 494              		.text
 495              	.Letext0:
 496              		.file 2 "Generated_Source\\PSoC4/cytypes.h"
 497              		.file 3 "Generated_Source\\PSoC4/CyLib.h"