ARM GAS  C:\Users\g\AppData\Local\Temp\ccsf8VBg.s 			page 1


   1              		.cpu cortex-m0
   2              		.fpu softvfp
   3              		.eabi_attribute 20, 1
   4              		.eabi_attribute 21, 1
   5              		.eabi_attribute 23, 3
   6              		.eabi_attribute 24, 1
   7              		.eabi_attribute 25, 1
   8              		.eabi_attribute 26, 1
   9              		.eabi_attribute 30, 1
  10              		.eabi_attribute 34, 0
  11              		.eabi_attribute 18, 4
  12              		.code	16
  13              		.file	"UART_1_UART_BOOT.c"
  14              		.text
  15              	.Ltext0:
  16              		.cfi_sections	.debug_frame
  17              		.section	.text.UART_1_UartCyBtldrCommStart,"ax",%progbits
  18              		.align	2
  19              		.global	UART_1_UartCyBtldrCommStart
  20              		.code	16
  21              		.thumb_func
  22              		.type	UART_1_UartCyBtldrCommStart, %function
  23              	UART_1_UartCyBtldrCommStart:
  24              	.LFB0:
  25              		.file 1 ".\\Generated_Source\\PSoC4\\UART_1_UART_BOOT.c"
   1:.\Generated_Source\PSoC4/UART_1_UART_BOOT.c **** /***************************************************************************//**
   2:.\Generated_Source\PSoC4/UART_1_UART_BOOT.c **** * \file UART_1_UART_BOOT.c
   3:.\Generated_Source\PSoC4/UART_1_UART_BOOT.c **** * \version 3.20
   4:.\Generated_Source\PSoC4/UART_1_UART_BOOT.c **** *
   5:.\Generated_Source\PSoC4/UART_1_UART_BOOT.c **** * \brief
   6:.\Generated_Source\PSoC4/UART_1_UART_BOOT.c **** *  This file provides the source code of the bootloader communication APIs
   7:.\Generated_Source\PSoC4/UART_1_UART_BOOT.c **** *  for the SCB Component UART mode.
   8:.\Generated_Source\PSoC4/UART_1_UART_BOOT.c **** *
   9:.\Generated_Source\PSoC4/UART_1_UART_BOOT.c **** * Note:
  10:.\Generated_Source\PSoC4/UART_1_UART_BOOT.c **** *
  11:.\Generated_Source\PSoC4/UART_1_UART_BOOT.c **** ********************************************************************************
  12:.\Generated_Source\PSoC4/UART_1_UART_BOOT.c **** * \copyright
  13:.\Generated_Source\PSoC4/UART_1_UART_BOOT.c **** * Copyright 2013-2016, Cypress Semiconductor Corporation.  All rights reserved.
  14:.\Generated_Source\PSoC4/UART_1_UART_BOOT.c **** * You may use this file only in accordance with the license, terms, conditions,
  15:.\Generated_Source\PSoC4/UART_1_UART_BOOT.c **** * disclaimers, and limitations in the end user license agreement accompanying
  16:.\Generated_Source\PSoC4/UART_1_UART_BOOT.c **** * the software package with which this file was provided.
  17:.\Generated_Source\PSoC4/UART_1_UART_BOOT.c **** *******************************************************************************/
  18:.\Generated_Source\PSoC4/UART_1_UART_BOOT.c **** 
  19:.\Generated_Source\PSoC4/UART_1_UART_BOOT.c **** #include "UART_1_BOOT.h"
  20:.\Generated_Source\PSoC4/UART_1_UART_BOOT.c **** #include "UART_1_SPI_UART.h"
  21:.\Generated_Source\PSoC4/UART_1_UART_BOOT.c **** 
  22:.\Generated_Source\PSoC4/UART_1_UART_BOOT.c **** #if defined(CYDEV_BOOTLOADER_IO_COMP) && (UART_1_UART_BTLDR_COMM_ENABLED)
  23:.\Generated_Source\PSoC4/UART_1_UART_BOOT.c **** 
  24:.\Generated_Source\PSoC4/UART_1_UART_BOOT.c **** /*******************************************************************************
  25:.\Generated_Source\PSoC4/UART_1_UART_BOOT.c **** * Function Name: UART_1_UartCyBtldrCommStart
  26:.\Generated_Source\PSoC4/UART_1_UART_BOOT.c **** ****************************************************************************//**
  27:.\Generated_Source\PSoC4/UART_1_UART_BOOT.c **** *
  28:.\Generated_Source\PSoC4/UART_1_UART_BOOT.c **** *  Starts the UART component.
  29:.\Generated_Source\PSoC4/UART_1_UART_BOOT.c **** *
  30:.\Generated_Source\PSoC4/UART_1_UART_BOOT.c **** *******************************************************************************/
  31:.\Generated_Source\PSoC4/UART_1_UART_BOOT.c **** void UART_1_UartCyBtldrCommStart(void)
  32:.\Generated_Source\PSoC4/UART_1_UART_BOOT.c **** {
ARM GAS  C:\Users\g\AppData\Local\Temp\ccsf8VBg.s 			page 2


  26              		.loc 1 32 0
  27              		.cfi_startproc
  28 0000 08B5     		push	{r3, lr}
  29              		.cfi_def_cfa_offset 8
  30              		.cfi_offset 3, -8
  31              		.cfi_offset 14, -4
  33:.\Generated_Source\PSoC4/UART_1_UART_BOOT.c ****     UART_1_Start();
  32              		.loc 1 33 0
  33 0002 FFF7FEFF 		bl	UART_1_Start
  34              	.LVL0:
  34:.\Generated_Source\PSoC4/UART_1_UART_BOOT.c **** }
  35              		.loc 1 34 0
  36              		@ sp needed
  37 0006 08BD     		pop	{r3, pc}
  38              		.cfi_endproc
  39              	.LFE0:
  40              		.size	UART_1_UartCyBtldrCommStart, .-UART_1_UartCyBtldrCommStart
  41              		.section	.text.UART_1_UartCyBtldrCommStop,"ax",%progbits
  42              		.align	2
  43              		.global	UART_1_UartCyBtldrCommStop
  44              		.code	16
  45              		.thumb_func
  46              		.type	UART_1_UartCyBtldrCommStop, %function
  47              	UART_1_UartCyBtldrCommStop:
  48              	.LFB1:
  35:.\Generated_Source\PSoC4/UART_1_UART_BOOT.c **** 
  36:.\Generated_Source\PSoC4/UART_1_UART_BOOT.c **** 
  37:.\Generated_Source\PSoC4/UART_1_UART_BOOT.c **** /*******************************************************************************
  38:.\Generated_Source\PSoC4/UART_1_UART_BOOT.c **** * Function Name: UART_1_UartCyBtldrCommStop
  39:.\Generated_Source\PSoC4/UART_1_UART_BOOT.c **** ****************************************************************************//**
  40:.\Generated_Source\PSoC4/UART_1_UART_BOOT.c **** *
  41:.\Generated_Source\PSoC4/UART_1_UART_BOOT.c **** *  Disables the UART component.
  42:.\Generated_Source\PSoC4/UART_1_UART_BOOT.c **** *
  43:.\Generated_Source\PSoC4/UART_1_UART_BOOT.c **** *******************************************************************************/
  44:.\Generated_Source\PSoC4/UART_1_UART_BOOT.c **** void UART_1_UartCyBtldrCommStop(void)
  45:.\Generated_Source\PSoC4/UART_1_UART_BOOT.c **** {
  49              		.loc 1 45 0
  50              		.cfi_startproc
  51 0000 08B5     		push	{r3, lr}
  52              		.cfi_def_cfa_offset 8
  53              		.cfi_offset 3, -8
  54              		.cfi_offset 14, -4
  46:.\Generated_Source\PSoC4/UART_1_UART_BOOT.c ****     UART_1_Stop();
  55              		.loc 1 46 0
  56 0002 FFF7FEFF 		bl	UART_1_Stop
  57              	.LVL1:
  47:.\Generated_Source\PSoC4/UART_1_UART_BOOT.c **** }
  58              		.loc 1 47 0
  59              		@ sp needed
  60 0006 08BD     		pop	{r3, pc}
  61              		.cfi_endproc
  62              	.LFE1:
  63              		.size	UART_1_UartCyBtldrCommStop, .-UART_1_UartCyBtldrCommStop
  64              		.section	.text.UART_1_UartCyBtldrCommReset,"ax",%progbits
  65              		.align	2
  66              		.global	UART_1_UartCyBtldrCommReset
  67              		.code	16
ARM GAS  C:\Users\g\AppData\Local\Temp\ccsf8VBg.s 			page 3


  68              		.thumb_func
  69              		.type	UART_1_UartCyBtldrCommReset, %function
  70              	UART_1_UartCyBtldrCommReset:
  71              	.LFB2:
  48:.\Generated_Source\PSoC4/UART_1_UART_BOOT.c **** 
  49:.\Generated_Source\PSoC4/UART_1_UART_BOOT.c **** 
  50:.\Generated_Source\PSoC4/UART_1_UART_BOOT.c **** /*******************************************************************************
  51:.\Generated_Source\PSoC4/UART_1_UART_BOOT.c **** * Function Name: UART_1_UartCyBtldrCommReset
  52:.\Generated_Source\PSoC4/UART_1_UART_BOOT.c **** ****************************************************************************//**
  53:.\Generated_Source\PSoC4/UART_1_UART_BOOT.c **** *
  54:.\Generated_Source\PSoC4/UART_1_UART_BOOT.c **** *  Resets the receive and transmit communication buffers.
  55:.\Generated_Source\PSoC4/UART_1_UART_BOOT.c **** *
  56:.\Generated_Source\PSoC4/UART_1_UART_BOOT.c **** *******************************************************************************/
  57:.\Generated_Source\PSoC4/UART_1_UART_BOOT.c **** void UART_1_UartCyBtldrCommReset(void)
  58:.\Generated_Source\PSoC4/UART_1_UART_BOOT.c **** {
  72              		.loc 1 58 0
  73              		.cfi_startproc
  74 0000 08B5     		push	{r3, lr}
  75              		.cfi_def_cfa_offset 8
  76              		.cfi_offset 3, -8
  77              		.cfi_offset 14, -4
  59:.\Generated_Source\PSoC4/UART_1_UART_BOOT.c ****     /* Clear RX and TX buffers */
  60:.\Generated_Source\PSoC4/UART_1_UART_BOOT.c ****     UART_1_SpiUartClearRxBuffer();
  78              		.loc 1 60 0
  79 0002 FFF7FEFF 		bl	UART_1_SpiUartClearRxBuffer
  80              	.LVL2:
  61:.\Generated_Source\PSoC4/UART_1_UART_BOOT.c ****     UART_1_SpiUartClearTxBuffer();
  81              		.loc 1 61 0
  82 0006 FFF7FEFF 		bl	UART_1_SpiUartClearTxBuffer
  83              	.LVL3:
  62:.\Generated_Source\PSoC4/UART_1_UART_BOOT.c **** }
  84              		.loc 1 62 0
  85              		@ sp needed
  86 000a 08BD     		pop	{r3, pc}
  87              		.cfi_endproc
  88              	.LFE2:
  89              		.size	UART_1_UartCyBtldrCommReset, .-UART_1_UartCyBtldrCommReset
  90              		.section	.text.UART_1_UartCyBtldrCommRead,"ax",%progbits
  91              		.align	2
  92              		.global	UART_1_UartCyBtldrCommRead
  93              		.code	16
  94              		.thumb_func
  95              		.type	UART_1_UartCyBtldrCommRead, %function
  96              	UART_1_UartCyBtldrCommRead:
  97              	.LFB3:
  63:.\Generated_Source\PSoC4/UART_1_UART_BOOT.c **** 
  64:.\Generated_Source\PSoC4/UART_1_UART_BOOT.c **** 
  65:.\Generated_Source\PSoC4/UART_1_UART_BOOT.c **** /*******************************************************************************
  66:.\Generated_Source\PSoC4/UART_1_UART_BOOT.c **** * Function Name: UART_1_UartCyBtldrCommRead
  67:.\Generated_Source\PSoC4/UART_1_UART_BOOT.c **** ****************************************************************************//**
  68:.\Generated_Source\PSoC4/UART_1_UART_BOOT.c **** *
  69:.\Generated_Source\PSoC4/UART_1_UART_BOOT.c **** *  Allows the caller to read data from the bootloader host (the host writes the
  70:.\Generated_Source\PSoC4/UART_1_UART_BOOT.c **** *  data). The function handles polling to allow a block of data to be completely
  71:.\Generated_Source\PSoC4/UART_1_UART_BOOT.c **** *  received from the host device.
  72:.\Generated_Source\PSoC4/UART_1_UART_BOOT.c **** *
  73:.\Generated_Source\PSoC4/UART_1_UART_BOOT.c **** *  \param pData: Pointer to storage for the block of data to be read from the
  74:.\Generated_Source\PSoC4/UART_1_UART_BOOT.c **** *   bootloader host
ARM GAS  C:\Users\g\AppData\Local\Temp\ccsf8VBg.s 			page 4


  75:.\Generated_Source\PSoC4/UART_1_UART_BOOT.c **** *  \param size: Number of bytes to be read.
  76:.\Generated_Source\PSoC4/UART_1_UART_BOOT.c **** *  \param count: Pointer to the variable to write the number of bytes actually
  77:.\Generated_Source\PSoC4/UART_1_UART_BOOT.c **** *   read.
  78:.\Generated_Source\PSoC4/UART_1_UART_BOOT.c **** *  \param timeOut Number of units in 10 ms to wait before returning
  79:.\Generated_Source\PSoC4/UART_1_UART_BOOT.c **** *   because of a timeout.
  80:.\Generated_Source\PSoC4/UART_1_UART_BOOT.c **** *
  81:.\Generated_Source\PSoC4/UART_1_UART_BOOT.c **** *  \return
  82:.\Generated_Source\PSoC4/UART_1_UART_BOOT.c **** *   Returns CYRET_SUCCESS if no problem was encountered or returns the value
  83:.\Generated_Source\PSoC4/UART_1_UART_BOOT.c **** *   that best describes the problem. For more information refer to the
  84:.\Generated_Source\PSoC4/UART_1_UART_BOOT.c **** *   "Return Codes" section of the System Reference Guide.
  85:.\Generated_Source\PSoC4/UART_1_UART_BOOT.c **** *
  86:.\Generated_Source\PSoC4/UART_1_UART_BOOT.c **** *******************************************************************************/
  87:.\Generated_Source\PSoC4/UART_1_UART_BOOT.c **** cystatus UART_1_UartCyBtldrCommRead(uint8 pData[], uint16 size, uint16 * count, uint8 timeOut)
  88:.\Generated_Source\PSoC4/UART_1_UART_BOOT.c **** {
  98              		.loc 1 88 0
  99              		.cfi_startproc
 100              	.LVL4:
 101 0000 F0B5     		push	{r4, r5, r6, r7, lr}
 102              		.cfi_def_cfa_offset 20
 103              		.cfi_offset 4, -20
 104              		.cfi_offset 5, -16
 105              		.cfi_offset 6, -12
 106              		.cfi_offset 7, -8
 107              		.cfi_offset 14, -4
 108 0002 83B0     		sub	sp, sp, #12
 109              		.cfi_def_cfa_offset 32
 110              	.LVL5:
  89:.\Generated_Source\PSoC4/UART_1_UART_BOOT.c ****     cystatus status;
  90:.\Generated_Source\PSoC4/UART_1_UART_BOOT.c ****     uint32 byteCount;
  91:.\Generated_Source\PSoC4/UART_1_UART_BOOT.c ****     uint32 timeoutMs;
  92:.\Generated_Source\PSoC4/UART_1_UART_BOOT.c ****     uint32 i;
  93:.\Generated_Source\PSoC4/UART_1_UART_BOOT.c **** 
  94:.\Generated_Source\PSoC4/UART_1_UART_BOOT.c ****     status = CYRET_BAD_PARAM;
  95:.\Generated_Source\PSoC4/UART_1_UART_BOOT.c **** 
  96:.\Generated_Source\PSoC4/UART_1_UART_BOOT.c ****     if ((NULL != pData) && (size > 0u))
 111              		.loc 1 96 0
 112 0004 0028     		cmp	r0, #0
 113 0006 2FD0     		beq	.L13
 114              		.loc 1 96 0 is_stmt 0 discriminator 1
 115 0008 0029     		cmp	r1, #0
 116 000a 30D0     		beq	.L14
 117 000c 161C     		mov	r6, r2
 118 000e 0D1C     		mov	r5, r1
 119 0010 071C     		mov	r7, r0
 120              	.LVL6:
  97:.\Generated_Source\PSoC4/UART_1_UART_BOOT.c ****     {
  98:.\Generated_Source\PSoC4/UART_1_UART_BOOT.c ****         status = CYRET_TIMEOUT;
  99:.\Generated_Source\PSoC4/UART_1_UART_BOOT.c ****         timeoutMs = ((uint32) 10u * timeOut); /* Convert from 10mS check to 1mS checks */
 121              		.loc 1 99 0 is_stmt 1
 122 0012 9C00     		lsl	r4, r3, #2
 123 0014 E418     		add	r4, r4, r3
 124 0016 6400     		lsl	r4, r4, #1
 125              	.LVL7:
 126              	.L10:
 100:.\Generated_Source\PSoC4/UART_1_UART_BOOT.c **** 
 101:.\Generated_Source\PSoC4/UART_1_UART_BOOT.c ****         /* Wait with timeout 1mS for packet end */
 102:.\Generated_Source\PSoC4/UART_1_UART_BOOT.c ****         byteCount = 0u;
ARM GAS  C:\Users\g\AppData\Local\Temp\ccsf8VBg.s 			page 5


 103:.\Generated_Source\PSoC4/UART_1_UART_BOOT.c ****         do
 104:.\Generated_Source\PSoC4/UART_1_UART_BOOT.c ****         {
 105:.\Generated_Source\PSoC4/UART_1_UART_BOOT.c ****             /* Check packet start */
 106:.\Generated_Source\PSoC4/UART_1_UART_BOOT.c ****             if (0u != UART_1_SpiUartGetRxBufferSize())
 127              		.loc 1 106 0
 128 0018 FFF7FEFF 		bl	UART_1_SpiUartGetRxBufferSize
 129              	.LVL8:
 130 001c 0028     		cmp	r0, #0
 131 001e 10D0     		beq	.L6
 132              	.LVL9:
 133              	.L7:
 107:.\Generated_Source\PSoC4/UART_1_UART_BOOT.c ****             {
 108:.\Generated_Source\PSoC4/UART_1_UART_BOOT.c ****                 /* Wait for end of packet */
 109:.\Generated_Source\PSoC4/UART_1_UART_BOOT.c ****                 do
 110:.\Generated_Source\PSoC4/UART_1_UART_BOOT.c ****                 {
 111:.\Generated_Source\PSoC4/UART_1_UART_BOOT.c ****                     byteCount = UART_1_SpiUartGetRxBufferSize();
 134              		.loc 1 111 0 discriminator 1
 135 0020 FFF7FEFF 		bl	UART_1_SpiUartGetRxBufferSize
 136              	.LVL10:
 137 0024 041C     		mov	r4, r0
 138              	.LVL11:
 112:.\Generated_Source\PSoC4/UART_1_UART_BOOT.c ****                     CyDelayUs(UART_1_UART_BYTE_TO_BYTE);
 139              		.loc 1 112 0 discriminator 1
 140 0026 AB20     		mov	r0, #171
 141              	.LVL12:
 142 0028 FFF7FEFF 		bl	CyDelayUs
 143              	.LVL13:
 113:.\Generated_Source\PSoC4/UART_1_UART_BOOT.c ****                 }
 114:.\Generated_Source\PSoC4/UART_1_UART_BOOT.c ****                 while (byteCount != UART_1_SpiUartGetRxBufferSize());
 144              		.loc 1 114 0 discriminator 1
 145 002c FFF7FEFF 		bl	UART_1_SpiUartGetRxBufferSize
 146              	.LVL14:
 147 0030 A042     		cmp	r0, r4
 148 0032 F5D1     		bne	.L7
 115:.\Generated_Source\PSoC4/UART_1_UART_BOOT.c **** 
 116:.\Generated_Source\PSoC4/UART_1_UART_BOOT.c ****                 byteCount = UART_1_BYTES_TO_COPY(byteCount, size);
 149              		.loc 1 116 0
 150 0034 A542     		cmp	r5, r4
 151 0036 00D9     		bls	.L8
 152 0038 251C     		mov	r5, r4
 153              	.L8:
 154              	.LVL15:
 117:.\Generated_Source\PSoC4/UART_1_UART_BOOT.c ****                 *count = (uint16) byteCount;
 155              		.loc 1 117 0
 156 003a 3580     		strh	r5, [r6]
 157              	.LVL16:
 118:.\Generated_Source\PSoC4/UART_1_UART_BOOT.c ****                 status = CYRET_SUCCESS;
 158              		.loc 1 118 0
 159 003c 0023     		mov	r3, #0
 160 003e 0193     		str	r3, [sp, #4]
 119:.\Generated_Source\PSoC4/UART_1_UART_BOOT.c **** 
 120:.\Generated_Source\PSoC4/UART_1_UART_BOOT.c ****                 break;
 161              		.loc 1 120 0
 162 0040 08E0     		b	.L9
 163              	.LVL17:
 164              	.L6:
 121:.\Generated_Source\PSoC4/UART_1_UART_BOOT.c ****             }
ARM GAS  C:\Users\g\AppData\Local\Temp\ccsf8VBg.s 			page 6


 122:.\Generated_Source\PSoC4/UART_1_UART_BOOT.c **** 
 123:.\Generated_Source\PSoC4/UART_1_UART_BOOT.c ****             CyDelay(UART_1_WAIT_1_MS);
 165              		.loc 1 123 0
 166 0042 0120     		mov	r0, #1
 167 0044 FFF7FEFF 		bl	CyDelay
 168              	.LVL18:
 124:.\Generated_Source\PSoC4/UART_1_UART_BOOT.c ****             --timeoutMs;
 169              		.loc 1 124 0
 170 0048 013C     		sub	r4, r4, #1
 171              	.LVL19:
 125:.\Generated_Source\PSoC4/UART_1_UART_BOOT.c ****         }
 126:.\Generated_Source\PSoC4/UART_1_UART_BOOT.c ****         while (0u != timeoutMs);
 172              		.loc 1 126 0
 173 004a 002C     		cmp	r4, #0
 174 004c E4D1     		bne	.L10
 102:.\Generated_Source\PSoC4/UART_1_UART_BOOT.c ****         do
 175              		.loc 1 102 0
 176 004e 0025     		mov	r5, #0
  98:.\Generated_Source\PSoC4/UART_1_UART_BOOT.c ****         timeoutMs = ((uint32) 10u * timeOut); /* Convert from 10mS check to 1mS checks */
 177              		.loc 1 98 0
 178 0050 1023     		mov	r3, #16
 179 0052 0193     		str	r3, [sp, #4]
 180              	.LVL20:
 181              	.L9:
 127:.\Generated_Source\PSoC4/UART_1_UART_BOOT.c **** 
 128:.\Generated_Source\PSoC4/UART_1_UART_BOOT.c ****         /* Get data from RX buffer into bootloader buffer */
 129:.\Generated_Source\PSoC4/UART_1_UART_BOOT.c ****         for (i = 0u; i < byteCount; ++i)
 182              		.loc 1 129 0
 183 0054 0024     		mov	r4, #0
 184 0056 04E0     		b	.L11
 185              	.LVL21:
 186              	.L12:
 130:.\Generated_Source\PSoC4/UART_1_UART_BOOT.c ****         {
 131:.\Generated_Source\PSoC4/UART_1_UART_BOOT.c ****             pData[i] = (uint8) UART_1_SpiUartReadRxData();
 187              		.loc 1 131 0 discriminator 3
 188 0058 3E19     		add	r6, r7, r4
 189 005a FFF7FEFF 		bl	UART_1_SpiUartReadRxData
 190              	.LVL22:
 191 005e 3070     		strb	r0, [r6]
 129:.\Generated_Source\PSoC4/UART_1_UART_BOOT.c ****         {
 192              		.loc 1 129 0 discriminator 3
 193 0060 0134     		add	r4, r4, #1
 194              	.LVL23:
 195              	.L11:
 129:.\Generated_Source\PSoC4/UART_1_UART_BOOT.c ****         {
 196              		.loc 1 129 0 is_stmt 0 discriminator 1
 197 0062 AC42     		cmp	r4, r5
 198 0064 F8D3     		bcc	.L12
 199 0066 04E0     		b	.L5
 200              	.LVL24:
 201              	.L13:
  94:.\Generated_Source\PSoC4/UART_1_UART_BOOT.c **** 
 202              		.loc 1 94 0 is_stmt 1
 203 0068 0123     		mov	r3, #1
 204              	.LVL25:
 205 006a 0193     		str	r3, [sp, #4]
 206 006c 01E0     		b	.L5
ARM GAS  C:\Users\g\AppData\Local\Temp\ccsf8VBg.s 			page 7


 207              	.LVL26:
 208              	.L14:
 209 006e 0123     		mov	r3, #1
 210              	.LVL27:
 211 0070 0193     		str	r3, [sp, #4]
 212              	.LVL28:
 213              	.L5:
 132:.\Generated_Source\PSoC4/UART_1_UART_BOOT.c ****         }
 133:.\Generated_Source\PSoC4/UART_1_UART_BOOT.c ****     }
 134:.\Generated_Source\PSoC4/UART_1_UART_BOOT.c **** 
 135:.\Generated_Source\PSoC4/UART_1_UART_BOOT.c ****     return (status);
 136:.\Generated_Source\PSoC4/UART_1_UART_BOOT.c **** }
 214              		.loc 1 136 0
 215 0072 0198     		ldr	r0, [sp, #4]
 216 0074 03B0     		add	sp, sp, #12
 217              		@ sp needed
 218 0076 F0BD     		pop	{r4, r5, r6, r7, pc}
 219              		.cfi_endproc
 220              	.LFE3:
 221              		.size	UART_1_UartCyBtldrCommRead, .-UART_1_UartCyBtldrCommRead
 222              		.section	.text.UART_1_UartCyBtldrCommWrite,"ax",%progbits
 223              		.align	2
 224              		.global	UART_1_UartCyBtldrCommWrite
 225              		.code	16
 226              		.thumb_func
 227              		.type	UART_1_UartCyBtldrCommWrite, %function
 228              	UART_1_UartCyBtldrCommWrite:
 229              	.LFB4:
 137:.\Generated_Source\PSoC4/UART_1_UART_BOOT.c **** 
 138:.\Generated_Source\PSoC4/UART_1_UART_BOOT.c **** 
 139:.\Generated_Source\PSoC4/UART_1_UART_BOOT.c **** /*******************************************************************************
 140:.\Generated_Source\PSoC4/UART_1_UART_BOOT.c **** * Function Name: UART_1_UartCyBtldrCommWrite
 141:.\Generated_Source\PSoC4/UART_1_UART_BOOT.c **** ****************************************************************************//**
 142:.\Generated_Source\PSoC4/UART_1_UART_BOOT.c **** *
 143:.\Generated_Source\PSoC4/UART_1_UART_BOOT.c **** *  Allows the caller to write data to the bootloader host (the host reads the
 144:.\Generated_Source\PSoC4/UART_1_UART_BOOT.c **** *  data). The function does not use timeout and returns after data has been
 145:.\Generated_Source\PSoC4/UART_1_UART_BOOT.c **** *  copied into the transmit buffer. The data transmission starts immediately
 146:.\Generated_Source\PSoC4/UART_1_UART_BOOT.c **** *  after the first data element is written into the buffer and lasts until all
 147:.\Generated_Source\PSoC4/UART_1_UART_BOOT.c **** *  data elements from the buffer are sent.
 148:.\Generated_Source\PSoC4/UART_1_UART_BOOT.c **** *
 149:.\Generated_Source\PSoC4/UART_1_UART_BOOT.c **** *  \param pData: Pointer to the block of data to be written to the bootloader
 150:.\Generated_Source\PSoC4/UART_1_UART_BOOT.c **** *   host.
 151:.\Generated_Source\PSoC4/UART_1_UART_BOOT.c **** *  \param size: Number of bytes to be written.
 152:.\Generated_Source\PSoC4/UART_1_UART_BOOT.c **** *  \param count: Pointer to the variable to write the number of bytes actually
 153:.\Generated_Source\PSoC4/UART_1_UART_BOOT.c **** *   written.
 154:.\Generated_Source\PSoC4/UART_1_UART_BOOT.c **** *  \param timeOut: The timeout is not used by this function.
 155:.\Generated_Source\PSoC4/UART_1_UART_BOOT.c **** *   The function returns as soon as data is copied into the transmit buffer.
 156:.\Generated_Source\PSoC4/UART_1_UART_BOOT.c **** *
 157:.\Generated_Source\PSoC4/UART_1_UART_BOOT.c **** *  \return
 158:.\Generated_Source\PSoC4/UART_1_UART_BOOT.c **** *   Returns CYRET_SUCCESS if no problem was encountered or returns the value
 159:.\Generated_Source\PSoC4/UART_1_UART_BOOT.c **** *   that best describes the problem. For more information refer to the
 160:.\Generated_Source\PSoC4/UART_1_UART_BOOT.c **** *   "Return Codes" section of the System Reference Guide.
 161:.\Generated_Source\PSoC4/UART_1_UART_BOOT.c **** *
 162:.\Generated_Source\PSoC4/UART_1_UART_BOOT.c **** *******************************************************************************/
 163:.\Generated_Source\PSoC4/UART_1_UART_BOOT.c **** cystatus UART_1_UartCyBtldrCommWrite(const uint8 pData[], uint16 size, uint16 * count, uint8 timeOu
 164:.\Generated_Source\PSoC4/UART_1_UART_BOOT.c **** {
 230              		.loc 1 164 0
ARM GAS  C:\Users\g\AppData\Local\Temp\ccsf8VBg.s 			page 8


 231              		.cfi_startproc
 232              	.LVL29:
 233 0000 38B5     		push	{r3, r4, r5, lr}
 234              		.cfi_def_cfa_offset 16
 235              		.cfi_offset 3, -16
 236              		.cfi_offset 4, -12
 237              		.cfi_offset 5, -8
 238              		.cfi_offset 14, -4
 239 0002 0C1C     		mov	r4, r1
 240 0004 151C     		mov	r5, r2
 241              	.LVL30:
 165:.\Generated_Source\PSoC4/UART_1_UART_BOOT.c ****     cystatus status;
 166:.\Generated_Source\PSoC4/UART_1_UART_BOOT.c **** 
 167:.\Generated_Source\PSoC4/UART_1_UART_BOOT.c ****     status = CYRET_BAD_PARAM;
 168:.\Generated_Source\PSoC4/UART_1_UART_BOOT.c **** 
 169:.\Generated_Source\PSoC4/UART_1_UART_BOOT.c ****     if ((NULL != pData) && (size > 0u))
 242              		.loc 1 169 0
 243 0006 0028     		cmp	r0, #0
 244 0008 06D0     		beq	.L17
 245              		.loc 1 169 0 is_stmt 0 discriminator 1
 246 000a 0029     		cmp	r1, #0
 247 000c 06D0     		beq	.L18
 170:.\Generated_Source\PSoC4/UART_1_UART_BOOT.c ****     {
 171:.\Generated_Source\PSoC4/UART_1_UART_BOOT.c ****         /* Transmit data. This function does not wait until data is sent. */
 172:.\Generated_Source\PSoC4/UART_1_UART_BOOT.c ****         UART_1_SpiUartPutArray(pData, (uint32) size);
 248              		.loc 1 172 0 is_stmt 1
 249 000e FFF7FEFF 		bl	UART_1_SpiUartPutArray
 250              	.LVL31:
 173:.\Generated_Source\PSoC4/UART_1_UART_BOOT.c **** 
 174:.\Generated_Source\PSoC4/UART_1_UART_BOOT.c ****         *count = size;
 251              		.loc 1 174 0
 252 0012 2C80     		strh	r4, [r5]
 253              	.LVL32:
 175:.\Generated_Source\PSoC4/UART_1_UART_BOOT.c ****         status = CYRET_SUCCESS;
 254              		.loc 1 175 0
 255 0014 0020     		mov	r0, #0
 256 0016 02E0     		b	.L16
 257              	.LVL33:
 258              	.L17:
 167:.\Generated_Source\PSoC4/UART_1_UART_BOOT.c **** 
 259              		.loc 1 167 0
 260 0018 0120     		mov	r0, #1
 261              	.LVL34:
 262 001a 00E0     		b	.L16
 263              	.LVL35:
 264              	.L18:
 265 001c 0120     		mov	r0, #1
 266              	.LVL36:
 267              	.L16:
 176:.\Generated_Source\PSoC4/UART_1_UART_BOOT.c **** 
 177:.\Generated_Source\PSoC4/UART_1_UART_BOOT.c ****         if (0u != timeOut)
 178:.\Generated_Source\PSoC4/UART_1_UART_BOOT.c ****         {
 179:.\Generated_Source\PSoC4/UART_1_UART_BOOT.c ****             /* Suppress compiler warning */
 180:.\Generated_Source\PSoC4/UART_1_UART_BOOT.c ****         }
 181:.\Generated_Source\PSoC4/UART_1_UART_BOOT.c ****     }
 182:.\Generated_Source\PSoC4/UART_1_UART_BOOT.c **** 
 183:.\Generated_Source\PSoC4/UART_1_UART_BOOT.c ****     return (status);
ARM GAS  C:\Users\g\AppData\Local\Temp\ccsf8VBg.s 			page 9


 184:.\Generated_Source\PSoC4/UART_1_UART_BOOT.c **** }
 268              		.loc 1 184 0
 269              		@ sp needed
 270              	.LVL37:
 271 001e 38BD     		pop	{r3, r4, r5, pc}
 272              		.cfi_endproc
 273              	.LFE4:
 274              		.size	UART_1_UartCyBtldrCommWrite, .-UART_1_UartCyBtldrCommWrite
 275              		.text
 276              	.Letext0:
 277              		.file 2 "Generated_Source\\PSoC4/cytypes.h"
 278              		.file 3 ".\\Generated_Source\\PSoC4\\UART_1.h"
 279              		.file 4 ".\\Generated_Source\\PSoC4\\UART_1_SPI_UART.h"
 280              		.file 5 "Generated_Source\\PSoC4/CyLib.h"