ARM GAS  C:\Users\g\AppData\Local\Temp\ccj28d85.s 			page 1


   1              		.cpu cortex-m0
   2              		.fpu softvfp
   3              		.eabi_attribute 20, 1
   4              		.eabi_attribute 21, 1
   5              		.eabi_attribute 23, 3
   6              		.eabi_attribute 24, 1
   7              		.eabi_attribute 25, 1
   8              		.eabi_attribute 26, 1
   9              		.eabi_attribute 30, 1
  10              		.eabi_attribute 34, 0
  11              		.eabi_attribute 18, 4
  12              		.code	16
  13              		.file	"main.c"
  14              		.text
  15              	.Ltext0:
  16              		.cfi_sections	.debug_frame
  17              		.section	.text.transmitUpdate,"ax",%progbits
  18              		.align	2
  19              		.global	transmitUpdate
  20              		.code	16
  21              		.thumb_func
  22              		.type	transmitUpdate, %function
  23              	transmitUpdate:
  24              	.LFB38:
  25              		.file 1 ".\\main.c"
   1:.\main.c      **** /* ========================================
   2:.\main.c      ****     current[mA]=1000*millivolts/(20*Rsense)=5*millivolts
   3:.\main.c      ****     current_limit[mA]=40*current_setting
   4:.\main.c      ****  * ========================================
   5:.\main.c      **** */
   6:.\main.c      **** #include <project.h>
   7:.\main.c      **** #include <stdio.h>
   8:.\main.c      **** #include <stdlib.h>
   9:.\main.c      **** 
  10:.\main.c      **** #define ERROR_INTEGRAL_MAX      4000
  11:.\main.c      **** #define SET_POINT_MULTIPLIER    1
  12:.\main.c      **** #define DUTY_REDUCE_MAX         4094
  13:.\main.c      **** 
  14:.\main.c      **** CY_ISR_PROTO(encoderCount);
  15:.\main.c      **** CY_ISR_PROTO(stepCount);
  16:.\main.c      **** CY_ISR_PROTO(uartReceive);
  17:.\main.c      **** CY_ISR_PROTO(transmitUpdate);
  18:.\main.c      **** 
  19:.\main.c      **** //error counter
  20:.\main.c      **** volatile int16_t error, error_prev;
  21:.\main.c      **** //uart circular buffer
  22:.\main.c      **** volatile uint8_t command_ready, command_index, transmit_ready;
  23:.\main.c      **** volatile char command_parser[6];
  24:.\main.c      **** 
  25:.\main.c      **** int main()
  26:.\main.c      **** {   
  27:.\main.c      ****     int16_t error_integral=0, error_derivative=0, millivolts=0, duty_reduce=0;
  28:.\main.c      ****     int32_t output=0;
  29:.\main.c      ****     //eeprom data
  30:.\main.c      ****     volatile const uint8_t *eeprom_kp, *eeprom_ki, *eeprom_kd, *eeprom_current_setting;
  31:.\main.c      ****     //uart data
  32:.\main.c      ****     static const CYCODE uint8_t kp=50, ki=1, kd=0, current_setting=127;;
ARM GAS  C:\Users\g\AppData\Local\Temp\ccj28d85.s 			page 2


  33:.\main.c      ****     uint8_t command_value=0;
  34:.\main.c      ****     char command_type='z';
  35:.\main.c      ****     char command_local[5], current_tx[5], error_tx[5];
  36:.\main.c      ****     
  37:.\main.c      ****     //"board powered" signal
  38:.\main.c      ****     vin_Write(1);
  39:.\main.c      ****     
  40:.\main.c      ****     UART_Start();
  41:.\main.c      ****     ADC_Start();
  42:.\main.c      ****     TX_SEND_Start();
  43:.\main.c      ****     EEPROM_Start();
  44:.\main.c      ****     
  45:.\main.c      ****     //wake up gate driver
  46:.\main.c      ****     sleep_Write(1);
  47:.\main.c      ****     PWM_MOT_Start();
  48:.\main.c      ****     
  49:.\main.c      ****     rxISR_StartEx(uartReceive);
  50:.\main.c      ****     txISR_StartEx(transmitUpdate);
  51:.\main.c      ****     stepISR_StartEx(stepCount);
  52:.\main.c      ****     pulseISR_StartEx(encoderCount);
  53:.\main.c      ****     
  54:.\main.c      ****     eeprom_kp=&kp;
  55:.\main.c      ****     eeprom_ki=&ki;
  56:.\main.c      ****     eeprom_kd=&kd;
  57:.\main.c      ****     eeprom_current_setting=&current_setting;
  58:.\main.c      ****     
  59:.\main.c      ****     RESET_FAULT_Write(1);
  60:.\main.c      ****     RESET_FAULT_Write(0);
  61:.\main.c      ****     CyGlobalIntEnable; /* Enable global interrupts. */
  62:.\main.c      ****     
  63:.\main.c      ****     for(;;) {
  64:.\main.c      ****                 
  65:.\main.c      ****         //quadrature decoding invalid state
  66:.\main.c      ****         //if(QDEC_FAULT_Read()==1) err_Write(1);
  67:.\main.c      ****         
  68:.\main.c      ****         //PI controller for current limiting purposes
  69:.\main.c      ****         millivolts=ADC_CountsTo_mVolts(0, ADC_GetResult16(0));
  70:.\main.c      ****         duty_reduce=duty_reduce+millivolts-8*(*eeprom_current_setting);
  71:.\main.c      ****         if(duty_reduce>DUTY_REDUCE_MAX) duty_reduce=DUTY_REDUCE_MAX;
  72:.\main.c      ****         else if(duty_reduce<0) duty_reduce=0;
  73:.\main.c      ****         
  74:.\main.c      ****         //calculate errors
  75:.\main.c      ****         error_derivative=error_prev-error;
  76:.\main.c      ****         error_prev=error;
  77:.\main.c      ****         error_integral+=error;
  78:.\main.c      ****         if(error_integral>ERROR_INTEGRAL_MAX) error_integral=ERROR_INTEGRAL_MAX;
  79:.\main.c      ****         else if(error_integral<-ERROR_INTEGRAL_MAX) error_integral=-ERROR_INTEGRAL_MAX;
  80:.\main.c      ****         
  81:.\main.c      ****         //output scaling and constraining
  82:.\main.c      ****         output=(*eeprom_kp)*error+(*eeprom_ki)*error_integral-(*eeprom_kd)*error_derivative;
  83:.\main.c      ****         if(output>=0) phase_Write(1);
  84:.\main.c      ****         else {
  85:.\main.c      ****             output=-output;
  86:.\main.c      ****             phase_Write(0);
  87:.\main.c      ****         }
  88:.\main.c      ****         output=(output>>4);
  89:.\main.c      ****         if(output>4095) output=4095;
ARM GAS  C:\Users\g\AppData\Local\Temp\ccj28d85.s 			page 3


  90:.\main.c      ****         output-=duty_reduce;
  91:.\main.c      ****         if(output<1) output=1;
  92:.\main.c      ****         PWM_MOT_WriteCompare(output);
  93:.\main.c      ****         
  94:.\main.c      ****         //parse command
  95:.\main.c      ****         if(command_ready==1) {
  96:.\main.c      ****             command_type=command_parser[0];
  97:.\main.c      ****             for(int i=0; i<5; i++) command_local[i]=command_parser[i+1];
  98:.\main.c      ****             command_value=atoi(command_local);
  99:.\main.c      ****             switch(command_type) {
 100:.\main.c      ****                 case 'p':
 101:.\main.c      ****                     EEPROM_Write(&command_value, &kp, 1);
 102:.\main.c      ****                 break;
 103:.\main.c      ****                 case 'i':
 104:.\main.c      ****                     EEPROM_Write(&command_value, &ki, 1);
 105:.\main.c      ****                 break;
 106:.\main.c      ****                 case 'd':
 107:.\main.c      ****                     EEPROM_Write(&command_value, &kd, 1);
 108:.\main.c      ****                 break;
 109:.\main.c      ****                 case 'c':
 110:.\main.c      ****                     EEPROM_Write(&command_value, &current_setting, 1);
 111:.\main.c      ****                 break;
 112:.\main.c      ****             }
 113:.\main.c      ****             command_ready=0;
 114:.\main.c      ****         }
 115:.\main.c      ****         
 116:.\main.c      ****         
 117:.\main.c      ****         sprintf(current_tx, "%d", 5*millivolts);
 118:.\main.c      ****         sprintf(error_tx, "%d", error+500);
 119:.\main.c      ****                 
 120:.\main.c      ****         if(transmit_ready) {
 121:.\main.c      ****             
 122:.\main.c      ****             UART_UartPutChar('$');
 123:.\main.c      ****             //transmit current value
 124:.\main.c      ****             UART_UartPutString(current_tx);
 125:.\main.c      ****             UART_UartPutChar(' ');
 126:.\main.c      ****             //transmit error value
 127:.\main.c      ****             UART_UartPutString(error_tx);
 128:.\main.c      ****             UART_UartPutChar(';');
 129:.\main.c      ****             
 130:.\main.c      ****             transmit_ready=0;
 131:.\main.c      ****         }
 132:.\main.c      ****                 
 133:.\main.c      ****     }
 134:.\main.c      **** }
 135:.\main.c      **** 
 136:.\main.c      **** CY_ISR(encoderCount) {
 137:.\main.c      ****     if (QDEC_DIR_Read()==1) error++;
 138:.\main.c      ****     else error--;
 139:.\main.c      **** }
 140:.\main.c      **** 
 141:.\main.c      **** CY_ISR(stepCount) {
 142:.\main.c      ****     if (direction_Read()==1) {
 143:.\main.c      ****         error+=SET_POINT_MULTIPLIER;
 144:.\main.c      ****         error_prev+=SET_POINT_MULTIPLIER;
 145:.\main.c      ****     }
 146:.\main.c      ****     else {
ARM GAS  C:\Users\g\AppData\Local\Temp\ccj28d85.s 			page 4


 147:.\main.c      ****         error-=SET_POINT_MULTIPLIER;
 148:.\main.c      ****         error_prev-=SET_POINT_MULTIPLIER;
 149:.\main.c      ****     }
 150:.\main.c      **** }
 151:.\main.c      **** 
 152:.\main.c      **** CY_ISR(uartReceive) {
 153:.\main.c      ****     command_parser[command_index]=UART_UartGetChar();
 154:.\main.c      ****     if(command_parser[command_index]!=';') {
 155:.\main.c      ****         command_index++;
 156:.\main.c      ****         command_ready=0;
 157:.\main.c      ****     }
 158:.\main.c      ****     else {
 159:.\main.c      ****         command_index=0;
 160:.\main.c      ****         command_ready=1;
 161:.\main.c      ****     }
 162:.\main.c      ****     UART_ClearRxInterruptSource(UART_INTR_RX_NOT_EMPTY );
 163:.\main.c      **** }
 164:.\main.c      **** 
 165:.\main.c      **** CY_ISR(transmitUpdate) {
  26              		.loc 1 165 0
  27              		.cfi_startproc
 166:.\main.c      ****     transmit_ready=1;
  28              		.loc 1 166 0
  29 0000 0122     		mov	r2, #1
  30 0002 014B     		ldr	r3, .L2
  31 0004 1A70     		strb	r2, [r3]
 167:.\main.c      **** }
  32              		.loc 1 167 0
  33              		@ sp needed
  34 0006 7047     		bx	lr
  35              	.L3:
  36              		.align	2
  37              	.L2:
  38 0008 00000000 		.word	transmit_ready
  39              		.cfi_endproc
  40              	.LFE38:
  41              		.size	transmitUpdate, .-transmitUpdate
  42              		.section	.text.encoderCount,"ax",%progbits
  43              		.align	2
  44              		.global	encoderCount
  45              		.code	16
  46              		.thumb_func
  47              		.type	encoderCount, %function
  48              	encoderCount:
  49              	.LFB35:
 136:.\main.c      ****     if (QDEC_DIR_Read()==1) error++;
  50              		.loc 1 136 0
  51              		.cfi_startproc
  52 0000 08B5     		push	{r3, lr}
  53              		.cfi_def_cfa_offset 8
  54              		.cfi_offset 3, -8
  55              		.cfi_offset 14, -4
 137:.\main.c      ****     else error--;
  56              		.loc 1 137 0
  57 0002 FFF7FEFF 		bl	QDEC_DIR_Read
  58              	.LVL0:
  59 0006 0128     		cmp	r0, #1
ARM GAS  C:\Users\g\AppData\Local\Temp\ccj28d85.s 			page 5


  60 0008 05D1     		bne	.L5
 137:.\main.c      ****     else error--;
  61              		.loc 1 137 0 is_stmt 0 discriminator 1
  62 000a 064A     		ldr	r2, .L7
  63 000c 1388     		ldrh	r3, [r2]
  64 000e 0133     		add	r3, r3, #1
  65 0010 9BB2     		uxth	r3, r3
  66 0012 1380     		strh	r3, [r2]
  67 0014 04E0     		b	.L4
  68              	.L5:
 138:.\main.c      **** }
  69              		.loc 1 138 0 is_stmt 1
  70 0016 034A     		ldr	r2, .L7
  71 0018 1388     		ldrh	r3, [r2]
  72 001a 013B     		sub	r3, r3, #1
  73 001c 9BB2     		uxth	r3, r3
  74 001e 1380     		strh	r3, [r2]
  75              	.L4:
 139:.\main.c      **** 
  76              		.loc 1 139 0
  77              		@ sp needed
  78 0020 08BD     		pop	{r3, pc}
  79              	.L8:
  80 0022 C046     		.align	2
  81              	.L7:
  82 0024 00000000 		.word	error
  83              		.cfi_endproc
  84              	.LFE35:
  85              		.size	encoderCount, .-encoderCount
  86              		.section	.text.stepCount,"ax",%progbits
  87              		.align	2
  88              		.global	stepCount
  89              		.code	16
  90              		.thumb_func
  91              		.type	stepCount, %function
  92              	stepCount:
  93              	.LFB36:
 141:.\main.c      ****     if (direction_Read()==1) {
  94              		.loc 1 141 0
  95              		.cfi_startproc
  96 0000 08B5     		push	{r3, lr}
  97              		.cfi_def_cfa_offset 8
  98              		.cfi_offset 3, -8
  99              		.cfi_offset 14, -4
 142:.\main.c      ****         error+=SET_POINT_MULTIPLIER;
 100              		.loc 1 142 0
 101 0002 FFF7FEFF 		bl	direction_Read
 102              	.LVL1:
 103 0006 0128     		cmp	r0, #1
 104 0008 0AD1     		bne	.L10
 143:.\main.c      ****         error_prev+=SET_POINT_MULTIPLIER;
 105              		.loc 1 143 0
 106 000a 0B4A     		ldr	r2, .L12
 107 000c 1388     		ldrh	r3, [r2]
 108 000e 0133     		add	r3, r3, #1
 109 0010 9BB2     		uxth	r3, r3
 110 0012 1380     		strh	r3, [r2]
ARM GAS  C:\Users\g\AppData\Local\Temp\ccj28d85.s 			page 6


 144:.\main.c      ****     }
 111              		.loc 1 144 0
 112 0014 094A     		ldr	r2, .L12+4
 113 0016 1388     		ldrh	r3, [r2]
 114 0018 0133     		add	r3, r3, #1
 115 001a 9BB2     		uxth	r3, r3
 116 001c 1380     		strh	r3, [r2]
 117 001e 09E0     		b	.L9
 118              	.L10:
 147:.\main.c      ****         error_prev-=SET_POINT_MULTIPLIER;
 119              		.loc 1 147 0
 120 0020 054A     		ldr	r2, .L12
 121 0022 1388     		ldrh	r3, [r2]
 122 0024 013B     		sub	r3, r3, #1
 123 0026 9BB2     		uxth	r3, r3
 124 0028 1380     		strh	r3, [r2]
 148:.\main.c      ****     }
 125              		.loc 1 148 0
 126 002a 044A     		ldr	r2, .L12+4
 127 002c 1388     		ldrh	r3, [r2]
 128 002e 013B     		sub	r3, r3, #1
 129 0030 9BB2     		uxth	r3, r3
 130 0032 1380     		strh	r3, [r2]
 131              	.L9:
 150:.\main.c      **** 
 132              		.loc 1 150 0
 133              		@ sp needed
 134 0034 08BD     		pop	{r3, pc}
 135              	.L13:
 136 0036 C046     		.align	2
 137              	.L12:
 138 0038 00000000 		.word	error
 139 003c 00000000 		.word	error_prev
 140              		.cfi_endproc
 141              	.LFE36:
 142              		.size	stepCount, .-stepCount
 143              		.section	.text.uartReceive,"ax",%progbits
 144              		.align	2
 145              		.global	uartReceive
 146              		.code	16
 147              		.thumb_func
 148              		.type	uartReceive, %function
 149              	uartReceive:
 150              	.LFB37:
 152:.\main.c      ****     command_parser[command_index]=UART_UartGetChar();
 151              		.loc 1 152 0
 152              		.cfi_startproc
 153 0000 38B5     		push	{r3, r4, r5, lr}
 154              		.cfi_def_cfa_offset 16
 155              		.cfi_offset 3, -16
 156              		.cfi_offset 4, -12
 157              		.cfi_offset 5, -8
 158              		.cfi_offset 14, -4
 153:.\main.c      ****     if(command_parser[command_index]!=';') {
 159              		.loc 1 153 0
 160 0002 104D     		ldr	r5, .L17
 161 0004 2C78     		ldrb	r4, [r5]
ARM GAS  C:\Users\g\AppData\Local\Temp\ccj28d85.s 			page 7


 162 0006 E4B2     		uxtb	r4, r4
 163 0008 FFF7FEFF 		bl	UART_UartGetChar
 164              	.LVL2:
 165 000c C0B2     		uxtb	r0, r0
 166 000e 0E4A     		ldr	r2, .L17+4
 167 0010 1055     		strb	r0, [r2, r4]
 154:.\main.c      ****         command_index++;
 168              		.loc 1 154 0
 169 0012 2B78     		ldrb	r3, [r5]
 170 0014 DBB2     		uxtb	r3, r3
 171 0016 D35C     		ldrb	r3, [r2, r3]
 172 0018 3B2B     		cmp	r3, #59
 173 001a 08D0     		beq	.L15
 155:.\main.c      ****         command_ready=0;
 174              		.loc 1 155 0
 175 001c 094A     		ldr	r2, .L17
 176 001e 1378     		ldrb	r3, [r2]
 177 0020 0133     		add	r3, r3, #1
 178 0022 DBB2     		uxtb	r3, r3
 179 0024 1370     		strb	r3, [r2]
 156:.\main.c      ****     }
 180              		.loc 1 156 0
 181 0026 0022     		mov	r2, #0
 182 0028 084B     		ldr	r3, .L17+8
 183 002a 1A70     		strb	r2, [r3]
 184 002c 05E0     		b	.L16
 185              	.L15:
 159:.\main.c      ****         command_ready=1;
 186              		.loc 1 159 0
 187 002e 0022     		mov	r2, #0
 188 0030 044B     		ldr	r3, .L17
 189 0032 1A70     		strb	r2, [r3]
 160:.\main.c      ****     }
 190              		.loc 1 160 0
 191 0034 0132     		add	r2, r2, #1
 192 0036 054B     		ldr	r3, .L17+8
 193 0038 1A70     		strb	r2, [r3]
 194              	.L16:
 162:.\main.c      **** }
 195              		.loc 1 162 0
 196 003a 0422     		mov	r2, #4
 197 003c 044B     		ldr	r3, .L17+12
 198 003e 1A60     		str	r2, [r3]
 163:.\main.c      **** 
 199              		.loc 1 163 0
 200              		@ sp needed
 201 0040 38BD     		pop	{r3, r4, r5, pc}
 202              	.L18:
 203 0042 C046     		.align	2
 204              	.L17:
 205 0044 00000000 		.word	command_index
 206 0048 00000000 		.word	command_parser
 207 004c 00000000 		.word	command_ready
 208 0050 C00F0740 		.word	1074204608
 209              		.cfi_endproc
 210              	.LFE37:
 211              		.size	uartReceive, .-uartReceive
ARM GAS  C:\Users\g\AppData\Local\Temp\ccj28d85.s 			page 8


 212              		.section	.text.main,"ax",%progbits
 213              		.align	2
 214              		.global	main
 215              		.code	16
 216              		.thumb_func
 217              		.type	main, %function
 218              	main:
 219              	.LFB34:
  26:.\main.c      ****     int16_t error_integral=0, error_derivative=0, millivolts=0, duty_reduce=0;
 220              		.loc 1 26 0
 221              		.cfi_startproc
 222 0000 F0B5     		push	{r4, r5, r6, r7, lr}
 223              		.cfi_def_cfa_offset 20
 224              		.cfi_offset 4, -20
 225              		.cfi_offset 5, -16
 226              		.cfi_offset 6, -12
 227              		.cfi_offset 7, -8
 228              		.cfi_offset 14, -4
 229 0002 87B0     		sub	sp, sp, #28
 230              		.cfi_def_cfa_offset 48
 231              	.LVL3:
  33:.\main.c      ****     char command_type='z';
 232              		.loc 1 33 0
 233 0004 0022     		mov	r2, #0
 234 0006 1723     		mov	r3, #23
 235 0008 6B44     		add	r3, r3, sp
 236 000a 1A70     		strb	r2, [r3]
 237              	.LVL4:
  38:.\main.c      ****     
 238              		.loc 1 38 0
 239 000c 0120     		mov	r0, #1
 240 000e FFF7FEFF 		bl	vin_Write
 241              	.LVL5:
  40:.\main.c      ****     ADC_Start();
 242              		.loc 1 40 0
 243 0012 FFF7FEFF 		bl	UART_Start
 244              	.LVL6:
  41:.\main.c      ****     TX_SEND_Start();
 245              		.loc 1 41 0
 246 0016 FFF7FEFF 		bl	ADC_Start
 247              	.LVL7:
  42:.\main.c      ****     EEPROM_Start();
 248              		.loc 1 42 0
 249 001a FFF7FEFF 		bl	TX_SEND_Start
 250              	.LVL8:
  43:.\main.c      ****     
 251              		.loc 1 43 0
 252 001e FFF7FEFF 		bl	EEPROM_Start
 253              	.LVL9:
  46:.\main.c      ****     PWM_MOT_Start();
 254              		.loc 1 46 0
 255 0022 0120     		mov	r0, #1
 256 0024 FFF7FEFF 		bl	sleep_Write
 257              	.LVL10:
  47:.\main.c      ****     
 258              		.loc 1 47 0
 259 0028 FFF7FEFF 		bl	PWM_MOT_Start
ARM GAS  C:\Users\g\AppData\Local\Temp\ccj28d85.s 			page 9


 260              	.LVL11:
  49:.\main.c      ****     txISR_StartEx(transmitUpdate);
 261              		.loc 1 49 0
 262 002c 6948     		ldr	r0, .L43
 263 002e FFF7FEFF 		bl	rxISR_StartEx
 264              	.LVL12:
  50:.\main.c      ****     stepISR_StartEx(stepCount);
 265              		.loc 1 50 0
 266 0032 6948     		ldr	r0, .L43+4
 267 0034 FFF7FEFF 		bl	txISR_StartEx
 268              	.LVL13:
  51:.\main.c      ****     pulseISR_StartEx(encoderCount);
 269              		.loc 1 51 0
 270 0038 6848     		ldr	r0, .L43+8
 271 003a FFF7FEFF 		bl	stepISR_StartEx
 272              	.LVL14:
  52:.\main.c      ****     
 273              		.loc 1 52 0
 274 003e 6848     		ldr	r0, .L43+12
 275 0040 FFF7FEFF 		bl	pulseISR_StartEx
 276              	.LVL15:
  59:.\main.c      ****     RESET_FAULT_Write(0);
 277              		.loc 1 59 0
 278 0044 0120     		mov	r0, #1
 279 0046 FFF7FEFF 		bl	RESET_FAULT_Write
 280              	.LVL16:
  60:.\main.c      ****     CyGlobalIntEnable; /* Enable global interrupts. */
 281              		.loc 1 60 0
 282 004a 0020     		mov	r0, #0
 283 004c FFF7FEFF 		bl	RESET_FAULT_Write
 284              	.LVL17:
  61:.\main.c      ****     
 285              		.loc 1 61 0
 286              	@ 61 ".\main.c" 1
 287 0050 62B6     		CPSIE   i
 288              	@ 0 "" 2
  27:.\main.c      ****     int32_t output=0;
 289              		.loc 1 27 0
 290              		.code	16
 291 0052 0025     		mov	r5, #0
 292 0054 0027     		mov	r7, #0
 293              	.LVL18:
 294              	.L20:
  69:.\main.c      ****         duty_reduce=duty_reduce+millivolts-8*(*eeprom_current_setting);
 295              		.loc 1 69 0
 296 0056 0020     		mov	r0, #0
 297 0058 FFF7FEFF 		bl	ADC_GetResult16
 298              	.LVL19:
 299 005c 011C     		mov	r1, r0
 300 005e 0020     		mov	r0, #0
 301 0060 FFF7FEFF 		bl	ADC_CountsTo_mVolts
 302              	.LVL20:
 303 0064 061C     		mov	r6, r0
 304              	.LVL21:
  70:.\main.c      ****         if(duty_reduce>DUTY_REDUCE_MAX) duty_reduce=DUTY_REDUCE_MAX;
 305              		.loc 1 70 0
 306 0066 5F4B     		ldr	r3, .L43+16
ARM GAS  C:\Users\g\AppData\Local\Temp\ccj28d85.s 			page 10


 307 0068 1A78     		ldrb	r2, [r3]
 308 006a 2B18     		add	r3, r5, r0
 309 006c D500     		lsl	r5, r2, #3
 310              	.LVL22:
 311 006e 5D1B     		sub	r5, r3, r5
 312 0070 ADB2     		uxth	r5, r5
 313              	.LVL23:
  71:.\main.c      ****         else if(duty_reduce<0) duty_reduce=0;
 314              		.loc 1 71 0
 315 0072 2AB2     		sxth	r2, r5
 316 0074 5C4B     		ldr	r3, .L43+20
 317 0076 9A42     		cmp	r2, r3
 318 0078 02DC     		bgt	.L37
  72:.\main.c      ****         
 319              		.loc 1 72 0
 320 007a 002A     		cmp	r2, #0
 321 007c 03DA     		bge	.L21
 322 007e 01E0     		b	.L38
 323              	.L37:
  71:.\main.c      ****         else if(duty_reduce<0) duty_reduce=0;
 324              		.loc 1 71 0
 325 0080 594D     		ldr	r5, .L43+20
 326              	.LVL24:
 327 0082 00E0     		b	.L21
 328              	.LVL25:
 329              	.L38:
  72:.\main.c      ****         
 330              		.loc 1 72 0
 331 0084 0025     		mov	r5, #0
 332              	.LVL26:
 333              	.L21:
  75:.\main.c      ****         error_prev=error;
 334              		.loc 1 75 0
 335 0086 5948     		ldr	r0, .L43+24
 336              	.LVL27:
 337 0088 0288     		ldrh	r2, [r0]
 338 008a 594B     		ldr	r3, .L43+28
 339 008c 1C88     		ldrh	r4, [r3]
 340 008e 141B     		sub	r4, r2, r4
 341 0090 A1B2     		uxth	r1, r4
 342              	.LVL28:
  76:.\main.c      ****         error_integral+=error;
 343              		.loc 1 76 0
 344 0092 1A88     		ldrh	r2, [r3]
 345 0094 92B2     		uxth	r2, r2
 346 0096 0280     		strh	r2, [r0]
  77:.\main.c      ****         if(error_integral>ERROR_INTEGRAL_MAX) error_integral=ERROR_INTEGRAL_MAX;
 347              		.loc 1 77 0
 348 0098 1B88     		ldrh	r3, [r3]
 349 009a DF19     		add	r7, r3, r7
 350              	.LVL29:
 351 009c BFB2     		uxth	r7, r7
 352              	.LVL30:
  78:.\main.c      ****         else if(error_integral<-ERROR_INTEGRAL_MAX) error_integral=-ERROR_INTEGRAL_MAX;
 353              		.loc 1 78 0
 354 009e 3AB2     		sxth	r2, r7
 355 00a0 FA23     		mov	r3, #250
ARM GAS  C:\Users\g\AppData\Local\Temp\ccj28d85.s 			page 11


 356 00a2 1B01     		lsl	r3, r3, #4
 357 00a4 9A42     		cmp	r2, r3
 358 00a6 04DC     		bgt	.L39
  79:.\main.c      ****         
 359              		.loc 1 79 0
 360 00a8 131E     		sub	r3, r2, #0
 361 00aa 524A     		ldr	r2, .L43+32
 362 00ac 9342     		cmp	r3, r2
 363 00ae 03DB     		blt	.L40
 364 00b0 03E0     		b	.L22
 365              	.L39:
  78:.\main.c      ****         else if(error_integral<-ERROR_INTEGRAL_MAX) error_integral=-ERROR_INTEGRAL_MAX;
 366              		.loc 1 78 0
 367 00b2 FA27     		mov	r7, #250
 368              	.LVL31:
 369 00b4 3F01     		lsl	r7, r7, #4
 370 00b6 00E0     		b	.L22
 371              	.LVL32:
 372              	.L40:
  79:.\main.c      ****         
 373              		.loc 1 79 0
 374 00b8 4F4F     		ldr	r7, .L43+36
 375              	.LVL33:
 376              	.L22:
  82:.\main.c      ****         if(output>=0) phase_Write(1);
 377              		.loc 1 82 0
 378 00ba 4A48     		ldr	r0, .L43+16
 379 00bc 4278     		ldrb	r2, [r0, #1]
 380 00be 4C4B     		ldr	r3, .L43+28
 381 00c0 1C88     		ldrh	r4, [r3]
 382 00c2 24B2     		sxth	r4, r4
 383 00c4 5443     		mul	r4, r2
 384 00c6 8278     		ldrb	r2, [r0, #2]
 385 00c8 3BB2     		sxth	r3, r7
 386 00ca 5343     		mul	r3, r2
 387 00cc E318     		add	r3, r4, r3
 388 00ce C278     		ldrb	r2, [r0, #3]
 389 00d0 0CB2     		sxth	r4, r1
 390 00d2 5443     		mul	r4, r2
 391 00d4 1C1B     		sub	r4, r3, r4
 392              	.LVL34:
  83:.\main.c      ****         else {
 393              		.loc 1 83 0
 394 00d6 03D4     		bmi	.L23
  83:.\main.c      ****         else {
 395              		.loc 1 83 0 is_stmt 0 discriminator 1
 396 00d8 0120     		mov	r0, #1
 397 00da FFF7FEFF 		bl	phase_Write
 398              	.LVL35:
 399 00de 03E0     		b	.L24
 400              	.LVL36:
 401              	.L23:
  85:.\main.c      ****             phase_Write(0);
 402              		.loc 1 85 0 is_stmt 1
 403 00e0 6442     		neg	r4, r4
 404              	.LVL37:
  86:.\main.c      ****         }
ARM GAS  C:\Users\g\AppData\Local\Temp\ccj28d85.s 			page 12


 405              		.loc 1 86 0
 406 00e2 0020     		mov	r0, #0
 407 00e4 FFF7FEFF 		bl	phase_Write
 408              	.LVL38:
 409              	.L24:
  88:.\main.c      ****         if(output>4095) output=4095;
 410              		.loc 1 88 0
 411 00e8 2411     		asr	r4, r4, #4
 412              	.LVL39:
  89:.\main.c      ****         output-=duty_reduce;
 413              		.loc 1 89 0
 414 00ea 444B     		ldr	r3, .L43+40
 415 00ec 9C42     		cmp	r4, r3
 416 00ee 00DD     		ble	.L25
 417 00f0 1C1C     		mov	r4, r3
 418              	.LVL40:
 419              	.L25:
  90:.\main.c      ****         if(output<1) output=1;
 420              		.loc 1 90 0
 421 00f2 28B2     		sxth	r0, r5
 422 00f4 201A     		sub	r0, r4, r0
 423              	.LVL41:
  91:.\main.c      ****         PWM_MOT_WriteCompare(output);
 424              		.loc 1 91 0
 425 00f6 0028     		cmp	r0, #0
 426 00f8 00DC     		bgt	.L26
 427 00fa 0120     		mov	r0, #1
 428              	.LVL42:
 429              	.L26:
  92:.\main.c      ****         
 430              		.loc 1 92 0
 431 00fc FFF7FEFF 		bl	PWM_MOT_WriteCompare
 432              	.LVL43:
  95:.\main.c      ****             command_type=command_parser[0];
 433              		.loc 1 95 0
 434 0100 3F4B     		ldr	r3, .L43+44
 435 0102 1B78     		ldrb	r3, [r3]
 436 0104 012B     		cmp	r3, #1
 437 0106 3DD1     		bne	.L27
  96:.\main.c      ****             for(int i=0; i<5; i++) command_local[i]=command_parser[i+1];
 438              		.loc 1 96 0
 439 0108 3E4B     		ldr	r3, .L43+48
 440 010a 1C78     		ldrb	r4, [r3]
 441 010c E4B2     		uxtb	r4, r4
 442              	.LVL44:
 443              	.LBB2:
  97:.\main.c      ****             command_value=atoi(command_local);
 444              		.loc 1 97 0
 445 010e 0023     		mov	r3, #0
 446 0110 05E0     		b	.L28
 447              	.LVL45:
 448              	.L29:
  97:.\main.c      ****             command_value=atoi(command_local);
 449              		.loc 1 97 0 is_stmt 0 discriminator 3
 450 0112 5A1C     		add	r2, r3, #1
 451 0114 3B49     		ldr	r1, .L43+48
 452 0116 885C     		ldrb	r0, [r1, r2]
ARM GAS  C:\Users\g\AppData\Local\Temp\ccj28d85.s 			page 13


 453 0118 04A9     		add	r1, sp, #16
 454 011a C854     		strb	r0, [r1, r3]
 455              	.LVL46:
 456 011c 131C     		mov	r3, r2
 457              	.LVL47:
 458              	.L28:
  97:.\main.c      ****             command_value=atoi(command_local);
 459              		.loc 1 97 0 discriminator 1
 460 011e 042B     		cmp	r3, #4
 461 0120 F7DD     		ble	.L29
 462              	.LBE2:
  98:.\main.c      ****             switch(command_type) {
 463              		.loc 1 98 0 is_stmt 1
 464 0122 04A8     		add	r0, sp, #16
 465 0124 FFF7FEFF 		bl	atoi
 466              	.LVL48:
 467 0128 1723     		mov	r3, #23
 468 012a 6B44     		add	r3, r3, sp
 469 012c 1870     		strb	r0, [r3]
  99:.\main.c      ****                 case 'p':
 470              		.loc 1 99 0
 471 012e 642C     		cmp	r4, #100
 472 0130 17D0     		beq	.L31
 473 0132 02D8     		bhi	.L32
 474 0134 632C     		cmp	r4, #99
 475 0136 1CD0     		beq	.L33
 476 0138 21E0     		b	.L30
 477              	.L32:
 478 013a 692C     		cmp	r4, #105
 479 013c 09D0     		beq	.L34
 480 013e 702C     		cmp	r4, #112
 481 0140 1DD1     		bne	.L30
 101:.\main.c      ****                 break;
 482              		.loc 1 101 0
 483 0142 1720     		mov	r0, #23
 484 0144 6844     		add	r0, r0, sp
 485 0146 2749     		ldr	r1, .L43+16
 486 0148 0131     		add	r1, r1, #1
 487 014a 0122     		mov	r2, #1
 488 014c FFF7FEFF 		bl	EEPROM_Write
 489              	.LVL49:
 102:.\main.c      ****                 case 'i':
 490              		.loc 1 102 0
 491 0150 15E0     		b	.L30
 492              	.L34:
 104:.\main.c      ****                 break;
 493              		.loc 1 104 0
 494 0152 1720     		mov	r0, #23
 495 0154 6844     		add	r0, r0, sp
 496 0156 2349     		ldr	r1, .L43+16
 497 0158 0231     		add	r1, r1, #2
 498 015a 0122     		mov	r2, #1
 499 015c FFF7FEFF 		bl	EEPROM_Write
 500              	.LVL50:
 105:.\main.c      ****                 case 'd':
 501              		.loc 1 105 0
 502 0160 0DE0     		b	.L30
ARM GAS  C:\Users\g\AppData\Local\Temp\ccj28d85.s 			page 14


 503              	.L31:
 107:.\main.c      ****                 break;
 504              		.loc 1 107 0
 505 0162 1720     		mov	r0, #23
 506 0164 6844     		add	r0, r0, sp
 507 0166 1F49     		ldr	r1, .L43+16
 508 0168 0331     		add	r1, r1, #3
 509 016a 0122     		mov	r2, #1
 510 016c FFF7FEFF 		bl	EEPROM_Write
 511              	.LVL51:
 108:.\main.c      ****                 case 'c':
 512              		.loc 1 108 0
 513 0170 05E0     		b	.L30
 514              	.L33:
 110:.\main.c      ****                 break;
 515              		.loc 1 110 0
 516 0172 1720     		mov	r0, #23
 517 0174 6844     		add	r0, r0, sp
 518 0176 1B49     		ldr	r1, .L43+16
 519 0178 0122     		mov	r2, #1
 520 017a FFF7FEFF 		bl	EEPROM_Write
 521              	.LVL52:
 522              	.L30:
 113:.\main.c      ****         }
 523              		.loc 1 113 0
 524 017e 0022     		mov	r2, #0
 525 0180 1F4B     		ldr	r3, .L43+44
 526 0182 1A70     		strb	r2, [r3]
 527              	.LVL53:
 528              	.L27:
 117:.\main.c      ****         sprintf(error_tx, "%d", error+500);
 529              		.loc 1 117 0
 530 0184 204C     		ldr	r4, .L43+52
 531 0186 B200     		lsl	r2, r6, #2
 532 0188 9219     		add	r2, r2, r6
 533 018a 02A8     		add	r0, sp, #8
 534 018c 211C     		mov	r1, r4
 535 018e FFF7FEFF 		bl	sprintf
 536              	.LVL54:
 118:.\main.c      ****                 
 537              		.loc 1 118 0
 538 0192 174B     		ldr	r3, .L43+28
 539 0194 1A88     		ldrh	r2, [r3]
 540 0196 12B2     		sxth	r2, r2
 541 0198 F532     		add	r2, r2, #245
 542 019a FF32     		add	r2, r2, #255
 543 019c 6846     		mov	r0, sp
 544 019e 211C     		mov	r1, r4
 545 01a0 FFF7FEFF 		bl	sprintf
 546              	.LVL55:
 120:.\main.c      ****             
 547              		.loc 1 120 0
 548 01a4 194B     		ldr	r3, .L43+56
 549 01a6 1B78     		ldrb	r3, [r3]
 550 01a8 002B     		cmp	r3, #0
 551 01aa 00D1     		bne	.LCB524
 552 01ac 53E7     		b	.L20	@long jump
ARM GAS  C:\Users\g\AppData\Local\Temp\ccj28d85.s 			page 15


 553              	.LCB524:
 122:.\main.c      ****             //transmit current value
 554              		.loc 1 122 0
 555 01ae 2420     		mov	r0, #36
 556 01b0 FFF7FEFF 		bl	UART_SpiUartWriteTxData
 557              	.LVL56:
 124:.\main.c      ****             UART_UartPutChar(' ');
 558              		.loc 1 124 0
 559 01b4 02A8     		add	r0, sp, #8
 560 01b6 FFF7FEFF 		bl	UART_UartPutString
 561              	.LVL57:
 125:.\main.c      ****             //transmit error value
 562              		.loc 1 125 0
 563 01ba 2020     		mov	r0, #32
 564 01bc FFF7FEFF 		bl	UART_SpiUartWriteTxData
 565              	.LVL58:
 127:.\main.c      ****             UART_UartPutChar(';');
 566              		.loc 1 127 0
 567 01c0 6846     		mov	r0, sp
 568 01c2 FFF7FEFF 		bl	UART_UartPutString
 569              	.LVL59:
 128:.\main.c      ****             
 570              		.loc 1 128 0
 571 01c6 3B20     		mov	r0, #59
 572 01c8 FFF7FEFF 		bl	UART_SpiUartWriteTxData
 573              	.LVL60:
 130:.\main.c      ****         }
 574              		.loc 1 130 0
 575 01cc 0022     		mov	r2, #0
 576 01ce 0F4B     		ldr	r3, .L43+56
 577 01d0 1A70     		strb	r2, [r3]
 578 01d2 40E7     		b	.L20
 579              	.L44:
 580              		.align	2
 581              	.L43:
 582 01d4 00000000 		.word	uartReceive
 583 01d8 00000000 		.word	transmitUpdate
 584 01dc 00000000 		.word	stepCount
 585 01e0 00000000 		.word	encoderCount
 586 01e4 00000000 		.word	.LANCHOR0
 587 01e8 FE0F0000 		.word	4094
 588 01ec 00000000 		.word	error_prev
 589 01f0 00000000 		.word	error
 590 01f4 60F0FFFF 		.word	-4000
 591 01f8 60F00000 		.word	61536
 592 01fc FF0F0000 		.word	4095
 593 0200 00000000 		.word	command_ready
 594 0204 00000000 		.word	command_parser
 595 0208 00000000 		.word	.LC16
 596 020c 00000000 		.word	transmit_ready
 597              		.cfi_endproc
 598              	.LFE34:
 599              		.size	main, .-main
 600              		.comm	command_parser,6,4
 601              		.comm	transmit_ready,1,1
 602              		.comm	command_index,1,1
 603              		.comm	command_ready,1,1
ARM GAS  C:\Users\g\AppData\Local\Temp\ccj28d85.s 			page 16


 604              		.comm	error_prev,2,2
 605              		.comm	error,2,2
 606              		.section	.rodata
 607              		.set	.LANCHOR0,. + 0
 608              		.type	current_setting.6623, %object
 609              		.size	current_setting.6623, 1
 610              	current_setting.6623:
 611 0000 7F       		.byte	127
 612              		.type	kp.6620, %object
 613              		.size	kp.6620, 1
 614              	kp.6620:
 615 0001 32       		.byte	50
 616              		.type	ki.6621, %object
 617              		.size	ki.6621, 1
 618              	ki.6621:
 619 0002 01       		.byte	1
 620              		.type	kd.6622, %object
 621              		.size	kd.6622, 1
 622              	kd.6622:
 623 0003 00       		.space	1
 624              		.section	.rodata.str1.4,"aMS",%progbits,1
 625              		.align	2
 626              	.LC16:
 627 0000 256400   		.ascii	"%d\000"
 628 0003 00       		.text
 629              	.Letext0:
 630              		.file 2 "c:\\program files (x86)\\cypress\\psoc creator\\3.3\\psoc creator\\import\\gnu\\arm\\4.9.
 631              		.file 3 "c:\\program files (x86)\\cypress\\psoc creator\\3.3\\psoc creator\\import\\gnu\\arm\\4.9.
 632              		.file 4 "Generated_Source\\PSoC4/cytypes.h"
 633              		.file 5 "Generated_Source\\PSoC4/QDEC_DIR.h"
 634              		.file 6 "Generated_Source\\PSoC4/direction.h"
 635              		.file 7 "Generated_Source\\PSoC4/UART_SPI_UART.h"
 636              		.file 8 "Generated_Source\\PSoC4/UART.h"
 637              		.file 9 "Generated_Source\\PSoC4/ADC.h"
 638              		.file 10 "Generated_Source\\PSoC4/TX_SEND.h"
 639              		.file 11 "Generated_Source\\PSoC4/EEPROM.h"
 640              		.file 12 "Generated_Source\\PSoC4/vin.h"
 641              		.file 13 "Generated_Source\\PSoC4/sleep.h"
 642              		.file 14 "Generated_Source\\PSoC4/PWM_MOT.h"
 643              		.file 15 "Generated_Source\\PSoC4/rxISR.h"
 644              		.file 16 "Generated_Source\\PSoC4/txISR.h"
 645              		.file 17 "Generated_Source\\PSoC4/stepISR.h"
 646              		.file 18 "Generated_Source\\PSoC4/pulseISR.h"
 647              		.file 19 "Generated_Source\\PSoC4/RESET_FAULT.h"
 648              		.file 20 "Generated_Source\\PSoC4/phase.h"
 649              		.file 21 "c:\\program files (x86)\\cypress\\psoc creator\\3.3\\psoc creator\\import\\gnu\\arm\\4.9
 650              		.file 22 "c:\\program files (x86)\\cypress\\psoc creator\\3.3\\psoc creator\\import\\gnu\\arm\\4.9