ARM GAS  C:\Users\g\AppData\Local\Temp\cc2aqxrq.s 			page 1


   1              		.cpu cortex-m0
   2              		.fpu softvfp
   3              		.eabi_attribute 20, 1
   4              		.eabi_attribute 21, 1
   5              		.eabi_attribute 23, 3
   6              		.eabi_attribute 24, 1
   7              		.eabi_attribute 25, 1
   8              		.eabi_attribute 26, 1
   9              		.eabi_attribute 30, 1
  10              		.eabi_attribute 34, 0
  11              		.eabi_attribute 18, 4
  12              		.code	16
  13              		.file	"RESET_FAULT_PM.c"
  14              		.text
  15              	.Ltext0:
  16              		.cfi_sections	.debug_frame
  17              		.section	.text.RESET_FAULT_SaveConfig,"ax",%progbits
  18              		.align	2
  19              		.global	RESET_FAULT_SaveConfig
  20              		.code	16
  21              		.thumb_func
  22              		.type	RESET_FAULT_SaveConfig, %function
  23              	RESET_FAULT_SaveConfig:
  24              	.LFB0:
  25              		.file 1 ".\\Generated_Source\\PSoC4\\RESET_FAULT_PM.c"
   1:.\Generated_Source\PSoC4/RESET_FAULT_PM.c **** /*******************************************************************************
   2:.\Generated_Source\PSoC4/RESET_FAULT_PM.c **** * File Name: RESET_FAULT_PM.c
   3:.\Generated_Source\PSoC4/RESET_FAULT_PM.c **** * Version 1.80
   4:.\Generated_Source\PSoC4/RESET_FAULT_PM.c **** *
   5:.\Generated_Source\PSoC4/RESET_FAULT_PM.c **** * Description:
   6:.\Generated_Source\PSoC4/RESET_FAULT_PM.c **** *  This file contains the setup, control, and status commands to support 
   7:.\Generated_Source\PSoC4/RESET_FAULT_PM.c **** *  the component operation in the low power mode. 
   8:.\Generated_Source\PSoC4/RESET_FAULT_PM.c **** *
   9:.\Generated_Source\PSoC4/RESET_FAULT_PM.c **** * Note:
  10:.\Generated_Source\PSoC4/RESET_FAULT_PM.c **** *
  11:.\Generated_Source\PSoC4/RESET_FAULT_PM.c **** ********************************************************************************
  12:.\Generated_Source\PSoC4/RESET_FAULT_PM.c **** * Copyright 2015, Cypress Semiconductor Corporation.  All rights reserved.
  13:.\Generated_Source\PSoC4/RESET_FAULT_PM.c **** * You may use this file only in accordance with the license, terms, conditions, 
  14:.\Generated_Source\PSoC4/RESET_FAULT_PM.c **** * disclaimers, and limitations in the end user license agreement accompanying 
  15:.\Generated_Source\PSoC4/RESET_FAULT_PM.c **** * the software package with which this file was provided.
  16:.\Generated_Source\PSoC4/RESET_FAULT_PM.c **** *******************************************************************************/
  17:.\Generated_Source\PSoC4/RESET_FAULT_PM.c **** 
  18:.\Generated_Source\PSoC4/RESET_FAULT_PM.c **** #include "RESET_FAULT.h"
  19:.\Generated_Source\PSoC4/RESET_FAULT_PM.c **** 
  20:.\Generated_Source\PSoC4/RESET_FAULT_PM.c **** /* Check for removal by optimization */
  21:.\Generated_Source\PSoC4/RESET_FAULT_PM.c **** #if !defined(RESET_FAULT_Sync_ctrl_reg__REMOVED)
  22:.\Generated_Source\PSoC4/RESET_FAULT_PM.c **** 
  23:.\Generated_Source\PSoC4/RESET_FAULT_PM.c **** static RESET_FAULT_BACKUP_STRUCT  RESET_FAULT_backup = {0u};
  24:.\Generated_Source\PSoC4/RESET_FAULT_PM.c **** 
  25:.\Generated_Source\PSoC4/RESET_FAULT_PM.c ****     
  26:.\Generated_Source\PSoC4/RESET_FAULT_PM.c **** /*******************************************************************************
  27:.\Generated_Source\PSoC4/RESET_FAULT_PM.c **** * Function Name: RESET_FAULT_SaveConfig
  28:.\Generated_Source\PSoC4/RESET_FAULT_PM.c **** ********************************************************************************
  29:.\Generated_Source\PSoC4/RESET_FAULT_PM.c **** *
  30:.\Generated_Source\PSoC4/RESET_FAULT_PM.c **** * Summary:
  31:.\Generated_Source\PSoC4/RESET_FAULT_PM.c **** *  Saves the control register value.
  32:.\Generated_Source\PSoC4/RESET_FAULT_PM.c **** *
ARM GAS  C:\Users\g\AppData\Local\Temp\cc2aqxrq.s 			page 2


  33:.\Generated_Source\PSoC4/RESET_FAULT_PM.c **** * Parameters:
  34:.\Generated_Source\PSoC4/RESET_FAULT_PM.c **** *  None
  35:.\Generated_Source\PSoC4/RESET_FAULT_PM.c **** *
  36:.\Generated_Source\PSoC4/RESET_FAULT_PM.c **** * Return:
  37:.\Generated_Source\PSoC4/RESET_FAULT_PM.c **** *  None
  38:.\Generated_Source\PSoC4/RESET_FAULT_PM.c **** *
  39:.\Generated_Source\PSoC4/RESET_FAULT_PM.c **** *******************************************************************************/
  40:.\Generated_Source\PSoC4/RESET_FAULT_PM.c **** void RESET_FAULT_SaveConfig(void) 
  41:.\Generated_Source\PSoC4/RESET_FAULT_PM.c **** {
  26              		.loc 1 41 0
  27              		.cfi_startproc
  42:.\Generated_Source\PSoC4/RESET_FAULT_PM.c ****     RESET_FAULT_backup.controlState = RESET_FAULT_Control;
  28              		.loc 1 42 0
  29 0000 024B     		ldr	r3, .L2
  30 0002 1A78     		ldrb	r2, [r3]
  31 0004 024B     		ldr	r3, .L2+4
  32 0006 1A70     		strb	r2, [r3]
  43:.\Generated_Source\PSoC4/RESET_FAULT_PM.c **** }
  33              		.loc 1 43 0
  34              		@ sp needed
  35 0008 7047     		bx	lr
  36              	.L3:
  37 000a C046     		.align	2
  38              	.L2:
  39 000c 70000F40 		.word	1074724976
  40 0010 00000000 		.word	.LANCHOR0
  41              		.cfi_endproc
  42              	.LFE0:
  43              		.size	RESET_FAULT_SaveConfig, .-RESET_FAULT_SaveConfig
  44              		.section	.text.RESET_FAULT_RestoreConfig,"ax",%progbits
  45              		.align	2
  46              		.global	RESET_FAULT_RestoreConfig
  47              		.code	16
  48              		.thumb_func
  49              		.type	RESET_FAULT_RestoreConfig, %function
  50              	RESET_FAULT_RestoreConfig:
  51              	.LFB1:
  44:.\Generated_Source\PSoC4/RESET_FAULT_PM.c **** 
  45:.\Generated_Source\PSoC4/RESET_FAULT_PM.c **** 
  46:.\Generated_Source\PSoC4/RESET_FAULT_PM.c **** /*******************************************************************************
  47:.\Generated_Source\PSoC4/RESET_FAULT_PM.c **** * Function Name: RESET_FAULT_RestoreConfig
  48:.\Generated_Source\PSoC4/RESET_FAULT_PM.c **** ********************************************************************************
  49:.\Generated_Source\PSoC4/RESET_FAULT_PM.c **** *
  50:.\Generated_Source\PSoC4/RESET_FAULT_PM.c **** * Summary:
  51:.\Generated_Source\PSoC4/RESET_FAULT_PM.c **** *  Restores the control register value.
  52:.\Generated_Source\PSoC4/RESET_FAULT_PM.c **** *
  53:.\Generated_Source\PSoC4/RESET_FAULT_PM.c **** * Parameters:
  54:.\Generated_Source\PSoC4/RESET_FAULT_PM.c **** *  None
  55:.\Generated_Source\PSoC4/RESET_FAULT_PM.c **** *
  56:.\Generated_Source\PSoC4/RESET_FAULT_PM.c **** * Return:
  57:.\Generated_Source\PSoC4/RESET_FAULT_PM.c **** *  None
  58:.\Generated_Source\PSoC4/RESET_FAULT_PM.c **** *
  59:.\Generated_Source\PSoC4/RESET_FAULT_PM.c **** *
  60:.\Generated_Source\PSoC4/RESET_FAULT_PM.c **** *******************************************************************************/
  61:.\Generated_Source\PSoC4/RESET_FAULT_PM.c **** void RESET_FAULT_RestoreConfig(void) 
  62:.\Generated_Source\PSoC4/RESET_FAULT_PM.c **** {
  52              		.loc 1 62 0
ARM GAS  C:\Users\g\AppData\Local\Temp\cc2aqxrq.s 			page 3


  53              		.cfi_startproc
  63:.\Generated_Source\PSoC4/RESET_FAULT_PM.c ****      RESET_FAULT_Control = RESET_FAULT_backup.controlState;
  54              		.loc 1 63 0
  55 0000 024B     		ldr	r3, .L5
  56 0002 1A78     		ldrb	r2, [r3]
  57 0004 024B     		ldr	r3, .L5+4
  58 0006 1A70     		strb	r2, [r3]
  64:.\Generated_Source\PSoC4/RESET_FAULT_PM.c **** }
  59              		.loc 1 64 0
  60              		@ sp needed
  61 0008 7047     		bx	lr
  62              	.L6:
  63 000a C046     		.align	2
  64              	.L5:
  65 000c 00000000 		.word	.LANCHOR0
  66 0010 70000F40 		.word	1074724976
  67              		.cfi_endproc
  68              	.LFE1:
  69              		.size	RESET_FAULT_RestoreConfig, .-RESET_FAULT_RestoreConfig
  70              		.section	.text.RESET_FAULT_Sleep,"ax",%progbits
  71              		.align	2
  72              		.global	RESET_FAULT_Sleep
  73              		.code	16
  74              		.thumb_func
  75              		.type	RESET_FAULT_Sleep, %function
  76              	RESET_FAULT_Sleep:
  77              	.LFB2:
  65:.\Generated_Source\PSoC4/RESET_FAULT_PM.c **** 
  66:.\Generated_Source\PSoC4/RESET_FAULT_PM.c **** 
  67:.\Generated_Source\PSoC4/RESET_FAULT_PM.c **** /*******************************************************************************
  68:.\Generated_Source\PSoC4/RESET_FAULT_PM.c **** * Function Name: RESET_FAULT_Sleep
  69:.\Generated_Source\PSoC4/RESET_FAULT_PM.c **** ********************************************************************************
  70:.\Generated_Source\PSoC4/RESET_FAULT_PM.c **** *
  71:.\Generated_Source\PSoC4/RESET_FAULT_PM.c **** * Summary:
  72:.\Generated_Source\PSoC4/RESET_FAULT_PM.c **** *  Prepares the component for entering the low power mode.
  73:.\Generated_Source\PSoC4/RESET_FAULT_PM.c **** *
  74:.\Generated_Source\PSoC4/RESET_FAULT_PM.c **** * Parameters:
  75:.\Generated_Source\PSoC4/RESET_FAULT_PM.c **** *  None
  76:.\Generated_Source\PSoC4/RESET_FAULT_PM.c **** *
  77:.\Generated_Source\PSoC4/RESET_FAULT_PM.c **** * Return:
  78:.\Generated_Source\PSoC4/RESET_FAULT_PM.c **** *  None
  79:.\Generated_Source\PSoC4/RESET_FAULT_PM.c **** *
  80:.\Generated_Source\PSoC4/RESET_FAULT_PM.c **** *******************************************************************************/
  81:.\Generated_Source\PSoC4/RESET_FAULT_PM.c **** void RESET_FAULT_Sleep(void) 
  82:.\Generated_Source\PSoC4/RESET_FAULT_PM.c **** {
  78              		.loc 1 82 0
  79              		.cfi_startproc
  80 0000 08B5     		push	{r3, lr}
  81              		.cfi_def_cfa_offset 8
  82              		.cfi_offset 3, -8
  83              		.cfi_offset 14, -4
  83:.\Generated_Source\PSoC4/RESET_FAULT_PM.c ****     RESET_FAULT_SaveConfig();
  84              		.loc 1 83 0
  85 0002 FFF7FEFF 		bl	RESET_FAULT_SaveConfig
  86              	.LVL0:
  84:.\Generated_Source\PSoC4/RESET_FAULT_PM.c **** }
  87              		.loc 1 84 0
ARM GAS  C:\Users\g\AppData\Local\Temp\cc2aqxrq.s 			page 4


  88              		@ sp needed
  89 0006 08BD     		pop	{r3, pc}
  90              		.cfi_endproc
  91              	.LFE2:
  92              		.size	RESET_FAULT_Sleep, .-RESET_FAULT_Sleep
  93              		.section	.text.RESET_FAULT_Wakeup,"ax",%progbits
  94              		.align	2
  95              		.global	RESET_FAULT_Wakeup
  96              		.code	16
  97              		.thumb_func
  98              		.type	RESET_FAULT_Wakeup, %function
  99              	RESET_FAULT_Wakeup:
 100              	.LFB3:
  85:.\Generated_Source\PSoC4/RESET_FAULT_PM.c **** 
  86:.\Generated_Source\PSoC4/RESET_FAULT_PM.c **** 
  87:.\Generated_Source\PSoC4/RESET_FAULT_PM.c **** /*******************************************************************************
  88:.\Generated_Source\PSoC4/RESET_FAULT_PM.c **** * Function Name: RESET_FAULT_Wakeup
  89:.\Generated_Source\PSoC4/RESET_FAULT_PM.c **** ********************************************************************************
  90:.\Generated_Source\PSoC4/RESET_FAULT_PM.c **** *
  91:.\Generated_Source\PSoC4/RESET_FAULT_PM.c **** * Summary:
  92:.\Generated_Source\PSoC4/RESET_FAULT_PM.c **** *  Restores the component after waking up from the low power mode.
  93:.\Generated_Source\PSoC4/RESET_FAULT_PM.c **** *
  94:.\Generated_Source\PSoC4/RESET_FAULT_PM.c **** * Parameters:
  95:.\Generated_Source\PSoC4/RESET_FAULT_PM.c **** *  None
  96:.\Generated_Source\PSoC4/RESET_FAULT_PM.c **** *
  97:.\Generated_Source\PSoC4/RESET_FAULT_PM.c **** * Return:
  98:.\Generated_Source\PSoC4/RESET_FAULT_PM.c **** *  None
  99:.\Generated_Source\PSoC4/RESET_FAULT_PM.c **** *
 100:.\Generated_Source\PSoC4/RESET_FAULT_PM.c **** *******************************************************************************/
 101:.\Generated_Source\PSoC4/RESET_FAULT_PM.c **** void RESET_FAULT_Wakeup(void)  
 102:.\Generated_Source\PSoC4/RESET_FAULT_PM.c **** {
 101              		.loc 1 102 0
 102              		.cfi_startproc
 103 0000 08B5     		push	{r3, lr}
 104              		.cfi_def_cfa_offset 8
 105              		.cfi_offset 3, -8
 106              		.cfi_offset 14, -4
 103:.\Generated_Source\PSoC4/RESET_FAULT_PM.c ****     RESET_FAULT_RestoreConfig();
 107              		.loc 1 103 0
 108 0002 FFF7FEFF 		bl	RESET_FAULT_RestoreConfig
 109              	.LVL1:
 104:.\Generated_Source\PSoC4/RESET_FAULT_PM.c **** }
 110              		.loc 1 104 0
 111              		@ sp needed
 112 0006 08BD     		pop	{r3, pc}
 113              		.cfi_endproc
 114              	.LFE3:
 115              		.size	RESET_FAULT_Wakeup, .-RESET_FAULT_Wakeup
 116              		.bss
 117              		.align	2
 118              		.set	.LANCHOR0,. + 0
 119              		.type	RESET_FAULT_backup, %object
 120              		.size	RESET_FAULT_backup, 1
 121              	RESET_FAULT_backup:
 122 0000 00       		.space	1
 123 0001 000000   		.text
 124              	.Letext0:
ARM GAS  C:\Users\g\AppData\Local\Temp\cc2aqxrq.s 			page 5


 125              		.file 2 ".\\Generated_Source\\PSoC4\\cytypes.h"
 126              		.file 3 ".\\Generated_Source\\PSoC4\\RESET_FAULT.h"