ARM GAS  C:\Users\g\AppData\Local\Temp\ccc53fmt.s 			page 1


   1              		.cpu cortex-m0
   2              		.fpu softvfp
   3              		.eabi_attribute 20, 1
   4              		.eabi_attribute 21, 1
   5              		.eabi_attribute 23, 3
   6              		.eabi_attribute 24, 1
   7              		.eabi_attribute 25, 1
   8              		.eabi_attribute 26, 1
   9              		.eabi_attribute 30, 1
  10              		.eabi_attribute 34, 0
  11              		.eabi_attribute 18, 4
  12              		.code	16
  13              		.file	"ADC.c"
  14              		.text
  15              	.Ltext0:
  16              		.cfi_sections	.debug_frame
  17              		.section	.text.ADC_Init,"ax",%progbits
  18              		.align	2
  19              		.global	ADC_Init
  20              		.code	16
  21              		.thumb_func
  22              		.type	ADC_Init, %function
  23              	ADC_Init:
  24              	.LFB1:
  25              		.file 1 "Generated_Source\\PSoC4\\ADC.c"
   1:Generated_Source\PSoC4/ADC.c **** /*******************************************************************************
   2:Generated_Source\PSoC4/ADC.c **** * File Name: ADC.c
   3:Generated_Source\PSoC4/ADC.c **** * Version 2.40
   4:Generated_Source\PSoC4/ADC.c **** *
   5:Generated_Source\PSoC4/ADC.c **** * Description:
   6:Generated_Source\PSoC4/ADC.c **** *  This file provides the source code to the API for the Sequencing Successive
   7:Generated_Source\PSoC4/ADC.c **** *  Approximation ADC Component Component.
   8:Generated_Source\PSoC4/ADC.c **** *
   9:Generated_Source\PSoC4/ADC.c **** * Note:
  10:Generated_Source\PSoC4/ADC.c **** *
  11:Generated_Source\PSoC4/ADC.c **** ********************************************************************************
  12:Generated_Source\PSoC4/ADC.c **** * Copyright 2008-2015, Cypress Semiconductor Corporation.  All rights reserved.
  13:Generated_Source\PSoC4/ADC.c **** * You may use this file only in accordance with the license, terms, conditions,
  14:Generated_Source\PSoC4/ADC.c **** * disclaimers, and limitations in the end user license agreement accompanying
  15:Generated_Source\PSoC4/ADC.c **** * the software package with which this file was provided.
  16:Generated_Source\PSoC4/ADC.c **** *******************************************************************************/
  17:Generated_Source\PSoC4/ADC.c **** 
  18:Generated_Source\PSoC4/ADC.c **** #include "ADC.h"
  19:Generated_Source\PSoC4/ADC.c **** 
  20:Generated_Source\PSoC4/ADC.c **** 
  21:Generated_Source\PSoC4/ADC.c **** /***************************************
  22:Generated_Source\PSoC4/ADC.c **** * Global data allocation
  23:Generated_Source\PSoC4/ADC.c **** ***************************************/
  24:Generated_Source\PSoC4/ADC.c **** uint8 ADC_initVar = 0u;
  25:Generated_Source\PSoC4/ADC.c **** volatile int16 ADC_offset[ADC_TOTAL_CHANNELS_NUM];
  26:Generated_Source\PSoC4/ADC.c **** volatile int32 ADC_countsPer10Volt[ADC_TOTAL_CHANNELS_NUM];   /* Gain compensation */
  27:Generated_Source\PSoC4/ADC.c **** 
  28:Generated_Source\PSoC4/ADC.c **** 
  29:Generated_Source\PSoC4/ADC.c **** /***************************************
  30:Generated_Source\PSoC4/ADC.c **** * Local data allocation
  31:Generated_Source\PSoC4/ADC.c **** ***************************************/
  32:Generated_Source\PSoC4/ADC.c **** /* Channels configuration generated by customiser */
ARM GAS  C:\Users\g\AppData\Local\Temp\ccc53fmt.s 			page 2


  33:Generated_Source\PSoC4/ADC.c **** static const uint32 CYCODE ADC_channelsConfig[] = { 0x00000000u };
  34:Generated_Source\PSoC4/ADC.c **** 
  35:Generated_Source\PSoC4/ADC.c **** 
  36:Generated_Source\PSoC4/ADC.c **** /*******************************************************************************
  37:Generated_Source\PSoC4/ADC.c **** * Function Name: ADC_Start
  38:Generated_Source\PSoC4/ADC.c **** ********************************************************************************
  39:Generated_Source\PSoC4/ADC.c **** *
  40:Generated_Source\PSoC4/ADC.c **** * Summary:
  41:Generated_Source\PSoC4/ADC.c **** *  Performs all required initialization for this component
  42:Generated_Source\PSoC4/ADC.c **** *  and enables the power. The power will be set to the appropriate
  43:Generated_Source\PSoC4/ADC.c **** *  power based on the clock frequency.
  44:Generated_Source\PSoC4/ADC.c **** *
  45:Generated_Source\PSoC4/ADC.c **** * Parameters:
  46:Generated_Source\PSoC4/ADC.c **** *  None.
  47:Generated_Source\PSoC4/ADC.c **** *
  48:Generated_Source\PSoC4/ADC.c **** * Return:
  49:Generated_Source\PSoC4/ADC.c **** *  None.
  50:Generated_Source\PSoC4/ADC.c **** *
  51:Generated_Source\PSoC4/ADC.c **** * Global variables:
  52:Generated_Source\PSoC4/ADC.c **** *  The ADC_initVar variable is used to indicate when/if initial
  53:Generated_Source\PSoC4/ADC.c **** *  configuration of this component has happened. The variable is initialized to
  54:Generated_Source\PSoC4/ADC.c **** *  zero and set to 1 the first time ADC_Start() is called. This allows for
  55:Generated_Source\PSoC4/ADC.c **** *  component Re-Start without re-initialization in all subsequent calls to the
  56:Generated_Source\PSoC4/ADC.c **** *  ADC_Start() routine.
  57:Generated_Source\PSoC4/ADC.c **** *  If re-initialization of the component is required the variable should be set
  58:Generated_Source\PSoC4/ADC.c **** *  to zero before call of ADC_Start() routine, or the user may call
  59:Generated_Source\PSoC4/ADC.c **** *  ADC_Init() and ADC_Enable() as done in the
  60:Generated_Source\PSoC4/ADC.c **** *  ADC_Start() routine.
  61:Generated_Source\PSoC4/ADC.c **** *
  62:Generated_Source\PSoC4/ADC.c **** *******************************************************************************/
  63:Generated_Source\PSoC4/ADC.c **** void ADC_Start(void)
  64:Generated_Source\PSoC4/ADC.c **** {
  65:Generated_Source\PSoC4/ADC.c ****     /* If not Initialized then initialize all required hardware and software */
  66:Generated_Source\PSoC4/ADC.c ****     if(ADC_initVar == 0u)
  67:Generated_Source\PSoC4/ADC.c ****     {
  68:Generated_Source\PSoC4/ADC.c ****         ADC_Init();
  69:Generated_Source\PSoC4/ADC.c ****         ADC_initVar = 1u;
  70:Generated_Source\PSoC4/ADC.c ****     }
  71:Generated_Source\PSoC4/ADC.c ****     ADC_Enable();
  72:Generated_Source\PSoC4/ADC.c **** }
  73:Generated_Source\PSoC4/ADC.c **** 
  74:Generated_Source\PSoC4/ADC.c **** 
  75:Generated_Source\PSoC4/ADC.c **** /*******************************************************************************
  76:Generated_Source\PSoC4/ADC.c **** * Function Name: ADC_Init
  77:Generated_Source\PSoC4/ADC.c **** ********************************************************************************
  78:Generated_Source\PSoC4/ADC.c **** *
  79:Generated_Source\PSoC4/ADC.c **** * Summary:
  80:Generated_Source\PSoC4/ADC.c **** *  Initialize component's parameters to the parameters set by user in the
  81:Generated_Source\PSoC4/ADC.c **** *  customizer of the component placed onto schematic. Usually called in
  82:Generated_Source\PSoC4/ADC.c **** *  ADC_Start().
  83:Generated_Source\PSoC4/ADC.c **** *
  84:Generated_Source\PSoC4/ADC.c **** * Parameters:
  85:Generated_Source\PSoC4/ADC.c **** *  None.
  86:Generated_Source\PSoC4/ADC.c **** *
  87:Generated_Source\PSoC4/ADC.c **** * Return:
  88:Generated_Source\PSoC4/ADC.c **** *  None.
  89:Generated_Source\PSoC4/ADC.c **** *
ARM GAS  C:\Users\g\AppData\Local\Temp\ccc53fmt.s 			page 3


  90:Generated_Source\PSoC4/ADC.c **** * Global variables:
  91:Generated_Source\PSoC4/ADC.c **** *  The ADC_offset variable is initialized.
  92:Generated_Source\PSoC4/ADC.c **** *
  93:Generated_Source\PSoC4/ADC.c **** *******************************************************************************/
  94:Generated_Source\PSoC4/ADC.c **** void ADC_Init(void)
  95:Generated_Source\PSoC4/ADC.c **** {
  26              		.loc 1 95 0
  27              		.cfi_startproc
  28 0000 08B5     		push	{r3, lr}
  29              		.cfi_def_cfa_offset 8
  30              		.cfi_offset 3, -8
  31              		.cfi_offset 14, -4
  96:Generated_Source\PSoC4/ADC.c ****     uint32 chNum;
  97:Generated_Source\PSoC4/ADC.c ****     uint32 tmpRegVal;
  98:Generated_Source\PSoC4/ADC.c ****     int32 counts;
  99:Generated_Source\PSoC4/ADC.c **** 
 100:Generated_Source\PSoC4/ADC.c ****     #if(ADC_TOTAL_CHANNELS_NUM > 1u)
 101:Generated_Source\PSoC4/ADC.c ****         static const uint8 CYCODE ADC_InputsPlacement[] =
 102:Generated_Source\PSoC4/ADC.c ****         {
 103:Generated_Source\PSoC4/ADC.c ****             (uint8)(ADC_cy_psoc4_sarmux_8__CH_0_PORT << 4u) |
 104:Generated_Source\PSoC4/ADC.c ****             (uint8)ADC_cy_psoc4_sarmux_8__CH_0_PIN
 105:Generated_Source\PSoC4/ADC.c ****             ,(uint8)(ADC_cy_psoc4_sarmux_8__CH_1_PORT << 4u) |
 106:Generated_Source\PSoC4/ADC.c ****              (uint8)ADC_cy_psoc4_sarmux_8__CH_1_PIN
 107:Generated_Source\PSoC4/ADC.c ****             #if(ADC_TOTAL_CHANNELS_NUM > 2u)
 108:Generated_Source\PSoC4/ADC.c ****                 ,(uint8)(ADC_cy_psoc4_sarmux_8__CH_2_PORT << 4u) |
 109:Generated_Source\PSoC4/ADC.c ****                  (uint8)ADC_cy_psoc4_sarmux_8__CH_2_PIN
 110:Generated_Source\PSoC4/ADC.c ****             #endif /* End ADC_TOTAL_CHANNELS_NUM > 2u */
 111:Generated_Source\PSoC4/ADC.c ****             #if(ADC_TOTAL_CHANNELS_NUM > 3u)
 112:Generated_Source\PSoC4/ADC.c ****                 ,(uint8)(ADC_cy_psoc4_sarmux_8__CH_3_PORT << 4u) |
 113:Generated_Source\PSoC4/ADC.c ****                  (uint8)ADC_cy_psoc4_sarmux_8__CH_3_PIN
 114:Generated_Source\PSoC4/ADC.c ****             #endif /* End ADC_TOTAL_CHANNELS_NUM > 3u */
 115:Generated_Source\PSoC4/ADC.c ****             #if(ADC_TOTAL_CHANNELS_NUM > 4u)
 116:Generated_Source\PSoC4/ADC.c ****                 ,(uint8)(ADC_cy_psoc4_sarmux_8__CH_4_PORT << 4u) |
 117:Generated_Source\PSoC4/ADC.c ****                  (uint8)ADC_cy_psoc4_sarmux_8__CH_4_PIN
 118:Generated_Source\PSoC4/ADC.c ****             #endif /* End ADC_TOTAL_CHANNELS_NUM > 4u */
 119:Generated_Source\PSoC4/ADC.c ****             #if(ADC_TOTAL_CHANNELS_NUM > 5u)
 120:Generated_Source\PSoC4/ADC.c ****                 ,(uint8)(ADC_cy_psoc4_sarmux_8__CH_5_PORT << 4u) |
 121:Generated_Source\PSoC4/ADC.c ****                  (uint8)ADC_cy_psoc4_sarmux_8__CH_5_PIN
 122:Generated_Source\PSoC4/ADC.c ****             #endif /* End ADC_TOTAL_CHANNELS_NUM > 5u */
 123:Generated_Source\PSoC4/ADC.c ****             #if(ADC_TOTAL_CHANNELS_NUM > 6u)
 124:Generated_Source\PSoC4/ADC.c ****                 ,(uint8)(ADC_cy_psoc4_sarmux_8__CH_6_PORT << 4u) |
 125:Generated_Source\PSoC4/ADC.c ****                  (uint8)ADC_cy_psoc4_sarmux_8__CH_6_PIN
 126:Generated_Source\PSoC4/ADC.c ****             #endif /* End ADC_TOTAL_CHANNELS_NUM > 6u */
 127:Generated_Source\PSoC4/ADC.c ****             #if(ADC_TOTAL_CHANNELS_NUM > 7u)
 128:Generated_Source\PSoC4/ADC.c ****                 ,(uint8)(ADC_cy_psoc4_sarmux_8__CH_7_PORT << 4u) |
 129:Generated_Source\PSoC4/ADC.c ****                  (uint8)ADC_cy_psoc4_sarmux_8__CH_7_PIN
 130:Generated_Source\PSoC4/ADC.c ****             #endif /* End ADC_TOTAL_CHANNELS_NUM > 7u */
 131:Generated_Source\PSoC4/ADC.c ****             #if(ADC_TOTAL_CHANNELS_NUM > 8u)
 132:Generated_Source\PSoC4/ADC.c ****                 ,(uint8)(ADC_cy_psoc4_sarmux_8__CH_8_PORT << 4u) |
 133:Generated_Source\PSoC4/ADC.c ****                  (uint8)ADC_cy_psoc4_sarmux_8__CH_8_PIN
 134:Generated_Source\PSoC4/ADC.c ****             #endif /* End ADC_TOTAL_CHANNELS_NUM > 8u */
 135:Generated_Source\PSoC4/ADC.c ****             #if(ADC_TOTAL_CHANNELS_NUM > 9u)
 136:Generated_Source\PSoC4/ADC.c ****                 ,(uint8)(ADC_cy_psoc4_sarmux_8__CH_9_PORT << 4u) |
 137:Generated_Source\PSoC4/ADC.c ****                  (uint8)ADC_cy_psoc4_sarmux_8__CH_9_PIN
 138:Generated_Source\PSoC4/ADC.c ****             #endif /* End ADC_TOTAL_CHANNELS_NUM > 9u */
 139:Generated_Source\PSoC4/ADC.c ****             #if(ADC_TOTAL_CHANNELS_NUM > 10u)
 140:Generated_Source\PSoC4/ADC.c ****                 ,(uint8)(ADC_cy_psoc4_sarmux_8__CH_10_PORT << 4u) |
ARM GAS  C:\Users\g\AppData\Local\Temp\ccc53fmt.s 			page 4


 141:Generated_Source\PSoC4/ADC.c ****                  (uint8)ADC_cy_psoc4_sarmux_8__CH_10_PIN
 142:Generated_Source\PSoC4/ADC.c ****             #endif /* End ADC_TOTAL_CHANNELS_NUM > 10u */
 143:Generated_Source\PSoC4/ADC.c ****             #if(ADC_TOTAL_CHANNELS_NUM > 11u)
 144:Generated_Source\PSoC4/ADC.c ****                 ,(uint8)(ADC_cy_psoc4_sarmux_8__CH_11_PORT << 4u) |
 145:Generated_Source\PSoC4/ADC.c ****                  (uint8)ADC_cy_psoc4_sarmux_8__CH_11_PIN
 146:Generated_Source\PSoC4/ADC.c ****             #endif /* End ADC_TOTAL_CHANNELS_NUM > 11u */
 147:Generated_Source\PSoC4/ADC.c ****             #if(ADC_TOTAL_CHANNELS_NUM > 12u)
 148:Generated_Source\PSoC4/ADC.c ****                 ,(uint8)(ADC_cy_psoc4_sarmux_8__CH_12_PORT << 4u) |
 149:Generated_Source\PSoC4/ADC.c ****                  (uint8)ADC_cy_psoc4_sarmux_8__CH_12_PIN
 150:Generated_Source\PSoC4/ADC.c ****             #endif /* End ADC_TOTAL_CHANNELS_NUM > 12u */
 151:Generated_Source\PSoC4/ADC.c ****             #if(ADC_TOTAL_CHANNELS_NUM > 13u)
 152:Generated_Source\PSoC4/ADC.c ****                 ,(uint8)(ADC_cy_psoc4_sarmux_8__CH_13_PORT << 4u) |
 153:Generated_Source\PSoC4/ADC.c ****                  (uint8)ADC_cy_psoc4_sarmux_8__CH_13_PIN
 154:Generated_Source\PSoC4/ADC.c ****             #endif /* End ADC_TOTAL_CHANNELS_NUM > 13u */
 155:Generated_Source\PSoC4/ADC.c ****             #if(ADC_TOTAL_CHANNELS_NUM > 14u)
 156:Generated_Source\PSoC4/ADC.c ****                 ,(uint8)(ADC_cy_psoc4_sarmux_8__CH_14_PORT << 4u) |
 157:Generated_Source\PSoC4/ADC.c ****                  (uint8)ADC_cy_psoc4_sarmux_8__CH_14_PIN
 158:Generated_Source\PSoC4/ADC.c ****             #endif /* End ADC_TOTAL_CHANNELS_NUM > 14u */
 159:Generated_Source\PSoC4/ADC.c ****             #if(ADC_TOTAL_CHANNELS_NUM > 15u)
 160:Generated_Source\PSoC4/ADC.c ****                 ,(uint8)(ADC_cy_psoc4_sarmux_8__CH_15_PORT << 4u) |
 161:Generated_Source\PSoC4/ADC.c ****                  (uint8)ADC_cy_psoc4_sarmux_8__CH_15_PIN
 162:Generated_Source\PSoC4/ADC.c ****             #endif /* End ADC_TOTAL_CHANNELS_NUM > 15u */
 163:Generated_Source\PSoC4/ADC.c ****             #if(ADC_TOTAL_CHANNELS_NUM > 16u)
 164:Generated_Source\PSoC4/ADC.c ****                 ,(uint8)(ADC_cy_psoc4_sarmux_8__CH_16_PORT << 4u) |
 165:Generated_Source\PSoC4/ADC.c ****                  (uint8)ADC_cy_psoc4_sarmux_8__CH_16_PIN
 166:Generated_Source\PSoC4/ADC.c ****             #endif /* End ADC_TOTAL_CHANNELS_NUM > 16u */
 167:Generated_Source\PSoC4/ADC.c ****         };
 168:Generated_Source\PSoC4/ADC.c ****     #endif /* End ADC_TOTAL_CHANNELS_NUM > 1u */
 169:Generated_Source\PSoC4/ADC.c **** 
 170:Generated_Source\PSoC4/ADC.c ****     #if(ADC_IRQ_REMOVE == 0u)
 171:Generated_Source\PSoC4/ADC.c ****         /* Start and set interrupt vector */
 172:Generated_Source\PSoC4/ADC.c ****         CyIntSetPriority(ADC_INTC_NUMBER, ADC_INTC_PRIOR_NUMBER);
  32              		.loc 1 172 0
  33 0002 0E20     		mov	r0, #14
  34 0004 0321     		mov	r1, #3
  35 0006 FFF7FEFF 		bl	CyIntSetPriority
  36              	.LVL0:
 173:Generated_Source\PSoC4/ADC.c ****         (void)CyIntSetVector(ADC_INTC_NUMBER, &ADC_ISR);
  37              		.loc 1 173 0
  38 000a 0E20     		mov	r0, #14
  39 000c 2549     		ldr	r1, .L6
  40 000e FFF7FEFF 		bl	CyIntSetVector
  41              	.LVL1:
 174:Generated_Source\PSoC4/ADC.c ****     #endif   /* End ADC_IRQ_REMOVE */
 175:Generated_Source\PSoC4/ADC.c **** 
 176:Generated_Source\PSoC4/ADC.c ****     /* Init SAR and MUX registers */
 177:Generated_Source\PSoC4/ADC.c ****     ADC_SAR_CHAN_EN_REG = ADC_DEFAULT_EN_CHANNELS;
  42              		.loc 1 177 0
  43 0012 0122     		mov	r2, #1
  44 0014 244B     		ldr	r3, .L6+4
  45 0016 1A60     		str	r2, [r3]
 178:Generated_Source\PSoC4/ADC.c ****     ADC_SAR_CTRL_REG |= ADC_DEFAULT_CTRL_REG_CFG | 
 179:Generated_Source\PSoC4/ADC.c ****         /* Enable the SAR internal pump when global pump is enabled */
 180:Generated_Source\PSoC4/ADC.c ****         (((ADC_PUMP_CTRL_REG & ADC_PUMP_CTRL_ENABLED) != 0u) ? 
  46              		.loc 1 180 0
  47 0018 244B     		ldr	r3, .L6+8
  48 001a 1B68     		ldr	r3, [r3]
ARM GAS  C:\Users\g\AppData\Local\Temp\ccc53fmt.s 			page 5


 178:Generated_Source\PSoC4/ADC.c ****     ADC_SAR_CTRL_REG |= ADC_DEFAULT_CTRL_REG_CFG | 
  49              		.loc 1 178 0
  50 001c 002B     		cmp	r3, #0
  51 001e 01DA     		bge	.L5
  52 0020 2349     		ldr	r1, .L6+12
  53 0022 00E0     		b	.L2
  54              	.L5:
  55 0024 2349     		ldr	r1, .L6+16
  56              	.L2:
 178:Generated_Source\PSoC4/ADC.c ****     ADC_SAR_CTRL_REG |= ADC_DEFAULT_CTRL_REG_CFG | 
  57              		.loc 1 178 0 is_stmt 0 discriminator 4
  58 0026 244A     		ldr	r2, .L6+20
  59 0028 1368     		ldr	r3, [r2]
  60 002a 0B43     		orr	r3, r1
  61 002c 1360     		str	r3, [r2]
 181:Generated_Source\PSoC4/ADC.c ****         ADC_BOOSTPUMP_EN : 0u);
 182:Generated_Source\PSoC4/ADC.c ****     ADC_SAR_SAMPLE_CTRL_REG = ADC_DEFAULT_SAMPLE_CTRL_REG_CFG;
  62              		.loc 1 182 0 is_stmt 1 discriminator 4
  63 002e 234A     		ldr	r2, .L6+24
  64 0030 234B     		ldr	r3, .L6+28
  65 0032 1A60     		str	r2, [r3]
 183:Generated_Source\PSoC4/ADC.c ****     ADC_SAR_RANGE_THRES_REG = ADC_DEFAULT_RANGE_THRES_REG_CFG;
  66              		.loc 1 183 0 discriminator 4
  67 0034 234A     		ldr	r2, .L6+32
  68 0036 244B     		ldr	r3, .L6+36
  69 0038 1A60     		str	r2, [r3]
 184:Generated_Source\PSoC4/ADC.c ****     ADC_SAR_RANGE_COND_REG  = ADC_COMPARE_MODE;
  70              		.loc 1 184 0 discriminator 4
  71 003a 8022     		mov	r2, #128
  72 003c 1206     		lsl	r2, r2, #24
  73 003e 234B     		ldr	r3, .L6+40
  74 0040 1A60     		str	r2, [r3]
 185:Generated_Source\PSoC4/ADC.c ****     ADC_SAR_SAMPLE_TIME01_REG = ADC_DEFAULT_SAMPLE_TIME01_REG_CFG;
  75              		.loc 1 185 0 discriminator 4
  76 0042 234B     		ldr	r3, .L6+44
  77 0044 234A     		ldr	r2, .L6+48
  78 0046 1360     		str	r3, [r2]
 186:Generated_Source\PSoC4/ADC.c ****     ADC_SAR_SAMPLE_TIME23_REG = ADC_DEFAULT_SAMPLE_TIME23_REG_CFG;
  79              		.loc 1 186 0 discriminator 4
  80 0048 234A     		ldr	r2, .L6+52
  81 004a 1360     		str	r3, [r2]
 187:Generated_Source\PSoC4/ADC.c ****     
 188:Generated_Source\PSoC4/ADC.c ****     /* Connect Vm to VSSA when even one channel is single-ended or multiple channels configured */
 189:Generated_Source\PSoC4/ADC.c ****     #if(ADC_DEFAULT_MUX_SWITCH0 != 0u)
 190:Generated_Source\PSoC4/ADC.c ****         ADC_MUX_SWITCH0_REG |= ADC_DEFAULT_MUX_SWITCH0;
  82              		.loc 1 190 0 discriminator 4
  83 004c 234A     		ldr	r2, .L6+56
  84 004e 1368     		ldr	r3, [r2]
  85 0050 8021     		mov	r1, #128
  86 0052 4902     		lsl	r1, r1, #9
  87 0054 0B43     		orr	r3, r1
  88 0056 1360     		str	r3, [r2]
 191:Generated_Source\PSoC4/ADC.c ****         /* Set MUX_HW_CTRL_VSSA in MUX_SWITCH_HW_CTRL when multiple channels enabled */
 192:Generated_Source\PSoC4/ADC.c ****         #if(ADC_TOTAL_CHANNELS_NUM > 1u)
 193:Generated_Source\PSoC4/ADC.c ****             ADC_MUX_SWITCH_HW_CTRL_REG |= ADC_DEFAULT_MUX_SWITCH0;
 194:Generated_Source\PSoC4/ADC.c ****         #endif /* ADC_TOTAL_CHANNELS_NUM > 1u */
 195:Generated_Source\PSoC4/ADC.c ****     #endif /*ADC_CHANNELS_MODE !=0 */
ARM GAS  C:\Users\g\AppData\Local\Temp\ccc53fmt.s 			page 6


 196:Generated_Source\PSoC4/ADC.c **** 
 197:Generated_Source\PSoC4/ADC.c ****     ADC_SAR_SATURATE_INTR_MASK_REG = 0u;
  89              		.loc 1 197 0 discriminator 4
  90 0058 0023     		mov	r3, #0
  91 005a 214A     		ldr	r2, .L6+60
  92 005c 1360     		str	r3, [r2]
 198:Generated_Source\PSoC4/ADC.c ****     ADC_SAR_RANGE_INTR_MASK_REG = 0u;
  93              		.loc 1 198 0 discriminator 4
  94 005e 214A     		ldr	r2, .L6+64
  95 0060 1360     		str	r3, [r2]
 199:Generated_Source\PSoC4/ADC.c ****     ADC_SAR_INTR_MASK_REG = ADC_SAR_INTR_MASK;
  96              		.loc 1 199 0 discriminator 4
  97 0062 0122     		mov	r2, #1
  98 0064 204B     		ldr	r3, .L6+68
  99 0066 1A60     		str	r2, [r3]
 200:Generated_Source\PSoC4/ADC.c **** 
 201:Generated_Source\PSoC4/ADC.c ****     #if(ADC_CY_SAR_IP_VER == ADC_CY_SAR_IP_VER0)
 202:Generated_Source\PSoC4/ADC.c ****         ADC_ANA_TRIM_REG = ADC_TRIM_COEF;
 100              		.loc 1 202 0 discriminator 4
 101 0068 0132     		add	r2, r2, #1
 102 006a 204B     		ldr	r3, .L6+72
 103 006c 1A60     		str	r2, [r3]
 203:Generated_Source\PSoC4/ADC.c ****     #endif /* (ADC_CY_SAR_IP_VER == ADC_CY_SAR_IP_VER0) */
 204:Generated_Source\PSoC4/ADC.c **** 
 205:Generated_Source\PSoC4/ADC.c ****     /* Read and modify default configuration based on characterization */
 206:Generated_Source\PSoC4/ADC.c ****     tmpRegVal = ADC_SAR_DFT_CTRL_REG;
 104              		.loc 1 206 0 discriminator 4
 105 006e 204A     		ldr	r2, .L6+76
 106 0070 1168     		ldr	r1, [r2]
 107              	.LVL2:
 207:Generated_Source\PSoC4/ADC.c ****     tmpRegVal &= (uint32)~ADC_DCEN;
 108              		.loc 1 207 0 discriminator 4
 109 0072 204B     		ldr	r3, .L6+80
 110 0074 0B40     		and	r3, r1
 111              	.LVL3:
 208:Generated_Source\PSoC4/ADC.c ****     
 209:Generated_Source\PSoC4/ADC.c ****     #if(ADC_CY_SAR_IP_VER == ADC_CY_SAR_IP_VER0)
 210:Generated_Source\PSoC4/ADC.c ****         #if(ADC_NOMINAL_CLOCK_FREQ > (ADC_MAX_FREQUENCY / 2))
 211:Generated_Source\PSoC4/ADC.c ****             tmpRegVal |= ADC_SEL_CSEL_DFT_CHAR;
 112              		.loc 1 211 0 discriminator 4
 113 0076 C021     		mov	r1, #192
 114 0078 8904     		lsl	r1, r1, #18
 115 007a 0B43     		orr	r3, r1
 116              	.LVL4:
 212:Generated_Source\PSoC4/ADC.c ****         #else  /* clock speed < 9 Mhz */
 213:Generated_Source\PSoC4/ADC.c ****             tmpRegVal |= ADC_DLY_INC;
 214:Generated_Source\PSoC4/ADC.c ****         #endif /* clock speed > 9 Mhz */
 215:Generated_Source\PSoC4/ADC.c ****     #else
 216:Generated_Source\PSoC4/ADC.c ****         #if ((ADC_DEFAULT_VREF_SEL == ADC__INTERNAL1024) || \
 217:Generated_Source\PSoC4/ADC.c ****              (ADC_DEFAULT_VREF_SEL == ADC__INTERNALVREF))
 218:Generated_Source\PSoC4/ADC.c ****             tmpRegVal |= ADC_DLY_INC;
 219:Generated_Source\PSoC4/ADC.c ****         #else
 220:Generated_Source\PSoC4/ADC.c ****             tmpRegVal |= ADC_DCEN;
 221:Generated_Source\PSoC4/ADC.c ****             tmpRegVal &= (uint32)~ADC_DLY_INC;
 222:Generated_Source\PSoC4/ADC.c ****         #endif /* ((ADC_DEFAULT_VREF_SEL == ADC__INTERNAL1024) || \
 223:Generated_Source\PSoC4/ADC.c ****                    (ADC_DEFAULT_VREF_SEL == ADC__INTERNALVREF)) */
 224:Generated_Source\PSoC4/ADC.c ****     #endif /* (ADC_CY_SAR_IP_VER == ADC_CY_SAR_IP_VER0) */
ARM GAS  C:\Users\g\AppData\Local\Temp\ccc53fmt.s 			page 7


 225:Generated_Source\PSoC4/ADC.c ****     
 226:Generated_Source\PSoC4/ADC.c ****     ADC_SAR_DFT_CTRL_REG = tmpRegVal;
 117              		.loc 1 226 0 discriminator 4
 118 007c 1360     		str	r3, [r2]
 119              	.LVL5:
 227:Generated_Source\PSoC4/ADC.c **** 
 228:Generated_Source\PSoC4/ADC.c ****     #if(ADC_MAX_RESOLUTION != ADC_RESOLUTION_12)
 229:Generated_Source\PSoC4/ADC.c ****         ADC_WOUNDING_REG = ADC_ALT_WOUNDING;
 230:Generated_Source\PSoC4/ADC.c ****     #endif /* ADC_MAX_RESOLUTION != ADC_RESOLUTION_12 */
 231:Generated_Source\PSoC4/ADC.c **** 
 232:Generated_Source\PSoC4/ADC.c ****     for(chNum = 0u; chNum < ADC_TOTAL_CHANNELS_NUM; chNum++)
 120              		.loc 1 232 0 discriminator 4
 121 007e 0023     		mov	r3, #0
 122              	.LVL6:
 123 0080 0DE0     		b	.L3
 124              	.LVL7:
 125              	.L4:
 233:Generated_Source\PSoC4/ADC.c ****     {
 234:Generated_Source\PSoC4/ADC.c ****         tmpRegVal = (ADC_channelsConfig[chNum] & ADC_CHANNEL_CONFIG_MASK);
 235:Generated_Source\PSoC4/ADC.c ****         #if(ADC_TOTAL_CHANNELS_NUM > 1u)
 236:Generated_Source\PSoC4/ADC.c ****             tmpRegVal |= ADC_InputsPlacement[chNum];
 237:Generated_Source\PSoC4/ADC.c ****         #endif /* End ADC_TOTAL_CHANNELS_NUM > 1u */
 238:Generated_Source\PSoC4/ADC.c ****         
 239:Generated_Source\PSoC4/ADC.c ****         
 240:Generated_Source\PSoC4/ADC.c ****         /* When the part is limited to 10-bit then the SUB_RESOLUTION bit
 241:Generated_Source\PSoC4/ADC.c ****         *  will be ignored and the RESOLUTION bit selects between 10-bit
 242:Generated_Source\PSoC4/ADC.c ****         *  (0) and 8-bit (1) resolution.
 243:Generated_Source\PSoC4/ADC.c ****         */
 244:Generated_Source\PSoC4/ADC.c ****         #if((ADC_MAX_RESOLUTION != ADC_RESOLUTION_12) && \
 245:Generated_Source\PSoC4/ADC.c ****             (ADC_ALT_WOUNDING == ADC_WOUNDING_10BIT))
 246:Generated_Source\PSoC4/ADC.c ****             tmpRegVal &= (uint32)(~ADC_ALT_RESOLUTION_ON);
 247:Generated_Source\PSoC4/ADC.c ****         #endif /* ADC_MAX_RESOLUTION != ADC_RESOLUTION_12 */
 248:Generated_Source\PSoC4/ADC.c **** 
 249:Generated_Source\PSoC4/ADC.c ****         #if(ADC_INJ_CHANNEL_ENABLED)
 250:Generated_Source\PSoC4/ADC.c ****         if(chNum < ADC_SEQUENCED_CHANNELS_NUM)
 251:Generated_Source\PSoC4/ADC.c ****         #endif /* ADC_INJ_CHANNEL_ENABLED */
 252:Generated_Source\PSoC4/ADC.c ****         {
 253:Generated_Source\PSoC4/ADC.c ****             CY_SET_REG32((reg32 *)(ADC_SAR_CHAN_CONFIG_IND + (uint32)(chNum << 2)), tmpRegVal);
 126              		.loc 1 253 0
 127 0082 9A00     		lsl	r2, r3, #2
 128 0084 1C49     		ldr	r1, .L6+84
 129 0086 8C46     		mov	ip, r1
 130 0088 6244     		add	r2, r2, ip
 131 008a 0021     		mov	r1, #0
 132 008c 1160     		str	r1, [r2]
 133              	.LVL8:
 254:Generated_Source\PSoC4/ADC.c **** 
 255:Generated_Source\PSoC4/ADC.c ****             if((ADC_channelsConfig[chNum] & ADC_IS_SATURATE_EN_MASK) != 0u)
 256:Generated_Source\PSoC4/ADC.c ****             {
 257:Generated_Source\PSoC4/ADC.c ****                 ADC_SAR_SATURATE_INTR_MASK_REG |= (uint16)((uint16)1 << chNum);
 258:Generated_Source\PSoC4/ADC.c ****             }
 259:Generated_Source\PSoC4/ADC.c **** 
 260:Generated_Source\PSoC4/ADC.c ****             if((ADC_channelsConfig[chNum] & ADC_IS_RANGE_CTRL_EN_MASK) != 0u)
 261:Generated_Source\PSoC4/ADC.c ****             {
 262:Generated_Source\PSoC4/ADC.c ****                 ADC_SAR_RANGE_INTR_MASK_REG |= (uint16)((uint16)1 << chNum);
 263:Generated_Source\PSoC4/ADC.c ****             }
 264:Generated_Source\PSoC4/ADC.c ****         }
ARM GAS  C:\Users\g\AppData\Local\Temp\ccc53fmt.s 			page 8


 265:Generated_Source\PSoC4/ADC.c ****         #if(ADC_INJ_CHANNEL_ENABLED)
 266:Generated_Source\PSoC4/ADC.c ****             else
 267:Generated_Source\PSoC4/ADC.c ****             {
 268:Generated_Source\PSoC4/ADC.c ****                 CY_SET_REG32(ADC_SAR_INJ_CHAN_CONFIG_PTR, tmpRegVal | ADC_INJ_TAILGATING);
 269:Generated_Source\PSoC4/ADC.c **** 
 270:Generated_Source\PSoC4/ADC.c ****                 if((ADC_channelsConfig[chNum] & ADC_IS_SATURATE_EN_MASK) != 0u)
 271:Generated_Source\PSoC4/ADC.c ****                 {
 272:Generated_Source\PSoC4/ADC.c ****                     ADC_SAR_INTR_MASK_REG |= ADC_INJ_SATURATE_MASK;
 273:Generated_Source\PSoC4/ADC.c ****                 }
 274:Generated_Source\PSoC4/ADC.c **** 
 275:Generated_Source\PSoC4/ADC.c ****                 if((ADC_channelsConfig[chNum] & ADC_IS_RANGE_CTRL_EN_MASK) != 0u)
 276:Generated_Source\PSoC4/ADC.c ****                 {
 277:Generated_Source\PSoC4/ADC.c ****                     ADC_SAR_INTR_MASK_REG |= ADC_INJ_RANGE_MASK;
 278:Generated_Source\PSoC4/ADC.c ****                 }
 279:Generated_Source\PSoC4/ADC.c ****             }
 280:Generated_Source\PSoC4/ADC.c ****         #endif /* ADC_INJ_CHANNEL_ENABLED */
 281:Generated_Source\PSoC4/ADC.c **** 
 282:Generated_Source\PSoC4/ADC.c ****         if((ADC_channelsConfig[chNum] & ADC_ALT_RESOLUTION_ON) != 0u)
 283:Generated_Source\PSoC4/ADC.c ****         {
 284:Generated_Source\PSoC4/ADC.c ****                counts = (int32)ADC_DEFAULT_MAX_WRK_ALT;
 285:Generated_Source\PSoC4/ADC.c ****         }
 286:Generated_Source\PSoC4/ADC.c ****         else
 287:Generated_Source\PSoC4/ADC.c ****         {
 288:Generated_Source\PSoC4/ADC.c ****                counts = (int32)ADC_SAR_WRK_MAX_12BIT;
 289:Generated_Source\PSoC4/ADC.c ****         }
 290:Generated_Source\PSoC4/ADC.c **** 
 291:Generated_Source\PSoC4/ADC.c ****         if((ADC_channelsConfig[chNum] & ADC_DIFFERENTIAL_EN) == 0u)
 292:Generated_Source\PSoC4/ADC.c ****         {
 293:Generated_Source\PSoC4/ADC.c ****             #if((ADC_DEFAULT_SE_RESULT_FORMAT_SEL == ADC__FSIGNED) && \
 294:Generated_Source\PSoC4/ADC.c ****                 (ADC_DEFAULT_NEG_INPUT_SEL == ADC__VREF))
 295:Generated_Source\PSoC4/ADC.c ****                 /* Set offset to the minus half scale to convert results to unsigned format */
 296:Generated_Source\PSoC4/ADC.c ****                 ADC_offset[chNum] = (int16)(counts / -2);
 297:Generated_Source\PSoC4/ADC.c ****             #else
 298:Generated_Source\PSoC4/ADC.c ****                 ADC_offset[chNum] = 0;
 134              		.loc 1 298 0
 135 008e 5800     		lsl	r0, r3, #1
 136 0090 1A4A     		ldr	r2, .L6+88
 137 0092 8152     		strh	r1, [r0, r2]
 299:Generated_Source\PSoC4/ADC.c ****             #endif /* end DEFAULT_SE_RESULT_FORMAT_SEL == ADC__FSIGNED */
 300:Generated_Source\PSoC4/ADC.c ****         }
 301:Generated_Source\PSoC4/ADC.c ****         else    /* Differential channel */
 302:Generated_Source\PSoC4/ADC.c ****         {
 303:Generated_Source\PSoC4/ADC.c ****             #if(ADC_DEFAULT_DIFF_RESULT_FORMAT_SEL == ADC__FUNSIGNED)
 304:Generated_Source\PSoC4/ADC.c ****                 /* Set offset to the half scale to convert results to signed format */
 305:Generated_Source\PSoC4/ADC.c ****                 ADC_offset[chNum] = (int16)(counts / 2);
 306:Generated_Source\PSoC4/ADC.c ****             #else
 307:Generated_Source\PSoC4/ADC.c ****                 ADC_offset[chNum] = 0;
 308:Generated_Source\PSoC4/ADC.c ****             #endif /* end ADC_DEFAULT_DIFF_RESULT_FORMAT_SEL == ADC__FUNSIGNED */
 309:Generated_Source\PSoC4/ADC.c ****         }
 310:Generated_Source\PSoC4/ADC.c ****         /* Calculate gain in counts per 10 volts with rounding */
 311:Generated_Source\PSoC4/ADC.c ****         ADC_countsPer10Volt[chNum] = (int16)(((counts * ADC_10MV_COUNTS) +
 138              		.loc 1 311 0
 139 0094 9900     		lsl	r1, r3, #2
 140 0096 1A48     		ldr	r0, .L6+92
 141 0098 1A4A     		ldr	r2, .L6+96
 142 009a 8850     		str	r0, [r1, r2]
 232:Generated_Source\PSoC4/ADC.c ****     {
ARM GAS  C:\Users\g\AppData\Local\Temp\ccc53fmt.s 			page 9


 143              		.loc 1 232 0
 144 009c 0133     		add	r3, r3, #1
 145              	.LVL9:
 146              	.L3:
 232:Generated_Source\PSoC4/ADC.c ****     {
 147              		.loc 1 232 0 is_stmt 0 discriminator 1
 148 009e 002B     		cmp	r3, #0
 149 00a0 EFD0     		beq	.L4
 312:Generated_Source\PSoC4/ADC.c ****                             ADC_DEFAULT_VREF_MV_VALUE) / (ADC_DEFAULT_VREF_MV_VALUE * 2));
 313:Generated_Source\PSoC4/ADC.c ****     }
 314:Generated_Source\PSoC4/ADC.c **** }
 150              		.loc 1 314 0 is_stmt 1
 151              		@ sp needed
 152 00a2 08BD     		pop	{r3, pc}
 153              	.L7:
 154              		.align	2
 155              	.L6:
 156 00a4 00000000 		.word	ADC_ISR
 157 00a8 20001A40 		.word	1075445792
 158 00ac 80031A40 		.word	1075446656
 159 00b0 C0021050 		.word	1343226560
 160 00b4 C0020050 		.word	1342177984
 161 00b8 00001A40 		.word	1075445760
 162 00bc AC000A80 		.word	-2146828116
 163 00c0 04001A40 		.word	1075445764
 164 00c4 0000DC05 		.word	98304000
 165 00c8 18001A40 		.word	1075445784
 166 00cc 1C001A40 		.word	1075445788
 167 00d0 04000400 		.word	262148
 168 00d4 10001A40 		.word	1075445776
 169 00d8 14001A40 		.word	1075445780
 170 00dc 00031A40 		.word	1075446528
 171 00e0 28021A40 		.word	1075446312
 172 00e4 38021A40 		.word	1075446328
 173 00e8 18021A40 		.word	1075446296
 174 00ec 000F1A40 		.word	1075449600
 175 00f0 30001A40 		.word	1075445808
 176 00f4 FFFFFFDF 		.word	-536870913
 177 00f8 80001A40 		.word	1075445888
 178 00fc 00000000 		.word	ADC_offset
 179 0100 204E0000 		.word	20000
 180 0104 00000000 		.word	ADC_countsPer10Volt
 181              		.cfi_endproc
 182              	.LFE1:
 183              		.size	ADC_Init, .-ADC_Init
 184              		.section	.text.ADC_Enable,"ax",%progbits
 185              		.align	2
 186              		.global	ADC_Enable
 187              		.code	16
 188              		.thumb_func
 189              		.type	ADC_Enable, %function
 190              	ADC_Enable:
 191              	.LFB2:
 315:Generated_Source\PSoC4/ADC.c **** 
 316:Generated_Source\PSoC4/ADC.c **** /*******************************************************************************
 317:Generated_Source\PSoC4/ADC.c **** * Function Name: ADC_SAR_1_Enable
 318:Generated_Source\PSoC4/ADC.c **** ********************************************************************************
ARM GAS  C:\Users\g\AppData\Local\Temp\ccc53fmt.s 			page 10


 319:Generated_Source\PSoC4/ADC.c **** *
 320:Generated_Source\PSoC4/ADC.c **** * Summary:
 321:Generated_Source\PSoC4/ADC.c **** *  Enables the clock and analog power for SAR ADC.
 322:Generated_Source\PSoC4/ADC.c **** *
 323:Generated_Source\PSoC4/ADC.c **** * Parameters:
 324:Generated_Source\PSoC4/ADC.c **** *  None.
 325:Generated_Source\PSoC4/ADC.c **** *
 326:Generated_Source\PSoC4/ADC.c **** * Return:
 327:Generated_Source\PSoC4/ADC.c **** *  None.
 328:Generated_Source\PSoC4/ADC.c **** *
 329:Generated_Source\PSoC4/ADC.c **** *******************************************************************************/
 330:Generated_Source\PSoC4/ADC.c **** void ADC_Enable(void)
 331:Generated_Source\PSoC4/ADC.c **** {
 192              		.loc 1 331 0
 193              		.cfi_startproc
 194 0000 08B5     		push	{r3, lr}
 195              		.cfi_def_cfa_offset 8
 196              		.cfi_offset 3, -8
 197              		.cfi_offset 14, -4
 332:Generated_Source\PSoC4/ADC.c ****     if (0u == (ADC_SAR_CTRL_REG & ADC_ENABLE))
 198              		.loc 1 332 0
 199 0002 074B     		ldr	r3, .L10
 200 0004 1B68     		ldr	r3, [r3]
 201 0006 002B     		cmp	r3, #0
 202 0008 08DB     		blt	.L8
 333:Generated_Source\PSoC4/ADC.c ****     {
 334:Generated_Source\PSoC4/ADC.c ****         #if(ADC_CY_SAR_IP_VER != ADC_CY_SAR_IP_VER0)
 335:Generated_Source\PSoC4/ADC.c **** 
 336:Generated_Source\PSoC4/ADC.c ****             while (0u != (ADC_SAR_STATUS_REG & ADC_STATUS_BUSY))
 337:Generated_Source\PSoC4/ADC.c ****             {
 338:Generated_Source\PSoC4/ADC.c ****                 /* wait for SAR to go idle to avoid deadlock */
 339:Generated_Source\PSoC4/ADC.c ****             }
 340:Generated_Source\PSoC4/ADC.c ****         #endif /* (ADC_CY_SAR_IP_VER != ADC_CY_SAR_IP_VER0) */
 341:Generated_Source\PSoC4/ADC.c ****         
 342:Generated_Source\PSoC4/ADC.c ****         ADC_SAR_CTRL_REG |= ADC_ENABLE;
 203              		.loc 1 342 0
 204 000a 054A     		ldr	r2, .L10
 205 000c 1368     		ldr	r3, [r2]
 206 000e 8021     		mov	r1, #128
 207 0010 0906     		lsl	r1, r1, #24
 208 0012 0B43     		orr	r3, r1
 209 0014 1360     		str	r3, [r2]
 343:Generated_Source\PSoC4/ADC.c ****         
 344:Generated_Source\PSoC4/ADC.c ****         /* The block is ready to use 10 us after the enable signal is set high. */
 345:Generated_Source\PSoC4/ADC.c ****         CyDelayUs(ADC_10US_DELAY);         
 210              		.loc 1 345 0
 211 0016 0A20     		mov	r0, #10
 212 0018 FFF7FEFF 		bl	CyDelayUs
 213              	.LVL10:
 214              	.L8:
 346:Generated_Source\PSoC4/ADC.c ****     }
 347:Generated_Source\PSoC4/ADC.c **** }
 215              		.loc 1 347 0
 216              		@ sp needed
 217 001c 08BD     		pop	{r3, pc}
 218              	.L11:
 219 001e C046     		.align	2
ARM GAS  C:\Users\g\AppData\Local\Temp\ccc53fmt.s 			page 11


 220              	.L10:
 221 0020 00001A40 		.word	1075445760
 222              		.cfi_endproc
 223              	.LFE2:
 224              		.size	ADC_Enable, .-ADC_Enable
 225              		.section	.text.ADC_Start,"ax",%progbits
 226              		.align	2
 227              		.global	ADC_Start
 228              		.code	16
 229              		.thumb_func
 230              		.type	ADC_Start, %function
 231              	ADC_Start:
 232              	.LFB0:
  64:Generated_Source\PSoC4/ADC.c ****     /* If not Initialized then initialize all required hardware and software */
 233              		.loc 1 64 0
 234              		.cfi_startproc
 235 0000 08B5     		push	{r3, lr}
 236              		.cfi_def_cfa_offset 8
 237              		.cfi_offset 3, -8
 238              		.cfi_offset 14, -4
  66:Generated_Source\PSoC4/ADC.c ****     {
 239              		.loc 1 66 0
 240 0002 064B     		ldr	r3, .L14
 241 0004 1B78     		ldrb	r3, [r3]
 242 0006 002B     		cmp	r3, #0
 243 0008 04D1     		bne	.L13
  68:Generated_Source\PSoC4/ADC.c ****         ADC_initVar = 1u;
 244              		.loc 1 68 0
 245 000a FFF7FEFF 		bl	ADC_Init
 246              	.LVL11:
  69:Generated_Source\PSoC4/ADC.c ****     }
 247              		.loc 1 69 0
 248 000e 0122     		mov	r2, #1
 249 0010 024B     		ldr	r3, .L14
 250 0012 1A70     		strb	r2, [r3]
 251              	.L13:
  71:Generated_Source\PSoC4/ADC.c **** }
 252              		.loc 1 71 0
 253 0014 FFF7FEFF 		bl	ADC_Enable
 254              	.LVL12:
  72:Generated_Source\PSoC4/ADC.c **** 
 255              		.loc 1 72 0
 256              		@ sp needed
 257 0018 08BD     		pop	{r3, pc}
 258              	.L15:
 259 001a C046     		.align	2
 260              	.L14:
 261 001c 00000000 		.word	.LANCHOR0
 262              		.cfi_endproc
 263              	.LFE0:
 264              		.size	ADC_Start, .-ADC_Start
 265              		.section	.text.ADC_Stop,"ax",%progbits
 266              		.align	2
 267              		.global	ADC_Stop
 268              		.code	16
 269              		.thumb_func
 270              		.type	ADC_Stop, %function
ARM GAS  C:\Users\g\AppData\Local\Temp\ccc53fmt.s 			page 12


 271              	ADC_Stop:
 272              	.LFB3:
 348:Generated_Source\PSoC4/ADC.c **** 
 349:Generated_Source\PSoC4/ADC.c **** 
 350:Generated_Source\PSoC4/ADC.c **** /*******************************************************************************
 351:Generated_Source\PSoC4/ADC.c **** * Function Name: ADC_Stop
 352:Generated_Source\PSoC4/ADC.c **** ********************************************************************************
 353:Generated_Source\PSoC4/ADC.c **** *
 354:Generated_Source\PSoC4/ADC.c **** * Summary:
 355:Generated_Source\PSoC4/ADC.c **** *  This function stops ADC conversions and puts the ADC into its lowest power
 356:Generated_Source\PSoC4/ADC.c **** *  mode.
 357:Generated_Source\PSoC4/ADC.c **** *
 358:Generated_Source\PSoC4/ADC.c **** * Parameters:
 359:Generated_Source\PSoC4/ADC.c **** *  None.
 360:Generated_Source\PSoC4/ADC.c **** *
 361:Generated_Source\PSoC4/ADC.c **** * Return:
 362:Generated_Source\PSoC4/ADC.c **** *  None.
 363:Generated_Source\PSoC4/ADC.c **** *
 364:Generated_Source\PSoC4/ADC.c **** *******************************************************************************/
 365:Generated_Source\PSoC4/ADC.c **** void ADC_Stop(void)
 366:Generated_Source\PSoC4/ADC.c **** {
 273              		.loc 1 366 0
 274              		.cfi_startproc
 367:Generated_Source\PSoC4/ADC.c ****     ADC_SAR_CTRL_REG &= (uint32)~ADC_ENABLE;
 275              		.loc 1 367 0
 276 0000 024A     		ldr	r2, .L17
 277 0002 1368     		ldr	r3, [r2]
 278 0004 5B00     		lsl	r3, r3, #1
 279 0006 5B08     		lsr	r3, r3, #1
 280 0008 1360     		str	r3, [r2]
 368:Generated_Source\PSoC4/ADC.c **** }
 281              		.loc 1 368 0
 282              		@ sp needed
 283 000a 7047     		bx	lr
 284              	.L18:
 285              		.align	2
 286              	.L17:
 287 000c 00001A40 		.word	1075445760
 288              		.cfi_endproc
 289              	.LFE3:
 290              		.size	ADC_Stop, .-ADC_Stop
 291              		.section	.text.ADC_StartConvert,"ax",%progbits
 292              		.align	2
 293              		.global	ADC_StartConvert
 294              		.code	16
 295              		.thumb_func
 296              		.type	ADC_StartConvert, %function
 297              	ADC_StartConvert:
 298              	.LFB4:
 369:Generated_Source\PSoC4/ADC.c **** 
 370:Generated_Source\PSoC4/ADC.c **** 
 371:Generated_Source\PSoC4/ADC.c **** /*******************************************************************************
 372:Generated_Source\PSoC4/ADC.c **** * Function Name: ADC_StartConvert
 373:Generated_Source\PSoC4/ADC.c **** ********************************************************************************
 374:Generated_Source\PSoC4/ADC.c **** *
 375:Generated_Source\PSoC4/ADC.c **** * Summary:
 376:Generated_Source\PSoC4/ADC.c **** *  Description:
ARM GAS  C:\Users\g\AppData\Local\Temp\ccc53fmt.s 			page 13


 377:Generated_Source\PSoC4/ADC.c **** *  For free running mode, this API starts the conversion process and it
 378:Generated_Source\PSoC4/ADC.c **** *  runs continuously.
 379:Generated_Source\PSoC4/ADC.c **** *
 380:Generated_Source\PSoC4/ADC.c **** *  In a triggered mode, this routine triggers every conversion by
 381:Generated_Source\PSoC4/ADC.c **** *  writing into the FW_TRIGGER bit in SAR_START_CTRL reg. In triggered mode,
 382:Generated_Source\PSoC4/ADC.c **** *  every conversion has to start by this API.
 383:Generated_Source\PSoC4/ADC.c **** *
 384:Generated_Source\PSoC4/ADC.c **** * Parameters:
 385:Generated_Source\PSoC4/ADC.c **** *  None.
 386:Generated_Source\PSoC4/ADC.c **** *
 387:Generated_Source\PSoC4/ADC.c **** * Return:
 388:Generated_Source\PSoC4/ADC.c **** *  None.
 389:Generated_Source\PSoC4/ADC.c **** *
 390:Generated_Source\PSoC4/ADC.c **** *******************************************************************************/
 391:Generated_Source\PSoC4/ADC.c **** void ADC_StartConvert(void)
 392:Generated_Source\PSoC4/ADC.c **** {
 299              		.loc 1 392 0
 300              		.cfi_startproc
 393:Generated_Source\PSoC4/ADC.c ****     #if(ADC_DEFAULT_SAMPLE_MODE_SEL == ADC__FREERUNNING)
 394:Generated_Source\PSoC4/ADC.c ****         ADC_SAR_SAMPLE_CTRL_REG |= ADC_CONTINUOUS_EN;
 395:Generated_Source\PSoC4/ADC.c ****     #else /* Firmware trigger */
 396:Generated_Source\PSoC4/ADC.c ****         ADC_SAR_START_CTRL_REG = ADC_FW_TRIGGER;
 301              		.loc 1 396 0
 302 0000 0122     		mov	r2, #1
 303 0002 014B     		ldr	r3, .L20
 304 0004 1A60     		str	r2, [r3]
 397:Generated_Source\PSoC4/ADC.c ****     #endif /* End ADC_DEFAULT_SAMPLE_MODE == ADC__FREERUNNING */
 398:Generated_Source\PSoC4/ADC.c **** 
 399:Generated_Source\PSoC4/ADC.c **** }
 305              		.loc 1 399 0
 306              		@ sp needed
 307 0006 7047     		bx	lr
 308              	.L21:
 309              		.align	2
 310              	.L20:
 311 0008 24001A40 		.word	1075445796
 312              		.cfi_endproc
 313              	.LFE4:
 314              		.size	ADC_StartConvert, .-ADC_StartConvert
 315              		.section	.text.ADC_StopConvert,"ax",%progbits
 316              		.align	2
 317              		.global	ADC_StopConvert
 318              		.code	16
 319              		.thumb_func
 320              		.type	ADC_StopConvert, %function
 321              	ADC_StopConvert:
 322              	.LFB5:
 400:Generated_Source\PSoC4/ADC.c **** 
 401:Generated_Source\PSoC4/ADC.c **** 
 402:Generated_Source\PSoC4/ADC.c **** /*******************************************************************************
 403:Generated_Source\PSoC4/ADC.c **** * Function Name: ADC_StopConvert
 404:Generated_Source\PSoC4/ADC.c **** ********************************************************************************
 405:Generated_Source\PSoC4/ADC.c **** *
 406:Generated_Source\PSoC4/ADC.c **** * Summary:
 407:Generated_Source\PSoC4/ADC.c **** *  Forces the ADC to stop all conversions.
 408:Generated_Source\PSoC4/ADC.c **** *
 409:Generated_Source\PSoC4/ADC.c **** * Parameters:
ARM GAS  C:\Users\g\AppData\Local\Temp\ccc53fmt.s 			page 14


 410:Generated_Source\PSoC4/ADC.c **** *  None.
 411:Generated_Source\PSoC4/ADC.c **** *
 412:Generated_Source\PSoC4/ADC.c **** * Return:
 413:Generated_Source\PSoC4/ADC.c **** *  None.
 414:Generated_Source\PSoC4/ADC.c **** *
 415:Generated_Source\PSoC4/ADC.c **** *******************************************************************************/
 416:Generated_Source\PSoC4/ADC.c **** void ADC_StopConvert(void)
 417:Generated_Source\PSoC4/ADC.c **** {
 323              		.loc 1 417 0
 324              		.cfi_startproc
 418:Generated_Source\PSoC4/ADC.c ****     #if(ADC_DEFAULT_SAMPLE_MODE_SEL == ADC__FREERUNNING)
 419:Generated_Source\PSoC4/ADC.c ****         ADC_SAR_SAMPLE_CTRL_REG &= (uint32)(~ADC_CONTINUOUS_EN);
 420:Generated_Source\PSoC4/ADC.c ****     #endif /* ADC_DEFAULT_SAMPLE_MODE == ADC__FREERUNNING */
 421:Generated_Source\PSoC4/ADC.c **** }
 325              		.loc 1 421 0
 326              		@ sp needed
 327 0000 7047     		bx	lr
 328              		.cfi_endproc
 329              	.LFE5:
 330              		.size	ADC_StopConvert, .-ADC_StopConvert
 331 0002 C046     		.section	.text.ADC_IsEndConversion,"ax",%progbits
 332              		.align	2
 333              		.global	ADC_IsEndConversion
 334              		.code	16
 335              		.thumb_func
 336              		.type	ADC_IsEndConversion, %function
 337              	ADC_IsEndConversion:
 338              	.LFB6:
 422:Generated_Source\PSoC4/ADC.c **** 
 423:Generated_Source\PSoC4/ADC.c **** 
 424:Generated_Source\PSoC4/ADC.c **** /*******************************************************************************
 425:Generated_Source\PSoC4/ADC.c **** * Function Name: ADC_IsEndConversion
 426:Generated_Source\PSoC4/ADC.c **** ********************************************************************************
 427:Generated_Source\PSoC4/ADC.c **** *
 428:Generated_Source\PSoC4/ADC.c **** * Summary:
 429:Generated_Source\PSoC4/ADC.c **** *  Description: Checks for ADC end of conversion for the case one
 430:Generated_Source\PSoC4/ADC.c **** *  channel and end of scan for the case of multiple channels. It acts
 431:Generated_Source\PSoC4/ADC.c **** *  as a software version of the EOC. This function provides the
 432:Generated_Source\PSoC4/ADC.c **** *  programmer with two options. In one mode this function
 433:Generated_Source\PSoC4/ADC.c **** *  immediately returns with the conversion status. In the other mode,
 434:Generated_Source\PSoC4/ADC.c **** *  the function does not return (blocking) until the conversion has
 435:Generated_Source\PSoC4/ADC.c **** *  completed.
 436:Generated_Source\PSoC4/ADC.c **** *
 437:Generated_Source\PSoC4/ADC.c **** * Parameters:
 438:Generated_Source\PSoC4/ADC.c **** *  ADC_RETURN_STATUS        -> Immediately returns conversion result status
 439:Generated_Source\PSoC4/ADC.c **** *  ADC_WAIT_FOR_RESULT      -> Does not return until ADC complete
 440:Generated_Source\PSoC4/ADC.c **** *  ADC_RETURN_STATUS_INJ    -> Immediately returns conversion result status
 441:Generated_Source\PSoC4/ADC.c **** *                              for injection channel
 442:Generated_Source\PSoC4/ADC.c **** *  ADC_WAIT_FOR_RESULT_INJ  -> Does not return until ADC completes injection
 443:Generated_Source\PSoC4/ADC.c **** *                              channel conversion
 444:Generated_Source\PSoC4/ADC.c **** *
 445:Generated_Source\PSoC4/ADC.c **** * Return:
 446:Generated_Source\PSoC4/ADC.c **** *  If a non-zero value is returned, the last conversion or scan has completed.
 447:Generated_Source\PSoC4/ADC.c **** *  If the returned value is zero, the ADC is still in the process of a scan.
 448:Generated_Source\PSoC4/ADC.c **** *
 449:Generated_Source\PSoC4/ADC.c **** *******************************************************************************/
 450:Generated_Source\PSoC4/ADC.c **** uint32 ADC_IsEndConversion(uint32 retMode)
ARM GAS  C:\Users\g\AppData\Local\Temp\ccc53fmt.s 			page 15


 451:Generated_Source\PSoC4/ADC.c **** {
 339              		.loc 1 451 0
 340              		.cfi_startproc
 341              	.LVL13:
 342 0000 021C     		mov	r2, r0
 343              	.LVL14:
 452:Generated_Source\PSoC4/ADC.c ****     uint32 status = 0u;
 453:Generated_Source\PSoC4/ADC.c **** 
 454:Generated_Source\PSoC4/ADC.c ****     if((retMode & (ADC_RETURN_STATUS | ADC_WAIT_FOR_RESULT)) != 0u)
 344              		.loc 1 454 0
 345 0002 8307     		lsl	r3, r0, #30
 346 0004 0CD0     		beq	.L27
 347              	.LVL15:
 348              	.L26:
 455:Generated_Source\PSoC4/ADC.c ****     {
 456:Generated_Source\PSoC4/ADC.c ****         do
 457:Generated_Source\PSoC4/ADC.c ****         {
 458:Generated_Source\PSoC4/ADC.c ****             status = ADC_SAR_INTR_REG & ADC_EOS_MASK;
 349              		.loc 1 458 0 discriminator 2
 350 0006 074B     		ldr	r3, .L28
 351 0008 1B68     		ldr	r3, [r3]
 352 000a 0120     		mov	r0, #1
 353 000c 1840     		and	r0, r3
 354              	.LVL16:
 459:Generated_Source\PSoC4/ADC.c ****         }while((status == 0u) && ((retMode & ADC_WAIT_FOR_RESULT) != 0u));
 355              		.loc 1 459 0 discriminator 2
 356 000e 01D1     		bne	.L25
 357              		.loc 1 459 0 is_stmt 0 discriminator 1
 358 0010 9307     		lsl	r3, r2, #30
 359 0012 F8D4     		bmi	.L26
 360              	.L25:
 460:Generated_Source\PSoC4/ADC.c **** 
 461:Generated_Source\PSoC4/ADC.c ****         if(status != 0u)
 361              		.loc 1 461 0 is_stmt 1
 362 0014 0028     		cmp	r0, #0
 363 0016 04D0     		beq	.L24
 462:Generated_Source\PSoC4/ADC.c ****         {
 463:Generated_Source\PSoC4/ADC.c ****             /* Clear EOS bit */
 464:Generated_Source\PSoC4/ADC.c ****             ADC_SAR_INTR_REG = ADC_EOS_MASK;
 364              		.loc 1 464 0
 365 0018 0122     		mov	r2, #1
 366              	.LVL17:
 367 001a 024B     		ldr	r3, .L28
 368 001c 1A60     		str	r2, [r3]
 369 001e 00E0     		b	.L24
 370              	.LVL18:
 371              	.L27:
 452:Generated_Source\PSoC4/ADC.c **** 
 372              		.loc 1 452 0
 373 0020 0020     		mov	r0, #0
 374              	.LVL19:
 375              	.L24:
 465:Generated_Source\PSoC4/ADC.c ****         }
 466:Generated_Source\PSoC4/ADC.c ****     }
 467:Generated_Source\PSoC4/ADC.c **** 
 468:Generated_Source\PSoC4/ADC.c ****     #if(ADC_INJ_CHANNEL_ENABLED)
 469:Generated_Source\PSoC4/ADC.c ****         if((retMode & (ADC_RETURN_STATUS_INJ | ADC_WAIT_FOR_RESULT_INJ)) != 0u)
ARM GAS  C:\Users\g\AppData\Local\Temp\ccc53fmt.s 			page 16


 470:Generated_Source\PSoC4/ADC.c ****         {
 471:Generated_Source\PSoC4/ADC.c ****             do
 472:Generated_Source\PSoC4/ADC.c ****             {
 473:Generated_Source\PSoC4/ADC.c ****                 status |= ADC_SAR_INTR_REG & ADC_INJ_EOC_MASK;
 474:Generated_Source\PSoC4/ADC.c ****             }while(((status & ADC_INJ_EOC_MASK) == 0u) &&
 475:Generated_Source\PSoC4/ADC.c ****                    ((retMode & ADC_WAIT_FOR_RESULT_INJ) != 0u));
 476:Generated_Source\PSoC4/ADC.c **** 
 477:Generated_Source\PSoC4/ADC.c ****             if((status & ADC_INJ_EOC_MASK) != 0u)
 478:Generated_Source\PSoC4/ADC.c ****             {
 479:Generated_Source\PSoC4/ADC.c ****                 /* Clear Injection EOS bit */
 480:Generated_Source\PSoC4/ADC.c ****                 ADC_SAR_INTR_REG = ADC_INJ_EOC_MASK;
 481:Generated_Source\PSoC4/ADC.c ****             }
 482:Generated_Source\PSoC4/ADC.c ****         }
 483:Generated_Source\PSoC4/ADC.c ****     #endif /* ADC_INJ_CHANNEL_ENABLED */
 484:Generated_Source\PSoC4/ADC.c **** 
 485:Generated_Source\PSoC4/ADC.c ****     return (status);
 486:Generated_Source\PSoC4/ADC.c **** }
 376              		.loc 1 486 0
 377              		@ sp needed
 378 0022 7047     		bx	lr
 379              	.L29:
 380              		.align	2
 381              	.L28:
 382 0024 10021A40 		.word	1075446288
 383              		.cfi_endproc
 384              	.LFE6:
 385              		.size	ADC_IsEndConversion, .-ADC_IsEndConversion
 386              		.section	.text.ADC_GetResult16,"ax",%progbits
 387              		.align	2
 388              		.global	ADC_GetResult16
 389              		.code	16
 390              		.thumb_func
 391              		.type	ADC_GetResult16, %function
 392              	ADC_GetResult16:
 393              	.LFB7:
 487:Generated_Source\PSoC4/ADC.c **** 
 488:Generated_Source\PSoC4/ADC.c **** 
 489:Generated_Source\PSoC4/ADC.c **** /*******************************************************************************
 490:Generated_Source\PSoC4/ADC.c **** * Function Name: ADC_GetResult16
 491:Generated_Source\PSoC4/ADC.c **** ********************************************************************************
 492:Generated_Source\PSoC4/ADC.c **** *
 493:Generated_Source\PSoC4/ADC.c **** * Summary:
 494:Generated_Source\PSoC4/ADC.c **** *  Gets the data available in the SAR DATA register.
 495:Generated_Source\PSoC4/ADC.c **** *
 496:Generated_Source\PSoC4/ADC.c **** * Parameters:
 497:Generated_Source\PSoC4/ADC.c **** *  chan: The ADC channel in which to return the result. The first channel
 498:Generated_Source\PSoC4/ADC.c **** *  is 0 and the injection channel if enabled is the number of valid channels.
 499:Generated_Source\PSoC4/ADC.c **** *
 500:Generated_Source\PSoC4/ADC.c **** * Return:
 501:Generated_Source\PSoC4/ADC.c **** *  Returns converted data as a signed 16-bit integer
 502:Generated_Source\PSoC4/ADC.c **** *
 503:Generated_Source\PSoC4/ADC.c **** *******************************************************************************/
 504:Generated_Source\PSoC4/ADC.c **** int16 ADC_GetResult16(uint32 chan)
 505:Generated_Source\PSoC4/ADC.c **** {
 394              		.loc 1 505 0
 395              		.cfi_startproc
 396              	.LVL20:
ARM GAS  C:\Users\g\AppData\Local\Temp\ccc53fmt.s 			page 17


 397 0000 10B5     		push	{r4, lr}
 398              		.cfi_def_cfa_offset 8
 399              		.cfi_offset 4, -8
 400              		.cfi_offset 14, -4
 401 0002 041E     		sub	r4, r0, #0
 506:Generated_Source\PSoC4/ADC.c ****     uint32 result;
 507:Generated_Source\PSoC4/ADC.c **** 
 508:Generated_Source\PSoC4/ADC.c ****     /* Halt CPU in debug mode if channel is out of valid range */
 509:Generated_Source\PSoC4/ADC.c ****     CYASSERT(chan < ADC_TOTAL_CHANNELS_NUM);
 402              		.loc 1 509 0
 403 0004 02D0     		beq	.L31
 404              		.loc 1 509 0 is_stmt 0 discriminator 1
 405 0006 0020     		mov	r0, #0
 406              	.LVL21:
 407 0008 FFF7FEFF 		bl	CyHalt
 408              	.LVL22:
 409              	.L31:
 510:Generated_Source\PSoC4/ADC.c **** 
 511:Generated_Source\PSoC4/ADC.c ****     if(chan < ADC_SEQUENCED_CHANNELS_NUM)
 410              		.loc 1 511 0 is_stmt 1
 411 000c 002C     		cmp	r4, #0
 412 000e 07D1     		bne	.L33
 512:Generated_Source\PSoC4/ADC.c ****     {
 513:Generated_Source\PSoC4/ADC.c ****         result = CY_GET_REG32((reg32 *)(ADC_SAR_CHAN_RESULT_IND + (uint32)(chan << 2u))) &
 413              		.loc 1 513 0
 414 0010 A400     		lsl	r4, r4, #2
 415              	.LVL23:
 416 0012 054B     		ldr	r3, .L34
 417 0014 9C46     		mov	ip, r3
 418 0016 6444     		add	r4, r4, ip
 419 0018 2068     		ldr	r0, [r4]
 420 001a 0004     		lsl	r0, r0, #16
 421 001c 000C     		lsr	r0, r0, #16
 422              	.LVL24:
 423 001e 00E0     		b	.L32
 424              	.LVL25:
 425              	.L33:
 514:Generated_Source\PSoC4/ADC.c ****                 ADC_RESULT_MASK;
 515:Generated_Source\PSoC4/ADC.c ****     }
 516:Generated_Source\PSoC4/ADC.c ****     else
 517:Generated_Source\PSoC4/ADC.c ****     {
 518:Generated_Source\PSoC4/ADC.c ****         #if(ADC_INJ_CHANNEL_ENABLED)
 519:Generated_Source\PSoC4/ADC.c ****             result = ADC_SAR_INJ_RESULT_REG & ADC_RESULT_MASK;
 520:Generated_Source\PSoC4/ADC.c ****         #else
 521:Generated_Source\PSoC4/ADC.c ****             result = 0u;
 426              		.loc 1 521 0
 427 0020 0020     		mov	r0, #0
 428              	.LVL26:
 429              	.L32:
 522:Generated_Source\PSoC4/ADC.c ****         #endif /* ADC_INJ_CHANNEL_ENABLED */
 523:Generated_Source\PSoC4/ADC.c ****     }
 524:Generated_Source\PSoC4/ADC.c **** 
 525:Generated_Source\PSoC4/ADC.c ****     return ( (int16)result );
 430              		.loc 1 525 0
 431 0022 00B2     		sxth	r0, r0
 432              	.LVL27:
 526:Generated_Source\PSoC4/ADC.c **** }
ARM GAS  C:\Users\g\AppData\Local\Temp\ccc53fmt.s 			page 18


 433              		.loc 1 526 0
 434              		@ sp needed
 435 0024 10BD     		pop	{r4, pc}
 436              	.L35:
 437 0026 C046     		.align	2
 438              	.L34:
 439 0028 80011A40 		.word	1075446144
 440              		.cfi_endproc
 441              	.LFE7:
 442              		.size	ADC_GetResult16, .-ADC_GetResult16
 443              		.section	.text.ADC_SetChanMask,"ax",%progbits
 444              		.align	2
 445              		.global	ADC_SetChanMask
 446              		.code	16
 447              		.thumb_func
 448              		.type	ADC_SetChanMask, %function
 449              	ADC_SetChanMask:
 450              	.LFB8:
 527:Generated_Source\PSoC4/ADC.c **** 
 528:Generated_Source\PSoC4/ADC.c **** 
 529:Generated_Source\PSoC4/ADC.c **** /*******************************************************************************
 530:Generated_Source\PSoC4/ADC.c **** * Function Name: ADC_SetChanMask
 531:Generated_Source\PSoC4/ADC.c **** ********************************************************************************
 532:Generated_Source\PSoC4/ADC.c **** *
 533:Generated_Source\PSoC4/ADC.c **** * Summary:
 534:Generated_Source\PSoC4/ADC.c **** *  Sets the channel enable mask.
 535:Generated_Source\PSoC4/ADC.c **** *
 536:Generated_Source\PSoC4/ADC.c **** * Parameters:
 537:Generated_Source\PSoC4/ADC.c **** *  mask: Sets which channels that will be
 538:Generated_Source\PSoC4/ADC.c **** *  scanned. Setting bits for channels that do not exist will have no
 539:Generated_Source\PSoC4/ADC.c **** *  effect. For example, if only 6 channels were enabled, setting a
 540:Generated_Source\PSoC4/ADC.c **** *  mask of 0x0103 would only enable the last two channels (0 and 1).
 541:Generated_Source\PSoC4/ADC.c **** *  This API will not enable the injection channel.
 542:Generated_Source\PSoC4/ADC.c **** *  Examples: If the component is setup to sequence through 8
 543:Generated_Source\PSoC4/ADC.c **** *  channels, a mask of 0x000F would enable channels 0, 1, 2, and 3.
 544:Generated_Source\PSoC4/ADC.c **** *
 545:Generated_Source\PSoC4/ADC.c **** * Return:
 546:Generated_Source\PSoC4/ADC.c **** *  None.
 547:Generated_Source\PSoC4/ADC.c **** *
 548:Generated_Source\PSoC4/ADC.c **** *******************************************************************************/
 549:Generated_Source\PSoC4/ADC.c **** void ADC_SetChanMask(uint32 mask)
 550:Generated_Source\PSoC4/ADC.c **** {
 451              		.loc 1 550 0
 452              		.cfi_startproc
 453              	.LVL28:
 551:Generated_Source\PSoC4/ADC.c ****     ADC_SAR_CHAN_EN_REG = mask & ADC_MAX_CHANNELS_EN_MASK;
 454              		.loc 1 551 0
 455 0000 0123     		mov	r3, #1
 456 0002 1840     		and	r0, r3
 457              	.LVL29:
 458 0004 014B     		ldr	r3, .L37
 459 0006 1860     		str	r0, [r3]
 552:Generated_Source\PSoC4/ADC.c **** }
 460              		.loc 1 552 0
 461              		@ sp needed
 462 0008 7047     		bx	lr
 463              	.L38:
ARM GAS  C:\Users\g\AppData\Local\Temp\ccc53fmt.s 			page 19


 464 000a C046     		.align	2
 465              	.L37:
 466 000c 20001A40 		.word	1075445792
 467              		.cfi_endproc
 468              	.LFE8:
 469              		.size	ADC_SetChanMask, .-ADC_SetChanMask
 470              		.section	.text.ADC_SetLowLimit,"ax",%progbits
 471              		.align	2
 472              		.global	ADC_SetLowLimit
 473              		.code	16
 474              		.thumb_func
 475              		.type	ADC_SetLowLimit, %function
 476              	ADC_SetLowLimit:
 477              	.LFB9:
 553:Generated_Source\PSoC4/ADC.c **** 
 554:Generated_Source\PSoC4/ADC.c **** #if(ADC_INJ_CHANNEL_ENABLED)
 555:Generated_Source\PSoC4/ADC.c **** 
 556:Generated_Source\PSoC4/ADC.c **** 
 557:Generated_Source\PSoC4/ADC.c ****     /*******************************************************************************
 558:Generated_Source\PSoC4/ADC.c ****     * Function Name: ADC_EnableInjection
 559:Generated_Source\PSoC4/ADC.c ****     ********************************************************************************
 560:Generated_Source\PSoC4/ADC.c ****     *
 561:Generated_Source\PSoC4/ADC.c ****     * Summary:
 562:Generated_Source\PSoC4/ADC.c ****     *  Enables the injection channel for the next scan only.
 563:Generated_Source\PSoC4/ADC.c ****     *
 564:Generated_Source\PSoC4/ADC.c ****     * Parameters:
 565:Generated_Source\PSoC4/ADC.c ****     *  None.
 566:Generated_Source\PSoC4/ADC.c ****     *
 567:Generated_Source\PSoC4/ADC.c ****     * Return:
 568:Generated_Source\PSoC4/ADC.c ****     *  None.
 569:Generated_Source\PSoC4/ADC.c ****     *
 570:Generated_Source\PSoC4/ADC.c ****     *******************************************************************************/
 571:Generated_Source\PSoC4/ADC.c ****     void ADC_EnableInjection(void)
 572:Generated_Source\PSoC4/ADC.c ****     {
 573:Generated_Source\PSoC4/ADC.c ****         ADC_SAR_INJ_CHAN_CONFIG_REG |= ADC_INJ_CHAN_EN;
 574:Generated_Source\PSoC4/ADC.c ****     }
 575:Generated_Source\PSoC4/ADC.c **** 
 576:Generated_Source\PSoC4/ADC.c **** #endif /* ADC_INJ_CHANNEL_ENABLED */
 577:Generated_Source\PSoC4/ADC.c **** 
 578:Generated_Source\PSoC4/ADC.c **** 
 579:Generated_Source\PSoC4/ADC.c **** /*******************************************************************************
 580:Generated_Source\PSoC4/ADC.c **** * Function Name: ADC_SetLowLimit
 581:Generated_Source\PSoC4/ADC.c **** ********************************************************************************
 582:Generated_Source\PSoC4/ADC.c **** *
 583:Generated_Source\PSoC4/ADC.c **** * Summary:
 584:Generated_Source\PSoC4/ADC.c **** *  Sets the low limit parameter for a limit condition.
 585:Generated_Source\PSoC4/ADC.c **** *
 586:Generated_Source\PSoC4/ADC.c **** * Parameters:
 587:Generated_Source\PSoC4/ADC.c **** *  lowLimit: The low limit for a limit condition.
 588:Generated_Source\PSoC4/ADC.c **** *
 589:Generated_Source\PSoC4/ADC.c **** * Return:
 590:Generated_Source\PSoC4/ADC.c **** *  None.
 591:Generated_Source\PSoC4/ADC.c **** *
 592:Generated_Source\PSoC4/ADC.c **** *******************************************************************************/
 593:Generated_Source\PSoC4/ADC.c **** void ADC_SetLowLimit(uint32 lowLimit)
 594:Generated_Source\PSoC4/ADC.c **** {
 478              		.loc 1 594 0
ARM GAS  C:\Users\g\AppData\Local\Temp\ccc53fmt.s 			page 20


 479              		.cfi_startproc
 480              	.LVL30:
 595:Generated_Source\PSoC4/ADC.c ****     ADC_SAR_RANGE_THRES_REG &= (uint32)(~ADC_RANGE_LOW_MASK);
 481              		.loc 1 595 0
 482 0000 054A     		ldr	r2, .L40
 483 0002 1368     		ldr	r3, [r2]
 484 0004 1B0C     		lsr	r3, r3, #16
 485 0006 1B04     		lsl	r3, r3, #16
 486 0008 1360     		str	r3, [r2]
 596:Generated_Source\PSoC4/ADC.c ****     ADC_SAR_RANGE_THRES_REG |= lowLimit & ADC_RANGE_LOW_MASK;
 487              		.loc 1 596 0
 488 000a 1368     		ldr	r3, [r2]
 489 000c 0004     		lsl	r0, r0, #16
 490              	.LVL31:
 491 000e 000C     		lsr	r0, r0, #16
 492 0010 1843     		orr	r0, r3
 493 0012 1060     		str	r0, [r2]
 597:Generated_Source\PSoC4/ADC.c **** }
 494              		.loc 1 597 0
 495              		@ sp needed
 496 0014 7047     		bx	lr
 497              	.L41:
 498 0016 C046     		.align	2
 499              	.L40:
 500 0018 18001A40 		.word	1075445784
 501              		.cfi_endproc
 502              	.LFE9:
 503              		.size	ADC_SetLowLimit, .-ADC_SetLowLimit
 504              		.section	.text.ADC_SetHighLimit,"ax",%progbits
 505              		.align	2
 506              		.global	ADC_SetHighLimit
 507              		.code	16
 508              		.thumb_func
 509              		.type	ADC_SetHighLimit, %function
 510              	ADC_SetHighLimit:
 511              	.LFB10:
 598:Generated_Source\PSoC4/ADC.c **** 
 599:Generated_Source\PSoC4/ADC.c **** 
 600:Generated_Source\PSoC4/ADC.c **** /*******************************************************************************
 601:Generated_Source\PSoC4/ADC.c **** * Function Name: ADC_SetHighLimit
 602:Generated_Source\PSoC4/ADC.c **** ********************************************************************************
 603:Generated_Source\PSoC4/ADC.c **** *
 604:Generated_Source\PSoC4/ADC.c **** * Summary:
 605:Generated_Source\PSoC4/ADC.c **** *  Sets the low limit parameter for a limit condition.
 606:Generated_Source\PSoC4/ADC.c **** *
 607:Generated_Source\PSoC4/ADC.c **** * Parameters:
 608:Generated_Source\PSoC4/ADC.c **** *  highLimit: The high limit for a limit condition.
 609:Generated_Source\PSoC4/ADC.c **** *
 610:Generated_Source\PSoC4/ADC.c **** * Return:
 611:Generated_Source\PSoC4/ADC.c **** *  None.
 612:Generated_Source\PSoC4/ADC.c **** *
 613:Generated_Source\PSoC4/ADC.c **** *******************************************************************************/
 614:Generated_Source\PSoC4/ADC.c **** void ADC_SetHighLimit(uint32 highLimit)
 615:Generated_Source\PSoC4/ADC.c **** {
 512              		.loc 1 615 0
 513              		.cfi_startproc
 514              	.LVL32:
ARM GAS  C:\Users\g\AppData\Local\Temp\ccc53fmt.s 			page 21


 616:Generated_Source\PSoC4/ADC.c ****     ADC_SAR_RANGE_THRES_REG &= (uint32)(~ADC_RANGE_HIGH_MASK);
 515              		.loc 1 616 0
 516 0000 044A     		ldr	r2, .L43
 517 0002 1368     		ldr	r3, [r2]
 518 0004 1B04     		lsl	r3, r3, #16
 519 0006 1B0C     		lsr	r3, r3, #16
 520 0008 1360     		str	r3, [r2]
 617:Generated_Source\PSoC4/ADC.c ****     ADC_SAR_RANGE_THRES_REG |= (uint32)(highLimit << ADC_RANGE_HIGH_OFFSET);
 521              		.loc 1 617 0
 522 000a 1368     		ldr	r3, [r2]
 523 000c 0004     		lsl	r0, r0, #16
 524              	.LVL33:
 525 000e 1843     		orr	r0, r3
 526 0010 1060     		str	r0, [r2]
 618:Generated_Source\PSoC4/ADC.c **** }
 527              		.loc 1 618 0
 528              		@ sp needed
 529 0012 7047     		bx	lr
 530              	.L44:
 531              		.align	2
 532              	.L43:
 533 0014 18001A40 		.word	1075445784
 534              		.cfi_endproc
 535              	.LFE10:
 536              		.size	ADC_SetHighLimit, .-ADC_SetHighLimit
 537              		.section	.text.ADC_SetLimitMask,"ax",%progbits
 538              		.align	2
 539              		.global	ADC_SetLimitMask
 540              		.code	16
 541              		.thumb_func
 542              		.type	ADC_SetLimitMask, %function
 543              	ADC_SetLimitMask:
 544              	.LFB11:
 619:Generated_Source\PSoC4/ADC.c **** 
 620:Generated_Source\PSoC4/ADC.c **** 
 621:Generated_Source\PSoC4/ADC.c **** /*******************************************************************************
 622:Generated_Source\PSoC4/ADC.c **** * Function Name: ADC_SetLimitMask
 623:Generated_Source\PSoC4/ADC.c **** ********************************************************************************
 624:Generated_Source\PSoC4/ADC.c **** *
 625:Generated_Source\PSoC4/ADC.c **** * Summary:
 626:Generated_Source\PSoC4/ADC.c **** *  Sets the channel limit condition mask.
 627:Generated_Source\PSoC4/ADC.c **** *
 628:Generated_Source\PSoC4/ADC.c **** * Parameters:
 629:Generated_Source\PSoC4/ADC.c **** *  mask: Sets which channels that may cause a
 630:Generated_Source\PSoC4/ADC.c **** *  limit condition interrupt. Setting bits for channels that do not exist
 631:Generated_Source\PSoC4/ADC.c **** *  will have no effect. For example, if only 6 channels were enabled,
 632:Generated_Source\PSoC4/ADC.c **** *  setting a mask of 0x0103 would only enable the last two channels (0 and 1).
 633:Generated_Source\PSoC4/ADC.c **** *
 634:Generated_Source\PSoC4/ADC.c **** * Return:
 635:Generated_Source\PSoC4/ADC.c **** *  None.
 636:Generated_Source\PSoC4/ADC.c **** *
 637:Generated_Source\PSoC4/ADC.c **** *******************************************************************************/
 638:Generated_Source\PSoC4/ADC.c **** void ADC_SetLimitMask(uint32 mask)
 639:Generated_Source\PSoC4/ADC.c **** {
 545              		.loc 1 639 0
 546              		.cfi_startproc
 547              	.LVL34:
ARM GAS  C:\Users\g\AppData\Local\Temp\ccc53fmt.s 			page 22


 640:Generated_Source\PSoC4/ADC.c ****     ADC_SAR_RANGE_INTR_MASK_REG = mask & ADC_MAX_CHANNELS_EN_MASK;
 548              		.loc 1 640 0
 549 0000 0123     		mov	r3, #1
 550 0002 1840     		and	r0, r3
 551              	.LVL35:
 552 0004 014B     		ldr	r3, .L46
 553 0006 1860     		str	r0, [r3]
 641:Generated_Source\PSoC4/ADC.c **** }
 554              		.loc 1 641 0
 555              		@ sp needed
 556 0008 7047     		bx	lr
 557              	.L47:
 558 000a C046     		.align	2
 559              	.L46:
 560 000c 38021A40 		.word	1075446328
 561              		.cfi_endproc
 562              	.LFE11:
 563              		.size	ADC_SetLimitMask, .-ADC_SetLimitMask
 564              		.section	.text.ADC_SetSatMask,"ax",%progbits
 565              		.align	2
 566              		.global	ADC_SetSatMask
 567              		.code	16
 568              		.thumb_func
 569              		.type	ADC_SetSatMask, %function
 570              	ADC_SetSatMask:
 571              	.LFB12:
 642:Generated_Source\PSoC4/ADC.c **** 
 643:Generated_Source\PSoC4/ADC.c **** 
 644:Generated_Source\PSoC4/ADC.c **** /*******************************************************************************
 645:Generated_Source\PSoC4/ADC.c **** * Function Name: ADC_SetSatMask
 646:Generated_Source\PSoC4/ADC.c **** ********************************************************************************
 647:Generated_Source\PSoC4/ADC.c **** *
 648:Generated_Source\PSoC4/ADC.c **** * Summary:
 649:Generated_Source\PSoC4/ADC.c **** *  Sets the channel saturation event mask.
 650:Generated_Source\PSoC4/ADC.c **** *
 651:Generated_Source\PSoC4/ADC.c **** * Parameters:
 652:Generated_Source\PSoC4/ADC.c **** *  mask: Sets which channels that may cause a
 653:Generated_Source\PSoC4/ADC.c **** *  saturation event interrupt. Setting bits for channels that do not exist
 654:Generated_Source\PSoC4/ADC.c **** *  will have no effect. For example, if only 8 channels were enabled,
 655:Generated_Source\PSoC4/ADC.c **** *  setting a mask of 0x01C0 would only enable two channels (6 and 7).
 656:Generated_Source\PSoC4/ADC.c **** *
 657:Generated_Source\PSoC4/ADC.c **** * Return:
 658:Generated_Source\PSoC4/ADC.c **** *  None.
 659:Generated_Source\PSoC4/ADC.c **** *
 660:Generated_Source\PSoC4/ADC.c **** *******************************************************************************/
 661:Generated_Source\PSoC4/ADC.c **** void ADC_SetSatMask(uint32 mask)
 662:Generated_Source\PSoC4/ADC.c **** {
 572              		.loc 1 662 0
 573              		.cfi_startproc
 574              	.LVL36:
 663:Generated_Source\PSoC4/ADC.c ****     ADC_SAR_SATURATE_INTR_MASK_REG = mask & ADC_MAX_CHANNELS_EN_MASK;
 575              		.loc 1 663 0
 576 0000 0123     		mov	r3, #1
 577 0002 1840     		and	r0, r3
 578              	.LVL37:
 579 0004 014B     		ldr	r3, .L49
 580 0006 1860     		str	r0, [r3]
ARM GAS  C:\Users\g\AppData\Local\Temp\ccc53fmt.s 			page 23


 664:Generated_Source\PSoC4/ADC.c **** }
 581              		.loc 1 664 0
 582              		@ sp needed
 583 0008 7047     		bx	lr
 584              	.L50:
 585 000a C046     		.align	2
 586              	.L49:
 587 000c 28021A40 		.word	1075446312
 588              		.cfi_endproc
 589              	.LFE12:
 590              		.size	ADC_SetSatMask, .-ADC_SetSatMask
 591              		.section	.text.ADC_SetOffset,"ax",%progbits
 592              		.align	2
 593              		.global	ADC_SetOffset
 594              		.code	16
 595              		.thumb_func
 596              		.type	ADC_SetOffset, %function
 597              	ADC_SetOffset:
 598              	.LFB13:
 665:Generated_Source\PSoC4/ADC.c **** 
 666:Generated_Source\PSoC4/ADC.c **** 
 667:Generated_Source\PSoC4/ADC.c **** /*******************************************************************************
 668:Generated_Source\PSoC4/ADC.c **** * Function Name: ADC_SetOffset
 669:Generated_Source\PSoC4/ADC.c **** ********************************************************************************
 670:Generated_Source\PSoC4/ADC.c **** *
 671:Generated_Source\PSoC4/ADC.c **** * Summary:
 672:Generated_Source\PSoC4/ADC.c **** *   Description: Sets the ADC offset which is used by the functions
 673:Generated_Source\PSoC4/ADC.c **** *   ADC_CountsTo_uVolts, ADC_CountsTo_mVolts and ADC_CountsTo_Volts
 674:Generated_Source\PSoC4/ADC.c **** *   to substract the offset from the given reading
 675:Generated_Source\PSoC4/ADC.c **** *   before calculating the voltage conversion.
 676:Generated_Source\PSoC4/ADC.c **** *
 677:Generated_Source\PSoC4/ADC.c **** * Parameters:
 678:Generated_Source\PSoC4/ADC.c **** *  chan: ADC channel number.
 679:Generated_Source\PSoC4/ADC.c **** *  offset: This value is a measured value when the
 680:Generated_Source\PSoC4/ADC.c **** *          inputs are shorted or connected to the same input voltage.
 681:Generated_Source\PSoC4/ADC.c **** *
 682:Generated_Source\PSoC4/ADC.c **** * Return:
 683:Generated_Source\PSoC4/ADC.c **** *  None.
 684:Generated_Source\PSoC4/ADC.c **** *
 685:Generated_Source\PSoC4/ADC.c **** * Global variables:
 686:Generated_Source\PSoC4/ADC.c **** *  ADC_Offset:  Modified to set the user provided offset.
 687:Generated_Source\PSoC4/ADC.c **** *
 688:Generated_Source\PSoC4/ADC.c **** *******************************************************************************/
 689:Generated_Source\PSoC4/ADC.c **** void ADC_SetOffset(uint32 chan, int16 offset)
 690:Generated_Source\PSoC4/ADC.c **** {
 599              		.loc 1 690 0
 600              		.cfi_startproc
 601              	.LVL38:
 602 0000 38B5     		push	{r3, r4, r5, lr}
 603              		.cfi_def_cfa_offset 16
 604              		.cfi_offset 3, -16
 605              		.cfi_offset 4, -12
 606              		.cfi_offset 5, -8
 607              		.cfi_offset 14, -4
 608 0002 041C     		mov	r4, r0
 609 0004 0D1C     		mov	r5, r1
 691:Generated_Source\PSoC4/ADC.c ****     /* Halt CPU in debug mode if channel is out of valid range */
ARM GAS  C:\Users\g\AppData\Local\Temp\ccc53fmt.s 			page 24


 692:Generated_Source\PSoC4/ADC.c ****     CYASSERT(chan < ADC_TOTAL_CHANNELS_NUM);
 610              		.loc 1 692 0
 611 0006 0028     		cmp	r0, #0
 612 0008 02D0     		beq	.L52
 613              		.loc 1 692 0 is_stmt 0 discriminator 1
 614 000a 0020     		mov	r0, #0
 615              	.LVL39:
 616 000c FFF7FEFF 		bl	CyHalt
 617              	.LVL40:
 618              	.L52:
 693:Generated_Source\PSoC4/ADC.c **** 
 694:Generated_Source\PSoC4/ADC.c ****     ADC_offset[chan] = offset;
 619              		.loc 1 694 0 is_stmt 1
 620 0010 6400     		lsl	r4, r4, #1
 621              	.LVL41:
 622 0012 014B     		ldr	r3, .L53
 623 0014 E552     		strh	r5, [r4, r3]
 695:Generated_Source\PSoC4/ADC.c **** }
 624              		.loc 1 695 0
 625              		@ sp needed
 626 0016 38BD     		pop	{r3, r4, r5, pc}
 627              	.L54:
 628              		.align	2
 629              	.L53:
 630 0018 00000000 		.word	ADC_offset
 631              		.cfi_endproc
 632              	.LFE13:
 633              		.size	ADC_SetOffset, .-ADC_SetOffset
 634              		.section	.text.ADC_SetGain,"ax",%progbits
 635              		.align	2
 636              		.global	ADC_SetGain
 637              		.code	16
 638              		.thumb_func
 639              		.type	ADC_SetGain, %function
 640              	ADC_SetGain:
 641              	.LFB14:
 696:Generated_Source\PSoC4/ADC.c **** 
 697:Generated_Source\PSoC4/ADC.c **** 
 698:Generated_Source\PSoC4/ADC.c **** /*******************************************************************************
 699:Generated_Source\PSoC4/ADC.c **** * Function Name: ADC_SetGain
 700:Generated_Source\PSoC4/ADC.c **** ********************************************************************************
 701:Generated_Source\PSoC4/ADC.c **** *
 702:Generated_Source\PSoC4/ADC.c **** * Summary:
 703:Generated_Source\PSoC4/ADC.c **** *  Description: Sets the ADC gain in counts per 10 volt for the voltage
 704:Generated_Source\PSoC4/ADC.c **** *  conversion functions below. This value is set by default by the
 705:Generated_Source\PSoC4/ADC.c **** *  reference and input range settings. It should only be used to further
 706:Generated_Source\PSoC4/ADC.c **** *  calibrate the ADC with a known input or if an external reference is
 707:Generated_Source\PSoC4/ADC.c **** *  used. Affects the ADC_CountsTo_uVolts, ADC_CountsTo_mVolts
 708:Generated_Source\PSoC4/ADC.c **** *  and ADC_CountsTo_Volts functions by supplying the correct
 709:Generated_Source\PSoC4/ADC.c **** *  conversion between ADC counts and voltage.
 710:Generated_Source\PSoC4/ADC.c **** *
 711:Generated_Source\PSoC4/ADC.c **** * Parameters:
 712:Generated_Source\PSoC4/ADC.c **** *  chan: ADC channel number.
 713:Generated_Source\PSoC4/ADC.c **** *  adcGain: ADC gain in counts per 10 volts.
 714:Generated_Source\PSoC4/ADC.c **** *
 715:Generated_Source\PSoC4/ADC.c **** * Return:
 716:Generated_Source\PSoC4/ADC.c **** *  None.
ARM GAS  C:\Users\g\AppData\Local\Temp\ccc53fmt.s 			page 25


 717:Generated_Source\PSoC4/ADC.c **** *
 718:Generated_Source\PSoC4/ADC.c **** * Global variables:
 719:Generated_Source\PSoC4/ADC.c **** *  ADC_CountsPer10Volt:  modified to set the ADC gain in counts
 720:Generated_Source\PSoC4/ADC.c **** *   per 10 volt.
 721:Generated_Source\PSoC4/ADC.c **** *
 722:Generated_Source\PSoC4/ADC.c **** *******************************************************************************/
 723:Generated_Source\PSoC4/ADC.c **** void ADC_SetGain(uint32 chan, int32 adcGain)
 724:Generated_Source\PSoC4/ADC.c **** {
 642              		.loc 1 724 0
 643              		.cfi_startproc
 644              	.LVL42:
 645 0000 38B5     		push	{r3, r4, r5, lr}
 646              		.cfi_def_cfa_offset 16
 647              		.cfi_offset 3, -16
 648              		.cfi_offset 4, -12
 649              		.cfi_offset 5, -8
 650              		.cfi_offset 14, -4
 651 0002 041C     		mov	r4, r0
 652 0004 0D1C     		mov	r5, r1
 725:Generated_Source\PSoC4/ADC.c ****     /* Halt CPU in debug mode if channel is out of valid range */
 726:Generated_Source\PSoC4/ADC.c ****     CYASSERT(chan < ADC_TOTAL_CHANNELS_NUM);
 653              		.loc 1 726 0
 654 0006 0028     		cmp	r0, #0
 655 0008 02D0     		beq	.L56
 656              		.loc 1 726 0 is_stmt 0 discriminator 1
 657 000a 0020     		mov	r0, #0
 658              	.LVL43:
 659 000c FFF7FEFF 		bl	CyHalt
 660              	.LVL44:
 661              	.L56:
 727:Generated_Source\PSoC4/ADC.c **** 
 728:Generated_Source\PSoC4/ADC.c ****     ADC_countsPer10Volt[chan] = adcGain;
 662              		.loc 1 728 0 is_stmt 1
 663 0010 A400     		lsl	r4, r4, #2
 664              	.LVL45:
 665 0012 014B     		ldr	r3, .L57
 666 0014 E550     		str	r5, [r4, r3]
 729:Generated_Source\PSoC4/ADC.c **** }
 667              		.loc 1 729 0
 668              		@ sp needed
 669              	.LVL46:
 670 0016 38BD     		pop	{r3, r4, r5, pc}
 671              	.L58:
 672              		.align	2
 673              	.L57:
 674 0018 00000000 		.word	ADC_countsPer10Volt
 675              		.cfi_endproc
 676              	.LFE14:
 677              		.size	ADC_SetGain, .-ADC_SetGain
 678              		.global	__aeabi_idiv
 679              		.section	.text.ADC_CountsTo_mVolts,"ax",%progbits
 680              		.align	2
 681              		.global	ADC_CountsTo_mVolts
 682              		.code	16
 683              		.thumb_func
 684              		.type	ADC_CountsTo_mVolts, %function
 685              	ADC_CountsTo_mVolts:
ARM GAS  C:\Users\g\AppData\Local\Temp\ccc53fmt.s 			page 26


 686              	.LFB15:
 730:Generated_Source\PSoC4/ADC.c **** 
 731:Generated_Source\PSoC4/ADC.c **** 
 732:Generated_Source\PSoC4/ADC.c **** #if(ADC_DEFAULT_JUSTIFICATION_SEL == ADC__RIGHT)
 733:Generated_Source\PSoC4/ADC.c **** 
 734:Generated_Source\PSoC4/ADC.c **** 
 735:Generated_Source\PSoC4/ADC.c ****     /*******************************************************************************
 736:Generated_Source\PSoC4/ADC.c ****     * Function Name: ADC_CountsTo_mVolts
 737:Generated_Source\PSoC4/ADC.c ****     ********************************************************************************
 738:Generated_Source\PSoC4/ADC.c ****     *
 739:Generated_Source\PSoC4/ADC.c ****     * Summary:
 740:Generated_Source\PSoC4/ADC.c ****     *  This function converts ADC counts to mVolts
 741:Generated_Source\PSoC4/ADC.c ****     *  This function is not available when left data format justification selected.
 742:Generated_Source\PSoC4/ADC.c ****     *
 743:Generated_Source\PSoC4/ADC.c ****     * Parameters:
 744:Generated_Source\PSoC4/ADC.c ****     *  chan: The ADC channel number.
 745:Generated_Source\PSoC4/ADC.c ****     *  adcCounts: Result from the ADC conversion
 746:Generated_Source\PSoC4/ADC.c ****     *
 747:Generated_Source\PSoC4/ADC.c ****     * Return:
 748:Generated_Source\PSoC4/ADC.c ****     *  Results in mVolts
 749:Generated_Source\PSoC4/ADC.c ****     *
 750:Generated_Source\PSoC4/ADC.c ****     * Global variables:
 751:Generated_Source\PSoC4/ADC.c ****     *  ADC_countsPer10Volt:  used to convert ADC counts to mVolts.
 752:Generated_Source\PSoC4/ADC.c ****     *  ADC_Offset:  Used as the offset while converting ADC counts
 753:Generated_Source\PSoC4/ADC.c ****     *   to mVolts.
 754:Generated_Source\PSoC4/ADC.c ****     *
 755:Generated_Source\PSoC4/ADC.c ****     *******************************************************************************/
 756:Generated_Source\PSoC4/ADC.c ****     int16 ADC_CountsTo_mVolts(uint32 chan, int16 adcCounts)
 757:Generated_Source\PSoC4/ADC.c ****     {
 687              		.loc 1 757 0
 688              		.cfi_startproc
 689              	.LVL47:
 690 0000 38B5     		push	{r3, r4, r5, lr}
 691              		.cfi_def_cfa_offset 16
 692              		.cfi_offset 3, -16
 693              		.cfi_offset 4, -12
 694              		.cfi_offset 5, -8
 695              		.cfi_offset 14, -4
 696 0002 041C     		mov	r4, r0
 697 0004 0D1C     		mov	r5, r1
 758:Generated_Source\PSoC4/ADC.c ****         int16 mVolts;
 759:Generated_Source\PSoC4/ADC.c **** 
 760:Generated_Source\PSoC4/ADC.c ****         /* Halt CPU in debug mode if channel is out of valid range */
 761:Generated_Source\PSoC4/ADC.c ****         CYASSERT(chan < ADC_TOTAL_CHANNELS_NUM);
 698              		.loc 1 761 0
 699 0006 0028     		cmp	r0, #0
 700 0008 02D0     		beq	.L60
 701              		.loc 1 761 0 is_stmt 0 discriminator 1
 702 000a 0020     		mov	r0, #0
 703              	.LVL48:
 704 000c FFF7FEFF 		bl	CyHalt
 705              	.LVL49:
 706              	.L60:
 762:Generated_Source\PSoC4/ADC.c **** 
 763:Generated_Source\PSoC4/ADC.c ****         /* Divide the adcCount when accumulate averaging mode selected */
 764:Generated_Source\PSoC4/ADC.c ****         #if(ADC_DEFAULT_AVG_MODE == ADC__ACCUMULATE)
 765:Generated_Source\PSoC4/ADC.c ****             if((ADC_channelsConfig[chan] & ADC_AVERAGING_EN) != 0u)
ARM GAS  C:\Users\g\AppData\Local\Temp\ccc53fmt.s 			page 27


 766:Generated_Source\PSoC4/ADC.c ****             {
 767:Generated_Source\PSoC4/ADC.c ****                 adcCounts /= ADC_DEFAULT_AVG_SAMPLES_DIV;
 768:Generated_Source\PSoC4/ADC.c ****             }
 769:Generated_Source\PSoC4/ADC.c ****         #endif /* ADC_DEFAULT_AVG_MODE == ADC__ACCUMULATE */
 770:Generated_Source\PSoC4/ADC.c **** 
 771:Generated_Source\PSoC4/ADC.c ****         /* Subtract ADC offset */
 772:Generated_Source\PSoC4/ADC.c ****         adcCounts -= ADC_offset[chan];
 707              		.loc 1 772 0 is_stmt 1
 708 0010 6300     		lsl	r3, r4, #1
 709 0012 0F4A     		ldr	r2, .L63
 710 0014 995A     		ldrh	r1, [r3, r2]
 711 0016 691A     		sub	r1, r5, r1
 712 0018 09B2     		sxth	r1, r1
 713              	.LVL50:
 773:Generated_Source\PSoC4/ADC.c **** 
 774:Generated_Source\PSoC4/ADC.c ****         mVolts = (int16)((((int32)adcCounts * ADC_10MV_COUNTS) + ( (adcCounts > 0) ?
 714              		.loc 1 774 0
 715 001a 0E48     		ldr	r0, .L63+4
 716 001c 021C     		mov	r2, r0
 717 001e 4A43     		mul	r2, r1
 775:Generated_Source\PSoC4/ADC.c ****                  (ADC_countsPer10Volt[chan] / 2) : (-(ADC_countsPer10Volt[chan] / 2)) ))
 718              		.loc 1 775 0
 719 0020 0029     		cmp	r1, #0
 720 0022 06DD     		ble	.L61
 721              		.loc 1 775 0 is_stmt 0 discriminator 1
 722 0024 A300     		lsl	r3, r4, #2
 723 0026 0C49     		ldr	r1, .L63+8
 724              	.LVL51:
 725 0028 5B58     		ldr	r3, [r3, r1]
 726 002a D80F     		lsr	r0, r3, #31
 727 002c C018     		add	r0, r0, r3
 728 002e 4310     		asr	r3, r0, #1
 729 0030 06E0     		b	.L62
 730              	.LVL52:
 731              	.L61:
 732              		.loc 1 775 0 discriminator 2
 733 0032 A300     		lsl	r3, r4, #2
 734 0034 0849     		ldr	r1, .L63+8
 735              	.LVL53:
 736 0036 5B58     		ldr	r3, [r3, r1]
 737 0038 D80F     		lsr	r0, r3, #31
 738 003a C318     		add	r3, r0, r3
 739 003c 5B10     		asr	r3, r3, #1
 740 003e 5B42     		neg	r3, r3
 741              	.L62:
 774:Generated_Source\PSoC4/ADC.c ****                  (ADC_countsPer10Volt[chan] / 2) : (-(ADC_countsPer10Volt[chan] / 2)) ))
 742              		.loc 1 774 0 is_stmt 1
 743 0040 D018     		add	r0, r2, r3
 776:Generated_Source\PSoC4/ADC.c ****                  / ADC_countsPer10Volt[chan]);
 744              		.loc 1 776 0
 745 0042 A400     		lsl	r4, r4, #2
 746              	.LVL54:
 747 0044 044B     		ldr	r3, .L63+8
 748 0046 E158     		ldr	r1, [r4, r3]
 749 0048 FFF7FEFF 		bl	__aeabi_idiv
 750              	.LVL55:
 777:Generated_Source\PSoC4/ADC.c **** 
ARM GAS  C:\Users\g\AppData\Local\Temp\ccc53fmt.s 			page 28


 778:Generated_Source\PSoC4/ADC.c ****         return( mVolts );
 751              		.loc 1 778 0
 752 004c 00B2     		sxth	r0, r0
 779:Generated_Source\PSoC4/ADC.c ****     }
 753              		.loc 1 779 0
 754              		@ sp needed
 755 004e 38BD     		pop	{r3, r4, r5, pc}
 756              	.L64:
 757              		.align	2
 758              	.L63:
 759 0050 00000000 		.word	ADC_offset
 760 0054 10270000 		.word	10000
 761 0058 00000000 		.word	ADC_countsPer10Volt
 762              		.cfi_endproc
 763              	.LFE15:
 764              		.size	ADC_CountsTo_mVolts, .-ADC_CountsTo_mVolts
 765              		.global	__aeabi_lmul
 766              		.global	__aeabi_ldivmod
 767              		.section	.text.ADC_CountsTo_uVolts,"ax",%progbits
 768              		.align	2
 769              		.global	ADC_CountsTo_uVolts
 770              		.code	16
 771              		.thumb_func
 772              		.type	ADC_CountsTo_uVolts, %function
 773              	ADC_CountsTo_uVolts:
 774              	.LFB16:
 780:Generated_Source\PSoC4/ADC.c **** 
 781:Generated_Source\PSoC4/ADC.c **** 
 782:Generated_Source\PSoC4/ADC.c ****     /*******************************************************************************
 783:Generated_Source\PSoC4/ADC.c ****     * Function Name: ADC_CountsTo_uVolts
 784:Generated_Source\PSoC4/ADC.c ****     ********************************************************************************
 785:Generated_Source\PSoC4/ADC.c ****     *
 786:Generated_Source\PSoC4/ADC.c ****     * Summary:
 787:Generated_Source\PSoC4/ADC.c ****     *  This function converts ADC counts to micro Volts
 788:Generated_Source\PSoC4/ADC.c ****     *  This function is not available when left data format justification selected.
 789:Generated_Source\PSoC4/ADC.c ****     *
 790:Generated_Source\PSoC4/ADC.c ****     * Parameters:
 791:Generated_Source\PSoC4/ADC.c ****     *  chan: The ADC channel number.
 792:Generated_Source\PSoC4/ADC.c ****     *  adcCounts: Result from the ADC conversion
 793:Generated_Source\PSoC4/ADC.c ****     *
 794:Generated_Source\PSoC4/ADC.c ****     * Return:
 795:Generated_Source\PSoC4/ADC.c ****     *  Results in uVolts
 796:Generated_Source\PSoC4/ADC.c ****     *
 797:Generated_Source\PSoC4/ADC.c ****     * Global variables:
 798:Generated_Source\PSoC4/ADC.c ****     *  ADC_countsPer10Volt:  used to convert ADC counts to uVolts.
 799:Generated_Source\PSoC4/ADC.c ****     *  ADC_Offset:  Used as the offset while converting ADC counts
 800:Generated_Source\PSoC4/ADC.c ****     *   to mVolts.
 801:Generated_Source\PSoC4/ADC.c ****     *
 802:Generated_Source\PSoC4/ADC.c ****     * Theory:
 803:Generated_Source\PSoC4/ADC.c ****     *  Care must be taken to not exceed the maximum value for a 31 bit signed
 804:Generated_Source\PSoC4/ADC.c ****     *  number in the conversion to uVolts and at the same time not loose
 805:Generated_Source\PSoC4/ADC.c ****     *  resolution.
 806:Generated_Source\PSoC4/ADC.c ****     *  To convert adcCounts to microVolts it is required to be multiplied
 807:Generated_Source\PSoC4/ADC.c ****     *  on 10 million and later divide on gain in counts per 10V.
 808:Generated_Source\PSoC4/ADC.c ****     *
 809:Generated_Source\PSoC4/ADC.c ****     *******************************************************************************/
 810:Generated_Source\PSoC4/ADC.c ****     int32 ADC_CountsTo_uVolts(uint32 chan, int16 adcCounts)
ARM GAS  C:\Users\g\AppData\Local\Temp\ccc53fmt.s 			page 29


 811:Generated_Source\PSoC4/ADC.c ****     {
 775              		.loc 1 811 0
 776              		.cfi_startproc
 777              	.LVL56:
 778 0000 38B5     		push	{r3, r4, r5, lr}
 779              		.cfi_def_cfa_offset 16
 780              		.cfi_offset 3, -16
 781              		.cfi_offset 4, -12
 782              		.cfi_offset 5, -8
 783              		.cfi_offset 14, -4
 784 0002 051C     		mov	r5, r0
 785 0004 0C1C     		mov	r4, r1
 812:Generated_Source\PSoC4/ADC.c ****         int64 uVolts;
 813:Generated_Source\PSoC4/ADC.c **** 
 814:Generated_Source\PSoC4/ADC.c ****         /* Halt CPU in debug mode if channel is out of valid range */
 815:Generated_Source\PSoC4/ADC.c ****         CYASSERT(chan < ADC_TOTAL_CHANNELS_NUM);
 786              		.loc 1 815 0
 787 0006 0028     		cmp	r0, #0
 788 0008 02D0     		beq	.L66
 789              		.loc 1 815 0 is_stmt 0 discriminator 1
 790 000a 0020     		mov	r0, #0
 791              	.LVL57:
 792 000c FFF7FEFF 		bl	CyHalt
 793              	.LVL58:
 794              	.L66:
 816:Generated_Source\PSoC4/ADC.c **** 
 817:Generated_Source\PSoC4/ADC.c ****         /* Divide the adcCount when accumulate averaging mode selected */
 818:Generated_Source\PSoC4/ADC.c ****         #if(ADC_DEFAULT_AVG_MODE == ADC__ACCUMULATE)
 819:Generated_Source\PSoC4/ADC.c ****             if((ADC_channelsConfig[chan] & ADC_AVERAGING_EN) != 0u)
 820:Generated_Source\PSoC4/ADC.c ****             {
 821:Generated_Source\PSoC4/ADC.c ****                 adcCounts /= ADC_DEFAULT_AVG_SAMPLES_DIV;
 822:Generated_Source\PSoC4/ADC.c ****             }
 823:Generated_Source\PSoC4/ADC.c ****         #endif /* ADC_DEFAULT_AVG_MODE == ADC__ACCUMULATE */
 824:Generated_Source\PSoC4/ADC.c **** 
 825:Generated_Source\PSoC4/ADC.c ****         /* Subtract ADC offset */
 826:Generated_Source\PSoC4/ADC.c ****         adcCounts -= ADC_offset[chan];
 795              		.loc 1 826 0 is_stmt 1
 796 0010 6A00     		lsl	r2, r5, #1
 797 0012 084B     		ldr	r3, .L67
 798 0014 D05A     		ldrh	r0, [r2, r3]
 799 0016 201A     		sub	r0, r4, r0
 800 0018 00B2     		sxth	r0, r0
 801              	.LVL59:
 827:Generated_Source\PSoC4/ADC.c **** 
 828:Generated_Source\PSoC4/ADC.c ****         uVolts = ((int64)adcCounts * ADC_10UV_COUNTS) / ADC_countsPer10Volt[chan];
 802              		.loc 1 828 0
 803 001a C117     		asr	r1, r0, #31
 804 001c 064A     		ldr	r2, .L67+4
 805 001e 0023     		mov	r3, #0
 806 0020 FFF7FEFF 		bl	__aeabi_lmul
 807              	.LVL60:
 808 0024 AD00     		lsl	r5, r5, #2
 809              	.LVL61:
 810 0026 054B     		ldr	r3, .L67+8
 811 0028 EA58     		ldr	r2, [r5, r3]
 812 002a D317     		asr	r3, r2, #31
 813 002c FFF7FEFF 		bl	__aeabi_ldivmod
ARM GAS  C:\Users\g\AppData\Local\Temp\ccc53fmt.s 			page 30


 814              	.LVL62:
 829:Generated_Source\PSoC4/ADC.c **** 
 830:Generated_Source\PSoC4/ADC.c ****         return( (int32)uVolts );
 831:Generated_Source\PSoC4/ADC.c ****     }
 815              		.loc 1 831 0
 816              		@ sp needed
 817 0030 38BD     		pop	{r3, r4, r5, pc}
 818              	.L68:
 819 0032 C046     		.align	2
 820              	.L67:
 821 0034 00000000 		.word	ADC_offset
 822 0038 80969800 		.word	10000000
 823 003c 00000000 		.word	ADC_countsPer10Volt
 824              		.cfi_endproc
 825              	.LFE16:
 826              		.size	ADC_CountsTo_uVolts, .-ADC_CountsTo_uVolts
 827              		.global	__aeabi_i2f
 828              		.global	__aeabi_fmul
 829              		.global	__aeabi_fdiv
 830              		.section	.text.ADC_CountsTo_Volts,"ax",%progbits
 831              		.align	2
 832              		.global	ADC_CountsTo_Volts
 833              		.code	16
 834              		.thumb_func
 835              		.type	ADC_CountsTo_Volts, %function
 836              	ADC_CountsTo_Volts:
 837              	.LFB17:
 832:Generated_Source\PSoC4/ADC.c **** 
 833:Generated_Source\PSoC4/ADC.c **** 
 834:Generated_Source\PSoC4/ADC.c ****     /*******************************************************************************
 835:Generated_Source\PSoC4/ADC.c ****     * Function Name: ADC_CountsTo_Volts
 836:Generated_Source\PSoC4/ADC.c ****     ********************************************************************************
 837:Generated_Source\PSoC4/ADC.c ****     *
 838:Generated_Source\PSoC4/ADC.c ****     * Summary:
 839:Generated_Source\PSoC4/ADC.c ****     *  Converts the ADC output to Volts as a floating point number.
 840:Generated_Source\PSoC4/ADC.c ****     *  This function is not available when left data format justification selected.
 841:Generated_Source\PSoC4/ADC.c ****     *
 842:Generated_Source\PSoC4/ADC.c ****     * Parameters:
 843:Generated_Source\PSoC4/ADC.c ****     *  chan: The ADC channel number.
 844:Generated_Source\PSoC4/ADC.c ****     *  Result from the ADC conversion
 845:Generated_Source\PSoC4/ADC.c ****     *
 846:Generated_Source\PSoC4/ADC.c ****     * Return:
 847:Generated_Source\PSoC4/ADC.c ****     *  Results in Volts
 848:Generated_Source\PSoC4/ADC.c ****     *
 849:Generated_Source\PSoC4/ADC.c ****     * Global variables:
 850:Generated_Source\PSoC4/ADC.c ****     *  ADC_countsPer10Volt:  used to convert ADC counts to Volts.
 851:Generated_Source\PSoC4/ADC.c ****     *  ADC_Offset:  Used as the offset while converting ADC counts
 852:Generated_Source\PSoC4/ADC.c ****     *   to mVolts.
 853:Generated_Source\PSoC4/ADC.c ****     *
 854:Generated_Source\PSoC4/ADC.c ****     *******************************************************************************/
 855:Generated_Source\PSoC4/ADC.c ****     float32 ADC_CountsTo_Volts(uint32 chan, int16 adcCounts)
 856:Generated_Source\PSoC4/ADC.c ****     {
 838              		.loc 1 856 0
 839              		.cfi_startproc
 840              	.LVL63:
 841 0000 38B5     		push	{r3, r4, r5, lr}
 842              		.cfi_def_cfa_offset 16
ARM GAS  C:\Users\g\AppData\Local\Temp\ccc53fmt.s 			page 31


 843              		.cfi_offset 3, -16
 844              		.cfi_offset 4, -12
 845              		.cfi_offset 5, -8
 846              		.cfi_offset 14, -4
 847 0002 041C     		mov	r4, r0
 848 0004 0D1C     		mov	r5, r1
 857:Generated_Source\PSoC4/ADC.c ****         float32 volts;
 858:Generated_Source\PSoC4/ADC.c **** 
 859:Generated_Source\PSoC4/ADC.c ****         /* Halt CPU in debug mode if channel is out of valid range */
 860:Generated_Source\PSoC4/ADC.c ****         CYASSERT(chan < ADC_TOTAL_CHANNELS_NUM);
 849              		.loc 1 860 0
 850 0006 0028     		cmp	r0, #0
 851 0008 02D0     		beq	.L70
 852              		.loc 1 860 0 is_stmt 0 discriminator 1
 853 000a 0020     		mov	r0, #0
 854              	.LVL64:
 855 000c FFF7FEFF 		bl	CyHalt
 856              	.LVL65:
 857              	.L70:
 861:Generated_Source\PSoC4/ADC.c **** 
 862:Generated_Source\PSoC4/ADC.c ****         /* Divide the adcCount when accumulate averaging mode selected */
 863:Generated_Source\PSoC4/ADC.c ****         #if(ADC_DEFAULT_AVG_MODE == ADC__ACCUMULATE)
 864:Generated_Source\PSoC4/ADC.c ****             if((ADC_channelsConfig[chan] & ADC_AVERAGING_EN) != 0u)
 865:Generated_Source\PSoC4/ADC.c ****             {
 866:Generated_Source\PSoC4/ADC.c ****                 adcCounts /= ADC_DEFAULT_AVG_SAMPLES_DIV;
 867:Generated_Source\PSoC4/ADC.c ****             }
 868:Generated_Source\PSoC4/ADC.c ****         #endif /* ADC_DEFAULT_AVG_MODE == ADC__ACCUMULATE */
 869:Generated_Source\PSoC4/ADC.c **** 
 870:Generated_Source\PSoC4/ADC.c ****         /* Subtract ADC offset */
 871:Generated_Source\PSoC4/ADC.c ****         adcCounts -= ADC_offset[chan];
 858              		.loc 1 871 0 is_stmt 1
 859 0010 6200     		lsl	r2, r4, #1
 860 0012 0A4B     		ldr	r3, .L71
 861 0014 D05A     		ldrh	r0, [r2, r3]
 862 0016 281A     		sub	r0, r5, r0
 863 0018 00B2     		sxth	r0, r0
 864              	.LVL66:
 872:Generated_Source\PSoC4/ADC.c **** 
 873:Generated_Source\PSoC4/ADC.c ****         volts = ((float32)adcCounts * ADC_10V_COUNTS) / (float32)ADC_countsPer10Volt[chan];
 865              		.loc 1 873 0
 866 001a FFF7FEFF 		bl	__aeabi_i2f
 867              	.LVL67:
 868 001e 0849     		ldr	r1, .L71+4
 869 0020 FFF7FEFF 		bl	__aeabi_fmul
 870              	.LVL68:
 871 0024 051C     		add	r5, r0, #0
 872 0026 A400     		lsl	r4, r4, #2
 873              	.LVL69:
 874 0028 064B     		ldr	r3, .L71+8
 875 002a E058     		ldr	r0, [r4, r3]
 876 002c FFF7FEFF 		bl	__aeabi_i2f
 877              	.LVL70:
 878 0030 011C     		add	r1, r0, #0
 879 0032 281C     		add	r0, r5, #0
 880 0034 FFF7FEFF 		bl	__aeabi_fdiv
 881              	.LVL71:
 874:Generated_Source\PSoC4/ADC.c **** 
ARM GAS  C:\Users\g\AppData\Local\Temp\ccc53fmt.s 			page 32


 875:Generated_Source\PSoC4/ADC.c ****         return( volts );
 876:Generated_Source\PSoC4/ADC.c ****     }
 882              		.loc 1 876 0
 883              		@ sp needed
 884 0038 38BD     		pop	{r3, r4, r5, pc}
 885              	.L72:
 886 003a C046     		.align	2
 887              	.L71:
 888 003c 00000000 		.word	ADC_offset
 889 0040 00002041 		.word	1092616192
 890 0044 00000000 		.word	ADC_countsPer10Volt
 891              		.cfi_endproc
 892              	.LFE17:
 893              		.size	ADC_CountsTo_Volts, .-ADC_CountsTo_Volts
 894              		.comm	ADC_countsPer10Volt,4,4
 895              		.comm	ADC_offset,2,4
 896              		.global	ADC_initVar
 897              		.bss
 898              		.set	.LANCHOR0,. + 0
 899              		.type	ADC_initVar, %object
 900              		.size	ADC_initVar, 1
 901              	ADC_initVar:
 902 0000 00       		.space	1
 903              		.text
 904              	.Letext0:
 905              		.file 2 "Generated_Source\\PSoC4\\cytypes.h"
 906              		.file 3 "Generated_Source\\PSoC4\\CyLib.h"