ARM GAS  C:\Users\g\AppData\Local\Temp\ccgEipDM.s 			page 1


   1              		.cpu cortex-m0
   2              		.fpu softvfp
   3              		.eabi_attribute 20, 1
   4              		.eabi_attribute 21, 1
   5              		.eabi_attribute 23, 3
   6              		.eabi_attribute 24, 1
   7              		.eabi_attribute 25, 1
   8              		.eabi_attribute 26, 1
   9              		.eabi_attribute 30, 1
  10              		.eabi_attribute 34, 0
  11              		.eabi_attribute 18, 4
  12              		.code	16
  13              		.file	"ADC_PM.c"
  14              		.text
  15              	.Ltext0:
  16              		.cfi_sections	.debug_frame
  17              		.section	.text.ADC_SaveConfig,"ax",%progbits
  18              		.align	2
  19              		.global	ADC_SaveConfig
  20              		.code	16
  21              		.thumb_func
  22              		.type	ADC_SaveConfig, %function
  23              	ADC_SaveConfig:
  24              	.LFB0:
  25              		.file 1 "Generated_Source\\PSoC4\\ADC_PM.c"
   1:Generated_Source\PSoC4/ADC_PM.c **** /*******************************************************************************
   2:Generated_Source\PSoC4/ADC_PM.c **** * File Name: ADC_PM.c
   3:Generated_Source\PSoC4/ADC_PM.c **** * Version 2.40
   4:Generated_Source\PSoC4/ADC_PM.c **** *
   5:Generated_Source\PSoC4/ADC_PM.c **** * Description:
   6:Generated_Source\PSoC4/ADC_PM.c **** *  This file provides Sleep/WakeUp APIs functionality.
   7:Generated_Source\PSoC4/ADC_PM.c **** *
   8:Generated_Source\PSoC4/ADC_PM.c **** * Note:
   9:Generated_Source\PSoC4/ADC_PM.c **** *
  10:Generated_Source\PSoC4/ADC_PM.c **** ********************************************************************************
  11:Generated_Source\PSoC4/ADC_PM.c **** * Copyright 2008-2015, Cypress Semiconductor Corporation.  All rights reserved.
  12:Generated_Source\PSoC4/ADC_PM.c **** * You may use this file only in accordance with the license, terms, conditions,
  13:Generated_Source\PSoC4/ADC_PM.c **** * disclaimers, and limitations in the end user license agreement accompanying
  14:Generated_Source\PSoC4/ADC_PM.c **** * the software package with which this file was provided.
  15:Generated_Source\PSoC4/ADC_PM.c **** *******************************************************************************/
  16:Generated_Source\PSoC4/ADC_PM.c **** 
  17:Generated_Source\PSoC4/ADC_PM.c **** #include "ADC.h"
  18:Generated_Source\PSoC4/ADC_PM.c **** 
  19:Generated_Source\PSoC4/ADC_PM.c **** 
  20:Generated_Source\PSoC4/ADC_PM.c **** /***************************************
  21:Generated_Source\PSoC4/ADC_PM.c **** * Local data allocation
  22:Generated_Source\PSoC4/ADC_PM.c **** ***************************************/
  23:Generated_Source\PSoC4/ADC_PM.c **** 
  24:Generated_Source\PSoC4/ADC_PM.c **** static ADC_BACKUP_STRUCT  ADC_backup =
  25:Generated_Source\PSoC4/ADC_PM.c **** {
  26:Generated_Source\PSoC4/ADC_PM.c ****     ADC_DISABLED
  27:Generated_Source\PSoC4/ADC_PM.c **** };
  28:Generated_Source\PSoC4/ADC_PM.c **** 
  29:Generated_Source\PSoC4/ADC_PM.c **** 
  30:Generated_Source\PSoC4/ADC_PM.c **** /*******************************************************************************
  31:Generated_Source\PSoC4/ADC_PM.c **** * Function Name: ADC_SaveConfig
  32:Generated_Source\PSoC4/ADC_PM.c **** ********************************************************************************
ARM GAS  C:\Users\g\AppData\Local\Temp\ccgEipDM.s 			page 2


  33:Generated_Source\PSoC4/ADC_PM.c **** *
  34:Generated_Source\PSoC4/ADC_PM.c **** * Summary:
  35:Generated_Source\PSoC4/ADC_PM.c **** *  Saves the current user configuration.
  36:Generated_Source\PSoC4/ADC_PM.c **** *
  37:Generated_Source\PSoC4/ADC_PM.c **** * Parameters:
  38:Generated_Source\PSoC4/ADC_PM.c **** *  None.
  39:Generated_Source\PSoC4/ADC_PM.c **** *
  40:Generated_Source\PSoC4/ADC_PM.c **** * Return:
  41:Generated_Source\PSoC4/ADC_PM.c **** *  None.
  42:Generated_Source\PSoC4/ADC_PM.c **** *
  43:Generated_Source\PSoC4/ADC_PM.c **** *******************************************************************************/
  44:Generated_Source\PSoC4/ADC_PM.c **** void ADC_SaveConfig(void)
  45:Generated_Source\PSoC4/ADC_PM.c **** {
  26              		.loc 1 45 0
  27              		.cfi_startproc
  46:Generated_Source\PSoC4/ADC_PM.c ****     /* All configuration registers are marked as [reset_all_retention] */
  47:Generated_Source\PSoC4/ADC_PM.c **** }
  28              		.loc 1 47 0
  29              		@ sp needed
  30 0000 7047     		bx	lr
  31              		.cfi_endproc
  32              	.LFE0:
  33              		.size	ADC_SaveConfig, .-ADC_SaveConfig
  34 0002 C046     		.section	.text.ADC_RestoreConfig,"ax",%progbits
  35              		.align	2
  36              		.global	ADC_RestoreConfig
  37              		.code	16
  38              		.thumb_func
  39              		.type	ADC_RestoreConfig, %function
  40              	ADC_RestoreConfig:
  41              	.LFB1:
  48:Generated_Source\PSoC4/ADC_PM.c **** 
  49:Generated_Source\PSoC4/ADC_PM.c **** 
  50:Generated_Source\PSoC4/ADC_PM.c **** /*******************************************************************************
  51:Generated_Source\PSoC4/ADC_PM.c **** * Function Name: ADC_RestoreConfig
  52:Generated_Source\PSoC4/ADC_PM.c **** ********************************************************************************
  53:Generated_Source\PSoC4/ADC_PM.c **** *
  54:Generated_Source\PSoC4/ADC_PM.c **** * Summary:
  55:Generated_Source\PSoC4/ADC_PM.c **** *  Restores the current user configuration.
  56:Generated_Source\PSoC4/ADC_PM.c **** *
  57:Generated_Source\PSoC4/ADC_PM.c **** * Parameters:
  58:Generated_Source\PSoC4/ADC_PM.c **** *  None.
  59:Generated_Source\PSoC4/ADC_PM.c **** *
  60:Generated_Source\PSoC4/ADC_PM.c **** * Return:
  61:Generated_Source\PSoC4/ADC_PM.c **** *  None.
  62:Generated_Source\PSoC4/ADC_PM.c **** *
  63:Generated_Source\PSoC4/ADC_PM.c **** *******************************************************************************/
  64:Generated_Source\PSoC4/ADC_PM.c **** void ADC_RestoreConfig(void)
  65:Generated_Source\PSoC4/ADC_PM.c **** {
  42              		.loc 1 65 0
  43              		.cfi_startproc
  66:Generated_Source\PSoC4/ADC_PM.c ****     /* All congiguration registers are marked as [reset_all_retention] */
  67:Generated_Source\PSoC4/ADC_PM.c **** }
  44              		.loc 1 67 0
  45              		@ sp needed
  46 0000 7047     		bx	lr
  47              		.cfi_endproc
ARM GAS  C:\Users\g\AppData\Local\Temp\ccgEipDM.s 			page 3


  48              	.LFE1:
  49              		.size	ADC_RestoreConfig, .-ADC_RestoreConfig
  50 0002 C046     		.section	.text.ADC_Sleep,"ax",%progbits
  51              		.align	2
  52              		.global	ADC_Sleep
  53              		.code	16
  54              		.thumb_func
  55              		.type	ADC_Sleep, %function
  56              	ADC_Sleep:
  57              	.LFB2:
  68:Generated_Source\PSoC4/ADC_PM.c **** 
  69:Generated_Source\PSoC4/ADC_PM.c **** 
  70:Generated_Source\PSoC4/ADC_PM.c **** /*******************************************************************************
  71:Generated_Source\PSoC4/ADC_PM.c **** * Function Name: ADC_Sleep
  72:Generated_Source\PSoC4/ADC_PM.c **** ********************************************************************************
  73:Generated_Source\PSoC4/ADC_PM.c **** *
  74:Generated_Source\PSoC4/ADC_PM.c **** * Summary:
  75:Generated_Source\PSoC4/ADC_PM.c **** *  Stops the ADC operation and saves the configuration registers and component
  76:Generated_Source\PSoC4/ADC_PM.c **** *  enable state. Should be called just prior to entering sleep.
  77:Generated_Source\PSoC4/ADC_PM.c **** *
  78:Generated_Source\PSoC4/ADC_PM.c **** * Parameters:
  79:Generated_Source\PSoC4/ADC_PM.c **** *  None.
  80:Generated_Source\PSoC4/ADC_PM.c **** *
  81:Generated_Source\PSoC4/ADC_PM.c **** * Return:
  82:Generated_Source\PSoC4/ADC_PM.c **** *  None.
  83:Generated_Source\PSoC4/ADC_PM.c **** *
  84:Generated_Source\PSoC4/ADC_PM.c **** * Global Variables:
  85:Generated_Source\PSoC4/ADC_PM.c **** *  ADC_backup - modified.
  86:Generated_Source\PSoC4/ADC_PM.c **** *
  87:Generated_Source\PSoC4/ADC_PM.c **** *******************************************************************************/
  88:Generated_Source\PSoC4/ADC_PM.c **** void ADC_Sleep(void)
  89:Generated_Source\PSoC4/ADC_PM.c **** {
  58              		.loc 1 89 0
  59              		.cfi_startproc
  60 0000 08B5     		push	{r3, lr}
  61              		.cfi_def_cfa_offset 8
  62              		.cfi_offset 3, -8
  63              		.cfi_offset 14, -4
  90:Generated_Source\PSoC4/ADC_PM.c ****     /* During deepsleep/ hibernate mode keep SARMUX active, i.e. do not open
  91:Generated_Source\PSoC4/ADC_PM.c ****     *   all switches (disconnect), to be used for ADFT
  92:Generated_Source\PSoC4/ADC_PM.c ****     */
  93:Generated_Source\PSoC4/ADC_PM.c ****     ADC_SAR_DFT_CTRL_REG |= ADC_ADFT_OVERRIDE;
  64              		.loc 1 93 0
  65 0002 164A     		ldr	r2, .L8
  66 0004 1368     		ldr	r3, [r2]
  67 0006 8021     		mov	r1, #128
  68 0008 0906     		lsl	r1, r1, #24
  69 000a 0B43     		orr	r3, r1
  70 000c 1360     		str	r3, [r2]
  94:Generated_Source\PSoC4/ADC_PM.c ****     if((ADC_SAR_CTRL_REG  & ADC_ENABLE) != 0u)
  71              		.loc 1 94 0
  72 000e 144B     		ldr	r3, .L8+4
  73 0010 1B68     		ldr	r3, [r3]
  74 0012 002B     		cmp	r3, #0
  75 0014 1DDA     		bge	.L4
  95:Generated_Source\PSoC4/ADC_PM.c ****     {
  96:Generated_Source\PSoC4/ADC_PM.c ****         if((ADC_SAR_SAMPLE_CTRL_REG & ADC_CONTINUOUS_EN) != 0u)
ARM GAS  C:\Users\g\AppData\Local\Temp\ccgEipDM.s 			page 4


  76              		.loc 1 96 0
  77 0016 134B     		ldr	r3, .L8+8
  78 0018 1B68     		ldr	r3, [r3]
  79 001a DB03     		lsl	r3, r3, #15
  80 001c 03D5     		bpl	.L5
  97:Generated_Source\PSoC4/ADC_PM.c ****         {
  98:Generated_Source\PSoC4/ADC_PM.c ****             ADC_backup.enableState = ADC_ENABLED | ADC_STARTED;
  81              		.loc 1 98 0
  82 001e 0322     		mov	r2, #3
  83 0020 114B     		ldr	r3, .L8+12
  84 0022 1A70     		strb	r2, [r3]
  85 0024 02E0     		b	.L6
  86              	.L5:
  99:Generated_Source\PSoC4/ADC_PM.c ****         }
 100:Generated_Source\PSoC4/ADC_PM.c ****         else
 101:Generated_Source\PSoC4/ADC_PM.c ****         {
 102:Generated_Source\PSoC4/ADC_PM.c ****             ADC_backup.enableState = ADC_ENABLED;
  87              		.loc 1 102 0
  88 0026 0122     		mov	r2, #1
  89 0028 0F4B     		ldr	r3, .L8+12
  90 002a 1A70     		strb	r2, [r3]
  91              	.L6:
 103:Generated_Source\PSoC4/ADC_PM.c ****         }
 104:Generated_Source\PSoC4/ADC_PM.c ****         ADC_StopConvert();
  92              		.loc 1 104 0
  93 002c FFF7FEFF 		bl	ADC_StopConvert
  94              	.LVL0:
 105:Generated_Source\PSoC4/ADC_PM.c ****         ADC_Stop();
  95              		.loc 1 105 0
  96 0030 FFF7FEFF 		bl	ADC_Stop
  97              	.LVL1:
 106:Generated_Source\PSoC4/ADC_PM.c ****         
 107:Generated_Source\PSoC4/ADC_PM.c ****         /* Disable the SAR internal pump before entering the chip low power mode */
 108:Generated_Source\PSoC4/ADC_PM.c ****         if((ADC_SAR_CTRL_REG & ADC_BOOSTPUMP_EN) != 0u)
  98              		.loc 1 108 0
  99 0034 0A4B     		ldr	r3, .L8+4
 100 0036 1B68     		ldr	r3, [r3]
 101 0038 DB02     		lsl	r3, r3, #11
 102 003a 0DD5     		bpl	.L3
 109:Generated_Source\PSoC4/ADC_PM.c ****         {
 110:Generated_Source\PSoC4/ADC_PM.c ****             ADC_SAR_CTRL_REG &= (uint32)~ADC_BOOSTPUMP_EN;
 103              		.loc 1 110 0
 104 003c 084A     		ldr	r2, .L8+4
 105 003e 1168     		ldr	r1, [r2]
 106 0040 0A4B     		ldr	r3, .L8+16
 107 0042 0B40     		and	r3, r1
 108 0044 1360     		str	r3, [r2]
 111:Generated_Source\PSoC4/ADC_PM.c ****             ADC_backup.enableState |= ADC_BOOSTPUMP_ENABLED;
 109              		.loc 1 111 0
 110 0046 084A     		ldr	r2, .L8+12
 111 0048 1178     		ldrb	r1, [r2]
 112 004a 0423     		mov	r3, #4
 113 004c 0B43     		orr	r3, r1
 114 004e 1370     		strb	r3, [r2]
 115 0050 02E0     		b	.L3
 116              	.L4:
 112:Generated_Source\PSoC4/ADC_PM.c ****         }
ARM GAS  C:\Users\g\AppData\Local\Temp\ccgEipDM.s 			page 5


 113:Generated_Source\PSoC4/ADC_PM.c ****     }
 114:Generated_Source\PSoC4/ADC_PM.c ****     else
 115:Generated_Source\PSoC4/ADC_PM.c ****     {
 116:Generated_Source\PSoC4/ADC_PM.c ****         ADC_backup.enableState = ADC_DISABLED;
 117              		.loc 1 116 0
 118 0052 0022     		mov	r2, #0
 119 0054 044B     		ldr	r3, .L8+12
 120 0056 1A70     		strb	r2, [r3]
 121              	.L3:
 117:Generated_Source\PSoC4/ADC_PM.c ****     }
 118:Generated_Source\PSoC4/ADC_PM.c **** }
 122              		.loc 1 118 0
 123              		@ sp needed
 124 0058 08BD     		pop	{r3, pc}
 125              	.L9:
 126 005a C046     		.align	2
 127              	.L8:
 128 005c 30001A40 		.word	1075445808
 129 0060 00001A40 		.word	1075445760
 130 0064 04001A40 		.word	1075445764
 131 0068 00000000 		.word	.LANCHOR0
 132 006c FFFFEFFF 		.word	-1048577
 133              		.cfi_endproc
 134              	.LFE2:
 135              		.size	ADC_Sleep, .-ADC_Sleep
 136              		.section	.text.ADC_Wakeup,"ax",%progbits
 137              		.align	2
 138              		.global	ADC_Wakeup
 139              		.code	16
 140              		.thumb_func
 141              		.type	ADC_Wakeup, %function
 142              	ADC_Wakeup:
 143              	.LFB3:
 119:Generated_Source\PSoC4/ADC_PM.c **** 
 120:Generated_Source\PSoC4/ADC_PM.c **** 
 121:Generated_Source\PSoC4/ADC_PM.c **** /*******************************************************************************
 122:Generated_Source\PSoC4/ADC_PM.c **** * Function Name: ADC_Wakeup
 123:Generated_Source\PSoC4/ADC_PM.c **** ********************************************************************************
 124:Generated_Source\PSoC4/ADC_PM.c **** *
 125:Generated_Source\PSoC4/ADC_PM.c **** * Summary:
 126:Generated_Source\PSoC4/ADC_PM.c **** *  Restores the component enable state and configuration registers.
 127:Generated_Source\PSoC4/ADC_PM.c **** *  This should be called just after awaking from sleep mode.
 128:Generated_Source\PSoC4/ADC_PM.c **** *
 129:Generated_Source\PSoC4/ADC_PM.c **** * Parameters:
 130:Generated_Source\PSoC4/ADC_PM.c **** *  None.
 131:Generated_Source\PSoC4/ADC_PM.c **** *
 132:Generated_Source\PSoC4/ADC_PM.c **** * Return:
 133:Generated_Source\PSoC4/ADC_PM.c **** *  None.
 134:Generated_Source\PSoC4/ADC_PM.c **** *
 135:Generated_Source\PSoC4/ADC_PM.c **** * Global Variables:
 136:Generated_Source\PSoC4/ADC_PM.c **** *  ADC_backup - used.
 137:Generated_Source\PSoC4/ADC_PM.c **** *
 138:Generated_Source\PSoC4/ADC_PM.c **** *******************************************************************************/
 139:Generated_Source\PSoC4/ADC_PM.c **** void ADC_Wakeup(void)
 140:Generated_Source\PSoC4/ADC_PM.c **** {
 144              		.loc 1 140 0
 145              		.cfi_startproc
ARM GAS  C:\Users\g\AppData\Local\Temp\ccgEipDM.s 			page 6


 146 0000 08B5     		push	{r3, lr}
 147              		.cfi_def_cfa_offset 8
 148              		.cfi_offset 3, -8
 149              		.cfi_offset 14, -4
 141:Generated_Source\PSoC4/ADC_PM.c ****     ADC_SAR_DFT_CTRL_REG &= (uint32)~ADC_ADFT_OVERRIDE;
 150              		.loc 1 141 0
 151 0002 0D4A     		ldr	r2, .L13
 152 0004 1368     		ldr	r3, [r2]
 153 0006 5B00     		lsl	r3, r3, #1
 154 0008 5B08     		lsr	r3, r3, #1
 155 000a 1360     		str	r3, [r2]
 142:Generated_Source\PSoC4/ADC_PM.c ****     if(ADC_backup.enableState != ADC_DISABLED)
 156              		.loc 1 142 0
 157 000c 0B4B     		ldr	r3, .L13+4
 158 000e 1B78     		ldrb	r3, [r3]
 159 0010 002B     		cmp	r3, #0
 160 0012 0FD0     		beq	.L10
 143:Generated_Source\PSoC4/ADC_PM.c ****     {
 144:Generated_Source\PSoC4/ADC_PM.c ****         /* Enable the SAR internal pump  */
 145:Generated_Source\PSoC4/ADC_PM.c ****         if((ADC_backup.enableState & ADC_BOOSTPUMP_ENABLED) != 0u)
 161              		.loc 1 145 0
 162 0014 5B07     		lsl	r3, r3, #29
 163 0016 05D5     		bpl	.L12
 146:Generated_Source\PSoC4/ADC_PM.c ****         {
 147:Generated_Source\PSoC4/ADC_PM.c ****             ADC_SAR_CTRL_REG |= ADC_BOOSTPUMP_EN;
 164              		.loc 1 147 0
 165 0018 094A     		ldr	r2, .L13+8
 166 001a 1368     		ldr	r3, [r2]
 167 001c 8021     		mov	r1, #128
 168 001e 4903     		lsl	r1, r1, #13
 169 0020 0B43     		orr	r3, r1
 170 0022 1360     		str	r3, [r2]
 171              	.L12:
 148:Generated_Source\PSoC4/ADC_PM.c ****         }
 149:Generated_Source\PSoC4/ADC_PM.c ****         ADC_Enable();
 172              		.loc 1 149 0
 173 0024 FFF7FEFF 		bl	ADC_Enable
 174              	.LVL2:
 150:Generated_Source\PSoC4/ADC_PM.c ****         if((ADC_backup.enableState & ADC_STARTED) != 0u)
 175              		.loc 1 150 0
 176 0028 044B     		ldr	r3, .L13+4
 177 002a 1B78     		ldrb	r3, [r3]
 178 002c 9B07     		lsl	r3, r3, #30
 179 002e 01D5     		bpl	.L10
 151:Generated_Source\PSoC4/ADC_PM.c ****         {
 152:Generated_Source\PSoC4/ADC_PM.c ****             ADC_StartConvert();
 180              		.loc 1 152 0
 181 0030 FFF7FEFF 		bl	ADC_StartConvert
 182              	.LVL3:
 183              	.L10:
 153:Generated_Source\PSoC4/ADC_PM.c ****         }
 154:Generated_Source\PSoC4/ADC_PM.c ****     }
 155:Generated_Source\PSoC4/ADC_PM.c **** }
 184              		.loc 1 155 0
 185              		@ sp needed
 186 0034 08BD     		pop	{r3, pc}
 187              	.L14:
ARM GAS  C:\Users\g\AppData\Local\Temp\ccgEipDM.s 			page 7


 188 0036 C046     		.align	2
 189              	.L13:
 190 0038 30001A40 		.word	1075445808
 191 003c 00000000 		.word	.LANCHOR0
 192 0040 00001A40 		.word	1075445760
 193              		.cfi_endproc
 194              	.LFE3:
 195              		.size	ADC_Wakeup, .-ADC_Wakeup
 196              		.bss
 197              		.align	2
 198              		.set	.LANCHOR0,. + 0
 199              		.type	ADC_backup, %object
 200              		.size	ADC_backup, 1
 201              	ADC_backup:
 202 0000 00       		.space	1
 203 0001 000000   		.text
 204              	.Letext0:
 205              		.file 2 "Generated_Source\\PSoC4\\cytypes.h"
 206              		.file 3 "Generated_Source\\PSoC4\\ADC.h"