ARM GAS  C:\Users\g\AppData\Local\Temp\ccx0EeBo.s 			page 1


   1              		.cpu cortex-m0
   2              		.fpu softvfp
   3              		.eabi_attribute 20, 1
   4              		.eabi_attribute 21, 1
   5              		.eabi_attribute 23, 3
   6              		.eabi_attribute 24, 1
   7              		.eabi_attribute 25, 1
   8              		.eabi_attribute 26, 1
   9              		.eabi_attribute 30, 2
  10              		.eabi_attribute 34, 0
  11              		.eabi_attribute 18, 4
  12              		.code	16
  13              		.file	"Bootloadable_1.c"
  14              		.text
  15              	.Ltext0:
  16              		.cfi_sections	.debug_frame
  17              		.section	.text.Bootloadable_1_Load,"ax",%progbits
  18              		.align	2
  19              		.global	Bootloadable_1_Load
  20              		.code	16
  21              		.thumb_func
  22              		.type	Bootloadable_1_Load, %function
  23              	Bootloadable_1_Load:
  24              	.LFB0:
  25              		.file 1 "Generated_Source\\PSoC4\\Bootloadable_1.c"
   1:Generated_Source\PSoC4/Bootloadable_1.c **** /****************************************************************************//**
   2:Generated_Source\PSoC4/Bootloadable_1.c **** * \file Bootloadable_1.c
   3:Generated_Source\PSoC4/Bootloadable_1.c **** * \version 1.50
   4:Generated_Source\PSoC4/Bootloadable_1.c **** *
   5:Generated_Source\PSoC4/Bootloadable_1.c **** * \brief
   6:Generated_Source\PSoC4/Bootloadable_1.c **** *   Provides an API for the Bootloadable application.
   7:Generated_Source\PSoC4/Bootloadable_1.c **** *
   8:Generated_Source\PSoC4/Bootloadable_1.c **** ********************************************************************************
   9:Generated_Source\PSoC4/Bootloadable_1.c **** * \copyright
  10:Generated_Source\PSoC4/Bootloadable_1.c **** * Copyright 2008-2015, Cypress Semiconductor Corporation.  All rights reserved.
  11:Generated_Source\PSoC4/Bootloadable_1.c **** * You may use this file only in accordance with the license, terms, conditions,
  12:Generated_Source\PSoC4/Bootloadable_1.c **** * disclaimers, and limitations in the end user license agreement accompanying
  13:Generated_Source\PSoC4/Bootloadable_1.c **** * the software package with which this file was provided.
  14:Generated_Source\PSoC4/Bootloadable_1.c **** *******************************************************************************/
  15:Generated_Source\PSoC4/Bootloadable_1.c **** 
  16:Generated_Source\PSoC4/Bootloadable_1.c **** #include "Bootloadable_1.h"
  17:Generated_Source\PSoC4/Bootloadable_1.c **** 
  18:Generated_Source\PSoC4/Bootloadable_1.c **** /**
  19:Generated_Source\PSoC4/Bootloadable_1.c ****  \defgroup functions_group Functions
  20:Generated_Source\PSoC4/Bootloadable_1.c ****  @{
  21:Generated_Source\PSoC4/Bootloadable_1.c **** */
  22:Generated_Source\PSoC4/Bootloadable_1.c **** 
  23:Generated_Source\PSoC4/Bootloadable_1.c **** #if (CYDEV_PROJ_TYPE == CYDEV_PROJ_TYPE_LOADABLEANDBOOTLOADER)
  24:Generated_Source\PSoC4/Bootloadable_1.c **** static cystatus Bootloadable_1_WriteFlashByte(const uint32 address, const uint8 inputValue) CYLARGE
  25:Generated_Source\PSoC4/Bootloadable_1.c ****                                ;
  26:Generated_Source\PSoC4/Bootloadable_1.c **** #endif /*(CYDEV_PROJ_TYPE == CYDEV_PROJ_TYPE_LOADABLEANDBOOTLOADER)*/
  27:Generated_Source\PSoC4/Bootloadable_1.c **** 
  28:Generated_Source\PSoC4/Bootloadable_1.c **** /*******************************************************************************
  29:Generated_Source\PSoC4/Bootloadable_1.c **** * Function Name: Bootloadable_1_Load
  30:Generated_Source\PSoC4/Bootloadable_1.c **** ****************************************************************************//**
  31:Generated_Source\PSoC4/Bootloadable_1.c **** *
  32:Generated_Source\PSoC4/Bootloadable_1.c **** * \brief
ARM GAS  C:\Users\g\AppData\Local\Temp\ccx0EeBo.s 			page 2


  33:Generated_Source\PSoC4/Bootloadable_1.c **** *  Schedules the Bootloader/Launcher to be launched and then performs
  34:Generated_Source\PSoC4/Bootloadable_1.c **** *  a software reset to launch it
  35:Generated_Source\PSoC4/Bootloadable_1.c **** *
  36:Generated_Source\PSoC4/Bootloadable_1.c **** * \return
  37:Generated_Source\PSoC4/Bootloadable_1.c **** *  This method will never return. It will load a new application and reset
  38:Generated_Source\PSoC4/Bootloadable_1.c **** *  the device.
  39:Generated_Source\PSoC4/Bootloadable_1.c **** *
  40:Generated_Source\PSoC4/Bootloadable_1.c **** *******************************************************************************/
  41:Generated_Source\PSoC4/Bootloadable_1.c **** void Bootloadable_1_Load(void) 
  42:Generated_Source\PSoC4/Bootloadable_1.c **** {
  26              		.loc 1 42 0
  27              		.cfi_startproc
  43:Generated_Source\PSoC4/Bootloadable_1.c ****     /* Schedule Bootloader to start after reset */
  44:Generated_Source\PSoC4/Bootloadable_1.c ****     Bootloadable_1_SET_RUN_TYPE(Bootloadable_1_SCHEDULE_BTLDR);
  28              		.loc 1 44 0
  29 0000 4022     		mov	r2, #64
  42:Generated_Source\PSoC4/Bootloadable_1.c ****     /* Schedule Bootloader to start after reset */
  30              		.loc 1 42 0
  31 0002 08B5     		push	{r3, lr}
  32              		.cfi_def_cfa_offset 8
  33              		.cfi_offset 3, -8
  34              		.cfi_offset 14, -4
  35              		.loc 1 44 0
  36 0004 024B     		ldr	r3, .L2
  45:Generated_Source\PSoC4/Bootloadable_1.c **** 
  46:Generated_Source\PSoC4/Bootloadable_1.c ****     CySoftwareReset();
  47:Generated_Source\PSoC4/Bootloadable_1.c **** }
  37              		.loc 1 47 0
  38              		@ sp needed
  44:Generated_Source\PSoC4/Bootloadable_1.c **** 
  39              		.loc 1 44 0
  40 0006 1A60     		str	r2, [r3]
  46:Generated_Source\PSoC4/Bootloadable_1.c **** }
  41              		.loc 1 46 0
  42 0008 FFF7FEFF 		bl	CySoftwareReset
  43              	.LVL0:
  44              		.loc 1 47 0
  45 000c 08BD     		pop	{r3, pc}
  46              	.L3:
  47 000e C046     		.align	2
  48              	.L2:
  49 0010 00000000 		.word	cyBtldrRunType
  50              		.cfi_endproc
  51              	.LFE0:
  52              		.size	Bootloadable_1_Load, .-Bootloadable_1_Load
  53              		.section	.text.Bootloadable_1_SetFlashByte,"ax",%progbits
  54              		.align	2
  55              		.global	Bootloadable_1_SetFlashByte
  56              		.code	16
  57              		.thumb_func
  58              		.type	Bootloadable_1_SetFlashByte, %function
  59              	Bootloadable_1_SetFlashByte:
  60              	.LFB1:
  48:Generated_Source\PSoC4/Bootloadable_1.c **** 
  49:Generated_Source\PSoC4/Bootloadable_1.c **** #if (CYDEV_PROJ_TYPE == CYDEV_PROJ_TYPE_LOADABLEANDBOOTLOADER)
  50:Generated_Source\PSoC4/Bootloadable_1.c **** /*******************************************************************************
  51:Generated_Source\PSoC4/Bootloadable_1.c **** * Function Name: Bootloadable_1_GetActiveApplication
ARM GAS  C:\Users\g\AppData\Local\Temp\ccx0EeBo.s 			page 3


  52:Generated_Source\PSoC4/Bootloadable_1.c **** ****************************************************************************//**
  53:Generated_Source\PSoC4/Bootloadable_1.c **** *
  54:Generated_Source\PSoC4/Bootloadable_1.c **** * \brief
  55:Generated_Source\PSoC4/Bootloadable_1.c **** *   Gets the application which will be loaded after a next reset event.
  56:Generated_Source\PSoC4/Bootloadable_1.c **** *   NOTE Intended for the combination project type ONLY!
  57:Generated_Source\PSoC4/Bootloadable_1.c **** *
  58:Generated_Source\PSoC4/Bootloadable_1.c **** * \return 
  59:Generated_Source\PSoC4/Bootloadable_1.c **** *  A number of the current active application set in the metadata section.
  60:Generated_Source\PSoC4/Bootloadable_1.c **** *  \n  0 - app#0 is set as active.
  61:Generated_Source\PSoC4/Bootloadable_1.c **** *  \n  1 - app#1 is set as active.
  62:Generated_Source\PSoC4/Bootloadable_1.c **** *
  63:Generated_Source\PSoC4/Bootloadable_1.c **** * \note If neither of the applications is set active, then the API returns 0x02.
  64:Generated_Source\PSoC4/Bootloadable_1.c **** *
  65:Generated_Source\PSoC4/Bootloadable_1.c **** *******************************************************************************/
  66:Generated_Source\PSoC4/Bootloadable_1.c **** uint8 Bootloadable_1_GetActiveApplication(void) CYSMALL \
  67:Generated_Source\PSoC4/Bootloadable_1.c ****                           
  68:Generated_Source\PSoC4/Bootloadable_1.c **** {   
  69:Generated_Source\PSoC4/Bootloadable_1.c ****     uint8 result = Bootloadable_1_MD_BTLDB_ACTIVE_NONE;
  70:Generated_Source\PSoC4/Bootloadable_1.c ****     
  71:Generated_Source\PSoC4/Bootloadable_1.c ****     if (0u != Bootloadable_1_GET_CODE_DATA( \
  72:Generated_Source\PSoC4/Bootloadable_1.c ****               Bootloadable_1_MD_BTLDB_ACTIVE_OFFSET(Bootloadable_1_MD_BTLDB_ACTIVE_0))) 
  73:Generated_Source\PSoC4/Bootloadable_1.c ****     {
  74:Generated_Source\PSoC4/Bootloadable_1.c ****         result = Bootloadable_1_MD_BTLDB_ACTIVE_0;
  75:Generated_Source\PSoC4/Bootloadable_1.c ****     }
  76:Generated_Source\PSoC4/Bootloadable_1.c ****     else if (0u != Bootloadable_1_GET_CODE_DATA( \
  77:Generated_Source\PSoC4/Bootloadable_1.c ****                    Bootloadable_1_MD_BTLDB_ACTIVE_OFFSET(Bootloadable_1_MD_BTLDB_ACTIVE_1)))
  78:Generated_Source\PSoC4/Bootloadable_1.c ****     {
  79:Generated_Source\PSoC4/Bootloadable_1.c ****         result = Bootloadable_1_MD_BTLDB_ACTIVE_1;    
  80:Generated_Source\PSoC4/Bootloadable_1.c ****     }
  81:Generated_Source\PSoC4/Bootloadable_1.c ****     else
  82:Generated_Source\PSoC4/Bootloadable_1.c ****     {
  83:Generated_Source\PSoC4/Bootloadable_1.c ****         /*Do nothing, result is none*/
  84:Generated_Source\PSoC4/Bootloadable_1.c ****     }
  85:Generated_Source\PSoC4/Bootloadable_1.c ****     
  86:Generated_Source\PSoC4/Bootloadable_1.c ****     return (result);
  87:Generated_Source\PSoC4/Bootloadable_1.c **** }
  88:Generated_Source\PSoC4/Bootloadable_1.c **** 
  89:Generated_Source\PSoC4/Bootloadable_1.c **** /*******************************************************************************
  90:Generated_Source\PSoC4/Bootloadable_1.c **** * Function Name: Bootloadable_1_SetActiveApplication
  91:Generated_Source\PSoC4/Bootloadable_1.c **** ****************************************************************************//**
  92:Generated_Source\PSoC4/Bootloadable_1.c **** *
  93:Generated_Source\PSoC4/Bootloadable_1.c **** * \brief 
  94:Generated_Source\PSoC4/Bootloadable_1.c **** *   Sets the application which will be loaded after a next reset event.          
  95:Generated_Source\PSoC4/Bootloadable_1.c **** *   
  96:Generated_Source\PSoC4/Bootloadable_1.c **** * \details
  97:Generated_Source\PSoC4/Bootloadable_1.c **** * Theory: 
  98:Generated_Source\PSoC4/Bootloadable_1.c **** *   This API sets in the Flash (metadata section) the given active application 
  99:Generated_Source\PSoC4/Bootloadable_1.c **** *   number.
 100:Generated_Source\PSoC4/Bootloadable_1.c **** *          
 101:Generated_Source\PSoC4/Bootloadable_1.c **** *   NOTE The active application number is not set directly, but the boolean 
 102:Generated_Source\PSoC4/Bootloadable_1.c **** *   mark instead means that the application is active or not for the relative 
 103:Generated_Source\PSoC4/Bootloadable_1.c **** *   metadata. Both metadata sections are updated. For example, if the second 
 104:Generated_Source\PSoC4/Bootloadable_1.c **** *   application is to be set active, then in the metadata section for the first 
 105:Generated_Source\PSoC4/Bootloadable_1.c **** *   application there will be a "0" written, which means that it is not active, and 
 106:Generated_Source\PSoC4/Bootloadable_1.c **** *   for the second metadata section there will be a "1" written, which means that it is 
 107:Generated_Source\PSoC4/Bootloadable_1.c **** *   active. 
 108:Generated_Source\PSoC4/Bootloadable_1.c **** *
ARM GAS  C:\Users\g\AppData\Local\Temp\ccx0EeBo.s 			page 4


 109:Generated_Source\PSoC4/Bootloadable_1.c **** *   NOTE Intended for the combination project type ONLY!
 110:Generated_Source\PSoC4/Bootloadable_1.c **** *
 111:Generated_Source\PSoC4/Bootloadable_1.c **** * \param appId  
 112:Generated_Source\PSoC4/Bootloadable_1.c **** *   The active application number to be written to flash (metadata section) 
 113:Generated_Source\PSoC4/Bootloadable_1.c **** *   NOTE Possible values are:
 114:Generated_Source\PSoC4/Bootloadable_1.c **** *   0 - for the first application
 115:Generated_Source\PSoC4/Bootloadable_1.c **** *   1 - for the second application.
 116:Generated_Source\PSoC4/Bootloadable_1.c **** *   Any other number is considered invalid. 
 117:Generated_Source\PSoC4/Bootloadable_1.c **** *
 118:Generated_Source\PSoC4/Bootloadable_1.c **** * \return 
 119:Generated_Source\PSoC4/Bootloadable_1.c **** *   A status of writing to flash operation.
 120:Generated_Source\PSoC4/Bootloadable_1.c **** *   \n CYRET_SUCCESS - Returned if appId was successfully changed. 
 121:Generated_Source\PSoC4/Bootloadable_1.c **** *   \n CYRET_BAD_PARAM - Returned if the parameter appID passed to the function has the 
 122:Generated_Source\PSoC4/Bootloadable_1.c **** *                       same value as the active application ID. 
 123:Generated_Source\PSoC4/Bootloadable_1.c **** *   \note - The other non-zero value is considered as a failure during writing to flash.  
 124:Generated_Source\PSoC4/Bootloadable_1.c **** *
 125:Generated_Source\PSoC4/Bootloadable_1.c **** *   \note - This API does not update Bootloader_activeApp variable.
 126:Generated_Source\PSoC4/Bootloadable_1.c **** *
 127:Generated_Source\PSoC4/Bootloadable_1.c **** *******************************************************************************/
 128:Generated_Source\PSoC4/Bootloadable_1.c **** cystatus Bootloadable_1_SetActiveApplication(uint8 appId) CYSMALL \
 129:Generated_Source\PSoC4/Bootloadable_1.c ****                 
 130:Generated_Source\PSoC4/Bootloadable_1.c **** {
 131:Generated_Source\PSoC4/Bootloadable_1.c ****     cystatus result = CYRET_SUCCESS;
 132:Generated_Source\PSoC4/Bootloadable_1.c **** 
 133:Generated_Source\PSoC4/Bootloadable_1.c ****     uint8 CYDATA idx;
 134:Generated_Source\PSoC4/Bootloadable_1.c ****     
 135:Generated_Source\PSoC4/Bootloadable_1.c ****     /* If invalid application number */
 136:Generated_Source\PSoC4/Bootloadable_1.c ****     if (appId > Bootloadable_1_MD_BTLDB_ACTIVE_1)
 137:Generated_Source\PSoC4/Bootloadable_1.c ****     {
 138:Generated_Source\PSoC4/Bootloadable_1.c ****         result = CYRET_BAD_PARAM;
 139:Generated_Source\PSoC4/Bootloadable_1.c ****     }
 140:Generated_Source\PSoC4/Bootloadable_1.c ****     else
 141:Generated_Source\PSoC4/Bootloadable_1.c ****     {
 142:Generated_Source\PSoC4/Bootloadable_1.c ****         /* If appID has same value as active application ID */
 143:Generated_Source\PSoC4/Bootloadable_1.c ****         if (1u == Bootloadable_1_GET_CODE_DATA(Bootloadable_1_MD_BTLDB_ACTIVE_OFFSET(appId)))
 144:Generated_Source\PSoC4/Bootloadable_1.c ****         {
 145:Generated_Source\PSoC4/Bootloadable_1.c ****             result = CYRET_BAD_PARAM;
 146:Generated_Source\PSoC4/Bootloadable_1.c ****         }
 147:Generated_Source\PSoC4/Bootloadable_1.c ****         else
 148:Generated_Source\PSoC4/Bootloadable_1.c ****         {
 149:Generated_Source\PSoC4/Bootloadable_1.c ****             /* Updating metadata section */
 150:Generated_Source\PSoC4/Bootloadable_1.c ****             for(idx = 0u; idx < Bootloadable_1_MAX_NUM_OF_BTLDB; idx++)
 151:Generated_Source\PSoC4/Bootloadable_1.c ****             {
 152:Generated_Source\PSoC4/Bootloadable_1.c ****                 result |= Bootloadable_1_WriteFlashByte((uint32) Bootloadable_1_MD_BTLDB_ACTIVE_OFF
 153:Generated_Source\PSoC4/Bootloadable_1.c ****                                                                                             (uint8)
 154:Generated_Source\PSoC4/Bootloadable_1.c ****             }
 155:Generated_Source\PSoC4/Bootloadable_1.c ****         }
 156:Generated_Source\PSoC4/Bootloadable_1.c ****     }
 157:Generated_Source\PSoC4/Bootloadable_1.c ****     
 158:Generated_Source\PSoC4/Bootloadable_1.c ****     return (result);
 159:Generated_Source\PSoC4/Bootloadable_1.c **** }
 160:Generated_Source\PSoC4/Bootloadable_1.c **** 
 161:Generated_Source\PSoC4/Bootloadable_1.c **** /*******************************************************************************
 162:Generated_Source\PSoC4/Bootloadable_1.c **** * Function Name: Bootloadable_1_WriteFlashByte
 163:Generated_Source\PSoC4/Bootloadable_1.c **** ****************************************************************************//**
 164:Generated_Source\PSoC4/Bootloadable_1.c **** *
 165:Generated_Source\PSoC4/Bootloadable_1.c **** * \brief 
ARM GAS  C:\Users\g\AppData\Local\Temp\ccx0EeBo.s 			page 5


 166:Generated_Source\PSoC4/Bootloadable_1.c **** *   This API writes to flash the specified data.
 167:Generated_Source\PSoC4/Bootloadable_1.c **** *
 168:Generated_Source\PSoC4/Bootloadable_1.c **** * \param address 
 169:Generated_Source\PSoC4/Bootloadable_1.c **** *   The address in flash.
 170:Generated_Source\PSoC4/Bootloadable_1.c **** *
 171:Generated_Source\PSoC4/Bootloadable_1.c **** * \param inputValue 
 172:Generated_Source\PSoC4/Bootloadable_1.c **** *   One-byte data.
 173:Generated_Source\PSoC4/Bootloadable_1.c **** *
 174:Generated_Source\PSoC4/Bootloadable_1.c **** * \return 
 175:Generated_Source\PSoC4/Bootloadable_1.c **** *   A status of the writing to flash procedure.
 176:Generated_Source\PSoC4/Bootloadable_1.c **** *
 177:Generated_Source\PSoC4/Bootloadable_1.c **** *******************************************************************************/
 178:Generated_Source\PSoC4/Bootloadable_1.c **** static cystatus Bootloadable_1_WriteFlashByte(const uint32 address, const uint8 inputValue) CYLARGE
 179:Generated_Source\PSoC4/Bootloadable_1.c ****                                
 180:Generated_Source\PSoC4/Bootloadable_1.c **** {
 181:Generated_Source\PSoC4/Bootloadable_1.c ****     cystatus result = CYRET_SUCCESS;
 182:Generated_Source\PSoC4/Bootloadable_1.c ****     uint32 flsAddr = address - CYDEV_FLASH_BASE;
 183:Generated_Source\PSoC4/Bootloadable_1.c ****     uint8  rowData[CYDEV_FLS_ROW_SIZE];
 184:Generated_Source\PSoC4/Bootloadable_1.c **** 
 185:Generated_Source\PSoC4/Bootloadable_1.c ****     #if !(CY_PSOC4)
 186:Generated_Source\PSoC4/Bootloadable_1.c ****         uint8 arrayId = ( uint8 )(flsAddr / CYDEV_FLS_SECTOR_SIZE);
 187:Generated_Source\PSoC4/Bootloadable_1.c ****     #endif  /* !(CY_PSOC4) */
 188:Generated_Source\PSoC4/Bootloadable_1.c **** 
 189:Generated_Source\PSoC4/Bootloadable_1.c ****     #if (CY_PSOC4)
 190:Generated_Source\PSoC4/Bootloadable_1.c ****         uint16 rowNum = ( uint16 )(flsAddr / CYDEV_FLS_ROW_SIZE);
 191:Generated_Source\PSoC4/Bootloadable_1.c ****     #else
 192:Generated_Source\PSoC4/Bootloadable_1.c ****         uint16 rowNum = ( uint16 )((flsAddr % CYDEV_FLS_SECTOR_SIZE) / CYDEV_FLS_ROW_SIZE);
 193:Generated_Source\PSoC4/Bootloadable_1.c ****     #endif  /* (CY_PSOC4) */
 194:Generated_Source\PSoC4/Bootloadable_1.c **** 
 195:Generated_Source\PSoC4/Bootloadable_1.c ****     uint32 baseAddr = address - (address % CYDEV_FLS_ROW_SIZE);
 196:Generated_Source\PSoC4/Bootloadable_1.c ****     uint16 idx;
 197:Generated_Source\PSoC4/Bootloadable_1.c **** 
 198:Generated_Source\PSoC4/Bootloadable_1.c ****     for(idx = 0u; idx < CYDEV_FLS_ROW_SIZE; idx++)
 199:Generated_Source\PSoC4/Bootloadable_1.c ****     {
 200:Generated_Source\PSoC4/Bootloadable_1.c ****         rowData[idx] = (uint8)Bootloadable_1_GET_CODE_DATA(baseAddr + idx);
 201:Generated_Source\PSoC4/Bootloadable_1.c ****     }
 202:Generated_Source\PSoC4/Bootloadable_1.c **** 
 203:Generated_Source\PSoC4/Bootloadable_1.c ****     rowData[address % CYDEV_FLS_ROW_SIZE] = inputValue;
 204:Generated_Source\PSoC4/Bootloadable_1.c **** 
 205:Generated_Source\PSoC4/Bootloadable_1.c ****     #if(CY_PSOC4)
 206:Generated_Source\PSoC4/Bootloadable_1.c ****         result = CySysFlashWriteRow((uint32) rowNum, rowData);
 207:Generated_Source\PSoC4/Bootloadable_1.c ****     #else
 208:Generated_Source\PSoC4/Bootloadable_1.c ****         result = CyWriteRowData(arrayId, rowNum, rowData);
 209:Generated_Source\PSoC4/Bootloadable_1.c ****     #endif  /* (CY_PSOC4) */
 210:Generated_Source\PSoC4/Bootloadable_1.c **** 
 211:Generated_Source\PSoC4/Bootloadable_1.c ****     #if(CY_PSOC5)
 212:Generated_Source\PSoC4/Bootloadable_1.c ****         /***************************************************************************
 213:Generated_Source\PSoC4/Bootloadable_1.c ****         * When writing to flash, data in the instruction cache can become stale.
 214:Generated_Source\PSoC4/Bootloadable_1.c ****         * Therefore, the cache data does not correlate to the data just written to
 215:Generated_Source\PSoC4/Bootloadable_1.c ****         * flash. A call to CyFlushCache() is required to invalidate the data in the
 216:Generated_Source\PSoC4/Bootloadable_1.c ****         * cache and force fresh information to be loaded from flash.
 217:Generated_Source\PSoC4/Bootloadable_1.c ****         ***************************************************************************/
 218:Generated_Source\PSoC4/Bootloadable_1.c ****         CyFlushCache();
 219:Generated_Source\PSoC4/Bootloadable_1.c ****     #endif /* (CY_PSOC5) */
 220:Generated_Source\PSoC4/Bootloadable_1.c ****     return (result);
 221:Generated_Source\PSoC4/Bootloadable_1.c **** }
 222:Generated_Source\PSoC4/Bootloadable_1.c **** #endif /*(CYDEV_PROJ_TYPE == CYDEV_PROJ_TYPE_LOADABLEANDBOOTLOADER)*/
ARM GAS  C:\Users\g\AppData\Local\Temp\ccx0EeBo.s 			page 6


 223:Generated_Source\PSoC4/Bootloadable_1.c **** /** @} functions_group */
 224:Generated_Source\PSoC4/Bootloadable_1.c **** 
 225:Generated_Source\PSoC4/Bootloadable_1.c **** /*******************************************************************************
 226:Generated_Source\PSoC4/Bootloadable_1.c **** * The following code is OBSOLETE and must not be used.
 227:Generated_Source\PSoC4/Bootloadable_1.c **** *******************************************************************************/
 228:Generated_Source\PSoC4/Bootloadable_1.c **** void Bootloadable_1_SetFlashByte(uint32 address, uint8 runType) 
 229:Generated_Source\PSoC4/Bootloadable_1.c **** {
  61              		.loc 1 229 0
  62              		.cfi_startproc
  63              	.LVL1:
  64 0000 F0B5     		push	{r4, r5, r6, r7, lr}
  65              		.cfi_def_cfa_offset 20
  66              		.cfi_offset 4, -20
  67              		.cfi_offset 5, -16
  68              		.cfi_offset 6, -12
  69              		.cfi_offset 7, -8
  70              		.cfi_offset 14, -4
  71 0002 061C     		mov	r6, r0
 230:Generated_Source\PSoC4/Bootloadable_1.c ****     uint32 flsAddr = address - CYDEV_FLASH_BASE;
 231:Generated_Source\PSoC4/Bootloadable_1.c ****     uint8  rowData[CYDEV_FLS_ROW_SIZE];
 232:Generated_Source\PSoC4/Bootloadable_1.c **** 
 233:Generated_Source\PSoC4/Bootloadable_1.c ****     #if !(CY_PSOC4)
 234:Generated_Source\PSoC4/Bootloadable_1.c ****         uint8 arrayId = ( uint8 )(flsAddr / CYDEV_FLS_SECTOR_SIZE);
 235:Generated_Source\PSoC4/Bootloadable_1.c ****     #endif  /* !(CY_PSOC4) */
 236:Generated_Source\PSoC4/Bootloadable_1.c **** 
 237:Generated_Source\PSoC4/Bootloadable_1.c ****     #if (CY_PSOC4)
 238:Generated_Source\PSoC4/Bootloadable_1.c ****         uint16 rowNum = ( uint16 )(flsAddr / CYDEV_FLS_ROW_SIZE);
 239:Generated_Source\PSoC4/Bootloadable_1.c ****     #else
 240:Generated_Source\PSoC4/Bootloadable_1.c ****         uint16 rowNum = ( uint16 )((flsAddr % CYDEV_FLS_SECTOR_SIZE) / CYDEV_FLS_ROW_SIZE);
 241:Generated_Source\PSoC4/Bootloadable_1.c ****     #endif  /* (CY_PSOC4) */
 242:Generated_Source\PSoC4/Bootloadable_1.c **** 
 243:Generated_Source\PSoC4/Bootloadable_1.c ****     uint32 baseAddr = address - (address % CYDEV_FLS_ROW_SIZE);
  72              		.loc 1 243 0
  73 0004 7F23     		mov	r3, #127
  74 0006 351C     		mov	r5, r6
 229:Generated_Source\PSoC4/Bootloadable_1.c ****     uint32 flsAddr = address - CYDEV_FLASH_BASE;
  75              		.loc 1 229 0
  76 0008 A1B0     		sub	sp, sp, #132
  77              		.cfi_def_cfa_offset 152
 229:Generated_Source\PSoC4/Bootloadable_1.c ****     uint32 flsAddr = address - CYDEV_FLASH_BASE;
  78              		.loc 1 229 0
  79 000a 0F1C     		mov	r7, r1
  80              		.loc 1 243 0
  81 000c 9D43     		bic	r5, r3
  82 000e 6946     		mov	r1, sp
  83              	.LVL2:
  84 0010 6B46     		mov	r3, sp
 238:Generated_Source\PSoC4/Bootloadable_1.c ****     #else
  85              		.loc 1 238 0
  86 0012 C009     		lsr	r0, r0, #7
  87              	.LVL3:
  88 0014 20AC     		add	r4, sp, #128
  89              	.LVL4:
  90              	.L5:
  91 0016 5A1A     		sub	r2, r3, r1
 244:Generated_Source\PSoC4/Bootloadable_1.c ****     uint16 idx;
 245:Generated_Source\PSoC4/Bootloadable_1.c **** 
ARM GAS  C:\Users\g\AppData\Local\Temp\ccx0EeBo.s 			page 7


 246:Generated_Source\PSoC4/Bootloadable_1.c **** 
 247:Generated_Source\PSoC4/Bootloadable_1.c ****     for (idx = 0u; idx < CYDEV_FLS_ROW_SIZE; idx++)
 248:Generated_Source\PSoC4/Bootloadable_1.c ****     {
 249:Generated_Source\PSoC4/Bootloadable_1.c ****         rowData[idx] = Bootloadable_1_GET_CODE_DATA(baseAddr + idx);
  92              		.loc 1 249 0 discriminator 3
  93 0018 525D     		ldrb	r2, [r2, r5]
  94 001a 1A70     		strb	r2, [r3]
  95              	.LVL5:
  96 001c 0133     		add	r3, r3, #1
  97              	.LVL6:
 247:Generated_Source\PSoC4/Bootloadable_1.c ****     {
  98              		.loc 1 247 0 discriminator 3
  99 001e A342     		cmp	r3, r4
 100 0020 F9D1     		bne	.L5
 250:Generated_Source\PSoC4/Bootloadable_1.c ****     }
 251:Generated_Source\PSoC4/Bootloadable_1.c ****     rowData[address % CYDEV_FLS_ROW_SIZE] = runType;
 101              		.loc 1 251 0
 102 0022 7F23     		mov	r3, #127
 252:Generated_Source\PSoC4/Bootloadable_1.c **** 
 253:Generated_Source\PSoC4/Bootloadable_1.c ****     #if(CY_PSOC4)
 254:Generated_Source\PSoC4/Bootloadable_1.c ****         (void) CySysFlashWriteRow((uint32) rowNum, rowData);
 103              		.loc 1 254 0
 104 0024 0004     		lsl	r0, r0, #16
 105              	.LVL7:
 251:Generated_Source\PSoC4/Bootloadable_1.c **** 
 106              		.loc 1 251 0
 107 0026 1E40     		and	r6, r3
 108              	.LVL8:
 109              		.loc 1 254 0
 110 0028 000C     		lsr	r0, r0, #16
 251:Generated_Source\PSoC4/Bootloadable_1.c **** 
 111              		.loc 1 251 0
 112 002a 8F55     		strb	r7, [r1, r6]
 113              		.loc 1 254 0
 114 002c FFF7FEFF 		bl	CySysFlashWriteRow
 115              	.LVL9:
 255:Generated_Source\PSoC4/Bootloadable_1.c ****     #else
 256:Generated_Source\PSoC4/Bootloadable_1.c ****         (void) CyWriteRowData(arrayId, rowNum, rowData);
 257:Generated_Source\PSoC4/Bootloadable_1.c ****     #endif  /* (CY_PSOC4) */
 258:Generated_Source\PSoC4/Bootloadable_1.c **** 
 259:Generated_Source\PSoC4/Bootloadable_1.c ****     #if(CY_PSOC5)
 260:Generated_Source\PSoC4/Bootloadable_1.c ****         /***************************************************************************
 261:Generated_Source\PSoC4/Bootloadable_1.c ****         * When writing to flash, data in the instruction cache can become obsolete.
 262:Generated_Source\PSoC4/Bootloadable_1.c ****         * Therefore, the cache data does not correlate to the data just written to
 263:Generated_Source\PSoC4/Bootloadable_1.c ****         * flash. A call to CyFlushCache() is required to invalidate the data in the
 264:Generated_Source\PSoC4/Bootloadable_1.c ****         * cache and force fresh information to be loaded from flash.
 265:Generated_Source\PSoC4/Bootloadable_1.c ****         ***************************************************************************/
 266:Generated_Source\PSoC4/Bootloadable_1.c ****         CyFlushCache();
 267:Generated_Source\PSoC4/Bootloadable_1.c ****     #endif /* (CY_PSOC5) */
 268:Generated_Source\PSoC4/Bootloadable_1.c **** }
 116              		.loc 1 268 0
 117 0030 21B0     		add	sp, sp, #132
 118              		@ sp needed
 119              	.LVL10:
 120 0032 F0BD     		pop	{r4, r5, r6, r7, pc}
 121              		.cfi_endproc
 122              	.LFE1:
ARM GAS  C:\Users\g\AppData\Local\Temp\ccx0EeBo.s 			page 8


 123              		.size	Bootloadable_1_SetFlashByte, .-Bootloadable_1_SetFlashByte
 124              		.text
 125              	.Letext0:
 126              		.file 2 "Generated_Source\\PSoC4\\cytypes.h"
 127              		.file 3 "Generated_Source\\PSoC4\\Bootloadable_1.h"
 128              		.file 4 "Generated_Source\\PSoC4\\CyLib.h"
 129              		.file 5 "Generated_Source\\PSoC4\\CyFlash.h"