ARM GAS  C:\Users\g\AppData\Local\Temp\ccCVzgX2.s 			page 1


   1              		.cpu cortex-m0
   2              		.fpu softvfp
   3              		.eabi_attribute 20, 1
   4              		.eabi_attribute 21, 1
   5              		.eabi_attribute 23, 3
   6              		.eabi_attribute 24, 1
   7              		.eabi_attribute 25, 1
   8              		.eabi_attribute 26, 1
   9              		.eabi_attribute 30, 1
  10              		.eabi_attribute 34, 0
  11              		.eabi_attribute 18, 4
  12              		.code	16
  13              		.file	"Counter_1.c"
  14              		.text
  15              	.Ltext0:
  16              		.cfi_sections	.debug_frame
  17              		.section	.text.Counter_1_Enable,"ax",%progbits
  18              		.align	2
  19              		.global	Counter_1_Enable
  20              		.code	16
  21              		.thumb_func
  22              		.type	Counter_1_Enable, %function
  23              	Counter_1_Enable:
  24              	.LFB1:
  25              		.file 1 "Generated_Source\\PSoC4\\Counter_1.c"
   1:Generated_Source\PSoC4/Counter_1.c **** /*******************************************************************************
   2:Generated_Source\PSoC4/Counter_1.c **** * File Name: Counter_1.c  
   3:Generated_Source\PSoC4/Counter_1.c **** * Version 3.0
   4:Generated_Source\PSoC4/Counter_1.c **** *
   5:Generated_Source\PSoC4/Counter_1.c **** *  Description:
   6:Generated_Source\PSoC4/Counter_1.c **** *     The Counter component consists of a 8, 16, 24 or 32-bit counter with
   7:Generated_Source\PSoC4/Counter_1.c **** *     a selectable period between 2 and 2^Width - 1.  
   8:Generated_Source\PSoC4/Counter_1.c **** *
   9:Generated_Source\PSoC4/Counter_1.c **** *   Note:
  10:Generated_Source\PSoC4/Counter_1.c **** *     None
  11:Generated_Source\PSoC4/Counter_1.c **** *
  12:Generated_Source\PSoC4/Counter_1.c **** ********************************************************************************
  13:Generated_Source\PSoC4/Counter_1.c **** * Copyright 2008-2012, Cypress Semiconductor Corporation.  All rights reserved.
  14:Generated_Source\PSoC4/Counter_1.c **** * You may use this file only in accordance with the license, terms, conditions, 
  15:Generated_Source\PSoC4/Counter_1.c **** * disclaimers, and limitations in the end user license agreement accompanying 
  16:Generated_Source\PSoC4/Counter_1.c **** * the software package with which this file was provided.
  17:Generated_Source\PSoC4/Counter_1.c **** *******************************************************************************/
  18:Generated_Source\PSoC4/Counter_1.c **** 
  19:Generated_Source\PSoC4/Counter_1.c **** #include "Counter_1.h"
  20:Generated_Source\PSoC4/Counter_1.c **** 
  21:Generated_Source\PSoC4/Counter_1.c **** uint8 Counter_1_initVar = 0u;
  22:Generated_Source\PSoC4/Counter_1.c **** 
  23:Generated_Source\PSoC4/Counter_1.c **** 
  24:Generated_Source\PSoC4/Counter_1.c **** /*******************************************************************************
  25:Generated_Source\PSoC4/Counter_1.c **** * Function Name: Counter_1_Init
  26:Generated_Source\PSoC4/Counter_1.c **** ********************************************************************************
  27:Generated_Source\PSoC4/Counter_1.c **** * Summary:
  28:Generated_Source\PSoC4/Counter_1.c **** *     Initialize to the schematic state
  29:Generated_Source\PSoC4/Counter_1.c **** * 
  30:Generated_Source\PSoC4/Counter_1.c **** * Parameters:  
  31:Generated_Source\PSoC4/Counter_1.c **** *  void  
  32:Generated_Source\PSoC4/Counter_1.c **** *
ARM GAS  C:\Users\g\AppData\Local\Temp\ccCVzgX2.s 			page 2


  33:Generated_Source\PSoC4/Counter_1.c **** * Return: 
  34:Generated_Source\PSoC4/Counter_1.c **** *  void
  35:Generated_Source\PSoC4/Counter_1.c **** *
  36:Generated_Source\PSoC4/Counter_1.c **** *******************************************************************************/
  37:Generated_Source\PSoC4/Counter_1.c **** void Counter_1_Init(void) 
  38:Generated_Source\PSoC4/Counter_1.c **** {
  39:Generated_Source\PSoC4/Counter_1.c ****         #if (!Counter_1_UsingFixedFunction && !Counter_1_ControlRegRemoved)
  40:Generated_Source\PSoC4/Counter_1.c ****             uint8 ctrl;
  41:Generated_Source\PSoC4/Counter_1.c ****         #endif /* (!Counter_1_UsingFixedFunction && !Counter_1_ControlRegRemoved) */
  42:Generated_Source\PSoC4/Counter_1.c ****         
  43:Generated_Source\PSoC4/Counter_1.c ****         #if(!Counter_1_UsingFixedFunction) 
  44:Generated_Source\PSoC4/Counter_1.c ****             /* Interrupt State Backup for Critical Region*/
  45:Generated_Source\PSoC4/Counter_1.c ****             uint8 Counter_1_interruptState;
  46:Generated_Source\PSoC4/Counter_1.c ****         #endif /* (!Counter_1_UsingFixedFunction) */
  47:Generated_Source\PSoC4/Counter_1.c ****         
  48:Generated_Source\PSoC4/Counter_1.c ****         #if (Counter_1_UsingFixedFunction)
  49:Generated_Source\PSoC4/Counter_1.c ****             /* Clear all bits but the enable bit (if it's already set for Timer operation */
  50:Generated_Source\PSoC4/Counter_1.c ****             Counter_1_CONTROL &= Counter_1_CTRL_ENABLE;
  51:Generated_Source\PSoC4/Counter_1.c ****             
  52:Generated_Source\PSoC4/Counter_1.c ****             /* Clear the mode bits for continuous run mode */
  53:Generated_Source\PSoC4/Counter_1.c ****             #if (CY_PSOC5A)
  54:Generated_Source\PSoC4/Counter_1.c ****                 Counter_1_CONTROL2 &= ((uint8)(~Counter_1_CTRL_MODE_MASK));
  55:Generated_Source\PSoC4/Counter_1.c ****             #endif /* (CY_PSOC5A) */
  56:Generated_Source\PSoC4/Counter_1.c ****             #if (CY_PSOC3 || CY_PSOC5LP)
  57:Generated_Source\PSoC4/Counter_1.c ****                 Counter_1_CONTROL3 &= ((uint8)(~Counter_1_CTRL_MODE_MASK));                
  58:Generated_Source\PSoC4/Counter_1.c ****             #endif /* (CY_PSOC3 || CY_PSOC5LP) */
  59:Generated_Source\PSoC4/Counter_1.c ****             /* Check if One Shot mode is enabled i.e. RunMode !=0*/
  60:Generated_Source\PSoC4/Counter_1.c ****             #if (Counter_1_RunModeUsed != 0x0u)
  61:Generated_Source\PSoC4/Counter_1.c ****                 /* Set 3rd bit of Control register to enable one shot mode */
  62:Generated_Source\PSoC4/Counter_1.c ****                 Counter_1_CONTROL |= Counter_1_ONESHOT;
  63:Generated_Source\PSoC4/Counter_1.c ****             #endif /* (Counter_1_RunModeUsed != 0x0u) */
  64:Generated_Source\PSoC4/Counter_1.c ****             
  65:Generated_Source\PSoC4/Counter_1.c ****             /* Set the IRQ to use the status register interrupts */
  66:Generated_Source\PSoC4/Counter_1.c ****             Counter_1_CONTROL2 |= Counter_1_CTRL2_IRQ_SEL;
  67:Generated_Source\PSoC4/Counter_1.c ****             
  68:Generated_Source\PSoC4/Counter_1.c ****             /* Clear and Set SYNCTC and SYNCCMP bits of RT1 register */
  69:Generated_Source\PSoC4/Counter_1.c ****             Counter_1_RT1 &= ((uint8)(~Counter_1_RT1_MASK));
  70:Generated_Source\PSoC4/Counter_1.c ****             Counter_1_RT1 |= Counter_1_SYNC;     
  71:Generated_Source\PSoC4/Counter_1.c ****                     
  72:Generated_Source\PSoC4/Counter_1.c ****             /*Enable DSI Sync all all inputs of the Timer*/
  73:Generated_Source\PSoC4/Counter_1.c ****             Counter_1_RT1 &= ((uint8)(~Counter_1_SYNCDSI_MASK));
  74:Generated_Source\PSoC4/Counter_1.c ****             Counter_1_RT1 |= Counter_1_SYNCDSI_EN;
  75:Generated_Source\PSoC4/Counter_1.c **** 
  76:Generated_Source\PSoC4/Counter_1.c ****         #else
  77:Generated_Source\PSoC4/Counter_1.c ****             #if(!Counter_1_ControlRegRemoved)
  78:Generated_Source\PSoC4/Counter_1.c ****             /* Set the default compare mode defined in the parameter */
  79:Generated_Source\PSoC4/Counter_1.c ****             ctrl = Counter_1_CONTROL & ((uint8)(~Counter_1_CTRL_CMPMODE_MASK));
  80:Generated_Source\PSoC4/Counter_1.c ****             Counter_1_CONTROL = ctrl | Counter_1_DEFAULT_COMPARE_MODE;
  81:Generated_Source\PSoC4/Counter_1.c ****             
  82:Generated_Source\PSoC4/Counter_1.c ****             /* Set the default capture mode defined in the parameter */
  83:Generated_Source\PSoC4/Counter_1.c ****             ctrl = Counter_1_CONTROL & ((uint8)(~Counter_1_CTRL_CAPMODE_MASK));
  84:Generated_Source\PSoC4/Counter_1.c ****             
  85:Generated_Source\PSoC4/Counter_1.c ****             #if( 0 != Counter_1_CAPTURE_MODE_CONF)
  86:Generated_Source\PSoC4/Counter_1.c ****                 Counter_1_CONTROL = ctrl | Counter_1_DEFAULT_CAPTURE_MODE;
  87:Generated_Source\PSoC4/Counter_1.c ****             #else
  88:Generated_Source\PSoC4/Counter_1.c ****                 Counter_1_CONTROL = ctrl;
  89:Generated_Source\PSoC4/Counter_1.c ****             #endif /* 0 != Counter_1_CAPTURE_MODE */ 
ARM GAS  C:\Users\g\AppData\Local\Temp\ccCVzgX2.s 			page 3


  90:Generated_Source\PSoC4/Counter_1.c ****             
  91:Generated_Source\PSoC4/Counter_1.c ****             #endif /* (!Counter_1_ControlRegRemoved) */
  92:Generated_Source\PSoC4/Counter_1.c ****         #endif /* (Counter_1_UsingFixedFunction) */
  93:Generated_Source\PSoC4/Counter_1.c ****         
  94:Generated_Source\PSoC4/Counter_1.c ****         /* Clear all data in the FIFO's */
  95:Generated_Source\PSoC4/Counter_1.c ****         #if (!Counter_1_UsingFixedFunction)
  96:Generated_Source\PSoC4/Counter_1.c ****             Counter_1_ClearFIFO();
  97:Generated_Source\PSoC4/Counter_1.c ****         #endif /* (!Counter_1_UsingFixedFunction) */
  98:Generated_Source\PSoC4/Counter_1.c ****         
  99:Generated_Source\PSoC4/Counter_1.c ****         /* Set Initial values from Configuration */
 100:Generated_Source\PSoC4/Counter_1.c ****         Counter_1_WritePeriod(Counter_1_INIT_PERIOD_VALUE);
 101:Generated_Source\PSoC4/Counter_1.c ****         #if (!(Counter_1_UsingFixedFunction && (CY_PSOC5A)))
 102:Generated_Source\PSoC4/Counter_1.c ****             Counter_1_WriteCounter(Counter_1_INIT_COUNTER_VALUE);
 103:Generated_Source\PSoC4/Counter_1.c ****         #endif /* (!(Counter_1_UsingFixedFunction && (CY_PSOC5A))) */
 104:Generated_Source\PSoC4/Counter_1.c ****         Counter_1_SetInterruptMode(Counter_1_INIT_INTERRUPTS_MASK);
 105:Generated_Source\PSoC4/Counter_1.c ****         
 106:Generated_Source\PSoC4/Counter_1.c ****         #if (!Counter_1_UsingFixedFunction)
 107:Generated_Source\PSoC4/Counter_1.c ****             /* Read the status register to clear the unwanted interrupts */
 108:Generated_Source\PSoC4/Counter_1.c ****             (void)Counter_1_ReadStatusRegister();
 109:Generated_Source\PSoC4/Counter_1.c ****             /* Set the compare value (only available to non-fixed function implementation */
 110:Generated_Source\PSoC4/Counter_1.c ****             Counter_1_WriteCompare(Counter_1_INIT_COMPARE_VALUE);
 111:Generated_Source\PSoC4/Counter_1.c ****             /* Use the interrupt output of the status register for IRQ output */
 112:Generated_Source\PSoC4/Counter_1.c ****             
 113:Generated_Source\PSoC4/Counter_1.c ****             /* CyEnterCriticalRegion and CyExitCriticalRegion are used to mark following region cri
 114:Generated_Source\PSoC4/Counter_1.c ****             /* Enter Critical Region*/
 115:Generated_Source\PSoC4/Counter_1.c ****             Counter_1_interruptState = CyEnterCriticalSection();
 116:Generated_Source\PSoC4/Counter_1.c ****             
 117:Generated_Source\PSoC4/Counter_1.c ****             Counter_1_STATUS_AUX_CTRL |= Counter_1_STATUS_ACTL_INT_EN_MASK;
 118:Generated_Source\PSoC4/Counter_1.c ****             
 119:Generated_Source\PSoC4/Counter_1.c ****             /* Exit Critical Region*/
 120:Generated_Source\PSoC4/Counter_1.c ****             CyExitCriticalSection(Counter_1_interruptState);
 121:Generated_Source\PSoC4/Counter_1.c ****             
 122:Generated_Source\PSoC4/Counter_1.c ****         #endif /* (!Counter_1_UsingFixedFunction) */
 123:Generated_Source\PSoC4/Counter_1.c **** }
 124:Generated_Source\PSoC4/Counter_1.c **** 
 125:Generated_Source\PSoC4/Counter_1.c **** 
 126:Generated_Source\PSoC4/Counter_1.c **** /*******************************************************************************
 127:Generated_Source\PSoC4/Counter_1.c **** * Function Name: Counter_1_Enable
 128:Generated_Source\PSoC4/Counter_1.c **** ********************************************************************************
 129:Generated_Source\PSoC4/Counter_1.c **** * Summary:
 130:Generated_Source\PSoC4/Counter_1.c **** *     Enable the Counter
 131:Generated_Source\PSoC4/Counter_1.c **** * 
 132:Generated_Source\PSoC4/Counter_1.c **** * Parameters:  
 133:Generated_Source\PSoC4/Counter_1.c **** *  void  
 134:Generated_Source\PSoC4/Counter_1.c **** *
 135:Generated_Source\PSoC4/Counter_1.c **** * Return: 
 136:Generated_Source\PSoC4/Counter_1.c **** *  void
 137:Generated_Source\PSoC4/Counter_1.c **** *
 138:Generated_Source\PSoC4/Counter_1.c **** * Side Effects: 
 139:Generated_Source\PSoC4/Counter_1.c **** *   If the Enable mode is set to Hardware only then this function has no effect 
 140:Generated_Source\PSoC4/Counter_1.c **** *   on the operation of the counter.
 141:Generated_Source\PSoC4/Counter_1.c **** *
 142:Generated_Source\PSoC4/Counter_1.c **** *******************************************************************************/
 143:Generated_Source\PSoC4/Counter_1.c **** void Counter_1_Enable(void) 
 144:Generated_Source\PSoC4/Counter_1.c **** {
  26              		.loc 1 144 0
  27              		.cfi_startproc
ARM GAS  C:\Users\g\AppData\Local\Temp\ccCVzgX2.s 			page 4


 145:Generated_Source\PSoC4/Counter_1.c ****     /* Globally Enable the Fixed Function Block chosen */
 146:Generated_Source\PSoC4/Counter_1.c ****     #if (Counter_1_UsingFixedFunction)
 147:Generated_Source\PSoC4/Counter_1.c ****         Counter_1_GLOBAL_ENABLE |= Counter_1_BLOCK_EN_MASK;
 148:Generated_Source\PSoC4/Counter_1.c ****         Counter_1_GLOBAL_STBY_ENABLE |= Counter_1_BLOCK_STBY_EN_MASK;
 149:Generated_Source\PSoC4/Counter_1.c ****     #endif /* (Counter_1_UsingFixedFunction) */  
 150:Generated_Source\PSoC4/Counter_1.c ****         
 151:Generated_Source\PSoC4/Counter_1.c ****     /* Enable the counter from the control register  */
 152:Generated_Source\PSoC4/Counter_1.c ****     /* If Fixed Function then make sure Mode is set correctly */
 153:Generated_Source\PSoC4/Counter_1.c ****     /* else make sure reset is clear */
 154:Generated_Source\PSoC4/Counter_1.c ****     #if(!Counter_1_ControlRegRemoved || Counter_1_UsingFixedFunction)
 155:Generated_Source\PSoC4/Counter_1.c ****         Counter_1_CONTROL |= Counter_1_CTRL_ENABLE;                
  28              		.loc 1 155 0
  29 0000 024A     		ldr	r2, .L2
  30 0002 1178     		ldrb	r1, [r2]
  31 0004 8023     		mov	r3, #128
  32 0006 0B43     		orr	r3, r1
  33 0008 1370     		strb	r3, [r2]
 156:Generated_Source\PSoC4/Counter_1.c ****     #endif /* (!Counter_1_ControlRegRemoved || Counter_1_UsingFixedFunction) */
 157:Generated_Source\PSoC4/Counter_1.c ****     
 158:Generated_Source\PSoC4/Counter_1.c **** }
  34              		.loc 1 158 0
  35              		@ sp needed
  36 000a 7047     		bx	lr
  37              	.L3:
  38              		.align	2
  39              	.L2:
  40 000c 70000F40 		.word	1074724976
  41              		.cfi_endproc
  42              	.LFE1:
  43              		.size	Counter_1_Enable, .-Counter_1_Enable
  44              		.section	.text.Counter_1_Stop,"ax",%progbits
  45              		.align	2
  46              		.global	Counter_1_Stop
  47              		.code	16
  48              		.thumb_func
  49              		.type	Counter_1_Stop, %function
  50              	Counter_1_Stop:
  51              	.LFB3:
 159:Generated_Source\PSoC4/Counter_1.c **** 
 160:Generated_Source\PSoC4/Counter_1.c **** 
 161:Generated_Source\PSoC4/Counter_1.c **** /*******************************************************************************
 162:Generated_Source\PSoC4/Counter_1.c **** * Function Name: Counter_1_Start
 163:Generated_Source\PSoC4/Counter_1.c **** ********************************************************************************
 164:Generated_Source\PSoC4/Counter_1.c **** * Summary:
 165:Generated_Source\PSoC4/Counter_1.c **** *  Enables the counter for operation 
 166:Generated_Source\PSoC4/Counter_1.c **** *
 167:Generated_Source\PSoC4/Counter_1.c **** * Parameters:  
 168:Generated_Source\PSoC4/Counter_1.c **** *  void  
 169:Generated_Source\PSoC4/Counter_1.c **** *
 170:Generated_Source\PSoC4/Counter_1.c **** * Return: 
 171:Generated_Source\PSoC4/Counter_1.c **** *  void
 172:Generated_Source\PSoC4/Counter_1.c **** *
 173:Generated_Source\PSoC4/Counter_1.c **** * Global variables:
 174:Generated_Source\PSoC4/Counter_1.c **** *  Counter_1_initVar: Is modified when this function is called for the  
 175:Generated_Source\PSoC4/Counter_1.c **** *   first time. Is used to ensure that initialization happens only once.
 176:Generated_Source\PSoC4/Counter_1.c **** *
 177:Generated_Source\PSoC4/Counter_1.c **** *******************************************************************************/
ARM GAS  C:\Users\g\AppData\Local\Temp\ccCVzgX2.s 			page 5


 178:Generated_Source\PSoC4/Counter_1.c **** void Counter_1_Start(void) 
 179:Generated_Source\PSoC4/Counter_1.c **** {
 180:Generated_Source\PSoC4/Counter_1.c ****     if(Counter_1_initVar == 0u)
 181:Generated_Source\PSoC4/Counter_1.c ****     {
 182:Generated_Source\PSoC4/Counter_1.c ****         Counter_1_Init();
 183:Generated_Source\PSoC4/Counter_1.c ****         
 184:Generated_Source\PSoC4/Counter_1.c ****         Counter_1_initVar = 1u; /* Clear this bit for Initialization */        
 185:Generated_Source\PSoC4/Counter_1.c ****     }
 186:Generated_Source\PSoC4/Counter_1.c ****     
 187:Generated_Source\PSoC4/Counter_1.c ****     /* Enable the Counter */
 188:Generated_Source\PSoC4/Counter_1.c ****     Counter_1_Enable();        
 189:Generated_Source\PSoC4/Counter_1.c **** }
 190:Generated_Source\PSoC4/Counter_1.c **** 
 191:Generated_Source\PSoC4/Counter_1.c **** 
 192:Generated_Source\PSoC4/Counter_1.c **** /*******************************************************************************
 193:Generated_Source\PSoC4/Counter_1.c **** * Function Name: Counter_1_Stop
 194:Generated_Source\PSoC4/Counter_1.c **** ********************************************************************************
 195:Generated_Source\PSoC4/Counter_1.c **** * Summary:
 196:Generated_Source\PSoC4/Counter_1.c **** * Halts the counter, but does not change any modes or disable interrupts.
 197:Generated_Source\PSoC4/Counter_1.c **** *
 198:Generated_Source\PSoC4/Counter_1.c **** * Parameters:  
 199:Generated_Source\PSoC4/Counter_1.c **** *  void  
 200:Generated_Source\PSoC4/Counter_1.c **** *
 201:Generated_Source\PSoC4/Counter_1.c **** * Return: 
 202:Generated_Source\PSoC4/Counter_1.c **** *  void
 203:Generated_Source\PSoC4/Counter_1.c **** *
 204:Generated_Source\PSoC4/Counter_1.c **** * Side Effects: If the Enable mode is set to Hardware only then this function
 205:Generated_Source\PSoC4/Counter_1.c **** *               has no effect on the operation of the counter.
 206:Generated_Source\PSoC4/Counter_1.c **** *
 207:Generated_Source\PSoC4/Counter_1.c **** *******************************************************************************/
 208:Generated_Source\PSoC4/Counter_1.c **** void Counter_1_Stop(void) 
 209:Generated_Source\PSoC4/Counter_1.c **** {
  52              		.loc 1 209 0
  53              		.cfi_startproc
 210:Generated_Source\PSoC4/Counter_1.c ****     /* Disable Counter */
 211:Generated_Source\PSoC4/Counter_1.c ****     #if(!Counter_1_ControlRegRemoved || Counter_1_UsingFixedFunction)
 212:Generated_Source\PSoC4/Counter_1.c ****         Counter_1_CONTROL &= ((uint8)(~Counter_1_CTRL_ENABLE));        
  54              		.loc 1 212 0
  55 0000 024A     		ldr	r2, .L5
  56 0002 1178     		ldrb	r1, [r2]
  57 0004 7F23     		mov	r3, #127
  58 0006 0B40     		and	r3, r1
  59 0008 1370     		strb	r3, [r2]
 213:Generated_Source\PSoC4/Counter_1.c ****     #endif /* (!Counter_1_ControlRegRemoved || Counter_1_UsingFixedFunction) */
 214:Generated_Source\PSoC4/Counter_1.c ****     
 215:Generated_Source\PSoC4/Counter_1.c ****     /* Globally disable the Fixed Function Block chosen */
 216:Generated_Source\PSoC4/Counter_1.c ****     #if (Counter_1_UsingFixedFunction)
 217:Generated_Source\PSoC4/Counter_1.c ****         Counter_1_GLOBAL_ENABLE &= ((uint8)(~Counter_1_BLOCK_EN_MASK));
 218:Generated_Source\PSoC4/Counter_1.c ****         Counter_1_GLOBAL_STBY_ENABLE &= ((uint8)(~Counter_1_BLOCK_STBY_EN_MASK));
 219:Generated_Source\PSoC4/Counter_1.c ****     #endif /* (Counter_1_UsingFixedFunction) */
 220:Generated_Source\PSoC4/Counter_1.c **** }
  60              		.loc 1 220 0
  61              		@ sp needed
  62 000a 7047     		bx	lr
  63              	.L6:
  64              		.align	2
  65              	.L5:
ARM GAS  C:\Users\g\AppData\Local\Temp\ccCVzgX2.s 			page 6


  66 000c 70000F40 		.word	1074724976
  67              		.cfi_endproc
  68              	.LFE3:
  69              		.size	Counter_1_Stop, .-Counter_1_Stop
  70              		.section	.text.Counter_1_SetInterruptMode,"ax",%progbits
  71              		.align	2
  72              		.global	Counter_1_SetInterruptMode
  73              		.code	16
  74              		.thumb_func
  75              		.type	Counter_1_SetInterruptMode, %function
  76              	Counter_1_SetInterruptMode:
  77              	.LFB4:
 221:Generated_Source\PSoC4/Counter_1.c **** 
 222:Generated_Source\PSoC4/Counter_1.c **** 
 223:Generated_Source\PSoC4/Counter_1.c **** /*******************************************************************************
 224:Generated_Source\PSoC4/Counter_1.c **** * Function Name: Counter_1_SetInterruptMode
 225:Generated_Source\PSoC4/Counter_1.c **** ********************************************************************************
 226:Generated_Source\PSoC4/Counter_1.c **** * Summary:
 227:Generated_Source\PSoC4/Counter_1.c **** * Configures which interrupt sources are enabled to generate the final interrupt
 228:Generated_Source\PSoC4/Counter_1.c **** *
 229:Generated_Source\PSoC4/Counter_1.c **** * Parameters:  
 230:Generated_Source\PSoC4/Counter_1.c **** *  InterruptsMask: This parameter is an or'd collection of the status bits
 231:Generated_Source\PSoC4/Counter_1.c **** *                   which will be allowed to generate the counters interrupt.   
 232:Generated_Source\PSoC4/Counter_1.c **** *
 233:Generated_Source\PSoC4/Counter_1.c **** * Return: 
 234:Generated_Source\PSoC4/Counter_1.c **** *  void
 235:Generated_Source\PSoC4/Counter_1.c **** *
 236:Generated_Source\PSoC4/Counter_1.c **** *******************************************************************************/
 237:Generated_Source\PSoC4/Counter_1.c **** void Counter_1_SetInterruptMode(uint8 interruptsMask) 
 238:Generated_Source\PSoC4/Counter_1.c **** {
  78              		.loc 1 238 0
  79              		.cfi_startproc
  80              	.LVL0:
 239:Generated_Source\PSoC4/Counter_1.c ****     Counter_1_STATUS_MASK = interruptsMask;
  81              		.loc 1 239 0
  82 0000 014B     		ldr	r3, .L8
  83 0002 1870     		strb	r0, [r3]
 240:Generated_Source\PSoC4/Counter_1.c **** }
  84              		.loc 1 240 0
  85              		@ sp needed
  86 0004 7047     		bx	lr
  87              	.L9:
  88 0006 C046     		.align	2
  89              	.L8:
  90 0008 83000F40 		.word	1074724995
  91              		.cfi_endproc
  92              	.LFE4:
  93              		.size	Counter_1_SetInterruptMode, .-Counter_1_SetInterruptMode
  94              		.section	.text.Counter_1_ReadStatusRegister,"ax",%progbits
  95              		.align	2
  96              		.global	Counter_1_ReadStatusRegister
  97              		.code	16
  98              		.thumb_func
  99              		.type	Counter_1_ReadStatusRegister, %function
 100              	Counter_1_ReadStatusRegister:
 101              	.LFB5:
 241:Generated_Source\PSoC4/Counter_1.c **** 
ARM GAS  C:\Users\g\AppData\Local\Temp\ccCVzgX2.s 			page 7


 242:Generated_Source\PSoC4/Counter_1.c **** 
 243:Generated_Source\PSoC4/Counter_1.c **** /*******************************************************************************
 244:Generated_Source\PSoC4/Counter_1.c **** * Function Name: Counter_1_ReadStatusRegister
 245:Generated_Source\PSoC4/Counter_1.c **** ********************************************************************************
 246:Generated_Source\PSoC4/Counter_1.c **** * Summary:
 247:Generated_Source\PSoC4/Counter_1.c **** *   Reads the status register and returns it's state. This function should use
 248:Generated_Source\PSoC4/Counter_1.c **** *       defined types for the bit-field information as the bits in this
 249:Generated_Source\PSoC4/Counter_1.c **** *       register may be permuteable.
 250:Generated_Source\PSoC4/Counter_1.c **** *
 251:Generated_Source\PSoC4/Counter_1.c **** * Parameters:  
 252:Generated_Source\PSoC4/Counter_1.c **** *  void
 253:Generated_Source\PSoC4/Counter_1.c **** *
 254:Generated_Source\PSoC4/Counter_1.c **** * Return: 
 255:Generated_Source\PSoC4/Counter_1.c **** *  (uint8) The contents of the status register
 256:Generated_Source\PSoC4/Counter_1.c **** *
 257:Generated_Source\PSoC4/Counter_1.c **** * Side Effects:
 258:Generated_Source\PSoC4/Counter_1.c **** *   Status register bits may be clear on read. 
 259:Generated_Source\PSoC4/Counter_1.c **** *
 260:Generated_Source\PSoC4/Counter_1.c **** *******************************************************************************/
 261:Generated_Source\PSoC4/Counter_1.c **** uint8   Counter_1_ReadStatusRegister(void) 
 262:Generated_Source\PSoC4/Counter_1.c **** {
 102              		.loc 1 262 0
 103              		.cfi_startproc
 263:Generated_Source\PSoC4/Counter_1.c ****     return Counter_1_STATUS;
 104              		.loc 1 263 0
 105 0000 014B     		ldr	r3, .L11
 106 0002 1878     		ldrb	r0, [r3]
 107 0004 C0B2     		uxtb	r0, r0
 264:Generated_Source\PSoC4/Counter_1.c **** }
 108              		.loc 1 264 0
 109              		@ sp needed
 110 0006 7047     		bx	lr
 111              	.L12:
 112              		.align	2
 113              	.L11:
 114 0008 63000F40 		.word	1074724963
 115              		.cfi_endproc
 116              	.LFE5:
 117              		.size	Counter_1_ReadStatusRegister, .-Counter_1_ReadStatusRegister
 118              		.section	.text.Counter_1_ReadControlRegister,"ax",%progbits
 119              		.align	2
 120              		.global	Counter_1_ReadControlRegister
 121              		.code	16
 122              		.thumb_func
 123              		.type	Counter_1_ReadControlRegister, %function
 124              	Counter_1_ReadControlRegister:
 125              	.LFB6:
 265:Generated_Source\PSoC4/Counter_1.c **** 
 266:Generated_Source\PSoC4/Counter_1.c **** 
 267:Generated_Source\PSoC4/Counter_1.c **** #if(!Counter_1_ControlRegRemoved)
 268:Generated_Source\PSoC4/Counter_1.c **** /*******************************************************************************
 269:Generated_Source\PSoC4/Counter_1.c **** * Function Name: Counter_1_ReadControlRegister
 270:Generated_Source\PSoC4/Counter_1.c **** ********************************************************************************
 271:Generated_Source\PSoC4/Counter_1.c **** * Summary:
 272:Generated_Source\PSoC4/Counter_1.c **** *   Reads the control register and returns it's state. This function should use
 273:Generated_Source\PSoC4/Counter_1.c **** *       defined types for the bit-field information as the bits in this
 274:Generated_Source\PSoC4/Counter_1.c **** *       register may be permuteable.
ARM GAS  C:\Users\g\AppData\Local\Temp\ccCVzgX2.s 			page 8


 275:Generated_Source\PSoC4/Counter_1.c **** *
 276:Generated_Source\PSoC4/Counter_1.c **** * Parameters:  
 277:Generated_Source\PSoC4/Counter_1.c **** *  void
 278:Generated_Source\PSoC4/Counter_1.c **** *
 279:Generated_Source\PSoC4/Counter_1.c **** * Return: 
 280:Generated_Source\PSoC4/Counter_1.c **** *  (uint8) The contents of the control register
 281:Generated_Source\PSoC4/Counter_1.c **** *
 282:Generated_Source\PSoC4/Counter_1.c **** *******************************************************************************/
 283:Generated_Source\PSoC4/Counter_1.c **** uint8   Counter_1_ReadControlRegister(void) 
 284:Generated_Source\PSoC4/Counter_1.c **** {
 126              		.loc 1 284 0
 127              		.cfi_startproc
 285:Generated_Source\PSoC4/Counter_1.c ****     return Counter_1_CONTROL;
 128              		.loc 1 285 0
 129 0000 014B     		ldr	r3, .L14
 130 0002 1878     		ldrb	r0, [r3]
 131 0004 C0B2     		uxtb	r0, r0
 286:Generated_Source\PSoC4/Counter_1.c **** }
 132              		.loc 1 286 0
 133              		@ sp needed
 134 0006 7047     		bx	lr
 135              	.L15:
 136              		.align	2
 137              	.L14:
 138 0008 70000F40 		.word	1074724976
 139              		.cfi_endproc
 140              	.LFE6:
 141              		.size	Counter_1_ReadControlRegister, .-Counter_1_ReadControlRegister
 142              		.section	.text.Counter_1_WriteControlRegister,"ax",%progbits
 143              		.align	2
 144              		.global	Counter_1_WriteControlRegister
 145              		.code	16
 146              		.thumb_func
 147              		.type	Counter_1_WriteControlRegister, %function
 148              	Counter_1_WriteControlRegister:
 149              	.LFB7:
 287:Generated_Source\PSoC4/Counter_1.c **** 
 288:Generated_Source\PSoC4/Counter_1.c **** 
 289:Generated_Source\PSoC4/Counter_1.c **** /*******************************************************************************
 290:Generated_Source\PSoC4/Counter_1.c **** * Function Name: Counter_1_WriteControlRegister
 291:Generated_Source\PSoC4/Counter_1.c **** ********************************************************************************
 292:Generated_Source\PSoC4/Counter_1.c **** * Summary:
 293:Generated_Source\PSoC4/Counter_1.c **** *   Sets the bit-field of the control register.  This function should use
 294:Generated_Source\PSoC4/Counter_1.c **** *       defined types for the bit-field information as the bits in this
 295:Generated_Source\PSoC4/Counter_1.c **** *       register may be permuteable.
 296:Generated_Source\PSoC4/Counter_1.c **** *
 297:Generated_Source\PSoC4/Counter_1.c **** * Parameters:  
 298:Generated_Source\PSoC4/Counter_1.c **** *  void
 299:Generated_Source\PSoC4/Counter_1.c **** *
 300:Generated_Source\PSoC4/Counter_1.c **** * Return: 
 301:Generated_Source\PSoC4/Counter_1.c **** *  (uint8) The contents of the control register
 302:Generated_Source\PSoC4/Counter_1.c **** *
 303:Generated_Source\PSoC4/Counter_1.c **** *******************************************************************************/
 304:Generated_Source\PSoC4/Counter_1.c **** void    Counter_1_WriteControlRegister(uint8 control) 
 305:Generated_Source\PSoC4/Counter_1.c **** {
 150              		.loc 1 305 0
 151              		.cfi_startproc
ARM GAS  C:\Users\g\AppData\Local\Temp\ccCVzgX2.s 			page 9


 152              	.LVL1:
 306:Generated_Source\PSoC4/Counter_1.c ****     Counter_1_CONTROL = control;
 153              		.loc 1 306 0
 154 0000 014B     		ldr	r3, .L17
 155 0002 1870     		strb	r0, [r3]
 307:Generated_Source\PSoC4/Counter_1.c **** }
 156              		.loc 1 307 0
 157              		@ sp needed
 158 0004 7047     		bx	lr
 159              	.L18:
 160 0006 C046     		.align	2
 161              	.L17:
 162 0008 70000F40 		.word	1074724976
 163              		.cfi_endproc
 164              	.LFE7:
 165              		.size	Counter_1_WriteControlRegister, .-Counter_1_WriteControlRegister
 166              		.section	.text.Counter_1_WriteCounter,"ax",%progbits
 167              		.align	2
 168              		.global	Counter_1_WriteCounter
 169              		.code	16
 170              		.thumb_func
 171              		.type	Counter_1_WriteCounter, %function
 172              	Counter_1_WriteCounter:
 173              	.LFB8:
 308:Generated_Source\PSoC4/Counter_1.c **** 
 309:Generated_Source\PSoC4/Counter_1.c **** #endif  /* (!Counter_1_ControlRegRemoved) */
 310:Generated_Source\PSoC4/Counter_1.c **** 
 311:Generated_Source\PSoC4/Counter_1.c **** 
 312:Generated_Source\PSoC4/Counter_1.c **** #if (!(Counter_1_UsingFixedFunction && (CY_PSOC5A)))
 313:Generated_Source\PSoC4/Counter_1.c **** /*******************************************************************************
 314:Generated_Source\PSoC4/Counter_1.c **** * Function Name: Counter_1_WriteCounter
 315:Generated_Source\PSoC4/Counter_1.c **** ********************************************************************************
 316:Generated_Source\PSoC4/Counter_1.c **** * Summary:
 317:Generated_Source\PSoC4/Counter_1.c **** *   This funtion is used to set the counter to a specific value
 318:Generated_Source\PSoC4/Counter_1.c **** *
 319:Generated_Source\PSoC4/Counter_1.c **** * Parameters:  
 320:Generated_Source\PSoC4/Counter_1.c **** *  counter:  New counter value. 
 321:Generated_Source\PSoC4/Counter_1.c **** *
 322:Generated_Source\PSoC4/Counter_1.c **** * Return: 
 323:Generated_Source\PSoC4/Counter_1.c **** *  void 
 324:Generated_Source\PSoC4/Counter_1.c **** *
 325:Generated_Source\PSoC4/Counter_1.c **** *******************************************************************************/
 326:Generated_Source\PSoC4/Counter_1.c **** void Counter_1_WriteCounter(uint16 counter) \
 327:Generated_Source\PSoC4/Counter_1.c ****                                    
 328:Generated_Source\PSoC4/Counter_1.c **** {
 174              		.loc 1 328 0
 175              		.cfi_startproc
 176              	.LVL2:
 329:Generated_Source\PSoC4/Counter_1.c ****     #if(Counter_1_UsingFixedFunction)
 330:Generated_Source\PSoC4/Counter_1.c ****         /* assert if block is already enabled */
 331:Generated_Source\PSoC4/Counter_1.c ****         CYASSERT (0u == (Counter_1_GLOBAL_ENABLE & Counter_1_BLOCK_EN_MASK));
 332:Generated_Source\PSoC4/Counter_1.c ****         /* If block is disabled, enable it and then write the counter */
 333:Generated_Source\PSoC4/Counter_1.c ****         Counter_1_GLOBAL_ENABLE |= Counter_1_BLOCK_EN_MASK;
 334:Generated_Source\PSoC4/Counter_1.c ****         CY_SET_REG16(Counter_1_COUNTER_LSB_PTR, (uint16)counter);
 335:Generated_Source\PSoC4/Counter_1.c ****         Counter_1_GLOBAL_ENABLE &= ((uint8)(~Counter_1_BLOCK_EN_MASK));
 336:Generated_Source\PSoC4/Counter_1.c ****     #else
 337:Generated_Source\PSoC4/Counter_1.c ****         CY_SET_REG16(Counter_1_COUNTER_LSB_PTR, counter);
ARM GAS  C:\Users\g\AppData\Local\Temp\ccCVzgX2.s 			page 10


 177              		.loc 1 337 0
 178 0000 014B     		ldr	r3, .L20
 179 0002 1880     		strh	r0, [r3]
 338:Generated_Source\PSoC4/Counter_1.c ****     #endif /* (Counter_1_UsingFixedFunction) */
 339:Generated_Source\PSoC4/Counter_1.c **** }
 180              		.loc 1 339 0
 181              		@ sp needed
 182 0004 7047     		bx	lr
 183              	.L21:
 184 0006 C046     		.align	2
 185              	.L20:
 186 0008 04100F40 		.word	1074728964
 187              		.cfi_endproc
 188              	.LFE8:
 189              		.size	Counter_1_WriteCounter, .-Counter_1_WriteCounter
 190              		.section	.text.Counter_1_ReadCounter,"ax",%progbits
 191              		.align	2
 192              		.global	Counter_1_ReadCounter
 193              		.code	16
 194              		.thumb_func
 195              		.type	Counter_1_ReadCounter, %function
 196              	Counter_1_ReadCounter:
 197              	.LFB9:
 340:Generated_Source\PSoC4/Counter_1.c **** #endif /* (!(Counter_1_UsingFixedFunction && (CY_PSOC5A))) */
 341:Generated_Source\PSoC4/Counter_1.c **** 
 342:Generated_Source\PSoC4/Counter_1.c **** 
 343:Generated_Source\PSoC4/Counter_1.c **** /*******************************************************************************
 344:Generated_Source\PSoC4/Counter_1.c **** * Function Name: Counter_1_ReadCounter
 345:Generated_Source\PSoC4/Counter_1.c **** ********************************************************************************
 346:Generated_Source\PSoC4/Counter_1.c **** * Summary:
 347:Generated_Source\PSoC4/Counter_1.c **** * Returns the current value of the counter.  It doesn't matter
 348:Generated_Source\PSoC4/Counter_1.c **** * if the counter is enabled or running.
 349:Generated_Source\PSoC4/Counter_1.c **** *
 350:Generated_Source\PSoC4/Counter_1.c **** * Parameters:  
 351:Generated_Source\PSoC4/Counter_1.c **** *  void:  
 352:Generated_Source\PSoC4/Counter_1.c **** *
 353:Generated_Source\PSoC4/Counter_1.c **** * Return: 
 354:Generated_Source\PSoC4/Counter_1.c **** *  (uint16) The present value of the counter.
 355:Generated_Source\PSoC4/Counter_1.c **** *
 356:Generated_Source\PSoC4/Counter_1.c **** *******************************************************************************/
 357:Generated_Source\PSoC4/Counter_1.c **** uint16 Counter_1_ReadCounter(void) 
 358:Generated_Source\PSoC4/Counter_1.c **** {
 198              		.loc 1 358 0
 199              		.cfi_startproc
 359:Generated_Source\PSoC4/Counter_1.c ****     /* Force capture by reading Accumulator */
 360:Generated_Source\PSoC4/Counter_1.c ****     /* Must first do a software capture to be able to read the counter */
 361:Generated_Source\PSoC4/Counter_1.c ****     /* It is up to the user code to make sure there isn't already captured data in the FIFO */
 362:Generated_Source\PSoC4/Counter_1.c ****     #if(Counter_1_UsingFixedFunction)
 363:Generated_Source\PSoC4/Counter_1.c **** 		(void)CY_GET_REG16(Counter_1_COUNTER_LSB_PTR);
 364:Generated_Source\PSoC4/Counter_1.c **** 	#else
 365:Generated_Source\PSoC4/Counter_1.c **** 		(void)CY_GET_REG8(Counter_1_COUNTER_LSB_PTR_8BIT);
 200              		.loc 1 365 0
 201 0000 024B     		ldr	r3, .L23
 202 0002 1B78     		ldrb	r3, [r3]
 366:Generated_Source\PSoC4/Counter_1.c **** 	#endif/* (Counter_1_UsingFixedFunction) */
 367:Generated_Source\PSoC4/Counter_1.c ****     
 368:Generated_Source\PSoC4/Counter_1.c ****     /* Read the data from the FIFO (or capture register for Fixed Function)*/
ARM GAS  C:\Users\g\AppData\Local\Temp\ccCVzgX2.s 			page 11


 369:Generated_Source\PSoC4/Counter_1.c ****     #if(Counter_1_UsingFixedFunction)
 370:Generated_Source\PSoC4/Counter_1.c ****         return ((uint16)CY_GET_REG16(Counter_1_STATICCOUNT_LSB_PTR));
 371:Generated_Source\PSoC4/Counter_1.c ****     #else
 372:Generated_Source\PSoC4/Counter_1.c ****         return (CY_GET_REG16(Counter_1_STATICCOUNT_LSB_PTR));
 203              		.loc 1 372 0
 204 0004 024B     		ldr	r3, .L23+4
 205 0006 1888     		ldrh	r0, [r3]
 206 0008 80B2     		uxth	r0, r0
 373:Generated_Source\PSoC4/Counter_1.c ****     #endif /* (Counter_1_UsingFixedFunction) */
 374:Generated_Source\PSoC4/Counter_1.c **** }
 207              		.loc 1 374 0
 208              		@ sp needed
 209 000a 7047     		bx	lr
 210              	.L24:
 211              		.align	2
 212              	.L23:
 213 000c 02000F40 		.word	1074724866
 214 0010 84100F40 		.word	1074729092
 215              		.cfi_endproc
 216              	.LFE9:
 217              		.size	Counter_1_ReadCounter, .-Counter_1_ReadCounter
 218              		.section	.text.Counter_1_ReadCapture,"ax",%progbits
 219              		.align	2
 220              		.global	Counter_1_ReadCapture
 221              		.code	16
 222              		.thumb_func
 223              		.type	Counter_1_ReadCapture, %function
 224              	Counter_1_ReadCapture:
 225              	.LFB10:
 375:Generated_Source\PSoC4/Counter_1.c **** 
 376:Generated_Source\PSoC4/Counter_1.c **** 
 377:Generated_Source\PSoC4/Counter_1.c **** /*******************************************************************************
 378:Generated_Source\PSoC4/Counter_1.c **** * Function Name: Counter_1_ReadCapture
 379:Generated_Source\PSoC4/Counter_1.c **** ********************************************************************************
 380:Generated_Source\PSoC4/Counter_1.c **** * Summary:
 381:Generated_Source\PSoC4/Counter_1.c **** *   This function returns the last value captured.
 382:Generated_Source\PSoC4/Counter_1.c **** *
 383:Generated_Source\PSoC4/Counter_1.c **** * Parameters:  
 384:Generated_Source\PSoC4/Counter_1.c **** *  void
 385:Generated_Source\PSoC4/Counter_1.c **** *
 386:Generated_Source\PSoC4/Counter_1.c **** * Return: 
 387:Generated_Source\PSoC4/Counter_1.c **** *  (uint16) Present Capture value.
 388:Generated_Source\PSoC4/Counter_1.c **** *
 389:Generated_Source\PSoC4/Counter_1.c **** *******************************************************************************/
 390:Generated_Source\PSoC4/Counter_1.c **** uint16 Counter_1_ReadCapture(void) 
 391:Generated_Source\PSoC4/Counter_1.c **** {
 226              		.loc 1 391 0
 227              		.cfi_startproc
 392:Generated_Source\PSoC4/Counter_1.c ****     #if(Counter_1_UsingFixedFunction)
 393:Generated_Source\PSoC4/Counter_1.c ****         return ((uint16)CY_GET_REG16(Counter_1_STATICCOUNT_LSB_PTR));
 394:Generated_Source\PSoC4/Counter_1.c ****     #else
 395:Generated_Source\PSoC4/Counter_1.c ****         return (CY_GET_REG16(Counter_1_STATICCOUNT_LSB_PTR));
 228              		.loc 1 395 0
 229 0000 014B     		ldr	r3, .L26
 230 0002 1888     		ldrh	r0, [r3]
 231 0004 80B2     		uxth	r0, r0
 396:Generated_Source\PSoC4/Counter_1.c ****     #endif /* (Counter_1_UsingFixedFunction) */
ARM GAS  C:\Users\g\AppData\Local\Temp\ccCVzgX2.s 			page 12


 397:Generated_Source\PSoC4/Counter_1.c **** }
 232              		.loc 1 397 0
 233              		@ sp needed
 234 0006 7047     		bx	lr
 235              	.L27:
 236              		.align	2
 237              	.L26:
 238 0008 84100F40 		.word	1074729092
 239              		.cfi_endproc
 240              	.LFE10:
 241              		.size	Counter_1_ReadCapture, .-Counter_1_ReadCapture
 242              		.section	.text.Counter_1_WritePeriod,"ax",%progbits
 243              		.align	2
 244              		.global	Counter_1_WritePeriod
 245              		.code	16
 246              		.thumb_func
 247              		.type	Counter_1_WritePeriod, %function
 248              	Counter_1_WritePeriod:
 249              	.LFB11:
 398:Generated_Source\PSoC4/Counter_1.c **** 
 399:Generated_Source\PSoC4/Counter_1.c **** 
 400:Generated_Source\PSoC4/Counter_1.c **** /*******************************************************************************
 401:Generated_Source\PSoC4/Counter_1.c **** * Function Name: Counter_1_WritePeriod
 402:Generated_Source\PSoC4/Counter_1.c **** ********************************************************************************
 403:Generated_Source\PSoC4/Counter_1.c **** * Summary:
 404:Generated_Source\PSoC4/Counter_1.c **** * Changes the period of the counter.  The new period 
 405:Generated_Source\PSoC4/Counter_1.c **** * will be loaded the next time terminal count is detected.
 406:Generated_Source\PSoC4/Counter_1.c **** *
 407:Generated_Source\PSoC4/Counter_1.c **** * Parameters:  
 408:Generated_Source\PSoC4/Counter_1.c **** *  period: (uint16) A value of 0 will result in
 409:Generated_Source\PSoC4/Counter_1.c **** *         the counter remaining at zero.  
 410:Generated_Source\PSoC4/Counter_1.c **** *
 411:Generated_Source\PSoC4/Counter_1.c **** * Return: 
 412:Generated_Source\PSoC4/Counter_1.c **** *  void
 413:Generated_Source\PSoC4/Counter_1.c **** *
 414:Generated_Source\PSoC4/Counter_1.c **** *******************************************************************************/
 415:Generated_Source\PSoC4/Counter_1.c **** void Counter_1_WritePeriod(uint16 period) 
 416:Generated_Source\PSoC4/Counter_1.c **** {
 250              		.loc 1 416 0
 251              		.cfi_startproc
 252              	.LVL3:
 417:Generated_Source\PSoC4/Counter_1.c ****     #if(Counter_1_UsingFixedFunction)
 418:Generated_Source\PSoC4/Counter_1.c ****         CY_SET_REG16(Counter_1_PERIOD_LSB_PTR,(uint16)period);
 419:Generated_Source\PSoC4/Counter_1.c ****     #else
 420:Generated_Source\PSoC4/Counter_1.c ****         CY_SET_REG16(Counter_1_PERIOD_LSB_PTR, period);
 253              		.loc 1 420 0
 254 0000 014B     		ldr	r3, .L29
 255 0002 1880     		strh	r0, [r3]
 421:Generated_Source\PSoC4/Counter_1.c ****     #endif /* (Counter_1_UsingFixedFunction) */
 422:Generated_Source\PSoC4/Counter_1.c **** }
 256              		.loc 1 422 0
 257              		@ sp needed
 258 0004 7047     		bx	lr
 259              	.L30:
 260 0006 C046     		.align	2
 261              	.L29:
 262 0008 44100F40 		.word	1074729028
ARM GAS  C:\Users\g\AppData\Local\Temp\ccCVzgX2.s 			page 13


 263              		.cfi_endproc
 264              	.LFE11:
 265              		.size	Counter_1_WritePeriod, .-Counter_1_WritePeriod
 266              		.section	.text.Counter_1_ReadPeriod,"ax",%progbits
 267              		.align	2
 268              		.global	Counter_1_ReadPeriod
 269              		.code	16
 270              		.thumb_func
 271              		.type	Counter_1_ReadPeriod, %function
 272              	Counter_1_ReadPeriod:
 273              	.LFB12:
 423:Generated_Source\PSoC4/Counter_1.c **** 
 424:Generated_Source\PSoC4/Counter_1.c **** 
 425:Generated_Source\PSoC4/Counter_1.c **** /*******************************************************************************
 426:Generated_Source\PSoC4/Counter_1.c **** * Function Name: Counter_1_ReadPeriod
 427:Generated_Source\PSoC4/Counter_1.c **** ********************************************************************************
 428:Generated_Source\PSoC4/Counter_1.c **** * Summary:
 429:Generated_Source\PSoC4/Counter_1.c **** * Reads the current period value without affecting counter operation.
 430:Generated_Source\PSoC4/Counter_1.c **** *
 431:Generated_Source\PSoC4/Counter_1.c **** * Parameters:  
 432:Generated_Source\PSoC4/Counter_1.c **** *  void:  
 433:Generated_Source\PSoC4/Counter_1.c **** *
 434:Generated_Source\PSoC4/Counter_1.c **** * Return: 
 435:Generated_Source\PSoC4/Counter_1.c **** *  (uint16) Present period value.
 436:Generated_Source\PSoC4/Counter_1.c **** *
 437:Generated_Source\PSoC4/Counter_1.c **** *******************************************************************************/
 438:Generated_Source\PSoC4/Counter_1.c **** uint16 Counter_1_ReadPeriod(void) 
 439:Generated_Source\PSoC4/Counter_1.c **** {
 274              		.loc 1 439 0
 275              		.cfi_startproc
 440:Generated_Source\PSoC4/Counter_1.c ****     #if(Counter_1_UsingFixedFunction)
 441:Generated_Source\PSoC4/Counter_1.c ****         return ((uint16)CY_GET_REG16(Counter_1_PERIOD_LSB_PTR));
 442:Generated_Source\PSoC4/Counter_1.c ****     #else
 443:Generated_Source\PSoC4/Counter_1.c ****         return (CY_GET_REG16(Counter_1_PERIOD_LSB_PTR));
 276              		.loc 1 443 0
 277 0000 014B     		ldr	r3, .L32
 278 0002 1888     		ldrh	r0, [r3]
 279 0004 80B2     		uxth	r0, r0
 444:Generated_Source\PSoC4/Counter_1.c ****     #endif /* (Counter_1_UsingFixedFunction) */
 445:Generated_Source\PSoC4/Counter_1.c **** }
 280              		.loc 1 445 0
 281              		@ sp needed
 282 0006 7047     		bx	lr
 283              	.L33:
 284              		.align	2
 285              	.L32:
 286 0008 44100F40 		.word	1074729028
 287              		.cfi_endproc
 288              	.LFE12:
 289              		.size	Counter_1_ReadPeriod, .-Counter_1_ReadPeriod
 290              		.section	.text.Counter_1_WriteCompare,"ax",%progbits
 291              		.align	2
 292              		.global	Counter_1_WriteCompare
 293              		.code	16
 294              		.thumb_func
 295              		.type	Counter_1_WriteCompare, %function
 296              	Counter_1_WriteCompare:
ARM GAS  C:\Users\g\AppData\Local\Temp\ccCVzgX2.s 			page 14


 297              	.LFB13:
 446:Generated_Source\PSoC4/Counter_1.c **** 
 447:Generated_Source\PSoC4/Counter_1.c **** 
 448:Generated_Source\PSoC4/Counter_1.c **** #if (!Counter_1_UsingFixedFunction)
 449:Generated_Source\PSoC4/Counter_1.c **** /*******************************************************************************
 450:Generated_Source\PSoC4/Counter_1.c **** * Function Name: Counter_1_WriteCompare
 451:Generated_Source\PSoC4/Counter_1.c **** ********************************************************************************
 452:Generated_Source\PSoC4/Counter_1.c **** * Summary:
 453:Generated_Source\PSoC4/Counter_1.c **** * Changes the compare value.  The compare output will 
 454:Generated_Source\PSoC4/Counter_1.c **** * reflect the new value on the next UDB clock.  The compare output will be 
 455:Generated_Source\PSoC4/Counter_1.c **** * driven high when the present counter value compares true based on the 
 456:Generated_Source\PSoC4/Counter_1.c **** * configured compare mode setting. 
 457:Generated_Source\PSoC4/Counter_1.c **** *
 458:Generated_Source\PSoC4/Counter_1.c **** * Parameters:  
 459:Generated_Source\PSoC4/Counter_1.c **** *  Compare:  New compare value. 
 460:Generated_Source\PSoC4/Counter_1.c **** *
 461:Generated_Source\PSoC4/Counter_1.c **** * Return: 
 462:Generated_Source\PSoC4/Counter_1.c **** *  void
 463:Generated_Source\PSoC4/Counter_1.c **** *
 464:Generated_Source\PSoC4/Counter_1.c **** *******************************************************************************/
 465:Generated_Source\PSoC4/Counter_1.c **** void Counter_1_WriteCompare(uint16 compare) \
 466:Generated_Source\PSoC4/Counter_1.c ****                                    
 467:Generated_Source\PSoC4/Counter_1.c **** {
 298              		.loc 1 467 0
 299              		.cfi_startproc
 300              	.LVL4:
 468:Generated_Source\PSoC4/Counter_1.c ****     #if(Counter_1_UsingFixedFunction)
 469:Generated_Source\PSoC4/Counter_1.c ****         CY_SET_REG16(Counter_1_COMPARE_LSB_PTR, (uint16)compare);
 470:Generated_Source\PSoC4/Counter_1.c ****     #else
 471:Generated_Source\PSoC4/Counter_1.c ****         CY_SET_REG16(Counter_1_COMPARE_LSB_PTR, compare);
 301              		.loc 1 471 0
 302 0000 014B     		ldr	r3, .L35
 303 0002 1880     		strh	r0, [r3]
 472:Generated_Source\PSoC4/Counter_1.c ****     #endif /* (Counter_1_UsingFixedFunction) */
 473:Generated_Source\PSoC4/Counter_1.c **** }
 304              		.loc 1 473 0
 305              		@ sp needed
 306 0004 7047     		bx	lr
 307              	.L36:
 308 0006 C046     		.align	2
 309              	.L35:
 310 0008 64100F40 		.word	1074729060
 311              		.cfi_endproc
 312              	.LFE13:
 313              		.size	Counter_1_WriteCompare, .-Counter_1_WriteCompare
 314              		.section	.text.Counter_1_ReadCompare,"ax",%progbits
 315              		.align	2
 316              		.global	Counter_1_ReadCompare
 317              		.code	16
 318              		.thumb_func
 319              		.type	Counter_1_ReadCompare, %function
 320              	Counter_1_ReadCompare:
 321              	.LFB14:
 474:Generated_Source\PSoC4/Counter_1.c **** 
 475:Generated_Source\PSoC4/Counter_1.c **** 
 476:Generated_Source\PSoC4/Counter_1.c **** /*******************************************************************************
 477:Generated_Source\PSoC4/Counter_1.c **** * Function Name: Counter_1_ReadCompare
ARM GAS  C:\Users\g\AppData\Local\Temp\ccCVzgX2.s 			page 15


 478:Generated_Source\PSoC4/Counter_1.c **** ********************************************************************************
 479:Generated_Source\PSoC4/Counter_1.c **** * Summary:
 480:Generated_Source\PSoC4/Counter_1.c **** * Returns the compare value.
 481:Generated_Source\PSoC4/Counter_1.c **** *
 482:Generated_Source\PSoC4/Counter_1.c **** * Parameters:  
 483:Generated_Source\PSoC4/Counter_1.c **** *  void:
 484:Generated_Source\PSoC4/Counter_1.c **** *
 485:Generated_Source\PSoC4/Counter_1.c **** * Return: 
 486:Generated_Source\PSoC4/Counter_1.c **** *  (uint16) Present compare value.
 487:Generated_Source\PSoC4/Counter_1.c **** *
 488:Generated_Source\PSoC4/Counter_1.c **** *******************************************************************************/
 489:Generated_Source\PSoC4/Counter_1.c **** uint16 Counter_1_ReadCompare(void) 
 490:Generated_Source\PSoC4/Counter_1.c **** {
 322              		.loc 1 490 0
 323              		.cfi_startproc
 491:Generated_Source\PSoC4/Counter_1.c ****     return (CY_GET_REG16(Counter_1_COMPARE_LSB_PTR));
 324              		.loc 1 491 0
 325 0000 014B     		ldr	r3, .L38
 326 0002 1888     		ldrh	r0, [r3]
 327 0004 80B2     		uxth	r0, r0
 492:Generated_Source\PSoC4/Counter_1.c **** }
 328              		.loc 1 492 0
 329              		@ sp needed
 330 0006 7047     		bx	lr
 331              	.L39:
 332              		.align	2
 333              	.L38:
 334 0008 64100F40 		.word	1074729060
 335              		.cfi_endproc
 336              	.LFE14:
 337              		.size	Counter_1_ReadCompare, .-Counter_1_ReadCompare
 338              		.section	.text.Counter_1_SetCompareMode,"ax",%progbits
 339              		.align	2
 340              		.global	Counter_1_SetCompareMode
 341              		.code	16
 342              		.thumb_func
 343              		.type	Counter_1_SetCompareMode, %function
 344              	Counter_1_SetCompareMode:
 345              	.LFB15:
 493:Generated_Source\PSoC4/Counter_1.c **** 
 494:Generated_Source\PSoC4/Counter_1.c **** 
 495:Generated_Source\PSoC4/Counter_1.c **** #if (Counter_1_COMPARE_MODE_SOFTWARE)
 496:Generated_Source\PSoC4/Counter_1.c **** /*******************************************************************************
 497:Generated_Source\PSoC4/Counter_1.c **** * Function Name: Counter_1_SetCompareMode
 498:Generated_Source\PSoC4/Counter_1.c **** ********************************************************************************
 499:Generated_Source\PSoC4/Counter_1.c **** * Summary:
 500:Generated_Source\PSoC4/Counter_1.c **** *  Sets the software controlled Compare Mode.
 501:Generated_Source\PSoC4/Counter_1.c **** *
 502:Generated_Source\PSoC4/Counter_1.c **** * Parameters:
 503:Generated_Source\PSoC4/Counter_1.c **** *  compareMode:  Compare Mode Enumerated Type.
 504:Generated_Source\PSoC4/Counter_1.c **** *
 505:Generated_Source\PSoC4/Counter_1.c **** * Return:
 506:Generated_Source\PSoC4/Counter_1.c **** *  void
 507:Generated_Source\PSoC4/Counter_1.c **** *
 508:Generated_Source\PSoC4/Counter_1.c **** *******************************************************************************/
 509:Generated_Source\PSoC4/Counter_1.c **** void Counter_1_SetCompareMode(uint8 compareMode) 
 510:Generated_Source\PSoC4/Counter_1.c **** {
ARM GAS  C:\Users\g\AppData\Local\Temp\ccCVzgX2.s 			page 16


 346              		.loc 1 510 0
 347              		.cfi_startproc
 348              	.LVL5:
 511:Generated_Source\PSoC4/Counter_1.c ****     /* Clear the compare mode bits in the control register */
 512:Generated_Source\PSoC4/Counter_1.c ****     Counter_1_CONTROL &= ((uint8)(~Counter_1_CTRL_CMPMODE_MASK));
 349              		.loc 1 512 0
 350 0000 044B     		ldr	r3, .L41
 351 0002 1A78     		ldrb	r2, [r3]
 352 0004 0721     		mov	r1, #7
 353 0006 8A43     		bic	r2, r1
 354 0008 1A70     		strb	r2, [r3]
 513:Generated_Source\PSoC4/Counter_1.c ****     
 514:Generated_Source\PSoC4/Counter_1.c ****     /* Write the new setting */
 515:Generated_Source\PSoC4/Counter_1.c ****     Counter_1_CONTROL |= compareMode;
 355              		.loc 1 515 0
 356 000a 1A78     		ldrb	r2, [r3]
 357 000c 1043     		orr	r0, r2
 358              	.LVL6:
 359 000e 1870     		strb	r0, [r3]
 516:Generated_Source\PSoC4/Counter_1.c **** }
 360              		.loc 1 516 0
 361              		@ sp needed
 362 0010 7047     		bx	lr
 363              	.L42:
 364 0012 C046     		.align	2
 365              	.L41:
 366 0014 70000F40 		.word	1074724976
 367              		.cfi_endproc
 368              	.LFE15:
 369              		.size	Counter_1_SetCompareMode, .-Counter_1_SetCompareMode
 370              		.section	.text.Counter_1_ClearFIFO,"ax",%progbits
 371              		.align	2
 372              		.global	Counter_1_ClearFIFO
 373              		.code	16
 374              		.thumb_func
 375              		.type	Counter_1_ClearFIFO, %function
 376              	Counter_1_ClearFIFO:
 377              	.LFB16:
 517:Generated_Source\PSoC4/Counter_1.c **** #endif  /* (Counter_1_COMPARE_MODE_SOFTWARE) */
 518:Generated_Source\PSoC4/Counter_1.c **** 
 519:Generated_Source\PSoC4/Counter_1.c **** 
 520:Generated_Source\PSoC4/Counter_1.c **** #if (Counter_1_CAPTURE_MODE_SOFTWARE)
 521:Generated_Source\PSoC4/Counter_1.c **** /*******************************************************************************
 522:Generated_Source\PSoC4/Counter_1.c **** * Function Name: Counter_1_SetCaptureMode
 523:Generated_Source\PSoC4/Counter_1.c **** ********************************************************************************
 524:Generated_Source\PSoC4/Counter_1.c **** * Summary:
 525:Generated_Source\PSoC4/Counter_1.c **** *  Sets the software controlled Capture Mode.
 526:Generated_Source\PSoC4/Counter_1.c **** *
 527:Generated_Source\PSoC4/Counter_1.c **** * Parameters:
 528:Generated_Source\PSoC4/Counter_1.c **** *  captureMode:  Capture Mode Enumerated Type.
 529:Generated_Source\PSoC4/Counter_1.c **** *
 530:Generated_Source\PSoC4/Counter_1.c **** * Return:
 531:Generated_Source\PSoC4/Counter_1.c **** *  void
 532:Generated_Source\PSoC4/Counter_1.c **** *
 533:Generated_Source\PSoC4/Counter_1.c **** *******************************************************************************/
 534:Generated_Source\PSoC4/Counter_1.c **** void Counter_1_SetCaptureMode(uint8 captureMode) 
 535:Generated_Source\PSoC4/Counter_1.c **** {
ARM GAS  C:\Users\g\AppData\Local\Temp\ccCVzgX2.s 			page 17


 536:Generated_Source\PSoC4/Counter_1.c ****     /* Clear the capture mode bits in the control register */
 537:Generated_Source\PSoC4/Counter_1.c ****     Counter_1_CONTROL &= ((uint8)(~Counter_1_CTRL_CAPMODE_MASK));
 538:Generated_Source\PSoC4/Counter_1.c ****     
 539:Generated_Source\PSoC4/Counter_1.c ****     /* Write the new setting */
 540:Generated_Source\PSoC4/Counter_1.c ****     Counter_1_CONTROL |= ((uint8)((uint8)captureMode << Counter_1_CTRL_CAPMODE0_SHIFT));
 541:Generated_Source\PSoC4/Counter_1.c **** }
 542:Generated_Source\PSoC4/Counter_1.c **** #endif  /* (Counter_1_CAPTURE_MODE_SOFTWARE) */
 543:Generated_Source\PSoC4/Counter_1.c **** 
 544:Generated_Source\PSoC4/Counter_1.c **** 
 545:Generated_Source\PSoC4/Counter_1.c **** /*******************************************************************************
 546:Generated_Source\PSoC4/Counter_1.c **** * Function Name: Counter_1_ClearFIFO
 547:Generated_Source\PSoC4/Counter_1.c **** ********************************************************************************
 548:Generated_Source\PSoC4/Counter_1.c **** * Summary:
 549:Generated_Source\PSoC4/Counter_1.c **** *   This function clears all capture data from the capture FIFO
 550:Generated_Source\PSoC4/Counter_1.c **** *
 551:Generated_Source\PSoC4/Counter_1.c **** * Parameters:  
 552:Generated_Source\PSoC4/Counter_1.c **** *  void:
 553:Generated_Source\PSoC4/Counter_1.c **** *
 554:Generated_Source\PSoC4/Counter_1.c **** * Return: 
 555:Generated_Source\PSoC4/Counter_1.c **** *  None
 556:Generated_Source\PSoC4/Counter_1.c **** *
 557:Generated_Source\PSoC4/Counter_1.c **** *******************************************************************************/
 558:Generated_Source\PSoC4/Counter_1.c **** void Counter_1_ClearFIFO(void) 
 559:Generated_Source\PSoC4/Counter_1.c **** {
 378              		.loc 1 559 0
 379              		.cfi_startproc
 380 0000 08B5     		push	{r3, lr}
 381              		.cfi_def_cfa_offset 8
 382              		.cfi_offset 3, -8
 383              		.cfi_offset 14, -4
 560:Generated_Source\PSoC4/Counter_1.c **** 
 561:Generated_Source\PSoC4/Counter_1.c ****     while(0u != (Counter_1_ReadStatusRegister() & Counter_1_STATUS_FIFONEMP))
 384              		.loc 1 561 0
 385 0002 01E0     		b	.L44
 386              	.L45:
 562:Generated_Source\PSoC4/Counter_1.c ****     {
 563:Generated_Source\PSoC4/Counter_1.c ****         (void)Counter_1_ReadCapture();
 387              		.loc 1 563 0
 388 0004 FFF7FEFF 		bl	Counter_1_ReadCapture
 389              	.LVL7:
 390              	.L44:
 561:Generated_Source\PSoC4/Counter_1.c ****     {
 391              		.loc 1 561 0
 392 0008 FFF7FEFF 		bl	Counter_1_ReadStatusRegister
 393              	.LVL8:
 394 000c 4306     		lsl	r3, r0, #25
 395 000e F9D4     		bmi	.L45
 564:Generated_Source\PSoC4/Counter_1.c ****     }
 565:Generated_Source\PSoC4/Counter_1.c **** 
 566:Generated_Source\PSoC4/Counter_1.c **** }
 396              		.loc 1 566 0
 397              		@ sp needed
 398 0010 08BD     		pop	{r3, pc}
 399              		.cfi_endproc
 400              	.LFE16:
 401              		.size	Counter_1_ClearFIFO, .-Counter_1_ClearFIFO
 402 0012 C046     		.section	.text.Counter_1_Init,"ax",%progbits
ARM GAS  C:\Users\g\AppData\Local\Temp\ccCVzgX2.s 			page 18


 403              		.align	2
 404              		.global	Counter_1_Init
 405              		.code	16
 406              		.thumb_func
 407              		.type	Counter_1_Init, %function
 408              	Counter_1_Init:
 409              	.LFB0:
  38:Generated_Source\PSoC4/Counter_1.c ****         #if (!Counter_1_UsingFixedFunction && !Counter_1_ControlRegRemoved)
 410              		.loc 1 38 0
 411              		.cfi_startproc
 412 0000 10B5     		push	{r4, lr}
 413              		.cfi_def_cfa_offset 8
 414              		.cfi_offset 4, -8
 415              		.cfi_offset 14, -4
  79:Generated_Source\PSoC4/Counter_1.c ****             Counter_1_CONTROL = ctrl | Counter_1_DEFAULT_COMPARE_MODE;
 416              		.loc 1 79 0
 417 0002 134B     		ldr	r3, .L47
 418 0004 1A78     		ldrb	r2, [r3]
 419 0006 0721     		mov	r1, #7
 420 0008 8A43     		bic	r2, r1
 421              	.LVL9:
  80:Generated_Source\PSoC4/Counter_1.c ****             
 422              		.loc 1 80 0
 423 000a 0239     		sub	r1, r1, #2
 424 000c 0A43     		orr	r2, r1
 425              	.LVL10:
 426 000e 1A70     		strb	r2, [r3]
  83:Generated_Source\PSoC4/Counter_1.c ****             
 427              		.loc 1 83 0
 428 0010 1A78     		ldrb	r2, [r3]
 429 0012 0239     		sub	r1, r1, #2
 430 0014 8A43     		bic	r2, r1
 431              	.LVL11:
  88:Generated_Source\PSoC4/Counter_1.c ****             #endif /* 0 != Counter_1_CAPTURE_MODE */ 
 432              		.loc 1 88 0
 433 0016 1A70     		strb	r2, [r3]
  96:Generated_Source\PSoC4/Counter_1.c ****         #endif /* (!Counter_1_UsingFixedFunction) */
 434              		.loc 1 96 0
 435 0018 FFF7FEFF 		bl	Counter_1_ClearFIFO
 436              	.LVL12:
 100:Generated_Source\PSoC4/Counter_1.c ****         #if (!(Counter_1_UsingFixedFunction && (CY_PSOC5A)))
 437              		.loc 1 100 0
 438 001c 0D4C     		ldr	r4, .L47+4
 439 001e 201C     		mov	r0, r4
 440 0020 FFF7FEFF 		bl	Counter_1_WritePeriod
 441              	.LVL13:
 102:Generated_Source\PSoC4/Counter_1.c ****         #endif /* (!(Counter_1_UsingFixedFunction && (CY_PSOC5A))) */
 442              		.loc 1 102 0
 443 0024 201C     		mov	r0, r4
 444 0026 FFF7FEFF 		bl	Counter_1_WriteCounter
 445              	.LVL14:
 104:Generated_Source\PSoC4/Counter_1.c ****         
 446              		.loc 1 104 0
 447 002a 0020     		mov	r0, #0
 448 002c FFF7FEFF 		bl	Counter_1_SetInterruptMode
 449              	.LVL15:
 108:Generated_Source\PSoC4/Counter_1.c ****             /* Set the compare value (only available to non-fixed function implementation */
ARM GAS  C:\Users\g\AppData\Local\Temp\ccCVzgX2.s 			page 19


 450              		.loc 1 108 0
 451 0030 FFF7FEFF 		bl	Counter_1_ReadStatusRegister
 452              	.LVL16:
 110:Generated_Source\PSoC4/Counter_1.c ****             /* Use the interrupt output of the status register for IRQ output */
 453              		.loc 1 110 0
 454 0034 0848     		ldr	r0, .L47+8
 455 0036 FFF7FEFF 		bl	Counter_1_WriteCompare
 456              	.LVL17:
 115:Generated_Source\PSoC4/Counter_1.c ****             
 457              		.loc 1 115 0
 458 003a FFF7FEFF 		bl	CyEnterCriticalSection
 459              	.LVL18:
 117:Generated_Source\PSoC4/Counter_1.c ****             
 460              		.loc 1 117 0
 461 003e 074A     		ldr	r2, .L47+12
 462 0040 1178     		ldrb	r1, [r2]
 463 0042 1023     		mov	r3, #16
 464 0044 0B43     		orr	r3, r1
 465 0046 1370     		strb	r3, [r2]
 120:Generated_Source\PSoC4/Counter_1.c ****             
 466              		.loc 1 120 0
 467 0048 FFF7FEFF 		bl	CyExitCriticalSection
 468              	.LVL19:
 123:Generated_Source\PSoC4/Counter_1.c **** 
 469              		.loc 1 123 0
 470              		@ sp needed
 471 004c 10BD     		pop	{r4, pc}
 472              	.L48:
 473 004e C046     		.align	2
 474              	.L47:
 475 0050 70000F40 		.word	1074724976
 476 0054 FEFF0000 		.word	65534
 477 0058 FFFF0000 		.word	65535
 478 005c 93000F40 		.word	1074725011
 479              		.cfi_endproc
 480              	.LFE0:
 481              		.size	Counter_1_Init, .-Counter_1_Init
 482              		.section	.text.Counter_1_Start,"ax",%progbits
 483              		.align	2
 484              		.global	Counter_1_Start
 485              		.code	16
 486              		.thumb_func
 487              		.type	Counter_1_Start, %function
 488              	Counter_1_Start:
 489              	.LFB2:
 179:Generated_Source\PSoC4/Counter_1.c ****     if(Counter_1_initVar == 0u)
 490              		.loc 1 179 0
 491              		.cfi_startproc
 492 0000 08B5     		push	{r3, lr}
 493              		.cfi_def_cfa_offset 8
 494              		.cfi_offset 3, -8
 495              		.cfi_offset 14, -4
 180:Generated_Source\PSoC4/Counter_1.c ****     {
 496              		.loc 1 180 0
 497 0002 064B     		ldr	r3, .L51
 498 0004 1B78     		ldrb	r3, [r3]
 499 0006 002B     		cmp	r3, #0
ARM GAS  C:\Users\g\AppData\Local\Temp\ccCVzgX2.s 			page 20


 500 0008 04D1     		bne	.L50
 182:Generated_Source\PSoC4/Counter_1.c ****         
 501              		.loc 1 182 0
 502 000a FFF7FEFF 		bl	Counter_1_Init
 503              	.LVL20:
 184:Generated_Source\PSoC4/Counter_1.c ****     }
 504              		.loc 1 184 0
 505 000e 0122     		mov	r2, #1
 506 0010 024B     		ldr	r3, .L51
 507 0012 1A70     		strb	r2, [r3]
 508              	.L50:
 188:Generated_Source\PSoC4/Counter_1.c **** }
 509              		.loc 1 188 0
 510 0014 FFF7FEFF 		bl	Counter_1_Enable
 511              	.LVL21:
 189:Generated_Source\PSoC4/Counter_1.c **** 
 512              		.loc 1 189 0
 513              		@ sp needed
 514 0018 08BD     		pop	{r3, pc}
 515              	.L52:
 516 001a C046     		.align	2
 517              	.L51:
 518 001c 00000000 		.word	.LANCHOR0
 519              		.cfi_endproc
 520              	.LFE2:
 521              		.size	Counter_1_Start, .-Counter_1_Start
 522              		.global	Counter_1_initVar
 523              		.bss
 524              		.set	.LANCHOR0,. + 0
 525              		.type	Counter_1_initVar, %object
 526              		.size	Counter_1_initVar, 1
 527              	Counter_1_initVar:
 528 0000 00       		.space	1
 529              		.text
 530              	.Letext0:
 531              		.file 2 "Generated_Source\\PSoC4\\cytypes.h"
 532              		.file 3 "Generated_Source\\PSoC4\\CyLib.h"