ARM GAS  C:\Users\g\AppData\Local\Temp\ccSfHu9q.s 			page 1


   1              		.cpu cortex-m0
   2              		.fpu softvfp
   3              		.eabi_attribute 20, 1
   4              		.eabi_attribute 21, 1
   5              		.eabi_attribute 23, 3
   6              		.eabi_attribute 24, 1
   7              		.eabi_attribute 25, 1
   8              		.eabi_attribute 26, 1
   9              		.eabi_attribute 30, 1
  10              		.eabi_attribute 34, 0
  11              		.eabi_attribute 18, 4
  12              		.code	16
  13              		.file	"cyfitter_cfg.c"
  14              		.text
  15              	.Ltext0:
  16              		.cfi_sections	.debug_frame
  17              		.section	.text.cfg_write_bytes32,"ax",%progbits
  18              		.align	2
  19              		.code	16
  20              		.thumb_func
  21              		.type	cfg_write_bytes32, %function
  22              	cfg_write_bytes32:
  23              	.LFB3:
  24              		.file 1 "Generated_Source\\PSoC4\\cyfitter_cfg.c"
   1:Generated_Source\PSoC4/cyfitter_cfg.c **** /*******************************************************************************
   2:Generated_Source\PSoC4/cyfitter_cfg.c **** * File Name: cyfitter_cfg.c
   3:Generated_Source\PSoC4/cyfitter_cfg.c **** * 
   4:Generated_Source\PSoC4/cyfitter_cfg.c **** * PSoC Creator  4.0 Update 1
   5:Generated_Source\PSoC4/cyfitter_cfg.c **** *
   6:Generated_Source\PSoC4/cyfitter_cfg.c **** * Description:
   7:Generated_Source\PSoC4/cyfitter_cfg.c **** * This file contains device initialization code.
   8:Generated_Source\PSoC4/cyfitter_cfg.c **** * Except for the user defined sections in CyClockStartupError(), this file should not be modified.
   9:Generated_Source\PSoC4/cyfitter_cfg.c **** * This file is automatically generated by PSoC Creator.
  10:Generated_Source\PSoC4/cyfitter_cfg.c **** *
  11:Generated_Source\PSoC4/cyfitter_cfg.c **** ********************************************************************************
  12:Generated_Source\PSoC4/cyfitter_cfg.c **** * Copyright (c) 2007-2016 Cypress Semiconductor.  All rights reserved.
  13:Generated_Source\PSoC4/cyfitter_cfg.c **** * You may use this file only in accordance with the license, terms, conditions, 
  14:Generated_Source\PSoC4/cyfitter_cfg.c **** * disclaimers, and limitations in the end user license agreement accompanying 
  15:Generated_Source\PSoC4/cyfitter_cfg.c **** * the software package with which this file was provided.
  16:Generated_Source\PSoC4/cyfitter_cfg.c **** ********************************************************************************/
  17:Generated_Source\PSoC4/cyfitter_cfg.c **** 
  18:Generated_Source\PSoC4/cyfitter_cfg.c **** #include <string.h>
  19:Generated_Source\PSoC4/cyfitter_cfg.c **** #include "cytypes.h"
  20:Generated_Source\PSoC4/cyfitter_cfg.c **** #include "cydevice_trm.h"
  21:Generated_Source\PSoC4/cyfitter_cfg.c **** #include "cyfitter.h"
  22:Generated_Source\PSoC4/cyfitter_cfg.c **** #include "CyLib.h"
  23:Generated_Source\PSoC4/cyfitter_cfg.c **** #include "CyLFClk.h"
  24:Generated_Source\PSoC4/cyfitter_cfg.c **** #include "cyfitter_cfg.h"
  25:Generated_Source\PSoC4/cyfitter_cfg.c **** #include "cyapicallbacks.h"
  26:Generated_Source\PSoC4/cyfitter_cfg.c **** 
  27:Generated_Source\PSoC4/cyfitter_cfg.c **** 
  28:Generated_Source\PSoC4/cyfitter_cfg.c **** #if defined(__GNUC__) || defined(__ARMCC_VERSION)
  29:Generated_Source\PSoC4/cyfitter_cfg.c ****     #define CYPACKED 
  30:Generated_Source\PSoC4/cyfitter_cfg.c ****     #define CYPACKED_ATTR __attribute__ ((packed))
  31:Generated_Source\PSoC4/cyfitter_cfg.c ****     #define CYALIGNED __attribute__ ((aligned))
  32:Generated_Source\PSoC4/cyfitter_cfg.c ****     #define CY_CFG_UNUSED __attribute__ ((unused))
  33:Generated_Source\PSoC4/cyfitter_cfg.c ****     #ifndef CY_CFG_SECTION
ARM GAS  C:\Users\g\AppData\Local\Temp\ccSfHu9q.s 			page 2


  34:Generated_Source\PSoC4/cyfitter_cfg.c ****         #define CY_CFG_SECTION __attribute__ ((section(".psocinit")))
  35:Generated_Source\PSoC4/cyfitter_cfg.c ****     #endif
  36:Generated_Source\PSoC4/cyfitter_cfg.c ****     
  37:Generated_Source\PSoC4/cyfitter_cfg.c ****     #if defined(__ARMCC_VERSION)
  38:Generated_Source\PSoC4/cyfitter_cfg.c ****         #define CY_CFG_MEMORY_BARRIER() __memory_changed()
  39:Generated_Source\PSoC4/cyfitter_cfg.c ****     #else
  40:Generated_Source\PSoC4/cyfitter_cfg.c ****         #define CY_CFG_MEMORY_BARRIER() __sync_synchronize()
  41:Generated_Source\PSoC4/cyfitter_cfg.c ****     #endif
  42:Generated_Source\PSoC4/cyfitter_cfg.c ****     
  43:Generated_Source\PSoC4/cyfitter_cfg.c **** #elif defined(__ICCARM__)
  44:Generated_Source\PSoC4/cyfitter_cfg.c ****     #include <intrinsics.h>
  45:Generated_Source\PSoC4/cyfitter_cfg.c **** 
  46:Generated_Source\PSoC4/cyfitter_cfg.c ****     #define CYPACKED __packed
  47:Generated_Source\PSoC4/cyfitter_cfg.c ****     #define CYPACKED_ATTR 
  48:Generated_Source\PSoC4/cyfitter_cfg.c ****     #define CYALIGNED _Pragma("data_alignment=4")
  49:Generated_Source\PSoC4/cyfitter_cfg.c ****     #define CY_CFG_UNUSED _Pragma("diag_suppress=Pe177")
  50:Generated_Source\PSoC4/cyfitter_cfg.c ****     #define CY_CFG_SECTION _Pragma("location=\".psocinit\"")
  51:Generated_Source\PSoC4/cyfitter_cfg.c ****     
  52:Generated_Source\PSoC4/cyfitter_cfg.c ****     #define CY_CFG_MEMORY_BARRIER() __DMB()
  53:Generated_Source\PSoC4/cyfitter_cfg.c ****     
  54:Generated_Source\PSoC4/cyfitter_cfg.c **** #else
  55:Generated_Source\PSoC4/cyfitter_cfg.c ****     #error Unsupported toolchain
  56:Generated_Source\PSoC4/cyfitter_cfg.c **** #endif
  57:Generated_Source\PSoC4/cyfitter_cfg.c **** 
  58:Generated_Source\PSoC4/cyfitter_cfg.c **** 
  59:Generated_Source\PSoC4/cyfitter_cfg.c **** CY_CFG_UNUSED
  60:Generated_Source\PSoC4/cyfitter_cfg.c **** static void CYMEMZERO(void *s, size_t n);
  61:Generated_Source\PSoC4/cyfitter_cfg.c **** CY_CFG_UNUSED
  62:Generated_Source\PSoC4/cyfitter_cfg.c **** static void CYMEMZERO(void *s, size_t n)
  63:Generated_Source\PSoC4/cyfitter_cfg.c **** {
  64:Generated_Source\PSoC4/cyfitter_cfg.c **** 	(void)memset(s, 0, n);
  65:Generated_Source\PSoC4/cyfitter_cfg.c **** }
  66:Generated_Source\PSoC4/cyfitter_cfg.c **** CY_CFG_UNUSED
  67:Generated_Source\PSoC4/cyfitter_cfg.c **** static void CYCONFIGCPY(void *dest, const void *src, size_t n);
  68:Generated_Source\PSoC4/cyfitter_cfg.c **** CY_CFG_UNUSED
  69:Generated_Source\PSoC4/cyfitter_cfg.c **** static void CYCONFIGCPY(void *dest, const void *src, size_t n)
  70:Generated_Source\PSoC4/cyfitter_cfg.c **** {
  71:Generated_Source\PSoC4/cyfitter_cfg.c **** 	(void)memcpy(dest, src, n);
  72:Generated_Source\PSoC4/cyfitter_cfg.c **** }
  73:Generated_Source\PSoC4/cyfitter_cfg.c **** CY_CFG_UNUSED
  74:Generated_Source\PSoC4/cyfitter_cfg.c **** static void CYCONFIGCPYCODE(void *dest, const void *src, size_t n);
  75:Generated_Source\PSoC4/cyfitter_cfg.c **** CY_CFG_UNUSED
  76:Generated_Source\PSoC4/cyfitter_cfg.c **** static void CYCONFIGCPYCODE(void *dest, const void *src, size_t n)
  77:Generated_Source\PSoC4/cyfitter_cfg.c **** {
  78:Generated_Source\PSoC4/cyfitter_cfg.c **** 	(void)memcpy(dest, src, n);
  79:Generated_Source\PSoC4/cyfitter_cfg.c **** }
  80:Generated_Source\PSoC4/cyfitter_cfg.c **** 
  81:Generated_Source\PSoC4/cyfitter_cfg.c **** 
  82:Generated_Source\PSoC4/cyfitter_cfg.c **** 
  83:Generated_Source\PSoC4/cyfitter_cfg.c **** 
  84:Generated_Source\PSoC4/cyfitter_cfg.c **** /* Clock startup error codes                                                   */
  85:Generated_Source\PSoC4/cyfitter_cfg.c **** #define CYCLOCKSTART_NO_ERROR    0u
  86:Generated_Source\PSoC4/cyfitter_cfg.c **** #define CYCLOCKSTART_XTAL_ERROR  1u
  87:Generated_Source\PSoC4/cyfitter_cfg.c **** #define CYCLOCKSTART_32KHZ_ERROR 2u
  88:Generated_Source\PSoC4/cyfitter_cfg.c **** #define CYCLOCKSTART_PLL_ERROR   3u
  89:Generated_Source\PSoC4/cyfitter_cfg.c **** 
  90:Generated_Source\PSoC4/cyfitter_cfg.c **** 
ARM GAS  C:\Users\g\AppData\Local\Temp\ccSfHu9q.s 			page 3


  91:Generated_Source\PSoC4/cyfitter_cfg.c **** #ifdef CY_NEED_CYCLOCKSTARTUPERROR
  92:Generated_Source\PSoC4/cyfitter_cfg.c **** /*******************************************************************************
  93:Generated_Source\PSoC4/cyfitter_cfg.c **** * Function Name: CyClockStartupError
  94:Generated_Source\PSoC4/cyfitter_cfg.c **** ********************************************************************************
  95:Generated_Source\PSoC4/cyfitter_cfg.c **** * Summary:
  96:Generated_Source\PSoC4/cyfitter_cfg.c **** *  If an error is encountered during clock configuration (crystal startup error,
  97:Generated_Source\PSoC4/cyfitter_cfg.c **** *  PLL lock error, etc.), the system will end up here.  Unless reimplemented by
  98:Generated_Source\PSoC4/cyfitter_cfg.c **** *  the customer, this function will stop in an infinite loop.
  99:Generated_Source\PSoC4/cyfitter_cfg.c **** *
 100:Generated_Source\PSoC4/cyfitter_cfg.c **** * Parameters:
 101:Generated_Source\PSoC4/cyfitter_cfg.c **** *   void
 102:Generated_Source\PSoC4/cyfitter_cfg.c **** *
 103:Generated_Source\PSoC4/cyfitter_cfg.c **** * Return:
 104:Generated_Source\PSoC4/cyfitter_cfg.c **** *   void
 105:Generated_Source\PSoC4/cyfitter_cfg.c **** *
 106:Generated_Source\PSoC4/cyfitter_cfg.c **** *******************************************************************************/
 107:Generated_Source\PSoC4/cyfitter_cfg.c **** CY_CFG_UNUSED
 108:Generated_Source\PSoC4/cyfitter_cfg.c **** static void CyClockStartupError(uint8 errorCode);
 109:Generated_Source\PSoC4/cyfitter_cfg.c **** CY_CFG_UNUSED
 110:Generated_Source\PSoC4/cyfitter_cfg.c **** static void CyClockStartupError(uint8 errorCode)
 111:Generated_Source\PSoC4/cyfitter_cfg.c **** {
 112:Generated_Source\PSoC4/cyfitter_cfg.c ****     /* To remove the compiler warning if errorCode not used.                */
 113:Generated_Source\PSoC4/cyfitter_cfg.c ****     errorCode = errorCode;
 114:Generated_Source\PSoC4/cyfitter_cfg.c **** 
 115:Generated_Source\PSoC4/cyfitter_cfg.c ****     /* If we have a clock startup error (bad MHz crystal, PLL lock, etc.),  */
 116:Generated_Source\PSoC4/cyfitter_cfg.c ****     /* we will end up here to allow the customer to implement something to  */
 117:Generated_Source\PSoC4/cyfitter_cfg.c ****     /* deal with the clock condition.                                       */
 118:Generated_Source\PSoC4/cyfitter_cfg.c **** 
 119:Generated_Source\PSoC4/cyfitter_cfg.c **** #ifdef CY_CFG_CLOCK_STARTUP_ERROR_CALLBACK
 120:Generated_Source\PSoC4/cyfitter_cfg.c **** 	CY_CFG_Clock_Startup_ErrorCallback();
 121:Generated_Source\PSoC4/cyfitter_cfg.c **** #else
 122:Generated_Source\PSoC4/cyfitter_cfg.c **** 	/*  If not using CY_CFG_CLOCK_STARTUP_ERROR_CALLBACK, place your clock startup code here. */
 123:Generated_Source\PSoC4/cyfitter_cfg.c ****     /* `#START CyClockStartupError` */
 124:Generated_Source\PSoC4/cyfitter_cfg.c **** 
 125:Generated_Source\PSoC4/cyfitter_cfg.c **** 
 126:Generated_Source\PSoC4/cyfitter_cfg.c **** 
 127:Generated_Source\PSoC4/cyfitter_cfg.c ****     /* `#END` */
 128:Generated_Source\PSoC4/cyfitter_cfg.c **** 
 129:Generated_Source\PSoC4/cyfitter_cfg.c ****     /* If nothing else, stop here since the clocks have not started         */
 130:Generated_Source\PSoC4/cyfitter_cfg.c ****     /* correctly.                                                           */
 131:Generated_Source\PSoC4/cyfitter_cfg.c ****     while(1) {}
 132:Generated_Source\PSoC4/cyfitter_cfg.c **** #endif /* CY_CFG_CLOCK_STARTUP_ERROR_CALLBACK */ 
 133:Generated_Source\PSoC4/cyfitter_cfg.c **** }
 134:Generated_Source\PSoC4/cyfitter_cfg.c **** #endif
 135:Generated_Source\PSoC4/cyfitter_cfg.c **** 
 136:Generated_Source\PSoC4/cyfitter_cfg.c **** #define CY_CFG_BASE_ADDR_COUNT 10u
 137:Generated_Source\PSoC4/cyfitter_cfg.c **** CYPACKED typedef struct
 138:Generated_Source\PSoC4/cyfitter_cfg.c **** {
 139:Generated_Source\PSoC4/cyfitter_cfg.c **** 	uint8 offset;
 140:Generated_Source\PSoC4/cyfitter_cfg.c **** 	uint8 value;
 141:Generated_Source\PSoC4/cyfitter_cfg.c **** } CYPACKED_ATTR cy_cfg_addrvalue_t;
 142:Generated_Source\PSoC4/cyfitter_cfg.c **** 
 143:Generated_Source\PSoC4/cyfitter_cfg.c **** 
 144:Generated_Source\PSoC4/cyfitter_cfg.c **** 
 145:Generated_Source\PSoC4/cyfitter_cfg.c **** /*******************************************************************************
 146:Generated_Source\PSoC4/cyfitter_cfg.c **** * Function Name: cfg_write_bytes32
 147:Generated_Source\PSoC4/cyfitter_cfg.c **** ********************************************************************************
ARM GAS  C:\Users\g\AppData\Local\Temp\ccSfHu9q.s 			page 4


 148:Generated_Source\PSoC4/cyfitter_cfg.c **** * Summary:
 149:Generated_Source\PSoC4/cyfitter_cfg.c **** *  This function is used for setting up the chip configuration areas that
 150:Generated_Source\PSoC4/cyfitter_cfg.c **** *  contain relatively sparse data.
 151:Generated_Source\PSoC4/cyfitter_cfg.c **** *
 152:Generated_Source\PSoC4/cyfitter_cfg.c **** * Parameters:
 153:Generated_Source\PSoC4/cyfitter_cfg.c **** *   void
 154:Generated_Source\PSoC4/cyfitter_cfg.c **** *
 155:Generated_Source\PSoC4/cyfitter_cfg.c **** * Return:
 156:Generated_Source\PSoC4/cyfitter_cfg.c **** *   void
 157:Generated_Source\PSoC4/cyfitter_cfg.c **** *
 158:Generated_Source\PSoC4/cyfitter_cfg.c **** *******************************************************************************/
 159:Generated_Source\PSoC4/cyfitter_cfg.c **** static void cfg_write_bytes32(const uint32 addr_table[], const cy_cfg_addrvalue_t data_table[]);
 160:Generated_Source\PSoC4/cyfitter_cfg.c **** static void cfg_write_bytes32(const uint32 addr_table[], const cy_cfg_addrvalue_t data_table[])
 161:Generated_Source\PSoC4/cyfitter_cfg.c **** {
  25              		.loc 1 161 0
  26              		.cfi_startproc
  27              	.LVL0:
  28 0000 F0B5     		push	{r4, r5, r6, r7, lr}
  29              		.cfi_def_cfa_offset 20
  30              		.cfi_offset 4, -20
  31              		.cfi_offset 5, -16
  32              		.cfi_offset 6, -12
  33              		.cfi_offset 7, -8
  34              		.cfi_offset 14, -4
  35              	.LVL1:
 162:Generated_Source\PSoC4/cyfitter_cfg.c **** 	/* For 32-bit little-endian architectures */
 163:Generated_Source\PSoC4/cyfitter_cfg.c **** 	uint32 i, j = 0u;
  36              		.loc 1 163 0
  37 0002 0025     		mov	r5, #0
 164:Generated_Source\PSoC4/cyfitter_cfg.c **** 	for (i = 0u; i < CY_CFG_BASE_ADDR_COUNT; i++)
  38              		.loc 1 164 0
  39 0004 0027     		mov	r7, #0
  40 0006 11E0     		b	.L2
  41              	.LVL2:
  42              	.L5:
  43              	.LBB2:
 165:Generated_Source\PSoC4/cyfitter_cfg.c **** 	{
 166:Generated_Source\PSoC4/cyfitter_cfg.c **** 		uint32 baseAddr = addr_table[i];
  44              		.loc 1 166 0
  45 0008 BB00     		lsl	r3, r7, #2
  46 000a C658     		ldr	r6, [r0, r3]
  47              	.LVL3:
 167:Generated_Source\PSoC4/cyfitter_cfg.c **** 		uint8 count = (uint8)baseAddr;
  48              		.loc 1 167 0
  49 000c F3B2     		uxtb	r3, r6
  50              	.LVL4:
 168:Generated_Source\PSoC4/cyfitter_cfg.c **** 		baseAddr &= 0xFFFFFF00u;
  51              		.loc 1 168 0
  52 000e FF22     		mov	r2, #255
  53 0010 9643     		bic	r6, r2
  54              	.LVL5:
 169:Generated_Source\PSoC4/cyfitter_cfg.c **** 		while (count != 0u)
  55              		.loc 1 169 0
  56 0012 08E0     		b	.L3
  57              	.L4:
 170:Generated_Source\PSoC4/cyfitter_cfg.c **** 		{
 171:Generated_Source\PSoC4/cyfitter_cfg.c **** 			CY_SET_XTND_REG8((void CYFAR *)(baseAddr + data_table[j].offset), data_table[j].value);
ARM GAS  C:\Users\g\AppData\Local\Temp\ccSfHu9q.s 			page 5


  58              		.loc 1 171 0
  59 0014 6A00     		lsl	r2, r5, #1
  60 0016 8A18     		add	r2, r1, r2
  61 0018 1478     		ldrb	r4, [r2]
  62 001a A419     		add	r4, r4, r6
  63 001c 5278     		ldrb	r2, [r2, #1]
  64 001e 2270     		strb	r2, [r4]
 172:Generated_Source\PSoC4/cyfitter_cfg.c **** 			j++;
  65              		.loc 1 172 0
  66 0020 0135     		add	r5, r5, #1
  67              	.LVL6:
 173:Generated_Source\PSoC4/cyfitter_cfg.c **** 			count--;
  68              		.loc 1 173 0
  69 0022 013B     		sub	r3, r3, #1
  70              	.LVL7:
  71 0024 DBB2     		uxtb	r3, r3
  72              	.LVL8:
  73              	.L3:
 169:Generated_Source\PSoC4/cyfitter_cfg.c **** 		{
  74              		.loc 1 169 0
  75 0026 002B     		cmp	r3, #0
  76 0028 F4D1     		bne	.L4
  77              	.LBE2:
 164:Generated_Source\PSoC4/cyfitter_cfg.c **** 	{
  78              		.loc 1 164 0 discriminator 2
  79 002a 0137     		add	r7, r7, #1
  80              	.LVL9:
  81              	.L2:
 164:Generated_Source\PSoC4/cyfitter_cfg.c **** 	{
  82              		.loc 1 164 0 is_stmt 0 discriminator 1
  83 002c 092F     		cmp	r7, #9
  84 002e EBD9     		bls	.L5
 174:Generated_Source\PSoC4/cyfitter_cfg.c **** 		}
 175:Generated_Source\PSoC4/cyfitter_cfg.c **** 	}
 176:Generated_Source\PSoC4/cyfitter_cfg.c **** }
  85              		.loc 1 176 0 is_stmt 1
  86              		@ sp needed
  87              	.LVL10:
  88              	.LVL11:
  89 0030 F0BD     		pop	{r4, r5, r6, r7, pc}
  90              		.cfi_endproc
  91              	.LFE3:
  92              		.size	cfg_write_bytes32, .-cfg_write_bytes32
  93 0032 C046     		.section	.text.AnalogSetDefault,"ax",%progbits
  94              		.align	2
  95              		.code	16
  96              		.thumb_func
  97              		.type	AnalogSetDefault, %function
  98              	AnalogSetDefault:
  99              	.LFB5:
 177:Generated_Source\PSoC4/cyfitter_cfg.c **** 
 178:Generated_Source\PSoC4/cyfitter_cfg.c **** 
 179:Generated_Source\PSoC4/cyfitter_cfg.c **** /*******************************************************************************
 180:Generated_Source\PSoC4/cyfitter_cfg.c **** * Function Name: ClockSetup
 181:Generated_Source\PSoC4/cyfitter_cfg.c **** ********************************************************************************
 182:Generated_Source\PSoC4/cyfitter_cfg.c **** *
 183:Generated_Source\PSoC4/cyfitter_cfg.c **** * Summary:
ARM GAS  C:\Users\g\AppData\Local\Temp\ccSfHu9q.s 			page 6


 184:Generated_Source\PSoC4/cyfitter_cfg.c **** *   Performs the initialization of all of the clocks in the device based on the
 185:Generated_Source\PSoC4/cyfitter_cfg.c **** *   settings in the Clock tab of the DWR.  This includes enabling the requested
 186:Generated_Source\PSoC4/cyfitter_cfg.c **** *   clocks and setting the necessary dividers to produce the desired frequency. 
 187:Generated_Source\PSoC4/cyfitter_cfg.c **** *
 188:Generated_Source\PSoC4/cyfitter_cfg.c **** * Parameters:
 189:Generated_Source\PSoC4/cyfitter_cfg.c **** *   void
 190:Generated_Source\PSoC4/cyfitter_cfg.c **** *
 191:Generated_Source\PSoC4/cyfitter_cfg.c **** * Return:
 192:Generated_Source\PSoC4/cyfitter_cfg.c **** *   void
 193:Generated_Source\PSoC4/cyfitter_cfg.c **** *
 194:Generated_Source\PSoC4/cyfitter_cfg.c **** *******************************************************************************/
 195:Generated_Source\PSoC4/cyfitter_cfg.c **** static void ClockSetup(void);
 196:Generated_Source\PSoC4/cyfitter_cfg.c **** CY_CFG_SECTION
 197:Generated_Source\PSoC4/cyfitter_cfg.c **** static void ClockSetup(void)
 198:Generated_Source\PSoC4/cyfitter_cfg.c **** {
 199:Generated_Source\PSoC4/cyfitter_cfg.c **** 	/* Enable HALF_EN before trimming for the flash accelerator. */
 200:Generated_Source\PSoC4/cyfitter_cfg.c **** 	CY_SET_REG32((void CYXDATA *)(CYREG_CLK_SELECT), (CY_GET_REG32((void *)CYREG_CLK_SELECT) | 0x00040
 201:Generated_Source\PSoC4/cyfitter_cfg.c **** 
 202:Generated_Source\PSoC4/cyfitter_cfg.c **** 	/* Setup and trim IMO based on desired frequency. */
 203:Generated_Source\PSoC4/cyfitter_cfg.c **** 	CySysClkWriteImoFreq(48u);
 204:Generated_Source\PSoC4/cyfitter_cfg.c **** 	/* CYDEV_CLK_ILO_CONFIG Starting address: CYDEV_CLK_ILO_CONFIG */
 205:Generated_Source\PSoC4/cyfitter_cfg.c **** 	CY_SET_XTND_REG32((void CYFAR *)(CYREG_CLK_ILO_CONFIG), 0x80000006u);
 206:Generated_Source\PSoC4/cyfitter_cfg.c **** 
 207:Generated_Source\PSoC4/cyfitter_cfg.c **** 
 208:Generated_Source\PSoC4/cyfitter_cfg.c **** 	/* CYDEV_CLK_SELECT00 Starting address: CYDEV_CLK_SELECT00 */
 209:Generated_Source\PSoC4/cyfitter_cfg.c **** 	CY_SET_XTND_REG32((void CYFAR *)(CYREG_CLK_SELECT03), 0x00000021u);
 210:Generated_Source\PSoC4/cyfitter_cfg.c **** 	CY_SET_XTND_REG32((void CYFAR *)(CYREG_CLK_SELECT07), 0x00000011u);
 211:Generated_Source\PSoC4/cyfitter_cfg.c **** 	CY_SET_XTND_REG32((void CYFAR *)(CYREG_CLK_SELECT08), 0x00000030u);
 212:Generated_Source\PSoC4/cyfitter_cfg.c **** 	CY_SET_XTND_REG32((void CYFAR *)(CYREG_CLK_SELECT09), 0x00000010u);
 213:Generated_Source\PSoC4/cyfitter_cfg.c **** 	CY_SET_XTND_REG32((void CYFAR *)(CYREG_CLK_SELECT13), 0x00000010u);
 214:Generated_Source\PSoC4/cyfitter_cfg.c **** 	CY_SET_XTND_REG32((void CYFAR *)(CYREG_CLK_SELECT15), 0x00000020u);
 215:Generated_Source\PSoC4/cyfitter_cfg.c **** 
 216:Generated_Source\PSoC4/cyfitter_cfg.c **** 	/* CYDEV_CLK_IMO_CONFIG Starting address: CYDEV_CLK_IMO_CONFIG */
 217:Generated_Source\PSoC4/cyfitter_cfg.c **** 	CY_SET_XTND_REG32((void CYFAR *)(CYREG_CLK_IMO_CONFIG), 0x82000000u);
 218:Generated_Source\PSoC4/cyfitter_cfg.c **** 
 219:Generated_Source\PSoC4/cyfitter_cfg.c **** 	/* CYDEV_CLK_SELECT Starting address: CYDEV_CLK_SELECT */
 220:Generated_Source\PSoC4/cyfitter_cfg.c **** 	CY_SET_XTND_REG32((void CYFAR *)(CYREG_CLK_SELECT), 0x00040000u);
 221:Generated_Source\PSoC4/cyfitter_cfg.c **** 
 222:Generated_Source\PSoC4/cyfitter_cfg.c **** 	/* CYDEV_CLK_DIVIDER_A00 Starting address: CYDEV_CLK_DIVIDER_A00 */
 223:Generated_Source\PSoC4/cyfitter_cfg.c **** 	CY_SET_XTND_REG32((void CYFAR *)(CYREG_CLK_DIVIDER_A00), 0x80000003u);
 224:Generated_Source\PSoC4/cyfitter_cfg.c **** 
 225:Generated_Source\PSoC4/cyfitter_cfg.c **** 	/* CYDEV_CLK_DIVIDER_B00 Starting address: CYDEV_CLK_DIVIDER_B00 */
 226:Generated_Source\PSoC4/cyfitter_cfg.c **** 	CY_SET_XTND_REG32((void CYFAR *)(CYREG_CLK_DIVIDER_B00), 0xC0000003u);
 227:Generated_Source\PSoC4/cyfitter_cfg.c **** 
 228:Generated_Source\PSoC4/cyfitter_cfg.c **** 	/* CYDEV_CLK_DIVIDER_C00 Starting address: CYDEV_CLK_DIVIDER_C00 */
 229:Generated_Source\PSoC4/cyfitter_cfg.c **** 	CY_SET_XTND_REG32((void CYFAR *)(CYREG_CLK_DIVIDER_C00), 0x80000000u);
 230:Generated_Source\PSoC4/cyfitter_cfg.c **** 
 231:Generated_Source\PSoC4/cyfitter_cfg.c **** 	/* CYDEV_CLK_DIVIDER_A01 Starting address: CYDEV_CLK_DIVIDER_A01 */
 232:Generated_Source\PSoC4/cyfitter_cfg.c **** 	CY_SET_XTND_REG32((void CYFAR *)(CYREG_CLK_DIVIDER_A01), 0x80000003u);
 233:Generated_Source\PSoC4/cyfitter_cfg.c **** 
 234:Generated_Source\PSoC4/cyfitter_cfg.c **** 	/* CYDEV_CLK_DIVIDER_B01 Starting address: CYDEV_CLK_DIVIDER_B01 */
 235:Generated_Source\PSoC4/cyfitter_cfg.c **** 	CY_SET_XTND_REG32((void CYFAR *)(CYREG_CLK_DIVIDER_B01), 0x800000CFu);
 236:Generated_Source\PSoC4/cyfitter_cfg.c **** 
 237:Generated_Source\PSoC4/cyfitter_cfg.c **** 	(void)CyIntSetVector(9u, &CySysWdtIsr);
 238:Generated_Source\PSoC4/cyfitter_cfg.c **** 	CyIntEnable(9u);
 239:Generated_Source\PSoC4/cyfitter_cfg.c **** 	CY_SET_XTND_REG32((void CYFAR *)(CYREG_WDT_CONFIG), 0x00000000u);
 240:Generated_Source\PSoC4/cyfitter_cfg.c **** }
ARM GAS  C:\Users\g\AppData\Local\Temp\ccSfHu9q.s 			page 7


 241:Generated_Source\PSoC4/cyfitter_cfg.c **** 
 242:Generated_Source\PSoC4/cyfitter_cfg.c **** 
 243:Generated_Source\PSoC4/cyfitter_cfg.c **** /* Analog API Functions */
 244:Generated_Source\PSoC4/cyfitter_cfg.c **** 
 245:Generated_Source\PSoC4/cyfitter_cfg.c **** 
 246:Generated_Source\PSoC4/cyfitter_cfg.c **** /*******************************************************************************
 247:Generated_Source\PSoC4/cyfitter_cfg.c **** * Function Name: AnalogSetDefault
 248:Generated_Source\PSoC4/cyfitter_cfg.c **** ********************************************************************************
 249:Generated_Source\PSoC4/cyfitter_cfg.c **** *
 250:Generated_Source\PSoC4/cyfitter_cfg.c **** * Summary:
 251:Generated_Source\PSoC4/cyfitter_cfg.c **** *  Sets up the analog portions of the chip to default values based on chip
 252:Generated_Source\PSoC4/cyfitter_cfg.c **** *  configuration options from the project.
 253:Generated_Source\PSoC4/cyfitter_cfg.c **** *
 254:Generated_Source\PSoC4/cyfitter_cfg.c **** * Parameters:
 255:Generated_Source\PSoC4/cyfitter_cfg.c **** *  void
 256:Generated_Source\PSoC4/cyfitter_cfg.c **** *
 257:Generated_Source\PSoC4/cyfitter_cfg.c **** * Return:
 258:Generated_Source\PSoC4/cyfitter_cfg.c **** *  void
 259:Generated_Source\PSoC4/cyfitter_cfg.c **** *
 260:Generated_Source\PSoC4/cyfitter_cfg.c **** *******************************************************************************/
 261:Generated_Source\PSoC4/cyfitter_cfg.c **** static void AnalogSetDefault(void);
 262:Generated_Source\PSoC4/cyfitter_cfg.c **** static void AnalogSetDefault(void)
 263:Generated_Source\PSoC4/cyfitter_cfg.c **** {
 100              		.loc 1 263 0
 101              		.cfi_startproc
 264:Generated_Source\PSoC4/cyfitter_cfg.c **** 	CY_SET_XTND_REG32((void CYFAR *)CYREG_SAR_MUX_SWITCH0, 0x00000004u);
 102              		.loc 1 264 0
 103 0000 0422     		mov	r2, #4
 104 0002 014B     		ldr	r3, .L7
 105 0004 1A60     		str	r2, [r3]
 265:Generated_Source\PSoC4/cyfitter_cfg.c **** 	/* Variable VDDA is selected; no pumps are enabled by default */
 266:Generated_Source\PSoC4/cyfitter_cfg.c **** }
 106              		.loc 1 266 0
 107              		@ sp needed
 108 0006 7047     		bx	lr
 109              	.L8:
 110              		.align	2
 111              	.L7:
 112 0008 00031A40 		.word	1075446528
 113              		.cfi_endproc
 114              	.LFE5:
 115              		.size	AnalogSetDefault, .-AnalogSetDefault
 116              		.section	.text.CYMEMZERO,"ax",%progbits
 117              		.align	2
 118              		.code	16
 119              		.thumb_func
 120              		.type	CYMEMZERO, %function
 121              	CYMEMZERO:
 122              	.LFB0:
  63:Generated_Source\PSoC4/cyfitter_cfg.c **** 	(void)memset(s, 0, n);
 123              		.loc 1 63 0
 124              		.cfi_startproc
 125              	.LVL12:
 126 0000 08B5     		push	{r3, lr}
 127              		.cfi_def_cfa_offset 8
 128              		.cfi_offset 3, -8
 129              		.cfi_offset 14, -4
ARM GAS  C:\Users\g\AppData\Local\Temp\ccSfHu9q.s 			page 8


 130 0002 0A1C     		mov	r2, r1
  64:Generated_Source\PSoC4/cyfitter_cfg.c **** }
 131              		.loc 1 64 0
 132 0004 0021     		mov	r1, #0
 133              	.LVL13:
 134 0006 FFF7FEFF 		bl	memset
 135              	.LVL14:
  65:Generated_Source\PSoC4/cyfitter_cfg.c **** CY_CFG_UNUSED
 136              		.loc 1 65 0
 137              		@ sp needed
 138 000a 08BD     		pop	{r3, pc}
 139              		.cfi_endproc
 140              	.LFE0:
 141              		.size	CYMEMZERO, .-CYMEMZERO
 142              		.section	.text.CYCONFIGCPYCODE,"ax",%progbits
 143              		.align	2
 144              		.code	16
 145              		.thumb_func
 146              		.type	CYCONFIGCPYCODE, %function
 147              	CYCONFIGCPYCODE:
 148              	.LFB2:
  77:Generated_Source\PSoC4/cyfitter_cfg.c **** 	(void)memcpy(dest, src, n);
 149              		.loc 1 77 0
 150              		.cfi_startproc
 151              	.LVL15:
 152 0000 08B5     		push	{r3, lr}
 153              		.cfi_def_cfa_offset 8
 154              		.cfi_offset 3, -8
 155              		.cfi_offset 14, -4
  78:Generated_Source\PSoC4/cyfitter_cfg.c **** }
 156              		.loc 1 78 0
 157 0002 FFF7FEFF 		bl	memcpy
 158              	.LVL16:
  79:Generated_Source\PSoC4/cyfitter_cfg.c **** 
 159              		.loc 1 79 0
 160              		@ sp needed
 161 0006 08BD     		pop	{r3, pc}
 162              		.cfi_endproc
 163              	.LFE2:
 164              		.size	CYCONFIGCPYCODE, .-CYCONFIGCPYCODE
 165              		.section	.psocinit,"ax",%progbits
 166              		.align	2
 167              		.code	16
 168              		.thumb_func
 169              		.type	ClockSetup, %function
 170              	ClockSetup:
 171              	.LFB4:
 198:Generated_Source\PSoC4/cyfitter_cfg.c **** 	/* Enable HALF_EN before trimming for the flash accelerator. */
 172              		.loc 1 198 0
 173              		.cfi_startproc
 174 0000 38B5     		push	{r3, r4, r5, lr}
 175              		.cfi_def_cfa_offset 16
 176              		.cfi_offset 3, -16
 177              		.cfi_offset 4, -12
 178              		.cfi_offset 5, -8
 179              		.cfi_offset 14, -4
 200:Generated_Source\PSoC4/cyfitter_cfg.c **** 
ARM GAS  C:\Users\g\AppData\Local\Temp\ccSfHu9q.s 			page 9


 180              		.loc 1 200 0
 181 0002 1E4C     		ldr	r4, .L12
 182 0004 2368     		ldr	r3, [r4]
 183 0006 8025     		mov	r5, #128
 184 0008 ED02     		lsl	r5, r5, #11
 185 000a 2B43     		orr	r3, r5
 186 000c 2360     		str	r3, [r4]
 203:Generated_Source\PSoC4/cyfitter_cfg.c **** 	/* CYDEV_CLK_ILO_CONFIG Starting address: CYDEV_CLK_ILO_CONFIG */
 187              		.loc 1 203 0
 188 000e 3020     		mov	r0, #48
 189 0010 FFF7FEFF 		bl	CySysClkWriteImoFreq
 190              	.LVL17:
 205:Generated_Source\PSoC4/cyfitter_cfg.c **** 
 191              		.loc 1 205 0
 192 0014 1A4A     		ldr	r2, .L12+4
 193 0016 1B4B     		ldr	r3, .L12+8
 194 0018 1A60     		str	r2, [r3]
 209:Generated_Source\PSoC4/cyfitter_cfg.c **** 	CY_SET_XTND_REG32((void CYFAR *)(CYREG_CLK_SELECT07), 0x00000011u);
 195              		.loc 1 209 0
 196 001a 2122     		mov	r2, #33
 197 001c 1A4B     		ldr	r3, .L12+12
 198 001e 1A60     		str	r2, [r3]
 210:Generated_Source\PSoC4/cyfitter_cfg.c **** 	CY_SET_XTND_REG32((void CYFAR *)(CYREG_CLK_SELECT08), 0x00000030u);
 199              		.loc 1 210 0
 200 0020 103A     		sub	r2, r2, #16
 201 0022 1A4B     		ldr	r3, .L12+16
 202 0024 1A60     		str	r2, [r3]
 211:Generated_Source\PSoC4/cyfitter_cfg.c **** 	CY_SET_XTND_REG32((void CYFAR *)(CYREG_CLK_SELECT09), 0x00000010u);
 203              		.loc 1 211 0
 204 0026 1F32     		add	r2, r2, #31
 205 0028 194B     		ldr	r3, .L12+20
 206 002a 1A60     		str	r2, [r3]
 212:Generated_Source\PSoC4/cyfitter_cfg.c **** 	CY_SET_XTND_REG32((void CYFAR *)(CYREG_CLK_SELECT13), 0x00000010u);
 207              		.loc 1 212 0
 208 002c 1023     		mov	r3, #16
 209 002e 194A     		ldr	r2, .L12+24
 210 0030 1360     		str	r3, [r2]
 213:Generated_Source\PSoC4/cyfitter_cfg.c **** 	CY_SET_XTND_REG32((void CYFAR *)(CYREG_CLK_SELECT15), 0x00000020u);
 211              		.loc 1 213 0
 212 0032 194A     		ldr	r2, .L12+28
 213 0034 1360     		str	r3, [r2]
 214:Generated_Source\PSoC4/cyfitter_cfg.c **** 
 214              		.loc 1 214 0
 215 0036 2022     		mov	r2, #32
 216 0038 184B     		ldr	r3, .L12+32
 217 003a 1A60     		str	r2, [r3]
 217:Generated_Source\PSoC4/cyfitter_cfg.c **** 
 218              		.loc 1 217 0
 219 003c 8222     		mov	r2, #130
 220 003e 1206     		lsl	r2, r2, #24
 221 0040 174B     		ldr	r3, .L12+36
 222 0042 1A60     		str	r2, [r3]
 220:Generated_Source\PSoC4/cyfitter_cfg.c **** 
 223              		.loc 1 220 0
 224 0044 2560     		str	r5, [r4]
 223:Generated_Source\PSoC4/cyfitter_cfg.c **** 
 225              		.loc 1 223 0
ARM GAS  C:\Users\g\AppData\Local\Temp\ccSfHu9q.s 			page 10


 226 0046 174B     		ldr	r3, .L12+40
 227 0048 174A     		ldr	r2, .L12+44
 228 004a 1360     		str	r3, [r2]
 226:Generated_Source\PSoC4/cyfitter_cfg.c **** 
 229              		.loc 1 226 0
 230 004c 1749     		ldr	r1, .L12+48
 231 004e 184A     		ldr	r2, .L12+52
 232 0050 1160     		str	r1, [r2]
 229:Generated_Source\PSoC4/cyfitter_cfg.c **** 
 233              		.loc 1 229 0
 234 0052 8021     		mov	r1, #128
 235 0054 0906     		lsl	r1, r1, #24
 236 0056 174A     		ldr	r2, .L12+56
 237 0058 1160     		str	r1, [r2]
 232:Generated_Source\PSoC4/cyfitter_cfg.c **** 
 238              		.loc 1 232 0
 239 005a 174A     		ldr	r2, .L12+60
 240 005c 1360     		str	r3, [r2]
 235:Generated_Source\PSoC4/cyfitter_cfg.c **** 
 241              		.loc 1 235 0
 242 005e 174A     		ldr	r2, .L12+64
 243 0060 174B     		ldr	r3, .L12+68
 244 0062 1A60     		str	r2, [r3]
 237:Generated_Source\PSoC4/cyfitter_cfg.c **** 	CyIntEnable(9u);
 245              		.loc 1 237 0
 246 0064 0920     		mov	r0, #9
 247 0066 1749     		ldr	r1, .L12+72
 248 0068 FFF7FEFF 		bl	CyIntSetVector
 249              	.LVL18:
 238:Generated_Source\PSoC4/cyfitter_cfg.c **** 	CY_SET_XTND_REG32((void CYFAR *)(CYREG_WDT_CONFIG), 0x00000000u);
 250              		.loc 1 238 0
 251 006c 0920     		mov	r0, #9
 252 006e FFF7FEFF 		bl	CyIntEnable
 253              	.LVL19:
 239:Generated_Source\PSoC4/cyfitter_cfg.c **** }
 254              		.loc 1 239 0
 255 0072 0022     		mov	r2, #0
 256 0074 144B     		ldr	r3, .L12+76
 257 0076 1A60     		str	r2, [r3]
 240:Generated_Source\PSoC4/cyfitter_cfg.c **** 
 258              		.loc 1 240 0
 259              		@ sp needed
 260 0078 38BD     		pop	{r3, r4, r5, pc}
 261              	.L13:
 262 007a C046     		.align	2
 263              	.L12:
 264 007c 00010B40 		.word	1074462976
 265 0080 06000080 		.word	-2147483642
 266 0084 04010B40 		.word	1074462980
 267 0088 0C020240 		.word	1073873420
 268 008c 1C020240 		.word	1073873436
 269 0090 20020240 		.word	1073873440
 270 0094 24020240 		.word	1073873444
 271 0098 34020240 		.word	1073873460
 272 009c 3C020240 		.word	1073873468
 273 00a0 08010B40 		.word	1074462984
 274 00a4 03000080 		.word	-2147483645
ARM GAS  C:\Users\g\AppData\Local\Temp\ccSfHu9q.s 			page 11


 275 00a8 00000240 		.word	1073872896
 276 00ac 030000C0 		.word	-1073741821
 277 00b0 40000240 		.word	1073872960
 278 00b4 80000240 		.word	1073873024
 279 00b8 04000240 		.word	1073872900
 280 00bc CF000080 		.word	-2147483441
 281 00c0 44000240 		.word	1073872964
 282 00c4 00000000 		.word	CySysWdtIsr
 283 00c8 0C020B40 		.word	1074463244
 284              		.cfi_endproc
 285              	.LFE4:
 286              		.size	ClockSetup, .-ClockSetup
 287              		.section	.text.SetAnalogRoutingPumps,"ax",%progbits
 288              		.align	2
 289              		.global	SetAnalogRoutingPumps
 290              		.code	16
 291              		.thumb_func
 292              		.type	SetAnalogRoutingPumps, %function
 293              	SetAnalogRoutingPumps:
 294              	.LFB6:
 267:Generated_Source\PSoC4/cyfitter_cfg.c **** 
 268:Generated_Source\PSoC4/cyfitter_cfg.c **** 
 269:Generated_Source\PSoC4/cyfitter_cfg.c **** /*******************************************************************************
 270:Generated_Source\PSoC4/cyfitter_cfg.c **** * Function Name: SetAnalogRoutingPumps
 271:Generated_Source\PSoC4/cyfitter_cfg.c **** ********************************************************************************
 272:Generated_Source\PSoC4/cyfitter_cfg.c **** *
 273:Generated_Source\PSoC4/cyfitter_cfg.c **** * Summary:
 274:Generated_Source\PSoC4/cyfitter_cfg.c **** * Enables or disables the analog pumps feeding analog routing switches.
 275:Generated_Source\PSoC4/cyfitter_cfg.c **** * Intended to be called at startup, based on the Vdda system configuration;
 276:Generated_Source\PSoC4/cyfitter_cfg.c **** * may be called during operation when the user informs us that the Vdda voltage crossed the pump th
 277:Generated_Source\PSoC4/cyfitter_cfg.c **** *
 278:Generated_Source\PSoC4/cyfitter_cfg.c **** * Parameters:
 279:Generated_Source\PSoC4/cyfitter_cfg.c **** *  enabled - 1 to enable the pumps, 0 to disable the pumps
 280:Generated_Source\PSoC4/cyfitter_cfg.c **** *
 281:Generated_Source\PSoC4/cyfitter_cfg.c **** * Return:
 282:Generated_Source\PSoC4/cyfitter_cfg.c **** *  void
 283:Generated_Source\PSoC4/cyfitter_cfg.c **** *
 284:Generated_Source\PSoC4/cyfitter_cfg.c **** *******************************************************************************/
 285:Generated_Source\PSoC4/cyfitter_cfg.c **** void SetAnalogRoutingPumps(uint8 enabled)
 286:Generated_Source\PSoC4/cyfitter_cfg.c **** {
 295              		.loc 1 286 0
 296              		.cfi_startproc
 297              	.LVL20:
 287:Generated_Source\PSoC4/cyfitter_cfg.c **** 	uint32 regValue = CY_GET_XTND_REG32((void *)(CYREG_SAR_PUMP_CTRL));
 298              		.loc 1 287 0
 299 0000 064B     		ldr	r3, .L17
 300 0002 1B68     		ldr	r3, [r3]
 301              	.LVL21:
 288:Generated_Source\PSoC4/cyfitter_cfg.c **** 	if (enabled != 0u)
 302              		.loc 1 288 0
 303 0004 0028     		cmp	r0, #0
 304 0006 03D0     		beq	.L15
 289:Generated_Source\PSoC4/cyfitter_cfg.c **** 	{
 290:Generated_Source\PSoC4/cyfitter_cfg.c **** 		regValue |= 0x80000000u;
 305              		.loc 1 290 0
 306 0008 8022     		mov	r2, #128
 307 000a 1206     		lsl	r2, r2, #24
ARM GAS  C:\Users\g\AppData\Local\Temp\ccSfHu9q.s 			page 12


 308 000c 1343     		orr	r3, r2
 309              	.LVL22:
 310 000e 01E0     		b	.L16
 311              	.L15:
 291:Generated_Source\PSoC4/cyfitter_cfg.c **** 	}
 292:Generated_Source\PSoC4/cyfitter_cfg.c **** 	else
 293:Generated_Source\PSoC4/cyfitter_cfg.c **** 	{
 294:Generated_Source\PSoC4/cyfitter_cfg.c **** 		regValue &= ~0x80000000u;
 312              		.loc 1 294 0
 313 0010 5B00     		lsl	r3, r3, #1
 314              	.LVL23:
 315 0012 5B08     		lsr	r3, r3, #1
 316              	.LVL24:
 317              	.L16:
 295:Generated_Source\PSoC4/cyfitter_cfg.c **** 	}
 296:Generated_Source\PSoC4/cyfitter_cfg.c **** 	CY_SET_XTND_REG32((void *)(CYREG_SAR_PUMP_CTRL), regValue);
 318              		.loc 1 296 0
 319 0014 014A     		ldr	r2, .L17
 320 0016 1360     		str	r3, [r2]
 297:Generated_Source\PSoC4/cyfitter_cfg.c **** }
 321              		.loc 1 297 0
 322              		@ sp needed
 323 0018 7047     		bx	lr
 324              	.L18:
 325 001a C046     		.align	2
 326              	.L17:
 327 001c 80031A40 		.word	1075446656
 328              		.cfi_endproc
 329              	.LFE6:
 330              		.size	SetAnalogRoutingPumps, .-SetAnalogRoutingPumps
 331              		.section	.psocinit
 332              		.align	2
 333              		.global	cyfitter_cfg
 334              		.code	16
 335              		.thumb_func
 336              		.type	cyfitter_cfg, %function
 337              	cyfitter_cfg:
 338              	.LFB7:
 298:Generated_Source\PSoC4/cyfitter_cfg.c **** 
 299:Generated_Source\PSoC4/cyfitter_cfg.c **** #define CY_AMUX_UNUSED CYREG_CM0_ROM_DWT
 300:Generated_Source\PSoC4/cyfitter_cfg.c **** 
 301:Generated_Source\PSoC4/cyfitter_cfg.c **** 
 302:Generated_Source\PSoC4/cyfitter_cfg.c **** /*******************************************************************************
 303:Generated_Source\PSoC4/cyfitter_cfg.c **** * Function Name: cyfitter_cfg
 304:Generated_Source\PSoC4/cyfitter_cfg.c **** ********************************************************************************
 305:Generated_Source\PSoC4/cyfitter_cfg.c **** * Summary:
 306:Generated_Source\PSoC4/cyfitter_cfg.c **** *  This function is called by the start-up code for the selected device. It
 307:Generated_Source\PSoC4/cyfitter_cfg.c **** *  performs all of the necessary device configuration based on the design
 308:Generated_Source\PSoC4/cyfitter_cfg.c **** *  settings.  This includes settings from the Design Wide Resources (DWR) such
 309:Generated_Source\PSoC4/cyfitter_cfg.c **** *  as Clocks and Pins as well as any component configuration that is necessary.
 310:Generated_Source\PSoC4/cyfitter_cfg.c **** *
 311:Generated_Source\PSoC4/cyfitter_cfg.c **** * Parameters:  
 312:Generated_Source\PSoC4/cyfitter_cfg.c **** *   void
 313:Generated_Source\PSoC4/cyfitter_cfg.c **** *
 314:Generated_Source\PSoC4/cyfitter_cfg.c **** * Return:
 315:Generated_Source\PSoC4/cyfitter_cfg.c **** *   void
 316:Generated_Source\PSoC4/cyfitter_cfg.c **** *
ARM GAS  C:\Users\g\AppData\Local\Temp\ccSfHu9q.s 			page 13


 317:Generated_Source\PSoC4/cyfitter_cfg.c **** *******************************************************************************/
 318:Generated_Source\PSoC4/cyfitter_cfg.c **** CY_CFG_SECTION
 319:Generated_Source\PSoC4/cyfitter_cfg.c **** void cyfitter_cfg(void)
 320:Generated_Source\PSoC4/cyfitter_cfg.c **** {
 339              		.loc 1 320 0
 340              		.cfi_startproc
 341 00cc 38B5     		push	{r3, r4, r5, lr}
 342              		.cfi_def_cfa_offset 16
 343              		.cfi_offset 3, -16
 344              		.cfi_offset 4, -12
 345              		.cfi_offset 5, -8
 346              		.cfi_offset 14, -4
 321:Generated_Source\PSoC4/cyfitter_cfg.c **** 	/* Disable interrupts by default. Let user enable if/when they want. */
 322:Generated_Source\PSoC4/cyfitter_cfg.c **** 	CyGlobalIntDisable;
 347              		.loc 1 322 0
 348              	@ 322 "Generated_Source\PSoC4\cyfitter_cfg.c" 1
 349 00ce 72B6     		CPSID   i
 350              	@ 0 "" 2
 323:Generated_Source\PSoC4/cyfitter_cfg.c **** 
 324:Generated_Source\PSoC4/cyfitter_cfg.c **** 	/* Enable the clock in the interrupt controller for the routed interrupts */
 325:Generated_Source\PSoC4/cyfitter_cfg.c **** 	CY_SET_REG8((void *)CYREG_UDB_UDBIF_INT_CLK_CTL, 0x01u);
 351              		.loc 1 325 0
 352              		.code	16
 353 00d0 0122     		mov	r2, #1
 354 00d2 414B     		ldr	r3, .L24
 355 00d4 1A70     		strb	r2, [r3]
 356              	.LVL25:
 357              	.LBB3:
 326:Generated_Source\PSoC4/cyfitter_cfg.c **** 	{
 327:Generated_Source\PSoC4/cyfitter_cfg.c **** 		static const uint32 CYCODE cy_cfg_addr_table[] = {
 328:Generated_Source\PSoC4/cyfitter_cfg.c **** 			0x400F0001u, /* Base address: 0x400F0000 Count: 1 */
 329:Generated_Source\PSoC4/cyfitter_cfg.c **** 			0x400F3037u, /* Base address: 0x400F3000 Count: 55 */
 330:Generated_Source\PSoC4/cyfitter_cfg.c **** 			0x400F3129u, /* Base address: 0x400F3100 Count: 41 */
 331:Generated_Source\PSoC4/cyfitter_cfg.c **** 			0x400F3217u, /* Base address: 0x400F3200 Count: 23 */
 332:Generated_Source\PSoC4/cyfitter_cfg.c **** 			0x400F333Bu, /* Base address: 0x400F3300 Count: 59 */
 333:Generated_Source\PSoC4/cyfitter_cfg.c **** 			0x400F4008u, /* Base address: 0x400F4000 Count: 8 */
 334:Generated_Source\PSoC4/cyfitter_cfg.c **** 			0x400F4112u, /* Base address: 0x400F4100 Count: 18 */
 335:Generated_Source\PSoC4/cyfitter_cfg.c **** 			0x400F4202u, /* Base address: 0x400F4200 Count: 2 */
 336:Generated_Source\PSoC4/cyfitter_cfg.c **** 			0x400F4306u, /* Base address: 0x400F4300 Count: 6 */
 337:Generated_Source\PSoC4/cyfitter_cfg.c **** 			0x400F6002u, /* Base address: 0x400F6000 Count: 2 */
 338:Generated_Source\PSoC4/cyfitter_cfg.c **** 		};
 339:Generated_Source\PSoC4/cyfitter_cfg.c **** 
 340:Generated_Source\PSoC4/cyfitter_cfg.c **** 		static const cy_cfg_addrvalue_t CYCODE cy_cfg_data_table[] = {
 341:Generated_Source\PSoC4/cyfitter_cfg.c **** 			{0x83u, 0x6Fu},
 342:Generated_Source\PSoC4/cyfitter_cfg.c **** 			{0x01u, 0x4Bu},
 343:Generated_Source\PSoC4/cyfitter_cfg.c **** 			{0x02u, 0x40u},
 344:Generated_Source\PSoC4/cyfitter_cfg.c **** 			{0x03u, 0x34u},
 345:Generated_Source\PSoC4/cyfitter_cfg.c **** 			{0x04u, 0x04u},
 346:Generated_Source\PSoC4/cyfitter_cfg.c **** 			{0x05u, 0x19u},
 347:Generated_Source\PSoC4/cyfitter_cfg.c **** 			{0x07u, 0x66u},
 348:Generated_Source\PSoC4/cyfitter_cfg.c **** 			{0x08u, 0x14u},
 349:Generated_Source\PSoC4/cyfitter_cfg.c **** 			{0x0Au, 0x20u},
 350:Generated_Source\PSoC4/cyfitter_cfg.c **** 			{0x0Bu, 0x80u},
 351:Generated_Source\PSoC4/cyfitter_cfg.c **** 			{0x0Eu, 0x01u},
 352:Generated_Source\PSoC4/cyfitter_cfg.c **** 			{0x12u, 0x02u},
 353:Generated_Source\PSoC4/cyfitter_cfg.c **** 			{0x13u, 0xFFu},
 354:Generated_Source\PSoC4/cyfitter_cfg.c **** 			{0x14u, 0x01u},
ARM GAS  C:\Users\g\AppData\Local\Temp\ccSfHu9q.s 			page 14


 355:Generated_Source\PSoC4/cyfitter_cfg.c **** 			{0x15u, 0x07u},
 356:Generated_Source\PSoC4/cyfitter_cfg.c **** 			{0x17u, 0x78u},
 357:Generated_Source\PSoC4/cyfitter_cfg.c **** 			{0x19u, 0x2Au},
 358:Generated_Source\PSoC4/cyfitter_cfg.c **** 			{0x1Au, 0x08u},
 359:Generated_Source\PSoC4/cyfitter_cfg.c **** 			{0x1Bu, 0x55u},
 360:Generated_Source\PSoC4/cyfitter_cfg.c **** 			{0x1Du, 0x7Fu},
 361:Generated_Source\PSoC4/cyfitter_cfg.c **** 			{0x1Eu, 0x04u},
 362:Generated_Source\PSoC4/cyfitter_cfg.c **** 			{0x1Fu, 0x80u},
 363:Generated_Source\PSoC4/cyfitter_cfg.c **** 			{0x20u, 0x20u},
 364:Generated_Source\PSoC4/cyfitter_cfg.c **** 			{0x21u, 0x80u},
 365:Generated_Source\PSoC4/cyfitter_cfg.c **** 			{0x22u, 0x14u},
 366:Generated_Source\PSoC4/cyfitter_cfg.c **** 			{0x24u, 0x04u},
 367:Generated_Source\PSoC4/cyfitter_cfg.c **** 			{0x2Cu, 0x34u},
 368:Generated_Source\PSoC4/cyfitter_cfg.c **** 			{0x2Eu, 0x40u},
 369:Generated_Source\PSoC4/cyfitter_cfg.c **** 			{0x30u, 0x0Cu},
 370:Generated_Source\PSoC4/cyfitter_cfg.c **** 			{0x32u, 0x02u},
 371:Generated_Source\PSoC4/cyfitter_cfg.c **** 			{0x34u, 0x01u},
 372:Generated_Source\PSoC4/cyfitter_cfg.c **** 			{0x35u, 0xFFu},
 373:Generated_Source\PSoC4/cyfitter_cfg.c **** 			{0x36u, 0x70u},
 374:Generated_Source\PSoC4/cyfitter_cfg.c **** 			{0x3Bu, 0x03u},
 375:Generated_Source\PSoC4/cyfitter_cfg.c **** 			{0x3Eu, 0x10u},
 376:Generated_Source\PSoC4/cyfitter_cfg.c **** 			{0x3Fu, 0x10u},
 377:Generated_Source\PSoC4/cyfitter_cfg.c **** 			{0x58u, 0x04u},
 378:Generated_Source\PSoC4/cyfitter_cfg.c **** 			{0x59u, 0x04u},
 379:Generated_Source\PSoC4/cyfitter_cfg.c **** 			{0x5Cu, 0x11u},
 380:Generated_Source\PSoC4/cyfitter_cfg.c **** 			{0x5Fu, 0x01u},
 381:Generated_Source\PSoC4/cyfitter_cfg.c **** 			{0x9Eu, 0x02u},
 382:Generated_Source\PSoC4/cyfitter_cfg.c **** 			{0x9Fu, 0x01u},
 383:Generated_Source\PSoC4/cyfitter_cfg.c **** 			{0xA6u, 0x04u},
 384:Generated_Source\PSoC4/cyfitter_cfg.c **** 			{0xAAu, 0x01u},
 385:Generated_Source\PSoC4/cyfitter_cfg.c **** 			{0xB0u, 0x04u},
 386:Generated_Source\PSoC4/cyfitter_cfg.c **** 			{0xB2u, 0x01u},
 387:Generated_Source\PSoC4/cyfitter_cfg.c **** 			{0xB4u, 0x02u},
 388:Generated_Source\PSoC4/cyfitter_cfg.c **** 			{0xB7u, 0x01u},
 389:Generated_Source\PSoC4/cyfitter_cfg.c **** 			{0xBBu, 0x80u},
 390:Generated_Source\PSoC4/cyfitter_cfg.c **** 			{0xD6u, 0x08u},
 391:Generated_Source\PSoC4/cyfitter_cfg.c **** 			{0xD8u, 0x04u},
 392:Generated_Source\PSoC4/cyfitter_cfg.c **** 			{0xD9u, 0x04u},
 393:Generated_Source\PSoC4/cyfitter_cfg.c **** 			{0xDBu, 0x04u},
 394:Generated_Source\PSoC4/cyfitter_cfg.c **** 			{0xDCu, 0x13u},
 395:Generated_Source\PSoC4/cyfitter_cfg.c **** 			{0xDDu, 0x30u},
 396:Generated_Source\PSoC4/cyfitter_cfg.c **** 			{0xDFu, 0x01u},
 397:Generated_Source\PSoC4/cyfitter_cfg.c **** 			{0x00u, 0x84u},
 398:Generated_Source\PSoC4/cyfitter_cfg.c **** 			{0x02u, 0x40u},
 399:Generated_Source\PSoC4/cyfitter_cfg.c **** 			{0x03u, 0x08u},
 400:Generated_Source\PSoC4/cyfitter_cfg.c **** 			{0x09u, 0x20u},
 401:Generated_Source\PSoC4/cyfitter_cfg.c **** 			{0x0Au, 0x52u},
 402:Generated_Source\PSoC4/cyfitter_cfg.c **** 			{0x0Fu, 0x01u},
 403:Generated_Source\PSoC4/cyfitter_cfg.c **** 			{0x10u, 0x10u},
 404:Generated_Source\PSoC4/cyfitter_cfg.c **** 			{0x11u, 0x80u},
 405:Generated_Source\PSoC4/cyfitter_cfg.c **** 			{0x13u, 0x01u},
 406:Generated_Source\PSoC4/cyfitter_cfg.c **** 			{0x16u, 0x28u},
 407:Generated_Source\PSoC4/cyfitter_cfg.c **** 			{0x18u, 0x10u},
 408:Generated_Source\PSoC4/cyfitter_cfg.c **** 			{0x1Au, 0x44u},
 409:Generated_Source\PSoC4/cyfitter_cfg.c **** 			{0x1Bu, 0x40u},
 410:Generated_Source\PSoC4/cyfitter_cfg.c **** 			{0x1Cu, 0x04u},
 411:Generated_Source\PSoC4/cyfitter_cfg.c **** 			{0x1Du, 0x11u},
ARM GAS  C:\Users\g\AppData\Local\Temp\ccSfHu9q.s 			page 15


 412:Generated_Source\PSoC4/cyfitter_cfg.c **** 			{0x1Fu, 0x08u},
 413:Generated_Source\PSoC4/cyfitter_cfg.c **** 			{0x21u, 0x22u},
 414:Generated_Source\PSoC4/cyfitter_cfg.c **** 			{0x22u, 0x01u},
 415:Generated_Source\PSoC4/cyfitter_cfg.c **** 			{0x23u, 0x80u},
 416:Generated_Source\PSoC4/cyfitter_cfg.c **** 			{0x25u, 0x40u},
 417:Generated_Source\PSoC4/cyfitter_cfg.c **** 			{0x26u, 0x80u},
 418:Generated_Source\PSoC4/cyfitter_cfg.c **** 			{0x29u, 0x01u},
 419:Generated_Source\PSoC4/cyfitter_cfg.c **** 			{0x31u, 0x12u},
 420:Generated_Source\PSoC4/cyfitter_cfg.c **** 			{0x32u, 0x80u},
 421:Generated_Source\PSoC4/cyfitter_cfg.c **** 			{0x33u, 0x08u},
 422:Generated_Source\PSoC4/cyfitter_cfg.c **** 			{0x37u, 0x80u},
 423:Generated_Source\PSoC4/cyfitter_cfg.c **** 			{0x3Au, 0x14u},
 424:Generated_Source\PSoC4/cyfitter_cfg.c **** 			{0x3Bu, 0x01u},
 425:Generated_Source\PSoC4/cyfitter_cfg.c **** 			{0x5Cu, 0x80u},
 426:Generated_Source\PSoC4/cyfitter_cfg.c **** 			{0x5Fu, 0x28u},
 427:Generated_Source\PSoC4/cyfitter_cfg.c **** 			{0x64u, 0x10u},
 428:Generated_Source\PSoC4/cyfitter_cfg.c **** 			{0x66u, 0x3Cu},
 429:Generated_Source\PSoC4/cyfitter_cfg.c **** 			{0x67u, 0x01u},
 430:Generated_Source\PSoC4/cyfitter_cfg.c **** 			{0xC0u, 0x0Fu},
 431:Generated_Source\PSoC4/cyfitter_cfg.c **** 			{0xC2u, 0x8Fu},
 432:Generated_Source\PSoC4/cyfitter_cfg.c **** 			{0xC4u, 0x6Du},
 433:Generated_Source\PSoC4/cyfitter_cfg.c **** 			{0xCAu, 0x01u},
 434:Generated_Source\PSoC4/cyfitter_cfg.c **** 			{0xCCu, 0x1Fu},
 435:Generated_Source\PSoC4/cyfitter_cfg.c **** 			{0xCEu, 0x07u},
 436:Generated_Source\PSoC4/cyfitter_cfg.c **** 			{0xD6u, 0x70u},
 437:Generated_Source\PSoC4/cyfitter_cfg.c **** 			{0xD8u, 0x70u},
 438:Generated_Source\PSoC4/cyfitter_cfg.c **** 			{0x40u, 0x60u},
 439:Generated_Source\PSoC4/cyfitter_cfg.c **** 			{0x41u, 0x05u},
 440:Generated_Source\PSoC4/cyfitter_cfg.c **** 			{0x49u, 0xFFu},
 441:Generated_Source\PSoC4/cyfitter_cfg.c **** 			{0x4Au, 0xFFu},
 442:Generated_Source\PSoC4/cyfitter_cfg.c **** 			{0x4Bu, 0xFFu},
 443:Generated_Source\PSoC4/cyfitter_cfg.c **** 			{0x4Du, 0xA0u},
 444:Generated_Source\PSoC4/cyfitter_cfg.c **** 			{0x4Fu, 0x01u},
 445:Generated_Source\PSoC4/cyfitter_cfg.c **** 			{0x50u, 0x18u},
 446:Generated_Source\PSoC4/cyfitter_cfg.c **** 			{0x56u, 0x08u},
 447:Generated_Source\PSoC4/cyfitter_cfg.c **** 			{0x5Au, 0x04u},
 448:Generated_Source\PSoC4/cyfitter_cfg.c **** 			{0x5Bu, 0x04u},
 449:Generated_Source\PSoC4/cyfitter_cfg.c **** 			{0x5Du, 0x31u},
 450:Generated_Source\PSoC4/cyfitter_cfg.c **** 			{0x5Fu, 0x01u},
 451:Generated_Source\PSoC4/cyfitter_cfg.c **** 			{0x60u, 0x40u},
 452:Generated_Source\PSoC4/cyfitter_cfg.c **** 			{0x62u, 0x80u},
 453:Generated_Source\PSoC4/cyfitter_cfg.c **** 			{0x64u, 0x40u},
 454:Generated_Source\PSoC4/cyfitter_cfg.c **** 			{0x65u, 0x40u},
 455:Generated_Source\PSoC4/cyfitter_cfg.c **** 			{0x66u, 0x80u},
 456:Generated_Source\PSoC4/cyfitter_cfg.c **** 			{0x68u, 0x40u},
 457:Generated_Source\PSoC4/cyfitter_cfg.c **** 			{0x6Au, 0x80u},
 458:Generated_Source\PSoC4/cyfitter_cfg.c **** 			{0x6Cu, 0x40u},
 459:Generated_Source\PSoC4/cyfitter_cfg.c **** 			{0x6Du, 0x20u},
 460:Generated_Source\PSoC4/cyfitter_cfg.c **** 			{0x6Eu, 0x80u},
 461:Generated_Source\PSoC4/cyfitter_cfg.c **** 			{0x00u, 0x10u},
 462:Generated_Source\PSoC4/cyfitter_cfg.c **** 			{0x01u, 0x4Au},
 463:Generated_Source\PSoC4/cyfitter_cfg.c **** 			{0x0Au, 0x40u},
 464:Generated_Source\PSoC4/cyfitter_cfg.c **** 			{0x0Bu, 0x15u},
 465:Generated_Source\PSoC4/cyfitter_cfg.c **** 			{0x10u, 0xA8u},
 466:Generated_Source\PSoC4/cyfitter_cfg.c **** 			{0x13u, 0x40u},
 467:Generated_Source\PSoC4/cyfitter_cfg.c **** 			{0x18u, 0x04u},
 468:Generated_Source\PSoC4/cyfitter_cfg.c **** 			{0x19u, 0x41u},
ARM GAS  C:\Users\g\AppData\Local\Temp\ccSfHu9q.s 			page 16


 469:Generated_Source\PSoC4/cyfitter_cfg.c **** 			{0x1Au, 0x18u},
 470:Generated_Source\PSoC4/cyfitter_cfg.c **** 			{0x23u, 0x14u},
 471:Generated_Source\PSoC4/cyfitter_cfg.c **** 			{0x29u, 0x08u},
 472:Generated_Source\PSoC4/cyfitter_cfg.c **** 			{0x30u, 0x80u},
 473:Generated_Source\PSoC4/cyfitter_cfg.c **** 			{0x32u, 0x02u},
 474:Generated_Source\PSoC4/cyfitter_cfg.c **** 			{0x35u, 0x02u},
 475:Generated_Source\PSoC4/cyfitter_cfg.c **** 			{0x36u, 0x02u},
 476:Generated_Source\PSoC4/cyfitter_cfg.c **** 			{0x39u, 0x54u},
 477:Generated_Source\PSoC4/cyfitter_cfg.c **** 			{0x40u, 0x04u},
 478:Generated_Source\PSoC4/cyfitter_cfg.c **** 			{0x48u, 0x40u},
 479:Generated_Source\PSoC4/cyfitter_cfg.c **** 			{0x49u, 0x88u},
 480:Generated_Source\PSoC4/cyfitter_cfg.c **** 			{0x4Bu, 0x01u},
 481:Generated_Source\PSoC4/cyfitter_cfg.c **** 			{0x4Du, 0x80u},
 482:Generated_Source\PSoC4/cyfitter_cfg.c **** 			{0x4Eu, 0x04u},
 483:Generated_Source\PSoC4/cyfitter_cfg.c **** 			{0x4Fu, 0x80u},
 484:Generated_Source\PSoC4/cyfitter_cfg.c **** 			{0x50u, 0x80u},
 485:Generated_Source\PSoC4/cyfitter_cfg.c **** 			{0x51u, 0x08u},
 486:Generated_Source\PSoC4/cyfitter_cfg.c **** 			{0x52u, 0x12u},
 487:Generated_Source\PSoC4/cyfitter_cfg.c **** 			{0x59u, 0x41u},
 488:Generated_Source\PSoC4/cyfitter_cfg.c **** 			{0x5Au, 0x04u},
 489:Generated_Source\PSoC4/cyfitter_cfg.c **** 			{0x5Bu, 0x10u},
 490:Generated_Source\PSoC4/cyfitter_cfg.c **** 			{0x5Cu, 0x80u},
 491:Generated_Source\PSoC4/cyfitter_cfg.c **** 			{0x61u, 0x08u},
 492:Generated_Source\PSoC4/cyfitter_cfg.c **** 			{0x62u, 0x10u},
 493:Generated_Source\PSoC4/cyfitter_cfg.c **** 			{0x66u, 0x40u},
 494:Generated_Source\PSoC4/cyfitter_cfg.c **** 			{0x68u, 0x28u},
 495:Generated_Source\PSoC4/cyfitter_cfg.c **** 			{0x69u, 0x54u},
 496:Generated_Source\PSoC4/cyfitter_cfg.c **** 			{0x73u, 0x40u},
 497:Generated_Source\PSoC4/cyfitter_cfg.c **** 			{0x84u, 0x80u},
 498:Generated_Source\PSoC4/cyfitter_cfg.c **** 			{0x8Cu, 0x80u},
 499:Generated_Source\PSoC4/cyfitter_cfg.c **** 			{0x8Fu, 0x10u},
 500:Generated_Source\PSoC4/cyfitter_cfg.c **** 			{0x90u, 0x10u},
 501:Generated_Source\PSoC4/cyfitter_cfg.c **** 			{0x92u, 0x44u},
 502:Generated_Source\PSoC4/cyfitter_cfg.c **** 			{0x96u, 0x10u},
 503:Generated_Source\PSoC4/cyfitter_cfg.c **** 			{0x9Eu, 0x40u},
 504:Generated_Source\PSoC4/cyfitter_cfg.c **** 			{0xA3u, 0x40u},
 505:Generated_Source\PSoC4/cyfitter_cfg.c **** 			{0xA4u, 0x40u},
 506:Generated_Source\PSoC4/cyfitter_cfg.c **** 			{0xA8u, 0x80u},
 507:Generated_Source\PSoC4/cyfitter_cfg.c **** 			{0xAFu, 0x28u},
 508:Generated_Source\PSoC4/cyfitter_cfg.c **** 			{0xC0u, 0x0Fu},
 509:Generated_Source\PSoC4/cyfitter_cfg.c **** 			{0xC2u, 0x0Fu},
 510:Generated_Source\PSoC4/cyfitter_cfg.c **** 			{0xC4u, 0x0Fu},
 511:Generated_Source\PSoC4/cyfitter_cfg.c **** 			{0xCAu, 0x02u},
 512:Generated_Source\PSoC4/cyfitter_cfg.c **** 			{0xCCu, 0x09u},
 513:Generated_Source\PSoC4/cyfitter_cfg.c **** 			{0xCEu, 0x0Eu},
 514:Generated_Source\PSoC4/cyfitter_cfg.c **** 			{0xD0u, 0x04u},
 515:Generated_Source\PSoC4/cyfitter_cfg.c **** 			{0xD2u, 0x38u},
 516:Generated_Source\PSoC4/cyfitter_cfg.c **** 			{0xD6u, 0x1Fu},
 517:Generated_Source\PSoC4/cyfitter_cfg.c **** 			{0xD8u, 0x16u},
 518:Generated_Source\PSoC4/cyfitter_cfg.c **** 			{0xE0u, 0x04u},
 519:Generated_Source\PSoC4/cyfitter_cfg.c **** 			{0xE2u, 0x80u},
 520:Generated_Source\PSoC4/cyfitter_cfg.c **** 			{0x03u, 0x40u},
 521:Generated_Source\PSoC4/cyfitter_cfg.c **** 			{0x06u, 0x40u},
 522:Generated_Source\PSoC4/cyfitter_cfg.c **** 			{0x0Bu, 0x04u},
 523:Generated_Source\PSoC4/cyfitter_cfg.c **** 			{0x0Cu, 0x10u},
 524:Generated_Source\PSoC4/cyfitter_cfg.c **** 			{0x6Fu, 0x04u},
 525:Generated_Source\PSoC4/cyfitter_cfg.c **** 			{0xC0u, 0x30u},
ARM GAS  C:\Users\g\AppData\Local\Temp\ccSfHu9q.s 			page 17


 526:Generated_Source\PSoC4/cyfitter_cfg.c **** 			{0xC2u, 0xC0u},
 527:Generated_Source\PSoC4/cyfitter_cfg.c **** 			{0xDAu, 0x80u},
 528:Generated_Source\PSoC4/cyfitter_cfg.c **** 			{0x1Bu, 0x02u},
 529:Generated_Source\PSoC4/cyfitter_cfg.c **** 			{0x27u, 0x04u},
 530:Generated_Source\PSoC4/cyfitter_cfg.c **** 			{0x5Eu, 0x20u},
 531:Generated_Source\PSoC4/cyfitter_cfg.c **** 			{0x83u, 0x02u},
 532:Generated_Source\PSoC4/cyfitter_cfg.c **** 			{0x84u, 0x10u},
 533:Generated_Source\PSoC4/cyfitter_cfg.c **** 			{0x8Au, 0x10u},
 534:Generated_Source\PSoC4/cyfitter_cfg.c **** 			{0x98u, 0x10u},
 535:Generated_Source\PSoC4/cyfitter_cfg.c **** 			{0x9Fu, 0x04u},
 536:Generated_Source\PSoC4/cyfitter_cfg.c **** 			{0xABu, 0x40u},
 537:Generated_Source\PSoC4/cyfitter_cfg.c **** 			{0xAEu, 0x40u},
 538:Generated_Source\PSoC4/cyfitter_cfg.c **** 			{0xAFu, 0x04u},
 539:Generated_Source\PSoC4/cyfitter_cfg.c **** 			{0xC6u, 0x10u},
 540:Generated_Source\PSoC4/cyfitter_cfg.c **** 			{0xC8u, 0x20u},
 541:Generated_Source\PSoC4/cyfitter_cfg.c **** 			{0xD6u, 0x20u},
 542:Generated_Source\PSoC4/cyfitter_cfg.c **** 			{0xE0u, 0x20u},
 543:Generated_Source\PSoC4/cyfitter_cfg.c **** 			{0xE4u, 0x40u},
 544:Generated_Source\PSoC4/cyfitter_cfg.c **** 			{0xE8u, 0x50u},
 545:Generated_Source\PSoC4/cyfitter_cfg.c **** 			{0xECu, 0x80u},
 546:Generated_Source\PSoC4/cyfitter_cfg.c **** 			{0x6Au, 0x40u},
 547:Generated_Source\PSoC4/cyfitter_cfg.c **** 			{0xDAu, 0x02u},
 548:Generated_Source\PSoC4/cyfitter_cfg.c **** 			{0x20u, 0x02u},
 549:Generated_Source\PSoC4/cyfitter_cfg.c **** 			{0x82u, 0x40u},
 550:Generated_Source\PSoC4/cyfitter_cfg.c **** 			{0x88u, 0x01u},
 551:Generated_Source\PSoC4/cyfitter_cfg.c **** 			{0x96u, 0x40u},
 552:Generated_Source\PSoC4/cyfitter_cfg.c **** 			{0xC8u, 0x08u},
 553:Generated_Source\PSoC4/cyfitter_cfg.c **** 			{0xE2u, 0x01u},
 554:Generated_Source\PSoC4/cyfitter_cfg.c **** 			{0x01u, 0x0Au},
 555:Generated_Source\PSoC4/cyfitter_cfg.c **** 			{0x10u, 0x0Au},
 556:Generated_Source\PSoC4/cyfitter_cfg.c **** 		};
 557:Generated_Source\PSoC4/cyfitter_cfg.c **** 
 558:Generated_Source\PSoC4/cyfitter_cfg.c **** 
 559:Generated_Source\PSoC4/cyfitter_cfg.c **** 
 560:Generated_Source\PSoC4/cyfitter_cfg.c **** 		CYPACKED typedef struct {
 561:Generated_Source\PSoC4/cyfitter_cfg.c **** 			void CYFAR *address;
 562:Generated_Source\PSoC4/cyfitter_cfg.c **** 			uint16 size;
 563:Generated_Source\PSoC4/cyfitter_cfg.c **** 		} CYPACKED_ATTR cfg_memset_t;
 564:Generated_Source\PSoC4/cyfitter_cfg.c **** 
 565:Generated_Source\PSoC4/cyfitter_cfg.c **** 
 566:Generated_Source\PSoC4/cyfitter_cfg.c **** 		CYPACKED typedef struct {
 567:Generated_Source\PSoC4/cyfitter_cfg.c **** 			void CYFAR *dest;
 568:Generated_Source\PSoC4/cyfitter_cfg.c **** 			const void CYCODE *src;
 569:Generated_Source\PSoC4/cyfitter_cfg.c **** 			uint16 size;
 570:Generated_Source\PSoC4/cyfitter_cfg.c **** 		} CYPACKED_ATTR cfg_memcpy_t;
 571:Generated_Source\PSoC4/cyfitter_cfg.c **** 
 572:Generated_Source\PSoC4/cyfitter_cfg.c **** 		static const cfg_memset_t CYCODE cfg_memset_list [] = {
 573:Generated_Source\PSoC4/cyfitter_cfg.c **** 			/* address, size */
 574:Generated_Source\PSoC4/cyfitter_cfg.c **** 			{(void CYFAR *)(CYDEV_UDB_P0_U0_BASE), 640u},
 575:Generated_Source\PSoC4/cyfitter_cfg.c **** 			{(void CYFAR *)(CYDEV_UDB_P1_ROUTE_BASE), 256u},
 576:Generated_Source\PSoC4/cyfitter_cfg.c **** 			{(void CYFAR *)(CYDEV_UDB_DSI0_BASE), 1024u},
 577:Generated_Source\PSoC4/cyfitter_cfg.c **** 		};
 578:Generated_Source\PSoC4/cyfitter_cfg.c **** 
 579:Generated_Source\PSoC4/cyfitter_cfg.c **** 		/* UDB_0_0_0_CONFIG Address: CYDEV_UDB_P1_U1_BASE Size (bytes): 128 */
 580:Generated_Source\PSoC4/cyfitter_cfg.c **** 		static const uint8 CYCODE BS_UDB_0_0_0_CONFIG_VAL[] = {
 581:Generated_Source\PSoC4/cyfitter_cfg.c **** 			0x18u, 0x00u, 0x03u, 0x00u, 0x10u, 0x07u, 0x04u, 0x08u, 0x20u, 0x01u, 0x00u, 0x12u, 0x06u, 0x06u
 582:Generated_Source\PSoC4/cyfitter_cfg.c **** 			0x00u, 0x18u, 0x20u, 0x03u, 0x1Fu, 0x00u, 0x00u, 0x00u, 0x80u, 0x00u, 0x00u, 0x00u, 0x00u, 0x00u
ARM GAS  C:\Users\g\AppData\Local\Temp\ccSfHu9q.s 			page 18


 583:Generated_Source\PSoC4/cyfitter_cfg.c **** 			0x00u, 0x00u, 0x80u, 0x00u, 0x07u, 0x10u, 0x08u, 0x04u, 0x01u, 0x00u, 0x12u, 0x00u, 0x00u, 0x00u
 584:Generated_Source\PSoC4/cyfitter_cfg.c **** 			0x80u, 0x00u, 0x40u, 0x1Fu, 0x20u, 0x20u, 0x1Fu, 0x00u, 0x00u, 0x00u, 0x00u, 0x00u, 0x00u, 0x00u
 585:Generated_Source\PSoC4/cyfitter_cfg.c **** 			0x20u, 0x05u, 0x00u, 0x00u, 0x00u, 0x34u, 0xC2u, 0x5Eu, 0x3Fu, 0xFFu, 0xFFu, 0xFFu, 0x00u, 0xAFu
 586:Generated_Source\PSoC4/cyfitter_cfg.c **** 			0x18u, 0x00u, 0x87u, 0x00u, 0x0Fu, 0x00u, 0x00u, 0x00u, 0x04u, 0x04u, 0x04u, 0x04u, 0x11u, 0x11u
 587:Generated_Source\PSoC4/cyfitter_cfg.c **** 			0x40u, 0x00u, 0x80u, 0x00u, 0x40u, 0x40u, 0x80u, 0x00u, 0x40u, 0x00u, 0x80u, 0x00u, 0x40u, 0x20u
 588:Generated_Source\PSoC4/cyfitter_cfg.c **** 			0x00u, 0x00u, 0x00u, 0x00u, 0x00u, 0x00u, 0x00u, 0x00u, 0x00u, 0x00u, 0x00u, 0x00u, 0x00u, 0x00u
 589:Generated_Source\PSoC4/cyfitter_cfg.c **** 
 590:Generated_Source\PSoC4/cyfitter_cfg.c **** 		static const cfg_memcpy_t CYCODE cfg_memcpy_list [] = {
 591:Generated_Source\PSoC4/cyfitter_cfg.c **** 			/* dest, src, size */
 592:Generated_Source\PSoC4/cyfitter_cfg.c **** 			{(void CYFAR *)(CYDEV_UDB_P1_U1_BASE), BS_UDB_0_0_0_CONFIG_VAL, 128u},
 593:Generated_Source\PSoC4/cyfitter_cfg.c **** 		};
 594:Generated_Source\PSoC4/cyfitter_cfg.c **** 
 595:Generated_Source\PSoC4/cyfitter_cfg.c **** 		uint8 CYDATA i;
 596:Generated_Source\PSoC4/cyfitter_cfg.c **** 
 597:Generated_Source\PSoC4/cyfitter_cfg.c **** 		/* Zero out critical memory blocks before beginning configuration */
 598:Generated_Source\PSoC4/cyfitter_cfg.c **** 		for (i = 0u; i < (sizeof(cfg_memset_list)/sizeof(cfg_memset_list[0])); i++)
 358              		.loc 1 598 0
 359 00d6 0024     		mov	r4, #0
 360 00d8 10E0     		b	.L20
 361              	.LVL26:
 362              	.L21:
 363              	.LBB4:
 599:Generated_Source\PSoC4/cyfitter_cfg.c **** 		{
 600:Generated_Source\PSoC4/cyfitter_cfg.c **** 			const cfg_memset_t CYCODE * CYDATA ms = &cfg_memset_list[i];
 601:Generated_Source\PSoC4/cyfitter_cfg.c **** 			CYMEMZERO(ms->address, (size_t)(uint32)(ms->size));
 364              		.loc 1 601 0 discriminator 3
 365 00da 4048     		ldr	r0, .L24+4
 366 00dc 6300     		lsl	r3, r4, #1
 367 00de 1A19     		add	r2, r3, r4
 368 00e0 5200     		lsl	r2, r2, #1
 369 00e2 8218     		add	r2, r0, r2
 370 00e4 9188     		ldrh	r1, [r2, #4]
 371 00e6 1B19     		add	r3, r3, r4
 372 00e8 5B00     		lsl	r3, r3, #1
 373 00ea 1A5A     		ldrh	r2, [r3, r0]
 374 00ec C318     		add	r3, r0, r3
 375 00ee 5888     		ldrh	r0, [r3, #2]
 376 00f0 0004     		lsl	r0, r0, #16
 377 00f2 1043     		orr	r0, r2
 378 00f4 FFF7FEFF 		bl	CYMEMZERO
 379              	.LVL27:
 380              	.LBE4:
 598:Generated_Source\PSoC4/cyfitter_cfg.c **** 		{
 381              		.loc 1 598 0 discriminator 3
 382 00f8 0134     		add	r4, r4, #1
 383              	.LVL28:
 384 00fa E4B2     		uxtb	r4, r4
 385              	.LVL29:
 386              	.L20:
 598:Generated_Source\PSoC4/cyfitter_cfg.c **** 		{
 387              		.loc 1 598 0 is_stmt 0 discriminator 1
 388 00fc 022C     		cmp	r4, #2
 389 00fe ECD9     		bls	.L21
 390 0100 0024     		mov	r4, #0
 391              	.LVL30:
 392 0102 12E0     		b	.L22
 393              	.LVL31:
ARM GAS  C:\Users\g\AppData\Local\Temp\ccSfHu9q.s 			page 19


 394              	.L23:
 395              	.LBB5:
 602:Generated_Source\PSoC4/cyfitter_cfg.c **** 		}
 603:Generated_Source\PSoC4/cyfitter_cfg.c **** 
 604:Generated_Source\PSoC4/cyfitter_cfg.c **** 		/* Copy device configuration data into registers */
 605:Generated_Source\PSoC4/cyfitter_cfg.c **** 		for (i = 0u; i < (sizeof(cfg_memcpy_list)/sizeof(cfg_memcpy_list[0])); i++)
 606:Generated_Source\PSoC4/cyfitter_cfg.c **** 		{
 607:Generated_Source\PSoC4/cyfitter_cfg.c **** 			const cfg_memcpy_t CYCODE * CYDATA mc = &cfg_memcpy_list[i];
 608:Generated_Source\PSoC4/cyfitter_cfg.c **** 			void * CYDATA destPtr = mc->dest;
 396              		.loc 1 608 0 is_stmt 1 discriminator 3
 397 0104 354D     		ldr	r5, .L24+4
 398 0106 A300     		lsl	r3, r4, #2
 399 0108 1A19     		add	r2, r3, r4
 400 010a 5200     		lsl	r2, r2, #1
 401 010c AA18     		add	r2, r5, r2
 402 010e 918A     		ldrh	r1, [r2, #20]
 403 0110 D08A     		ldrh	r0, [r2, #22]
 404 0112 0004     		lsl	r0, r0, #16
 405 0114 0843     		orr	r0, r1
 406              	.LVL32:
 609:Generated_Source\PSoC4/cyfitter_cfg.c **** 			const void CYCODE * CYDATA srcPtr = mc->src;
 407              		.loc 1 609 0 discriminator 3
 408 0116 131C     		mov	r3, r2
 409 0118 128B     		ldrh	r2, [r2, #24]
 410 011a 598B     		ldrh	r1, [r3, #26]
 411 011c 0904     		lsl	r1, r1, #16
 412 011e 1143     		orr	r1, r2
 413              	.LVL33:
 610:Generated_Source\PSoC4/cyfitter_cfg.c **** 			uint16 CYDATA numBytes = mc->size;
 611:Generated_Source\PSoC4/cyfitter_cfg.c **** 			CYCONFIGCPYCODE(destPtr, srcPtr, numBytes);
 414              		.loc 1 611 0 discriminator 3
 415 0120 8022     		mov	r2, #128
 416 0122 FFF7FEFF 		bl	CYCONFIGCPYCODE
 417              	.LVL34:
 418              	.LBE5:
 605:Generated_Source\PSoC4/cyfitter_cfg.c **** 		{
 419              		.loc 1 605 0 discriminator 3
 420 0126 0134     		add	r4, r4, #1
 421              	.LVL35:
 422 0128 E4B2     		uxtb	r4, r4
 423              	.LVL36:
 424              	.L22:
 605:Generated_Source\PSoC4/cyfitter_cfg.c **** 		{
 425              		.loc 1 605 0 is_stmt 0 discriminator 1
 426 012a 002C     		cmp	r4, #0
 427 012c EAD0     		beq	.L23
 612:Generated_Source\PSoC4/cyfitter_cfg.c **** 		}
 613:Generated_Source\PSoC4/cyfitter_cfg.c **** 
 614:Generated_Source\PSoC4/cyfitter_cfg.c **** 		cfg_write_bytes32(cy_cfg_addr_table, cy_cfg_data_table);
 428              		.loc 1 614 0 is_stmt 1
 429 012e 2B49     		ldr	r1, .L24+4
 430 0130 081C     		mov	r0, r1
 431 0132 2030     		add	r0, r0, #32
 432 0134 4831     		add	r1, r1, #72
 433 0136 FFF7FEFF 		bl	cfg_write_bytes32
 434              	.LVL37:
 615:Generated_Source\PSoC4/cyfitter_cfg.c **** 
ARM GAS  C:\Users\g\AppData\Local\Temp\ccSfHu9q.s 			page 20


 616:Generated_Source\PSoC4/cyfitter_cfg.c **** 		/* HSIOM Starting address: CYDEV_HSIOM_BASE */
 617:Generated_Source\PSoC4/cyfitter_cfg.c **** 		CY_SET_XTND_REG32((void CYFAR *)(CYREG_HSIOM_PORT_SEL1), 0x00000030u);
 435              		.loc 1 617 0
 436 013a 3022     		mov	r2, #48
 437 013c 284B     		ldr	r3, .L24+8
 438 013e 1A60     		str	r2, [r3]
 618:Generated_Source\PSoC4/cyfitter_cfg.c **** 		CY_SET_XTND_REG32((void CYFAR *)(CYREG_HSIOM_PORT_SEL3), 0x00000099u);
 439              		.loc 1 618 0
 440 0140 6932     		add	r2, r2, #105
 441 0142 284B     		ldr	r3, .L24+12
 442 0144 1A60     		str	r2, [r3]
 619:Generated_Source\PSoC4/cyfitter_cfg.c **** 
 620:Generated_Source\PSoC4/cyfitter_cfg.c **** 		/* UDB_PA_0 Starting address: CYDEV_UDB_PA0_BASE */
 621:Generated_Source\PSoC4/cyfitter_cfg.c **** 		CY_SET_XTND_REG32((void CYFAR *)(CYDEV_UDB_PA0_BASE), 0x00990000u);
 443              		.loc 1 621 0
 444 0146 9923     		mov	r3, #153
 445 0148 1B04     		lsl	r3, r3, #16
 446 014a 274A     		ldr	r2, .L24+16
 447 014c 1360     		str	r3, [r2]
 622:Generated_Source\PSoC4/cyfitter_cfg.c **** 
 623:Generated_Source\PSoC4/cyfitter_cfg.c **** 		/* UDB_PA_1 Starting address: CYDEV_UDB_PA1_BASE */
 624:Generated_Source\PSoC4/cyfitter_cfg.c **** 		CY_SET_XTND_REG32((void CYFAR *)(CYDEV_UDB_PA1_BASE), 0x00990000u);
 448              		.loc 1 624 0
 449 014e 274A     		ldr	r2, .L24+20
 450 0150 1360     		str	r3, [r2]
 625:Generated_Source\PSoC4/cyfitter_cfg.c **** 		CY_SET_XTND_REG32((void CYFAR *)(CYREG_UDB_PA1_CFG8), 0x000C0000u);
 451              		.loc 1 625 0
 452 0152 C021     		mov	r1, #192
 453 0154 0903     		lsl	r1, r1, #12
 454 0156 264A     		ldr	r2, .L24+24
 455 0158 1160     		str	r1, [r2]
 626:Generated_Source\PSoC4/cyfitter_cfg.c **** 
 627:Generated_Source\PSoC4/cyfitter_cfg.c **** 		/* UDB_PA_2 Starting address: CYDEV_UDB_PA2_BASE */
 628:Generated_Source\PSoC4/cyfitter_cfg.c **** 		CY_SET_XTND_REG32((void CYFAR *)(CYDEV_UDB_PA2_BASE), 0x00990000u);
 456              		.loc 1 628 0
 457 015a 264A     		ldr	r2, .L24+28
 458 015c 1360     		str	r3, [r2]
 629:Generated_Source\PSoC4/cyfitter_cfg.c **** 
 630:Generated_Source\PSoC4/cyfitter_cfg.c **** 		/* UDB_PA_3 Starting address: CYDEV_UDB_PA3_BASE */
 631:Generated_Source\PSoC4/cyfitter_cfg.c **** 		CY_SET_XTND_REG32((void CYFAR *)(CYDEV_UDB_PA3_BASE), 0x00990000u);
 459              		.loc 1 631 0
 460 015e 264A     		ldr	r2, .L24+32
 461 0160 1360     		str	r3, [r2]
 632:Generated_Source\PSoC4/cyfitter_cfg.c **** 
 633:Generated_Source\PSoC4/cyfitter_cfg.c **** 		/* INT_SELECT Starting address: CYDEV_CPUSS_INTR_SELECT */
 634:Generated_Source\PSoC4/cyfitter_cfg.c **** 		CY_SET_XTND_REG32((void CYFAR *)(CYREG_CPUSS_INTR_SELECT), 0x00000001u);
 462              		.loc 1 634 0
 463 0162 0122     		mov	r2, #1
 464 0164 254B     		ldr	r3, .L24+36
 465 0166 1A60     		str	r2, [r3]
 635:Generated_Source\PSoC4/cyfitter_cfg.c **** 
 636:Generated_Source\PSoC4/cyfitter_cfg.c **** 		/* Enable digital routing */
 637:Generated_Source\PSoC4/cyfitter_cfg.c **** 		CY_SET_XTND_REG8((void *)CYREG_UDB_UDBIF_BANK_CTL, CY_GET_XTND_REG8((void *)CYREG_UDB_UDBIF_BANK_
 466              		.loc 1 637 0
 467 0168 254B     		ldr	r3, .L24+40
 468 016a 1878     		ldrb	r0, [r3]
 469 016c 0132     		add	r2, r2, #1
ARM GAS  C:\Users\g\AppData\Local\Temp\ccSfHu9q.s 			page 21


 470 016e 0221     		mov	r1, #2
 471 0170 0143     		orr	r1, r0
 472 0172 1970     		strb	r1, [r3]
 638:Generated_Source\PSoC4/cyfitter_cfg.c **** 
 639:Generated_Source\PSoC4/cyfitter_cfg.c **** 		/* Enable UDB array */
 640:Generated_Source\PSoC4/cyfitter_cfg.c **** 		CY_SET_XTND_REG8((void *)CYREG_UDB_UDBIF_WAIT_CFG, (uint8)((CY_GET_XTND_REG8((void *)CYREG_UDB_UD
 473              		.loc 1 640 0
 474 0174 234C     		ldr	r4, .L24+44
 475              	.LVL38:
 476 0176 2178     		ldrb	r1, [r4]
 477 0178 3C20     		mov	r0, #60
 478 017a 8143     		bic	r1, r0
 479 017c 2838     		sub	r0, r0, #40
 480 017e 0143     		orr	r1, r0
 481 0180 2170     		strb	r1, [r4]
 641:Generated_Source\PSoC4/cyfitter_cfg.c **** 		CY_SET_XTND_REG8((void *)CYREG_UDB_UDBIF_BANK_CTL, (uint8)(CY_GET_XTND_REG8((void *)CYREG_UDB_UDB
 482              		.loc 1 641 0
 483 0182 1878     		ldrb	r0, [r3]
 484 0184 1621     		mov	r1, #22
 485 0186 0143     		orr	r1, r0
 486 0188 1970     		strb	r1, [r3]
 487              	.LBE3:
 642:Generated_Source\PSoC4/cyfitter_cfg.c **** 	}
 643:Generated_Source\PSoC4/cyfitter_cfg.c **** 
 644:Generated_Source\PSoC4/cyfitter_cfg.c **** 	/* Perform second pass device configuration. These items must be configured in specific order afte
 645:Generated_Source\PSoC4/cyfitter_cfg.c **** 	/* IOPINS0_0 Starting address: CYDEV_PRT0_BASE */
 646:Generated_Source\PSoC4/cyfitter_cfg.c **** 	CY_SET_XTND_REG32((void CYFAR *)(CYDEV_PRT0_BASE), 0x000000CBu);
 488              		.loc 1 646 0
 489 018a CB21     		mov	r1, #203
 490 018c 1E4B     		ldr	r3, .L24+48
 491 018e 1960     		str	r1, [r3]
 647:Generated_Source\PSoC4/cyfitter_cfg.c **** 	CY_SET_XTND_REG32((void CYFAR *)(CYREG_PRT0_PC), 0x00480512u);
 492              		.loc 1 647 0
 493 0190 1E49     		ldr	r1, .L24+52
 494 0192 1F4B     		ldr	r3, .L24+56
 495 0194 1960     		str	r1, [r3]
 648:Generated_Source\PSoC4/cyfitter_cfg.c **** 
 649:Generated_Source\PSoC4/cyfitter_cfg.c **** 	/* IOPINS0_1 Starting address: CYDEV_PRT1_BASE */
 650:Generated_Source\PSoC4/cyfitter_cfg.c **** 	CY_SET_XTND_REG32((void CYFAR *)(CYDEV_PRT1_BASE), 0x00000002u);
 496              		.loc 1 650 0
 497 0196 1F4B     		ldr	r3, .L24+60
 498 0198 1A60     		str	r2, [r3]
 651:Generated_Source\PSoC4/cyfitter_cfg.c **** 	CY_SET_XTND_REG32((void CYFAR *)(CYREG_PRT1_PC), 0x000001B6u);
 499              		.loc 1 651 0
 500 019a DB21     		mov	r1, #219
 501 019c 4900     		lsl	r1, r1, #1
 502 019e 1E4B     		ldr	r3, .L24+64
 503 01a0 1960     		str	r1, [r3]
 652:Generated_Source\PSoC4/cyfitter_cfg.c **** 	CY_SET_XTND_REG32((void CYFAR *)(CYREG_PRT1_PC2), 0x00000080u);
 504              		.loc 1 652 0
 505 01a2 3739     		sub	r1, r1, #55
 506 01a4 FF39     		sub	r1, r1, #255
 507 01a6 1D4B     		ldr	r3, .L24+68
 508 01a8 1960     		str	r1, [r3]
 653:Generated_Source\PSoC4/cyfitter_cfg.c **** 
 654:Generated_Source\PSoC4/cyfitter_cfg.c **** 	/* IOPINS0_2 Starting address: CYDEV_PRT2_BASE */
 655:Generated_Source\PSoC4/cyfitter_cfg.c **** 	CY_SET_XTND_REG32((void CYFAR *)(CYDEV_PRT2_BASE), 0x0000001Cu);
ARM GAS  C:\Users\g\AppData\Local\Temp\ccSfHu9q.s 			page 22


 509              		.loc 1 655 0
 510 01aa 6439     		sub	r1, r1, #100
 511 01ac 1C4B     		ldr	r3, .L24+72
 512 01ae 1960     		str	r1, [r3]
 656:Generated_Source\PSoC4/cyfitter_cfg.c **** 	CY_SET_XTND_REG32((void CYFAR *)(CYREG_PRT2_PC), 0x00002400u);
 513              		.loc 1 656 0
 514 01b0 9021     		mov	r1, #144
 515 01b2 8901     		lsl	r1, r1, #6
 516 01b4 1B4B     		ldr	r3, .L24+76
 517 01b6 1960     		str	r1, [r3]
 657:Generated_Source\PSoC4/cyfitter_cfg.c **** 	CY_SET_XTND_REG32((void CYFAR *)(CYREG_PRT2_PC2), 0x00000004u);
 518              		.loc 1 657 0
 519 01b8 0421     		mov	r1, #4
 520 01ba 1B4B     		ldr	r3, .L24+80
 521 01bc 1960     		str	r1, [r3]
 658:Generated_Source\PSoC4/cyfitter_cfg.c **** 
 659:Generated_Source\PSoC4/cyfitter_cfg.c **** 	/* IOPINS0_3 Starting address: CYDEV_PRT3_BASE */
 660:Generated_Source\PSoC4/cyfitter_cfg.c **** 	CY_SET_XTND_REG32((void CYFAR *)(CYDEV_PRT3_BASE), 0x00000002u);
 522              		.loc 1 660 0
 523 01be 1B4B     		ldr	r3, .L24+84
 524 01c0 1A60     		str	r2, [r3]
 661:Generated_Source\PSoC4/cyfitter_cfg.c **** 	CY_SET_XTND_REG32((void CYFAR *)(CYREG_PRT3_PC), 0x00000DB1u);
 525              		.loc 1 661 0
 526 01c2 1B49     		ldr	r1, .L24+88
 527 01c4 1B4B     		ldr	r3, .L24+92
 528 01c6 1960     		str	r1, [r3]
 662:Generated_Source\PSoC4/cyfitter_cfg.c **** 	CY_SET_XTND_REG32((void CYFAR *)(CYREG_PRT3_PC2), 0x00000002u);
 529              		.loc 1 662 0
 530 01c8 1B4B     		ldr	r3, .L24+96
 531 01ca 1A60     		str	r2, [r3]
 663:Generated_Source\PSoC4/cyfitter_cfg.c **** 
 664:Generated_Source\PSoC4/cyfitter_cfg.c **** 
 665:Generated_Source\PSoC4/cyfitter_cfg.c **** 	/* Setup clocks based on selections from Clock DWR */
 666:Generated_Source\PSoC4/cyfitter_cfg.c **** 	ClockSetup();
 532              		.loc 1 666 0
 533 01cc FFF718FF 		bl	ClockSetup
 534              	.LVL39:
 667:Generated_Source\PSoC4/cyfitter_cfg.c **** 
 668:Generated_Source\PSoC4/cyfitter_cfg.c **** 	/* Perform basic analog initialization to defaults */
 669:Generated_Source\PSoC4/cyfitter_cfg.c **** 	AnalogSetDefault();
 535              		.loc 1 669 0
 536 01d0 FFF7FEFF 		bl	AnalogSetDefault
 537              	.LVL40:
 670:Generated_Source\PSoC4/cyfitter_cfg.c **** 
 671:Generated_Source\PSoC4/cyfitter_cfg.c **** }
 538              		.loc 1 671 0
 539              		@ sp needed
 540 01d4 38BD     		pop	{r3, r4, r5, pc}
 541              	.L25:
 542 01d6 C046     		.align	2
 543              	.L24:
 544 01d8 1C700F40 		.word	1074753564
 545 01dc 00000000 		.word	.LANCHOR0
 546 01e0 04000140 		.word	1073807364
 547 01e4 0C000140 		.word	1073807372
 548 01e8 00500F40 		.word	1074745344
 549 01ec 10500F40 		.word	1074745360
ARM GAS  C:\Users\g\AppData\Local\Temp\ccSfHu9q.s 			page 23


 550 01f0 18500F40 		.word	1074745368
 551 01f4 20500F40 		.word	1074745376
 552 01f8 30500F40 		.word	1074745392
 553 01fc 20000040 		.word	1073741856
 554 0200 00700F40 		.word	1074753536
 555 0204 01700F40 		.word	1074753537
 556 0208 00000440 		.word	1074003968
 557 020c 12054800 		.word	4719890
 558 0210 08000440 		.word	1074003976
 559 0214 00010440 		.word	1074004224
 560 0218 08010440 		.word	1074004232
 561 021c 18010440 		.word	1074004248
 562 0220 00020440 		.word	1074004480
 563 0224 08020440 		.word	1074004488
 564 0228 18020440 		.word	1074004504
 565 022c 00030440 		.word	1074004736
 566 0230 B10D0000 		.word	3505
 567 0234 08030440 		.word	1074004744
 568 0238 18030440 		.word	1074004760
 569              		.cfi_endproc
 570              	.LFE7:
 571              		.size	cyfitter_cfg, .-cyfitter_cfg
 572              		.section	.rodata
 573              		.align	2
 574              		.set	.LANCHOR0,. + 0
 575              		.type	cfg_memset_list.4757, %object
 576              		.size	cfg_memset_list.4757, 18
 577              	cfg_memset_list.4757:
 578 0000 00300F40 		.word	1074737152
 579 0004 8002     		.short	640
 580 0006 00330F40 		.4byte	1074737920
 581 000a 0001     		.short	256
 582 000c 00400F40 		.word	1074741248
 583 0010 0004     		.short	1024
 584 0012 0000     		.space	2
 585              		.type	cfg_memcpy_list.4759, %object
 586              		.size	cfg_memcpy_list.4759, 10
 587              	cfg_memcpy_list.4759:
 588 0014 80320F40 		.word	1074737792
 589 0018 F8010000 		.word	BS_UDB_0_0_0_CONFIG_VAL.4758
 590 001c 8000     		.short	128
 591 001e 0000     		.space	2
 592              		.type	cy_cfg_addr_table.4746, %object
 593              		.size	cy_cfg_addr_table.4746, 40
 594              	cy_cfg_addr_table.4746:
 595 0020 01000F40 		.word	1074724865
 596 0024 37300F40 		.word	1074737207
 597 0028 29310F40 		.word	1074737449
 598 002c 17320F40 		.word	1074737687
 599 0030 3B330F40 		.word	1074737979
 600 0034 08400F40 		.word	1074741256
 601 0038 12410F40 		.word	1074741522
 602 003c 02420F40 		.word	1074741762
 603 0040 06430F40 		.word	1074742022
 604 0044 02600F40 		.word	1074749442
 605              		.type	cy_cfg_data_table.4747, %object
 606              		.size	cy_cfg_data_table.4747, 430
ARM GAS  C:\Users\g\AppData\Local\Temp\ccSfHu9q.s 			page 24


 607              	cy_cfg_data_table.4747:
 608 0048 83       		.byte	-125
 609 0049 6F       		.byte	111
 610 004a 01       		.byte	1
 611 004b 4B       		.byte	75
 612 004c 02       		.byte	2
 613 004d 40       		.byte	64
 614 004e 03       		.byte	3
 615 004f 34       		.byte	52
 616 0050 04       		.byte	4
 617 0051 04       		.byte	4
 618 0052 05       		.byte	5
 619 0053 19       		.byte	25
 620 0054 07       		.byte	7
 621 0055 66       		.byte	102
 622 0056 08       		.byte	8
 623 0057 14       		.byte	20
 624 0058 0A       		.byte	10
 625 0059 20       		.byte	32
 626 005a 0B       		.byte	11
 627 005b 80       		.byte	-128
 628 005c 0E       		.byte	14
 629 005d 01       		.byte	1
 630 005e 12       		.byte	18
 631 005f 02       		.byte	2
 632 0060 13       		.byte	19
 633 0061 FF       		.byte	-1
 634 0062 14       		.byte	20
 635 0063 01       		.byte	1
 636 0064 15       		.byte	21
 637 0065 07       		.byte	7
 638 0066 17       		.byte	23
 639 0067 78       		.byte	120
 640 0068 19       		.byte	25
 641 0069 2A       		.byte	42
 642 006a 1A       		.byte	26
 643 006b 08       		.byte	8
 644 006c 1B       		.byte	27
 645 006d 55       		.byte	85
 646 006e 1D       		.byte	29
 647 006f 7F       		.byte	127
 648 0070 1E       		.byte	30
 649 0071 04       		.byte	4
 650 0072 1F       		.byte	31
 651 0073 80       		.byte	-128
 652 0074 20       		.byte	32
 653 0075 20       		.byte	32
 654 0076 21       		.byte	33
 655 0077 80       		.byte	-128
 656 0078 22       		.byte	34
 657 0079 14       		.byte	20
 658 007a 24       		.byte	36
 659 007b 04       		.byte	4
 660 007c 2C       		.byte	44
 661 007d 34       		.byte	52
 662 007e 2E       		.byte	46
 663 007f 40       		.byte	64
ARM GAS  C:\Users\g\AppData\Local\Temp\ccSfHu9q.s 			page 25


 664 0080 30       		.byte	48
 665 0081 0C       		.byte	12
 666 0082 32       		.byte	50
 667 0083 02       		.byte	2
 668 0084 34       		.byte	52
 669 0085 01       		.byte	1
 670 0086 35       		.byte	53
 671 0087 FF       		.byte	-1
 672 0088 36       		.byte	54
 673 0089 70       		.byte	112
 674 008a 3B       		.byte	59
 675 008b 03       		.byte	3
 676 008c 3E       		.byte	62
 677 008d 10       		.byte	16
 678 008e 3F       		.byte	63
 679 008f 10       		.byte	16
 680 0090 58       		.byte	88
 681 0091 04       		.byte	4
 682 0092 59       		.byte	89
 683 0093 04       		.byte	4
 684 0094 5C       		.byte	92
 685 0095 11       		.byte	17
 686 0096 5F       		.byte	95
 687 0097 01       		.byte	1
 688 0098 9E       		.byte	-98
 689 0099 02       		.byte	2
 690 009a 9F       		.byte	-97
 691 009b 01       		.byte	1
 692 009c A6       		.byte	-90
 693 009d 04       		.byte	4
 694 009e AA       		.byte	-86
 695 009f 01       		.byte	1
 696 00a0 B0       		.byte	-80
 697 00a1 04       		.byte	4
 698 00a2 B2       		.byte	-78
 699 00a3 01       		.byte	1
 700 00a4 B4       		.byte	-76
 701 00a5 02       		.byte	2
 702 00a6 B7       		.byte	-73
 703 00a7 01       		.byte	1
 704 00a8 BB       		.byte	-69
 705 00a9 80       		.byte	-128
 706 00aa D6       		.byte	-42
 707 00ab 08       		.byte	8
 708 00ac D8       		.byte	-40
 709 00ad 04       		.byte	4
 710 00ae D9       		.byte	-39
 711 00af 04       		.byte	4
 712 00b0 DB       		.byte	-37
 713 00b1 04       		.byte	4
 714 00b2 DC       		.byte	-36
 715 00b3 13       		.byte	19
 716 00b4 DD       		.byte	-35
 717 00b5 30       		.byte	48
 718 00b6 DF       		.byte	-33
 719 00b7 01       		.byte	1
 720 00b8 00       		.byte	0
ARM GAS  C:\Users\g\AppData\Local\Temp\ccSfHu9q.s 			page 26


 721 00b9 84       		.byte	-124
 722 00ba 02       		.byte	2
 723 00bb 40       		.byte	64
 724 00bc 03       		.byte	3
 725 00bd 08       		.byte	8
 726 00be 09       		.byte	9
 727 00bf 20       		.byte	32
 728 00c0 0A       		.byte	10
 729 00c1 52       		.byte	82
 730 00c2 0F       		.byte	15
 731 00c3 01       		.byte	1
 732 00c4 10       		.byte	16
 733 00c5 10       		.byte	16
 734 00c6 11       		.byte	17
 735 00c7 80       		.byte	-128
 736 00c8 13       		.byte	19
 737 00c9 01       		.byte	1
 738 00ca 16       		.byte	22
 739 00cb 28       		.byte	40
 740 00cc 18       		.byte	24
 741 00cd 10       		.byte	16
 742 00ce 1A       		.byte	26
 743 00cf 44       		.byte	68
 744 00d0 1B       		.byte	27
 745 00d1 40       		.byte	64
 746 00d2 1C       		.byte	28
 747 00d3 04       		.byte	4
 748 00d4 1D       		.byte	29
 749 00d5 11       		.byte	17
 750 00d6 1F       		.byte	31
 751 00d7 08       		.byte	8
 752 00d8 21       		.byte	33
 753 00d9 22       		.byte	34
 754 00da 22       		.byte	34
 755 00db 01       		.byte	1
 756 00dc 23       		.byte	35
 757 00dd 80       		.byte	-128
 758 00de 25       		.byte	37
 759 00df 40       		.byte	64
 760 00e0 26       		.byte	38
 761 00e1 80       		.byte	-128
 762 00e2 29       		.byte	41
 763 00e3 01       		.byte	1
 764 00e4 31       		.byte	49
 765 00e5 12       		.byte	18
 766 00e6 32       		.byte	50
 767 00e7 80       		.byte	-128
 768 00e8 33       		.byte	51
 769 00e9 08       		.byte	8
 770 00ea 37       		.byte	55
 771 00eb 80       		.byte	-128
 772 00ec 3A       		.byte	58
 773 00ed 14       		.byte	20
 774 00ee 3B       		.byte	59
 775 00ef 01       		.byte	1
 776 00f0 5C       		.byte	92
 777 00f1 80       		.byte	-128
ARM GAS  C:\Users\g\AppData\Local\Temp\ccSfHu9q.s 			page 27


 778 00f2 5F       		.byte	95
 779 00f3 28       		.byte	40
 780 00f4 64       		.byte	100
 781 00f5 10       		.byte	16
 782 00f6 66       		.byte	102
 783 00f7 3C       		.byte	60
 784 00f8 67       		.byte	103
 785 00f9 01       		.byte	1
 786 00fa C0       		.byte	-64
 787 00fb 0F       		.byte	15
 788 00fc C2       		.byte	-62
 789 00fd 8F       		.byte	-113
 790 00fe C4       		.byte	-60
 791 00ff 6D       		.byte	109
 792 0100 CA       		.byte	-54
 793 0101 01       		.byte	1
 794 0102 CC       		.byte	-52
 795 0103 1F       		.byte	31
 796 0104 CE       		.byte	-50
 797 0105 07       		.byte	7
 798 0106 D6       		.byte	-42
 799 0107 70       		.byte	112
 800 0108 D8       		.byte	-40
 801 0109 70       		.byte	112
 802 010a 40       		.byte	64
 803 010b 60       		.byte	96
 804 010c 41       		.byte	65
 805 010d 05       		.byte	5
 806 010e 49       		.byte	73
 807 010f FF       		.byte	-1
 808 0110 4A       		.byte	74
 809 0111 FF       		.byte	-1
 810 0112 4B       		.byte	75
 811 0113 FF       		.byte	-1
 812 0114 4D       		.byte	77
 813 0115 A0       		.byte	-96
 814 0116 4F       		.byte	79
 815 0117 01       		.byte	1
 816 0118 50       		.byte	80
 817 0119 18       		.byte	24
 818 011a 56       		.byte	86
 819 011b 08       		.byte	8
 820 011c 5A       		.byte	90
 821 011d 04       		.byte	4
 822 011e 5B       		.byte	91
 823 011f 04       		.byte	4
 824 0120 5D       		.byte	93
 825 0121 31       		.byte	49
 826 0122 5F       		.byte	95
 827 0123 01       		.byte	1
 828 0124 60       		.byte	96
 829 0125 40       		.byte	64
 830 0126 62       		.byte	98
 831 0127 80       		.byte	-128
 832 0128 64       		.byte	100
 833 0129 40       		.byte	64
 834 012a 65       		.byte	101
ARM GAS  C:\Users\g\AppData\Local\Temp\ccSfHu9q.s 			page 28


 835 012b 40       		.byte	64
 836 012c 66       		.byte	102
 837 012d 80       		.byte	-128
 838 012e 68       		.byte	104
 839 012f 40       		.byte	64
 840 0130 6A       		.byte	106
 841 0131 80       		.byte	-128
 842 0132 6C       		.byte	108
 843 0133 40       		.byte	64
 844 0134 6D       		.byte	109
 845 0135 20       		.byte	32
 846 0136 6E       		.byte	110
 847 0137 80       		.byte	-128
 848 0138 00       		.byte	0
 849 0139 10       		.byte	16
 850 013a 01       		.byte	1
 851 013b 4A       		.byte	74
 852 013c 0A       		.byte	10
 853 013d 40       		.byte	64
 854 013e 0B       		.byte	11
 855 013f 15       		.byte	21
 856 0140 10       		.byte	16
 857 0141 A8       		.byte	-88
 858 0142 13       		.byte	19
 859 0143 40       		.byte	64
 860 0144 18       		.byte	24
 861 0145 04       		.byte	4
 862 0146 19       		.byte	25
 863 0147 41       		.byte	65
 864 0148 1A       		.byte	26
 865 0149 18       		.byte	24
 866 014a 23       		.byte	35
 867 014b 14       		.byte	20
 868 014c 29       		.byte	41
 869 014d 08       		.byte	8
 870 014e 30       		.byte	48
 871 014f 80       		.byte	-128
 872 0150 32       		.byte	50
 873 0151 02       		.byte	2
 874 0152 35       		.byte	53
 875 0153 02       		.byte	2
 876 0154 36       		.byte	54
 877 0155 02       		.byte	2
 878 0156 39       		.byte	57
 879 0157 54       		.byte	84
 880 0158 40       		.byte	64
 881 0159 04       		.byte	4
 882 015a 48       		.byte	72
 883 015b 40       		.byte	64
 884 015c 49       		.byte	73
 885 015d 88       		.byte	-120
 886 015e 4B       		.byte	75
 887 015f 01       		.byte	1
 888 0160 4D       		.byte	77
 889 0161 80       		.byte	-128
 890 0162 4E       		.byte	78
 891 0163 04       		.byte	4
ARM GAS  C:\Users\g\AppData\Local\Temp\ccSfHu9q.s 			page 29


 892 0164 4F       		.byte	79
 893 0165 80       		.byte	-128
 894 0166 50       		.byte	80
 895 0167 80       		.byte	-128
 896 0168 51       		.byte	81
 897 0169 08       		.byte	8
 898 016a 52       		.byte	82
 899 016b 12       		.byte	18
 900 016c 59       		.byte	89
 901 016d 41       		.byte	65
 902 016e 5A       		.byte	90
 903 016f 04       		.byte	4
 904 0170 5B       		.byte	91
 905 0171 10       		.byte	16
 906 0172 5C       		.byte	92
 907 0173 80       		.byte	-128
 908 0174 61       		.byte	97
 909 0175 08       		.byte	8
 910 0176 62       		.byte	98
 911 0177 10       		.byte	16
 912 0178 66       		.byte	102
 913 0179 40       		.byte	64
 914 017a 68       		.byte	104
 915 017b 28       		.byte	40
 916 017c 69       		.byte	105
 917 017d 54       		.byte	84
 918 017e 73       		.byte	115
 919 017f 40       		.byte	64
 920 0180 84       		.byte	-124
 921 0181 80       		.byte	-128
 922 0182 8C       		.byte	-116
 923 0183 80       		.byte	-128
 924 0184 8F       		.byte	-113
 925 0185 10       		.byte	16
 926 0186 90       		.byte	-112
 927 0187 10       		.byte	16
 928 0188 92       		.byte	-110
 929 0189 44       		.byte	68
 930 018a 96       		.byte	-106
 931 018b 10       		.byte	16
 932 018c 9E       		.byte	-98
 933 018d 40       		.byte	64
 934 018e A3       		.byte	-93
 935 018f 40       		.byte	64
 936 0190 A4       		.byte	-92
 937 0191 40       		.byte	64
 938 0192 A8       		.byte	-88
 939 0193 80       		.byte	-128
 940 0194 AF       		.byte	-81
 941 0195 28       		.byte	40
 942 0196 C0       		.byte	-64
 943 0197 0F       		.byte	15
 944 0198 C2       		.byte	-62
 945 0199 0F       		.byte	15
 946 019a C4       		.byte	-60
 947 019b 0F       		.byte	15
 948 019c CA       		.byte	-54
ARM GAS  C:\Users\g\AppData\Local\Temp\ccSfHu9q.s 			page 30


 949 019d 02       		.byte	2
 950 019e CC       		.byte	-52
 951 019f 09       		.byte	9
 952 01a0 CE       		.byte	-50
 953 01a1 0E       		.byte	14
 954 01a2 D0       		.byte	-48
 955 01a3 04       		.byte	4
 956 01a4 D2       		.byte	-46
 957 01a5 38       		.byte	56
 958 01a6 D6       		.byte	-42
 959 01a7 1F       		.byte	31
 960 01a8 D8       		.byte	-40
 961 01a9 16       		.byte	22
 962 01aa E0       		.byte	-32
 963 01ab 04       		.byte	4
 964 01ac E2       		.byte	-30
 965 01ad 80       		.byte	-128
 966 01ae 03       		.byte	3
 967 01af 40       		.byte	64
 968 01b0 06       		.byte	6
 969 01b1 40       		.byte	64
 970 01b2 0B       		.byte	11
 971 01b3 04       		.byte	4
 972 01b4 0C       		.byte	12
 973 01b5 10       		.byte	16
 974 01b6 6F       		.byte	111
 975 01b7 04       		.byte	4
 976 01b8 C0       		.byte	-64
 977 01b9 30       		.byte	48
 978 01ba C2       		.byte	-62
 979 01bb C0       		.byte	-64
 980 01bc DA       		.byte	-38
 981 01bd 80       		.byte	-128
 982 01be 1B       		.byte	27
 983 01bf 02       		.byte	2
 984 01c0 27       		.byte	39
 985 01c1 04       		.byte	4
 986 01c2 5E       		.byte	94
 987 01c3 20       		.byte	32
 988 01c4 83       		.byte	-125
 989 01c5 02       		.byte	2
 990 01c6 84       		.byte	-124
 991 01c7 10       		.byte	16
 992 01c8 8A       		.byte	-118
 993 01c9 10       		.byte	16
 994 01ca 98       		.byte	-104
 995 01cb 10       		.byte	16
 996 01cc 9F       		.byte	-97
 997 01cd 04       		.byte	4
 998 01ce AB       		.byte	-85
 999 01cf 40       		.byte	64
 1000 01d0 AE       		.byte	-82
 1001 01d1 40       		.byte	64
 1002 01d2 AF       		.byte	-81
 1003 01d3 04       		.byte	4
 1004 01d4 C6       		.byte	-58
 1005 01d5 10       		.byte	16
ARM GAS  C:\Users\g\AppData\Local\Temp\ccSfHu9q.s 			page 31


 1006 01d6 C8       		.byte	-56
 1007 01d7 20       		.byte	32
 1008 01d8 D6       		.byte	-42
 1009 01d9 20       		.byte	32
 1010 01da E0       		.byte	-32
 1011 01db 20       		.byte	32
 1012 01dc E4       		.byte	-28
 1013 01dd 40       		.byte	64
 1014 01de E8       		.byte	-24
 1015 01df 50       		.byte	80
 1016 01e0 EC       		.byte	-20
 1017 01e1 80       		.byte	-128
 1018 01e2 6A       		.byte	106
 1019 01e3 40       		.byte	64
 1020 01e4 DA       		.byte	-38
 1021 01e5 02       		.byte	2
 1022 01e6 20       		.byte	32
 1023 01e7 02       		.byte	2
 1024 01e8 82       		.byte	-126
 1025 01e9 40       		.byte	64
 1026 01ea 88       		.byte	-120
 1027 01eb 01       		.byte	1
 1028 01ec 96       		.byte	-106
 1029 01ed 40       		.byte	64
 1030 01ee C8       		.byte	-56
 1031 01ef 08       		.byte	8
 1032 01f0 E2       		.byte	-30
 1033 01f1 01       		.byte	1
 1034 01f2 01       		.byte	1
 1035 01f3 0A       		.byte	10
 1036 01f4 10       		.byte	16
 1037 01f5 0A       		.byte	10
 1038 01f6 0000     		.space	2
 1039              		.type	BS_UDB_0_0_0_CONFIG_VAL.4758, %object
 1040              		.size	BS_UDB_0_0_0_CONFIG_VAL.4758, 128
 1041              	BS_UDB_0_0_0_CONFIG_VAL.4758:
 1042 01f8 18       		.byte	24
 1043 01f9 00       		.byte	0
 1044 01fa 03       		.byte	3
 1045 01fb 00       		.byte	0
 1046 01fc 10       		.byte	16
 1047 01fd 07       		.byte	7
 1048 01fe 04       		.byte	4
 1049 01ff 08       		.byte	8
 1050 0200 20       		.byte	32
 1051 0201 01       		.byte	1
 1052 0202 00       		.byte	0
 1053 0203 12       		.byte	18
 1054 0204 06       		.byte	6
 1055 0205 06       		.byte	6
 1056 0206 11       		.byte	17
 1057 0207 11       		.byte	17
 1058 0208 00       		.byte	0
 1059 0209 18       		.byte	24
 1060 020a 20       		.byte	32
 1061 020b 03       		.byte	3
 1062 020c 1F       		.byte	31
ARM GAS  C:\Users\g\AppData\Local\Temp\ccSfHu9q.s 			page 32


 1063 020d 00       		.byte	0
 1064 020e 00       		.byte	0
 1065 020f 00       		.byte	0
 1066 0210 80       		.byte	-128
 1067 0211 00       		.byte	0
 1068 0212 00       		.byte	0
 1069 0213 00       		.byte	0
 1070 0214 00       		.byte	0
 1071 0215 00       		.byte	0
 1072 0216 40       		.byte	64
 1073 0217 20       		.byte	32
 1074 0218 00       		.byte	0
 1075 0219 00       		.byte	0
 1076 021a 80       		.byte	-128
 1077 021b 00       		.byte	0
 1078 021c 07       		.byte	7
 1079 021d 10       		.byte	16
 1080 021e 08       		.byte	8
 1081 021f 04       		.byte	4
 1082 0220 01       		.byte	1
 1083 0221 00       		.byte	0
 1084 0222 12       		.byte	18
 1085 0223 00       		.byte	0
 1086 0224 00       		.byte	0
 1087 0225 00       		.byte	0
 1088 0226 20       		.byte	32
 1089 0227 00       		.byte	0
 1090 0228 80       		.byte	-128
 1091 0229 00       		.byte	0
 1092 022a 40       		.byte	64
 1093 022b 1F       		.byte	31
 1094 022c 20       		.byte	32
 1095 022d 20       		.byte	32
 1096 022e 1F       		.byte	31
 1097 022f 00       		.byte	0
 1098 0230 00       		.byte	0
 1099 0231 00       		.byte	0
 1100 0232 00       		.byte	0
 1101 0233 00       		.byte	0
 1102 0234 00       		.byte	0
 1103 0235 00       		.byte	0
 1104 0236 51       		.byte	81
 1105 0237 00       		.byte	0
 1106 0238 20       		.byte	32
 1107 0239 05       		.byte	5
 1108 023a 00       		.byte	0
 1109 023b 00       		.byte	0
 1110 023c 00       		.byte	0
 1111 023d 34       		.byte	52
 1112 023e C2       		.byte	-62
 1113 023f 5E       		.byte	94
 1114 0240 3F       		.byte	63
 1115 0241 FF       		.byte	-1
 1116 0242 FF       		.byte	-1
 1117 0243 FF       		.byte	-1
 1118 0244 00       		.byte	0
 1119 0245 AF       		.byte	-81
ARM GAS  C:\Users\g\AppData\Local\Temp\ccSfHu9q.s 			page 33


 1120 0246 07       		.byte	7
 1121 0247 01       		.byte	1
 1122 0248 18       		.byte	24
 1123 0249 00       		.byte	0
 1124 024a 87       		.byte	-121
 1125 024b 00       		.byte	0
 1126 024c 0F       		.byte	15
 1127 024d 00       		.byte	0
 1128 024e 00       		.byte	0
 1129 024f 00       		.byte	0
 1130 0250 04       		.byte	4
 1131 0251 04       		.byte	4
 1132 0252 04       		.byte	4
 1133 0253 04       		.byte	4
 1134 0254 11       		.byte	17
 1135 0255 11       		.byte	17
 1136 0256 00       		.byte	0
 1137 0257 01       		.byte	1
 1138 0258 40       		.byte	64
 1139 0259 00       		.byte	0
 1140 025a 80       		.byte	-128
 1141 025b 00       		.byte	0
 1142 025c 40       		.byte	64
 1143 025d 40       		.byte	64
 1144 025e 80       		.byte	-128
 1145 025f 00       		.byte	0
 1146 0260 40       		.byte	64
 1147 0261 00       		.byte	0
 1148 0262 80       		.byte	-128
 1149 0263 00       		.byte	0
 1150 0264 40       		.byte	64
 1151 0265 20       		.byte	32
 1152 0266 80       		.byte	-128
 1153 0267 00       		.byte	0
 1154 0268 00       		.byte	0
 1155 0269 00       		.byte	0
 1156 026a 00       		.byte	0
 1157 026b 00       		.byte	0
 1158 026c 00       		.byte	0
 1159 026d 00       		.byte	0
 1160 026e 00       		.byte	0
 1161 026f 00       		.byte	0
 1162 0270 00       		.byte	0
 1163 0271 00       		.byte	0
 1164 0272 00       		.byte	0
 1165 0273 00       		.byte	0
 1166 0274 00       		.byte	0
 1167 0275 00       		.byte	0
 1168 0276 00       		.byte	0
 1169 0277 00       		.byte	0
 1170              		.text
 1171              	.Letext0:
 1172              		.file 2 "c:\\program files (x86)\\cypress\\psoc creator\\4.0\\psoc creator\\import\\gnu\\arm\\4.9.
 1173              		.file 3 "Generated_Source\\PSoC4\\cytypes.h"
 1174              		.file 4 "Generated_Source\\PSoC4\\CyLib.h"