ARM GAS  C:\Users\g\AppData\Local\Temp\cc0DmObL.s 			page 1


   1              		.cpu cortex-m0
   2              		.fpu softvfp
   3              		.eabi_attribute 20, 1
   4              		.eabi_attribute 21, 1
   5              		.eabi_attribute 23, 3
   6              		.eabi_attribute 24, 1
   7              		.eabi_attribute 25, 1
   8              		.eabi_attribute 26, 1
   9              		.eabi_attribute 30, 1
  10              		.eabi_attribute 34, 0
  11              		.eabi_attribute 18, 4
  12              		.code	16
  13              		.file	"EEPROM.c"
  14              		.text
  15              	.Ltext0:
  16              		.cfi_sections	.debug_frame
  17              		.section	.text.EEPROM_Start,"ax",%progbits
  18              		.align	2
  19              		.global	EEPROM_Start
  20              		.code	16
  21              		.thumb_func
  22              		.type	EEPROM_Start, %function
  23              	EEPROM_Start:
  24              	.LFB0:
  25              		.file 1 "Generated_Source\\PSoC4\\EEPROM.c"
   1:Generated_Source\PSoC4/EEPROM.c **** /*******************************************************************************
   2:Generated_Source\PSoC4/EEPROM.c **** * File Name: EEPROM.c
   3:Generated_Source\PSoC4/EEPROM.c **** * Version 1.20
   4:Generated_Source\PSoC4/EEPROM.c **** *
   5:Generated_Source\PSoC4/EEPROM.c **** * Description:
   6:Generated_Source\PSoC4/EEPROM.c **** *  This file provides the source code to API for the Emulated EEPROM Component.
   7:Generated_Source\PSoC4/EEPROM.c **** *
   8:Generated_Source\PSoC4/EEPROM.c **** ********************************************************************************
   9:Generated_Source\PSoC4/EEPROM.c **** * Copyright 2013-2016, Cypress Semiconductor Corporation.  All rights reserved.
  10:Generated_Source\PSoC4/EEPROM.c **** * You may use this file only in accordance with the license, terms, conditions,
  11:Generated_Source\PSoC4/EEPROM.c **** * disclaimers, and limitations in the end user license agreement accompanying
  12:Generated_Source\PSoC4/EEPROM.c **** * the software package with which this file was provided.
  13:Generated_Source\PSoC4/EEPROM.c **** *******************************************************************************/
  14:Generated_Source\PSoC4/EEPROM.c **** 
  15:Generated_Source\PSoC4/EEPROM.c **** #include "EEPROM.h"
  16:Generated_Source\PSoC4/EEPROM.c **** 
  17:Generated_Source\PSoC4/EEPROM.c **** 
  18:Generated_Source\PSoC4/EEPROM.c **** /*******************************************************************************
  19:Generated_Source\PSoC4/EEPROM.c **** * Function Name: EEPROM_Start
  20:Generated_Source\PSoC4/EEPROM.c **** ********************************************************************************
  21:Generated_Source\PSoC4/EEPROM.c **** *
  22:Generated_Source\PSoC4/EEPROM.c **** * Summary:
  23:Generated_Source\PSoC4/EEPROM.c **** *  Empty function. Included for consistency with other
  24:Generated_Source\PSoC4/EEPROM.c **** *  components.
  25:Generated_Source\PSoC4/EEPROM.c **** *
  26:Generated_Source\PSoC4/EEPROM.c **** * Parameters:
  27:Generated_Source\PSoC4/EEPROM.c **** *  None
  28:Generated_Source\PSoC4/EEPROM.c **** *
  29:Generated_Source\PSoC4/EEPROM.c **** * Return:
  30:Generated_Source\PSoC4/EEPROM.c **** *  None
  31:Generated_Source\PSoC4/EEPROM.c **** *
  32:Generated_Source\PSoC4/EEPROM.c **** *******************************************************************************/
ARM GAS  C:\Users\g\AppData\Local\Temp\cc0DmObL.s 			page 2


  33:Generated_Source\PSoC4/EEPROM.c **** void EEPROM_Start(void) 
  34:Generated_Source\PSoC4/EEPROM.c **** {
  26              		.loc 1 34 0
  27              		.cfi_startproc
  35:Generated_Source\PSoC4/EEPROM.c **** 
  36:Generated_Source\PSoC4/EEPROM.c **** }
  28              		.loc 1 36 0
  29              		@ sp needed
  30 0000 7047     		bx	lr
  31              		.cfi_endproc
  32              	.LFE0:
  33              		.size	EEPROM_Start, .-EEPROM_Start
  34 0002 C046     		.section	.text.EEPROM_Stop,"ax",%progbits
  35              		.align	2
  36              		.global	EEPROM_Stop
  37              		.code	16
  38              		.thumb_func
  39              		.type	EEPROM_Stop, %function
  40              	EEPROM_Stop:
  41              	.LFB1:
  37:Generated_Source\PSoC4/EEPROM.c **** 
  38:Generated_Source\PSoC4/EEPROM.c **** 
  39:Generated_Source\PSoC4/EEPROM.c **** /*******************************************************************************
  40:Generated_Source\PSoC4/EEPROM.c **** * Function Name: EEPROM_Stop
  41:Generated_Source\PSoC4/EEPROM.c **** ********************************************************************************
  42:Generated_Source\PSoC4/EEPROM.c **** *
  43:Generated_Source\PSoC4/EEPROM.c **** * Summary:
  44:Generated_Source\PSoC4/EEPROM.c **** *  Empty function. Included for consistency with other
  45:Generated_Source\PSoC4/EEPROM.c **** *  components.
  46:Generated_Source\PSoC4/EEPROM.c **** *
  47:Generated_Source\PSoC4/EEPROM.c **** * Parameters:
  48:Generated_Source\PSoC4/EEPROM.c **** *  None
  49:Generated_Source\PSoC4/EEPROM.c **** *
  50:Generated_Source\PSoC4/EEPROM.c **** * Return:
  51:Generated_Source\PSoC4/EEPROM.c **** *  None
  52:Generated_Source\PSoC4/EEPROM.c **** *
  53:Generated_Source\PSoC4/EEPROM.c **** *******************************************************************************/
  54:Generated_Source\PSoC4/EEPROM.c **** void EEPROM_Stop(void) 
  55:Generated_Source\PSoC4/EEPROM.c **** {
  42              		.loc 1 55 0
  43              		.cfi_startproc
  56:Generated_Source\PSoC4/EEPROM.c **** 
  57:Generated_Source\PSoC4/EEPROM.c **** }
  44              		.loc 1 57 0
  45              		@ sp needed
  46 0000 7047     		bx	lr
  47              		.cfi_endproc
  48              	.LFE1:
  49              		.size	EEPROM_Stop, .-EEPROM_Stop
  50 0002 C046     		.section	.text.EEPROM_Write,"ax",%progbits
  51              		.align	2
  52              		.global	EEPROM_Write
  53              		.code	16
  54              		.thumb_func
  55              		.type	EEPROM_Write, %function
  56              	EEPROM_Write:
  57              	.LFB2:
ARM GAS  C:\Users\g\AppData\Local\Temp\cc0DmObL.s 			page 3


  58:Generated_Source\PSoC4/EEPROM.c **** 
  59:Generated_Source\PSoC4/EEPROM.c **** 
  60:Generated_Source\PSoC4/EEPROM.c **** /*******************************************************************************
  61:Generated_Source\PSoC4/EEPROM.c **** * Function Name: EEPROM_Write
  62:Generated_Source\PSoC4/EEPROM.c **** ********************************************************************************
  63:Generated_Source\PSoC4/EEPROM.c **** *
  64:Generated_Source\PSoC4/EEPROM.c **** * Summary:
  65:Generated_Source\PSoC4/EEPROM.c **** *  Writes the specified number of bytes from the source buffer in SRAM to the
  66:Generated_Source\PSoC4/EEPROM.c **** *  emulated EEPROM array in flash, without modifying other data in flash.
  67:Generated_Source\PSoC4/EEPROM.c **** *
  68:Generated_Source\PSoC4/EEPROM.c **** * Parameters:
  69:Generated_Source\PSoC4/EEPROM.c **** *  srcBuf:    Pointer to the SRAM buffer holding the data to write.
  70:Generated_Source\PSoC4/EEPROM.c **** *  eepromPtr: Pointer to the array or variable in flash representing
  71:Generated_Source\PSoC4/EEPROM.c **** *             the emulated EEPROM.
  72:Generated_Source\PSoC4/EEPROM.c **** *  byteCount: Number of bytes to write from srcBuf to eepromPtr.
  73:Generated_Source\PSoC4/EEPROM.c **** *
  74:Generated_Source\PSoC4/EEPROM.c **** * Return:
  75:Generated_Source\PSoC4/EEPROM.c **** *    CYRET_SUCCESS     Successful write.
  76:Generated_Source\PSoC4/EEPROM.c **** *    CYRET_BAD_PARAM   eepromPtr is out of range of flash memory.
  77:Generated_Source\PSoC4/EEPROM.c **** *    CYRET_UNKNOWN     Other error in writing flash.
  78:Generated_Source\PSoC4/EEPROM.c **** *
  79:Generated_Source\PSoC4/EEPROM.c **** *******************************************************************************/
  80:Generated_Source\PSoC4/EEPROM.c **** #if (CY_PSOC3)
  81:Generated_Source\PSoC4/EEPROM.c ****     cystatus EEPROM_Write(const uint8 srcBuf[], const uint8 eepromPtr[], uint16 byteCount)
  82:Generated_Source\PSoC4/EEPROM.c ****                                                                             
  83:Generated_Source\PSoC4/EEPROM.c **** #else
  84:Generated_Source\PSoC4/EEPROM.c ****     cystatus EEPROM_Write(const uint8 srcBuf[], const uint8 eepromPtr[], uint32 byteCount)
  85:Generated_Source\PSoC4/EEPROM.c **** #endif /* (!CY_PSOC3) */
  86:Generated_Source\PSoC4/EEPROM.c **** {
  58              		.loc 1 86 0
  59              		.cfi_startproc
  60              	.LVL0:
  61 0000 F0B5     		push	{r4, r5, r6, r7, lr}
  62              		.cfi_def_cfa_offset 20
  63              		.cfi_offset 4, -20
  64              		.cfi_offset 5, -16
  65              		.cfi_offset 6, -12
  66              		.cfi_offset 7, -8
  67              		.cfi_offset 14, -4
  68 0002 4F46     		mov	r7, r9
  69 0004 4646     		mov	r6, r8
  70 0006 C0B4     		push	{r6, r7}
  71              		.cfi_def_cfa_offset 28
  72              		.cfi_offset 8, -28
  73              		.cfi_offset 9, -24
  74 0008 A1B0     		sub	sp, sp, #132
  75              		.cfi_def_cfa_offset 160
  87:Generated_Source\PSoC4/EEPROM.c ****     uint8 writeBuffer[CY_FLASH_SIZEOF_ROW];
  88:Generated_Source\PSoC4/EEPROM.c ****     uint32 arrayId;
  89:Generated_Source\PSoC4/EEPROM.c ****     uint32 rowId;
  90:Generated_Source\PSoC4/EEPROM.c ****     uint32 dstIndex;
  91:Generated_Source\PSoC4/EEPROM.c ****     uint32 srcIndex;
  92:Generated_Source\PSoC4/EEPROM.c ****     cystatus rc;
  93:Generated_Source\PSoC4/EEPROM.c ****     uint32 eeOffset;
  94:Generated_Source\PSoC4/EEPROM.c ****     uint32 byteOffset;
  95:Generated_Source\PSoC4/EEPROM.c ****     
  96:Generated_Source\PSoC4/EEPROM.c ****     #if (!CY_PSOC4)
ARM GAS  C:\Users\g\AppData\Local\Temp\cc0DmObL.s 			page 4


  97:Generated_Source\PSoC4/EEPROM.c ****         #if (CYDEV_ECC_ENABLE == 0)
  98:Generated_Source\PSoC4/EEPROM.c ****             uint8 rowBuffer[CY_FLASH_SIZEOF_ROW + CY_FLASH_SIZEOF_ECC_ROW];
  99:Generated_Source\PSoC4/EEPROM.c ****         #endif /* CYDEV_ECC_ENABLE == 0) */
 100:Generated_Source\PSoC4/EEPROM.c ****     #endif /* (!CY_PSOC4) */
 101:Generated_Source\PSoC4/EEPROM.c **** 
 102:Generated_Source\PSoC4/EEPROM.c ****     eeOffset = (uint32)eepromPtr;
  76              		.loc 1 102 0
  77 000a 0E1C     		mov	r6, r1
  78              	.LVL1:
 103:Generated_Source\PSoC4/EEPROM.c ****     #if (CY_PSOC3)
 104:Generated_Source\PSoC4/EEPROM.c ****         eeOffset &= EEPROM_CODE_ADDR_MASK;
 105:Generated_Source\PSoC4/EEPROM.c ****     #endif /* (CY_PSOC3) */
 106:Generated_Source\PSoC4/EEPROM.c **** 
 107:Generated_Source\PSoC4/EEPROM.c ****     /* Make sure, that eepromPtr[] points to ROM */
 108:Generated_Source\PSoC4/EEPROM.c ****     #if (CY_PSOC3)
 109:Generated_Source\PSoC4/EEPROM.c ****         if (((uint32)eepromPtr >= EEPROM_CODE_ADDR_OFFSET) &&
 110:Generated_Source\PSoC4/EEPROM.c ****             (((uint32)eepromPtr + byteCount) <= EEPROM_CODE_ADDR_END))
 111:Generated_Source\PSoC4/EEPROM.c ****     #else
 112:Generated_Source\PSoC4/EEPROM.c ****         if (((uint32)eepromPtr + byteCount) <= EEPROM_FLASH_END_ADDR)
  79              		.loc 1 112 0
  80 000c 8C18     		add	r4, r1, r2
  81 000e 8023     		mov	r3, #128
  82 0010 1B02     		lsl	r3, r3, #8
  83 0012 9C42     		cmp	r4, r3
  84 0014 2AD8     		bhi	.L11
  85 0016 171C     		mov	r7, r2
  86 0018 8046     		mov	r8, r0
 113:Generated_Source\PSoC4/EEPROM.c ****     #endif /* (CY_PSOC3) */
 114:Generated_Source\PSoC4/EEPROM.c ****     {
 115:Generated_Source\PSoC4/EEPROM.c ****         #if (!CY_PSOC4)
 116:Generated_Source\PSoC4/EEPROM.c ****             (void)CySetTemp();
 117:Generated_Source\PSoC4/EEPROM.c **** 
 118:Generated_Source\PSoC4/EEPROM.c ****             #if(CYDEV_ECC_ENABLE == 0)
 119:Generated_Source\PSoC4/EEPROM.c ****                 (void)CySetFlashEEBuffer(rowBuffer);
 120:Generated_Source\PSoC4/EEPROM.c ****             #endif
 121:Generated_Source\PSoC4/EEPROM.c ****         #endif /* (!CY_PSOC4) */
 122:Generated_Source\PSoC4/EEPROM.c **** 
 123:Generated_Source\PSoC4/EEPROM.c ****         arrayId = eeOffset / CY_FLASH_SIZEOF_ARRAY;
  87              		.loc 1 123 0
  88 001a CC0B     		lsr	r4, r1, #15
  89              	.LVL2:
 124:Generated_Source\PSoC4/EEPROM.c ****         rowId = (eeOffset / CY_FLASH_SIZEOF_ROW) % EEPROM_ROWS_IN_ARRAY;
  90              		.loc 1 124 0
  91 001c 4904     		lsl	r1, r1, #17
  92              	.LVL3:
  93 001e 0B0E     		lsr	r3, r1, #24
  94 0020 9946     		mov	r9, r3
  95              	.LVL4:
 125:Generated_Source\PSoC4/EEPROM.c ****         byteOffset = (CY_FLASH_SIZEOF_ARRAY * arrayId) + (CY_FLASH_SIZEOF_ROW * rowId);
  96              		.loc 1 125 0
  97 0022 2402     		lsl	r4, r4, #8
  98              	.LVL5:
  99 0024 4C44     		add	r4, r4, r9
 100 0026 E401     		lsl	r4, r4, #7
 101              	.LVL6:
 126:Generated_Source\PSoC4/EEPROM.c ****         srcIndex = 0u;
 127:Generated_Source\PSoC4/EEPROM.c **** 
ARM GAS  C:\Users\g\AppData\Local\Temp\cc0DmObL.s 			page 5


 128:Generated_Source\PSoC4/EEPROM.c ****         rc = CYRET_SUCCESS;
 102              		.loc 1 128 0
 103 0028 0020     		mov	r0, #0
 104              	.LVL7:
 126:Generated_Source\PSoC4/EEPROM.c ****         srcIndex = 0u;
 105              		.loc 1 126 0
 106 002a 0025     		mov	r5, #0
 129:Generated_Source\PSoC4/EEPROM.c **** 
 130:Generated_Source\PSoC4/EEPROM.c ****         while ((srcIndex < byteCount) && (CYRET_SUCCESS == rc))
 107              		.loc 1 130 0
 108 002c 19E0     		b	.L5
 109              	.LVL8:
 110              	.L8:
 131:Generated_Source\PSoC4/EEPROM.c ****         {
 132:Generated_Source\PSoC4/EEPROM.c ****             /* Copy data to the write buffer either from the source buffer or from the flash */
 133:Generated_Source\PSoC4/EEPROM.c ****             for (dstIndex = 0u; dstIndex < CY_FLASH_SIZEOF_ROW; dstIndex++)
 134:Generated_Source\PSoC4/EEPROM.c ****             {
 135:Generated_Source\PSoC4/EEPROM.c ****                 if ((byteOffset >= eeOffset) && (srcIndex < byteCount))
 111              		.loc 1 135 0
 112 002e B442     		cmp	r4, r6
 113 0030 07D3     		bcc	.L6
 114              		.loc 1 135 0 is_stmt 0 discriminator 1
 115 0032 BD42     		cmp	r5, r7
 116 0034 05D2     		bcs	.L6
 136:Generated_Source\PSoC4/EEPROM.c ****                 {
 137:Generated_Source\PSoC4/EEPROM.c ****                     writeBuffer[dstIndex] = srcBuf[srcIndex];
 117              		.loc 1 137 0 is_stmt 1
 118 0036 4246     		mov	r2, r8
 119 0038 525D     		ldrb	r2, [r2, r5]
 120 003a 6946     		mov	r1, sp
 121 003c CA54     		strb	r2, [r1, r3]
 138:Generated_Source\PSoC4/EEPROM.c ****                     srcIndex++;
 122              		.loc 1 138 0
 123 003e 0135     		add	r5, r5, #1
 124              	.LVL9:
 125 0040 02E0     		b	.L7
 126              	.L6:
 139:Generated_Source\PSoC4/EEPROM.c ****                 }
 140:Generated_Source\PSoC4/EEPROM.c ****                 else
 141:Generated_Source\PSoC4/EEPROM.c ****                 {
 142:Generated_Source\PSoC4/EEPROM.c ****                     writeBuffer[dstIndex] = CY_GET_XTND_REG8(CYDEV_FLASH_BASE + byteOffset);
 127              		.loc 1 142 0
 128 0042 2278     		ldrb	r2, [r4]
 129 0044 6946     		mov	r1, sp
 130 0046 CA54     		strb	r2, [r1, r3]
 131              	.L7:
 143:Generated_Source\PSoC4/EEPROM.c ****                 }
 144:Generated_Source\PSoC4/EEPROM.c ****                 byteOffset++;
 132              		.loc 1 144 0 discriminator 2
 133 0048 0134     		add	r4, r4, #1
 134              	.LVL10:
 133:Generated_Source\PSoC4/EEPROM.c ****             {
 135              		.loc 1 133 0 discriminator 2
 136 004a 0133     		add	r3, r3, #1
 137              	.LVL11:
 138 004c 00E0     		b	.L9
 139              	.LVL12:
ARM GAS  C:\Users\g\AppData\Local\Temp\cc0DmObL.s 			page 6


 140              	.L12:
 141 004e 0023     		mov	r3, #0
 142              	.L9:
 143              	.LVL13:
 133:Generated_Source\PSoC4/EEPROM.c ****             {
 144              		.loc 1 133 0 is_stmt 0 discriminator 1
 145 0050 7F2B     		cmp	r3, #127
 146 0052 ECD9     		bls	.L8
 145:Generated_Source\PSoC4/EEPROM.c ****             }
 146:Generated_Source\PSoC4/EEPROM.c **** 
 147:Generated_Source\PSoC4/EEPROM.c ****             /* Write flash row */
 148:Generated_Source\PSoC4/EEPROM.c ****             #if (CY_PSOC4)
 149:Generated_Source\PSoC4/EEPROM.c ****                 rc = CySysFlashWriteRow(rowId, writeBuffer);
 147              		.loc 1 149 0 is_stmt 1
 148 0054 4846     		mov	r0, r9
 149              	.LVL14:
 150 0056 6946     		mov	r1, sp
 151 0058 FFF7FEFF 		bl	CySysFlashWriteRow
 152              	.LVL15:
 150:Generated_Source\PSoC4/EEPROM.c ****             #else
 151:Generated_Source\PSoC4/EEPROM.c ****                 rc = CyWriteRowData((uint8)arrayId, (uint16)rowId, writeBuffer);
 152:Generated_Source\PSoC4/EEPROM.c ****             #endif /* (CY_PSOC4) */
 153:Generated_Source\PSoC4/EEPROM.c **** 
 154:Generated_Source\PSoC4/EEPROM.c ****             /* Go to the next row */
 155:Generated_Source\PSoC4/EEPROM.c ****             rowId++;
 153              		.loc 1 155 0
 154 005c 0123     		mov	r3, #1
 155 005e 9C46     		mov	ip, r3
 156 0060 E144     		add	r9, r9, ip
 157              	.LVL16:
 158              	.L5:
 130:Generated_Source\PSoC4/EEPROM.c ****         {
 159              		.loc 1 130 0
 160 0062 BD42     		cmp	r5, r7
 161 0064 03D2     		bcs	.L4
 130:Generated_Source\PSoC4/EEPROM.c ****         {
 162              		.loc 1 130 0 is_stmt 0 discriminator 1
 163 0066 0028     		cmp	r0, #0
 164 0068 F1D0     		beq	.L12
 165 006a 00E0     		b	.L4
 166              	.LVL17:
 167              	.L11:
 156:Generated_Source\PSoC4/EEPROM.c ****             #if (CY_FLASH_NUMBER_ARRAYS > 1)
 157:Generated_Source\PSoC4/EEPROM.c ****                 if (rowId >= EEPROM_ROWS_IN_ARRAY)
 158:Generated_Source\PSoC4/EEPROM.c ****                 {
 159:Generated_Source\PSoC4/EEPROM.c ****                     arrayId++;
 160:Generated_Source\PSoC4/EEPROM.c ****                     rowId = 0u;
 161:Generated_Source\PSoC4/EEPROM.c ****                 }
 162:Generated_Source\PSoC4/EEPROM.c ****             #endif /* (CY_FLASH_NUMBER_ARRAYS > 1) */
 163:Generated_Source\PSoC4/EEPROM.c ****         }
 164:Generated_Source\PSoC4/EEPROM.c **** 
 165:Generated_Source\PSoC4/EEPROM.c ****         /* Flush both Cache and PHUB prefetch buffer */
 166:Generated_Source\PSoC4/EEPROM.c ****         #if (CY_PSOC5)
 167:Generated_Source\PSoC4/EEPROM.c ****             CyFlushCache();
 168:Generated_Source\PSoC4/EEPROM.c ****         #elif (CY_PSOC3)
 169:Generated_Source\PSoC4/EEPROM.c ****             CY_FLASH_CONTROL_REG |= 6u;
 170:Generated_Source\PSoC4/EEPROM.c ****         #endif /* (CY_PSOC5) */
ARM GAS  C:\Users\g\AppData\Local\Temp\cc0DmObL.s 			page 7


 171:Generated_Source\PSoC4/EEPROM.c ****     }
 172:Generated_Source\PSoC4/EEPROM.c ****     else
 173:Generated_Source\PSoC4/EEPROM.c ****     {
 174:Generated_Source\PSoC4/EEPROM.c ****         rc = CYRET_BAD_PARAM;
 168              		.loc 1 174 0 is_stmt 1
 169 006c 0120     		mov	r0, #1
 170              	.LVL18:
 171              	.L4:
 175:Generated_Source\PSoC4/EEPROM.c ****     }
 176:Generated_Source\PSoC4/EEPROM.c **** 
 177:Generated_Source\PSoC4/EEPROM.c ****     /* Mask return codes from flash, if they are not supported */
 178:Generated_Source\PSoC4/EEPROM.c ****     if ((CYRET_SUCCESS != rc) && (CYRET_BAD_PARAM != rc))
 172              		.loc 1 178 0
 173 006e 0128     		cmp	r0, #1
 174 0070 01D9     		bls	.L10
 179:Generated_Source\PSoC4/EEPROM.c ****     {
 180:Generated_Source\PSoC4/EEPROM.c ****         rc = CYRET_UNKNOWN;
 175              		.loc 1 180 0
 176 0072 0120     		mov	r0, #1
 177              	.LVL19:
 178 0074 4042     		neg	r0, r0
 179              	.L10:
 180              	.LVL20:
 181:Generated_Source\PSoC4/EEPROM.c ****     }
 182:Generated_Source\PSoC4/EEPROM.c ****     
 183:Generated_Source\PSoC4/EEPROM.c ****     return (rc);
 184:Generated_Source\PSoC4/EEPROM.c **** }
 181              		.loc 1 184 0
 182 0076 21B0     		add	sp, sp, #132
 183              		@ sp needed
 184              	.LVL21:
 185 0078 0CBC     		pop	{r2, r3}
 186 007a 9046     		mov	r8, r2
 187 007c 9946     		mov	r9, r3
 188 007e F0BD     		pop	{r4, r5, r6, r7, pc}
 189              		.cfi_endproc
 190              	.LFE2:
 191              		.size	EEPROM_Write, .-EEPROM_Write
 192              		.text
 193              	.Letext0:
 194              		.file 2 "Generated_Source\\PSoC4\\cytypes.h"
 195              		.file 3 "Generated_Source\\PSoC4\\CyFlash.h"