ARM GAS  C:\Users\g\AppData\Local\Temp\ccrbIUhB.s 			page 1


   1              		.cpu cortex-m0
   2              		.fpu softvfp
   3              		.eabi_attribute 20, 1
   4              		.eabi_attribute 21, 1
   5              		.eabi_attribute 23, 3
   6              		.eabi_attribute 24, 1
   7              		.eabi_attribute 25, 1
   8              		.eabi_attribute 26, 1
   9              		.eabi_attribute 30, 1
  10              		.eabi_attribute 34, 0
  11              		.eabi_attribute 18, 4
  12              		.code	16
  13              		.file	"main.c"
  14              		.text
  15              	.Ltext0:
  16              		.cfi_sections	.debug_frame
  17              		.section	.text.transmitUpdate,"ax",%progbits
  18              		.align	2
  19              		.global	transmitUpdate
  20              		.code	16
  21              		.thumb_func
  22              		.type	transmitUpdate, %function
  23              	transmitUpdate:
  24              	.LFB41:
  25              		.file 1 "main.c"
   1:main.c        **** /* ========================================
   2:main.c        **** 
   3:main.c        ****     current[mA]=1000*millivolts/(20*Rsense[mOhm])=10*millivolts for a 5 mOhm sense resistor
   4:main.c        ****     current_limit[mA]=40*current_setting
   5:main.c        ****     
   6:main.c        ****    ======================================== */
   7:main.c        ****     
   8:main.c        **** #include <project.h>
   9:main.c        **** #include <stdlib.h>
  10:main.c        **** 
  11:main.c        **** //#define DEBUG_INTERFACE
  12:main.c        **** 
  13:main.c        **** 
  14:main.c        **** 
  15:main.c        **** //the maximum amount that the integral error is allowed to grow
  16:main.c        **** //change to reduce or increase the integral term effect on the system
  17:main.c        **** #define ERROR_INTEGRAL_MAX      10000
  18:main.c        **** //maximum output value for current limiting PI control loop
  19:main.c        **** //do not change this one
  20:main.c        **** #define DUTY_REDUCE_MAX         4094
  21:main.c        **** 
  22:main.c        **** //number of cpu cycles the motor has to reach the desired position afeter each step pulse
  23:main.c        **** #define TIMEOUT                 2000
  24:main.c        **** 
  25:main.c        **** void ffast_itoa(volatile char a_string[7], int16_t a_number) {
  26:main.c        ****     char temp;
  27:main.c        ****     if(a_number<0) {
  28:main.c        ****         a_string[0]='-';
  29:main.c        ****         a_number=-a_number;
  30:main.c        ****     }
  31:main.c        ****     else a_string[0]='0';
  32:main.c        ****     temp = '0';
ARM GAS  C:\Users\g\AppData\Local\Temp\ccrbIUhB.s 			page 2


  33:main.c        ****     while(a_number>=10000) {
  34:main.c        ****         a_number-=10000;
  35:main.c        ****         temp++;
  36:main.c        ****     }
  37:main.c        ****     a_string[1] = temp;
  38:main.c        ****     temp = '0';
  39:main.c        ****     while(a_number>=1000) {
  40:main.c        ****         a_number-=1000;
  41:main.c        ****         temp++;
  42:main.c        ****     }
  43:main.c        ****      a_string[2]= temp;
  44:main.c        ****     temp = '0';
  45:main.c        ****     while(a_number>=100) {
  46:main.c        ****         a_number-=100;
  47:main.c        ****         temp++;
  48:main.c        ****     }
  49:main.c        ****     a_string[3]= temp;
  50:main.c        ****     temp = '0';
  51:main.c        ****     while(a_number>=10) {
  52:main.c        ****         a_number-=10;
  53:main.c        ****         temp++;
  54:main.c        ****     }
  55:main.c        ****     a_string[4]= temp;
  56:main.c        ****     a_string[5]=a_number+'0';
  57:main.c        ****     a_string[6]='\0';
  58:main.c        **** 
  59:main.c        **** }
  60:main.c        **** 
  61:main.c        **** typedef uint32_t fix4_28;
  62:main.c        **** 
  63:main.c        **** void fast_itoa(volatile char a_string[7], int16_t a_number) {
  64:main.c        ****     if(a_number<0) {
  65:main.c        ****         a_string[0]='-';
  66:main.c        ****        a_number=-a_number;
  67:main.c        ****     }
  68:main.c        ****     else a_string[0]='0';
  69:main.c        **** 
  70:main.c        ****     fix4_28 const f1_10000 = (1 << 28) / 10000;
  71:main.c        **** 
  72:main.c        ****     // 2^28 / 10000 is 26843.5456, but 26843.75 is sufficiently close.
  73:main.c        ****     fix4_28 tmp = a_number * (f1_10000 + 1) - (a_number / 4);
  74:main.c        **** 
  75:main.c        ****     for(size_t i = 1; i < 6; i++)
  76:main.c        ****     {
  77:main.c        ****         int digit = (int)(tmp >> 28);
  78:main.c        ****         a_string[i] = '0' + (char) digit;
  79:main.c        ****         tmp = (tmp & 0x0fffffff) * 10;
  80:main.c        ****     }
  81:main.c        ****     a_string[6] = '\0';
  82:main.c        **** }
  83:main.c        **** 
  84:main.c        **** CY_ISR_PROTO(uartReceiveTransmit);
  85:main.c        **** CY_ISR_PROTO(transmitUpdate);
  86:main.c        **** CY_ISR_PROTO(pwmCycle);
  87:main.c        **** void transmit_data();
  88:main.c        **** int transmitting();
  89:main.c        **** 
ARM GAS  C:\Users\g\AppData\Local\Temp\ccrbIUhB.s 			page 3


  90:main.c        **** //cycle counter for motor power timeout
  91:main.c        **** volatile uint16_t timeout_counter;
  92:main.c        **** //uart buffer
  93:main.c        **** volatile uint8_t command_ready, command_index, transmit_ready, loop_proceed;
  94:main.c        **** #define COMMAND_INDEX_LENGTH (16)
  95:main.c        **** volatile char command_parser[COMMAND_INDEX_LENGTH];
  96:main.c        **** volatile char current_tx[7], error_tx[7];
  97:main.c        **** 
  98:main.c        **** 
  99:main.c        **** int main() {
 100:main.c        **** 
 101:main.c        ****     int16_t millivolts=0, duty_reduce=0,error=0, error_integral=0, error_derivative=0, error_at_tim
 102:main.c        ****     int32_t  output=0;
 103:main.c        ****     uint8_t fault_detected=0, motor_shutdown=0, timeout_flag=0;
 104:main.c        ****     
 105:main.c        ****     //emulated EEPROM 
 106:main.c        ****     static const CYCODE uint16_t kp=2500, ki=0, kd=00;
 107:main.c        ****     static const CYCODE uint8_t current_setting=255, invert_motor=0, ferror=255, uart_data=1;
 108:main.c        ****     //pointers to respective EEPROM addresses
 109:main.c        ****     volatile const uint16_t *eeprom_kp, *eeprom_ki, *eeprom_kd;
 110:main.c        ****     volatile const uint8_t *eeprom_current_setting, *eeprom_invert_motor, *eeprom_ferror, *eeprom_u
 111:main.c        **** 
 112:main.c        ****     //UART data
 113:main.c        ****     uint16_t command_value=0;
 114:main.c        ****     char command_type='z';
 115:main.c        ****     char command_local[5];
 116:main.c        ****     
 117:main.c        ****     error_Write(1);
 118:main.c        ****     //Initialize quadrature decoding hardware
 119:main.c        ****     Counter_1_Start();
 120:main.c        ****     //192008N1
 121:main.c        ****     UART_Start();
 122:main.c        ****     //12-bit resolution. In phase with PWM_MOT
 123:main.c        ****     ADC_Start();
 124:main.c        ****     //UART transmit period timer (curently 100 transmissions per second)
 125:main.c        ****     TX_SEND_Start();
 126:main.c        ****     //Just the EEPROM...
 127:main.c        ****     EEPROM_Start();
 128:main.c        ****     //prepare gate driver for operation.  12-bit 6 kHz PWM
 129:main.c        ****     sleep_Write(1);
 130:main.c        ****     PWM_MOT_Start();
 131:main.c        ****     
 132:main.c        ****     //ISRs go here
 133:main.c        ****     rxISR_StartEx(uartReceiveTransmit);
 134:main.c        ****     UART_SetTxInterruptMode(0);
 135:main.c        ****     txISR_StartEx(transmitUpdate);
 136:main.c        ****     pwmISR_StartEx(pwmCycle);
 137:main.c        ****     
 138:main.c        ****     //store respective EEPROM addresses for future read operations
 139:main.c        ****     eeprom_kp=&kp;
 140:main.c        ****     eeprom_ki=&ki;
 141:main.c        ****     eeprom_kd=&kd;
 142:main.c        ****     eeprom_current_setting=&current_setting;
 143:main.c        ****     eeprom_invert_motor=&invert_motor;
 144:main.c        ****     eeprom_ferror=&ferror;
 145:main.c        ****     eeprom_uart_data=&uart_data;
 146:main.c        ****     
ARM GAS  C:\Users\g\AppData\Local\Temp\ccrbIUhB.s 			page 4


 147:main.c        ****     CyDelay(1000);
 148:main.c        ****     
 149:main.c        **** #ifndef DEBUG_INTERFACE
 150:main.c        ****     //"board powered" signal
 151:main.c        ****     vin_Write(1);
 152:main.c        **** #endif //DEBUG_INTERFACE
 153:main.c        ****     
 154:main.c        ****     // Enable global interrupts
 155:main.c        ****     CyGlobalIntEnable;
 156:main.c        **** 
 157:main.c        ****     //reset the QED hardware counter
 158:main.c        ****     Counter_1_WriteCounter(0);
 159:main.c        ****     uint32_t loop_counter = 0;
 160:main.c        ****     
 161:main.c        ****     
 162:main.c        ****     for(;;) {
 163:main.c        ****         //debug_pin_Write(1);
 164:main.c        ****         while (!loop_proceed) {}
 165:main.c        ****         //debug_pin_Write(0);
 166:main.c        ****         loop_proceed = 0; 
 167:main.c        ****         loop_counter++;
 168:main.c        ****         //following error exceeded
 169:main.c        ****         //prevents motor runaway when encoder count direction is backwards and rises an alarm when 
 170:main.c        ****         if(error>*eeprom_ferror || error<-*eeprom_ferror) {
 171:main.c        ****             error_Write(0);
 172:main.c        **** #ifndef DEBUG_INTERFACE
 173:main.c        ****             err_Write(1);
 174:main.c        **** #endif //DEBUG_INTERFACE
 175:main.c        ****             fault_detected=1;
 176:main.c        ****         }
 177:main.c        ****         //if no new step pulse is received for a number of cycles, shut down the motor, until a new
 178:main.c        ****         else {
 179:main.c        ****             if(timeout_counter<TIMEOUT) {
 180:main.c        ****                 timeout_counter++;
 181:main.c        ****                 timeout_flag=0;
 182:main.c        ****                 motor_shutdown=0;
 183:main.c        ****             }
 184:main.c        ****             else {
 185:main.c        ****                 if(timeout_flag==0) {
 186:main.c        ****                     error_at_timeout=error;
 187:main.c        ****                     timeout_flag=1;
 188:main.c        ****                     motor_shutdown=1;
 189:main.c        ****                 }
 190:main.c        ****                 if(error_at_timeout-error>3 || error_at_timeout-error<-3) timeout_counter=0;
 191:main.c        ****             }
 192:main.c        ****         }
 193:main.c        ****         
 194:main.c        ****         //gate driver error
 195:main.c        ****         //undervoltage, undercurrent or overtemperature
 196:main.c        ****         if(fault_Read()==0) {
 197:main.c        ****             error_Write(0);
 198:main.c        **** #ifndef DEBUG_INTERFACE
 199:main.c        ****             vin_Write(0);
 200:main.c        ****             err_Write(1);
 201:main.c        **** #endif //DEBUG_INTERFACE
 202:main.c        ****             fault_detected=1;
 203:main.c        ****         }
ARM GAS  C:\Users\g\AppData\Local\Temp\ccrbIUhB.s 			page 5


 204:main.c        ****         if(ovc_Read()==0) {
 205:main.c        ****             error_Write(0);
 206:main.c        **** #ifndef DEBUG_INTERFACE
 207:main.c        ****             vin_Write(0);
 208:main.c        ****             err_Write(1);
 209:main.c        **** #endif //DEBUG_INTERFACE
 210:main.c        ****             fault_detected=1;
 211:main.c        ****         }
 212:main.c        ****         
 213:main.c        ****         //reset pin
 214:main.c        ****         if(reset_Read()==0) {
 215:main.c        **** #ifndef DEBUG_INTERFACE
 216:main.c        ****             error_Write(0);
 217:main.c        ****             err_Write(1);
 218:main.c        **** #endif
 219:main.c        ****             fault_detected=1;
 220:main.c        ****         }
 221:main.c        ****         
 222:main.c        ****         //current limiting PI control. Calculate error and add it to the previous sum of errors
 223:main.c        ****         millivolts=(ADC_GetResult16(0)>>1);
 224:main.c        ****         //convert the current limit magnitude to voltage so the error can be computed using the ADC
 225:main.c        ****         duty_reduce+=((millivolts-(*eeprom_current_setting<<2))>>3);
 226:main.c        ****         if(duty_reduce>DUTY_REDUCE_MAX) duty_reduce=DUTY_REDUCE_MAX;
 227:main.c        ****         else if(duty_reduce<0) duty_reduce=0;
 228:main.c        ****         
 229:main.c        ****         //calculate error
 230:main.c        ****         error=(int16_t)Counter_1_ReadCounter();
 231:main.c        ****         //calculate change in process variable to prevent derivative kickback
 232:main.c        ****         error_derivative=error-error_prev;
 233:main.c        ****         error_prev=error;
 234:main.c        ****         //sum of errors over time
 235:main.c        ****         if (motor_shutdown == 0)
 236:main.c        ****             error_integral+=error;
 237:main.c        ****         //limit integral error
 238:main.c        ****         if(error_integral>ERROR_INTEGRAL_MAX) error_integral=ERROR_INTEGRAL_MAX;
 239:main.c        ****         else if(error_integral<-ERROR_INTEGRAL_MAX) error_integral=-ERROR_INTEGRAL_MAX;
 240:main.c        ****         
 241:main.c        ****         //output value calculation and constraining
 242:main.c        ****         output=(*eeprom_kp*error)+((*eeprom_ki*error_integral)>>7)-(*eeprom_kd*error_derivative);
 243:main.c        ****         if(fault_detected) {
 244:main.c        ****             PWM_MOT_WriteCompare(1);
 245:main.c        ****         }
 246:main.c        ****         else {
 247:main.c        ****             if(*eeprom_invert_motor) {
 248:main.c        ****                 if(output>=0) phase_Write(1);
 249:main.c        ****                 else {
 250:main.c        ****                     output=-output;
 251:main.c        ****                     phase_Write(0);
 252:main.c        ****                 }
 253:main.c        ****             }
 254:main.c        ****             else {
 255:main.c        ****                 if(output>=0) phase_Write(0);
 256:main.c        ****                 else {
 257:main.c        ****                     output=-output;
 258:main.c        ****                     phase_Write(1);
 259:main.c        ****                 }
 260:main.c        ****             }
ARM GAS  C:\Users\g\AppData\Local\Temp\ccrbIUhB.s 			page 6


 261:main.c        ****             output = output >> 8;
 262:main.c        ****             if(output>4095) output=4095;
 263:main.c        ****             output-=duty_reduce;
 264:main.c        ****             if(output<1) output=1;
 265:main.c        ****             if(motor_shutdown) PWM_MOT_WriteCompare(1);
 266:main.c        ****             else PWM_MOT_WriteCompare(output);
 267:main.c        ****         }
 268:main.c        ****         
 269:main.c        ****         
 270:main.c        ****         //parse UART data. Do not use numbers as condition for the switch
 271:main.c        ****         if(command_ready==1) {
 272:main.c        ****             command_type=command_parser[0];
 273:main.c        ****             for(int i=0; i<5; i++) command_local[i]=command_parser[i+1];
 274:main.c        ****             command_value=atoi(command_local);
 275:main.c        ****             switch(command_type) {
 276:main.c        ****                 //PID coefficients
 277:main.c        ****                 case 'p':
 278:main.c        ****                     EEPROM_Write((const uint8_t*)&command_value, (const uint8_t*)&kp, 2);
 279:main.c        ****                 break;
 280:main.c        ****                 case 'i':
 281:main.c        ****                     EEPROM_Write((const uint8_t*)&command_value, (const uint8_t*)&ki, 2);
 282:main.c        ****                 break;
 283:main.c        ****                 case 'd':
 284:main.c        ****                     EEPROM_Write((const uint8_t*)&command_value, (const uint8_t*)&kd, 2);
 285:main.c        ****                 break;
 286:main.c        ****                 //current limit value
 287:main.c        ****                 case 'c':
 288:main.c        ****                     EEPROM_Write((const uint8_t*)&command_value, &current_setting, 1);
 289:main.c        ****                 break;
 290:main.c        ****                 //motor direction of rotation flag
 291:main.c        ****                 case 'r':
 292:main.c        ****                     EEPROM_Write((const uint8_t*)&command_value, &invert_motor, 1);
 293:main.c        ****                 break;
 294:main.c        ****                 //maximum allowable following error
 295:main.c        ****                 case 'f':
 296:main.c        ****                     EEPROM_Write((const uint8_t*)&command_value, &ferror, 1);
 297:main.c        ****                 break;
 298:main.c        ****                 //transmit diagnostic data flag
 299:main.c        ****                 case 'u':
 300:main.c        ****                     EEPROM_Write((const uint8_t*)&command_value, &uart_data, 1);
 301:main.c        ****                 break;
 302:main.c        ****                 //move motor
 303:main.c        ****                 case '+':
 304:main.c        ****                     Counter_1_WriteCounter (Counter_1_ReadCounter()+command_value);
 305:main.c        ****                 break;
 306:main.c        ****                 case '-':
 307:main.c        ****                     Counter_1_WriteCounter (Counter_1_ReadCounter()-command_value);
 308:main.c        ****                 break;
 309:main.c        ****             }
 310:main.c        ****             command_ready=0;
 311:main.c        ****         }
 312:main.c        ****         
 313:main.c        ****         if (!transmitting())
 314:main.c        ****         {
 315:main.c        ****             //prepare UART strings
 316:main.c        ****             fast_itoa(error_tx, error+500);
 317:main.c        ****             fast_itoa(current_tx, 10*millivolts);
ARM GAS  C:\Users\g\AppData\Local\Temp\ccrbIUhB.s 			page 7


 318:main.c        ****         }
 319:main.c        ****         
 320:main.c        **** 
 321:main.c        ****         if(transmit_ready) {
 322:main.c        ****             transmit_ready = 0; 
 323:main.c        ****             if(*eeprom_uart_data) {
 324:main.c        ****                 transmit_data();
 325:main.c        ****             }
 326:main.c        ****         }
 327:main.c        ****                 
 328:main.c        ****     }
 329:main.c        **** }
 330:main.c        **** 
 331:main.c        **** volatile uint8_t transmit_state = 0; 
 332:main.c        **** volatile uint32_t transmit_index;
 333:main.c        **** int transmitting()
 334:main.c        **** {
 335:main.c        ****     return (transmit_state != 0);
 336:main.c        **** }
 337:main.c        **** void transmit_data()
 338:main.c        **** {
 339:main.c        ****     if (!transmitting())
 340:main.c        ****     {
 341:main.c        ****         transmit_state = 1;
 342:main.c        ****         transmit_index = 0;
 343:main.c        ****         UART_SetTxInterruptMode(UART_INTR_TX_NOT_FULL);
 344:main.c        ****     }
 345:main.c        **** }
 346:main.c        **** 
 347:main.c        **** //string transmission begins with '$' and ends with ';'
 348:main.c        **** //insert a ' ' between each string
 349:main.c        **** void transmit_engine()
 350:main.c        **** {
 351:main.c        ****     char c;
 352:main.c        ****     switch (transmit_state)
 353:main.c        ****     {
 354:main.c        ****     case 0:
 355:main.c        ****         break;
 356:main.c        ****     case 1:
 357:main.c        ****         transmit_state++;
 358:main.c        ****         UART_UartPutChar('$');
 359:main.c        ****         break;
 360:main.c        ****     case 2:
 361:main.c        ****         
 362:main.c        ****         if (transmit_index<6)
 363:main.c        ****         {
 364:main.c        ****             c = error_tx[transmit_index];
 365:main.c        ****             UART_UartPutChar(c);
 366:main.c        ****             transmit_index++;
 367:main.c        ****         }
 368:main.c        ****         else
 369:main.c        ****         {
 370:main.c        ****             transmit_index = 0;
 371:main.c        ****             transmit_state++;
 372:main.c        ****         }
 373:main.c        ****         break;
 374:main.c        ****     case 3:
ARM GAS  C:\Users\g\AppData\Local\Temp\ccrbIUhB.s 			page 8


 375:main.c        ****         transmit_state++;
 376:main.c        ****         UART_UartPutChar(' ');
 377:main.c        ****         break;
 378:main.c        ****     case 4:
 379:main.c        ****         
 380:main.c        ****         if (transmit_index<6)
 381:main.c        ****         {
 382:main.c        ****             c = current_tx[transmit_index];
 383:main.c        ****             UART_UartPutChar(c);
 384:main.c        ****             transmit_index++;
 385:main.c        ****         }
 386:main.c        ****         else
 387:main.c        ****         {
 388:main.c        ****             transmit_index = 0;
 389:main.c        ****             transmit_state++;
 390:main.c        ****         }
 391:main.c        ****         break;  
 392:main.c        ****     case 5:
 393:main.c        ****         transmit_state = 0; 
 394:main.c        ****         UART_UartPutChar(';');
 395:main.c        ****         UART_SetTxInterruptMode(0);
 396:main.c        ****         break;      
 397:main.c        ****     }
 398:main.c        **** }
 399:main.c        **** 
 400:main.c        **** 
 401:main.c        **** //write to uart buffer
 402:main.c        **** CY_ISR(uartReceiveTransmit) {
 403:main.c        ****     if ((UART_GetInterruptCause() == UART_INTR_CAUSE_RX) && 
 404:main.c        ****         (UART_GetRxInterruptSource() & UART_INTR_RX_NOT_EMPTY))
 405:main.c        ****     {
 406:main.c        ****         char c = UART_UartGetChar();
 407:main.c        ****         if (c == ';')
 408:main.c        ****         {
 409:main.c        ****             command_parser[command_index]=c;
 410:main.c        ****             command_index=0;
 411:main.c        ****             command_ready=1;
 412:main.c        ****         }
 413:main.c        ****         else if (command_index < COMMAND_INDEX_LENGTH-1)
 414:main.c        ****         {
 415:main.c        ****             command_parser[command_index]=c;
 416:main.c        ****             command_index++;
 417:main.c        ****             command_ready=0;
 418:main.c        ****         }
 419:main.c        ****         UART_ClearRxInterruptSource(UART_INTR_RX_NOT_EMPTY);
 420:main.c        ****     }
 421:main.c        ****     else if ((UART_GetInterruptCause() == UART_INTR_CAUSE_TX) && 
 422:main.c        ****             (UART_GetTxInterruptSource() & UART_INTR_TX_NOT_FULL))
 423:main.c        ****     {
 424:main.c        ****         transmit_engine();
 425:main.c        ****         UART_ClearTxInterruptSource(UART_INTR_TX_NOT_FULL);
 426:main.c        ****     }
 427:main.c        **** }
 428:main.c        **** 
 429:main.c        **** //set UART transmission allowed flag
 430:main.c        **** CY_ISR(transmitUpdate) {
  26              		.loc 1 430 0
ARM GAS  C:\Users\g\AppData\Local\Temp\ccrbIUhB.s 			page 9


  27              		.cfi_startproc
  28 0000 08B5     		push	{r3, lr}
  29              		.cfi_def_cfa_offset 8
  30              		.cfi_offset 3, -8
  31              		.cfi_offset 14, -4
 431:main.c        ****     txISR_ClearPending();
  32              		.loc 1 431 0
  33 0002 FFF7FEFF 		bl	txISR_ClearPending
  34              	.LVL0:
 432:main.c        ****     transmit_ready=1;
  35              		.loc 1 432 0
  36 0006 0122     		mov	r2, #1
  37 0008 014B     		ldr	r3, .L2
  38 000a 1A70     		strb	r2, [r3]
 433:main.c        **** }
  39              		.loc 1 433 0
  40              		@ sp needed
  41 000c 08BD     		pop	{r3, pc}
  42              	.L3:
  43 000e C046     		.align	2
  44              	.L2:
  45 0010 00000000 		.word	transmit_ready
  46              		.cfi_endproc
  47              	.LFE41:
  48              		.size	transmitUpdate, .-transmitUpdate
  49              		.section	.text.pwmCycle,"ax",%progbits
  50              		.align	2
  51              		.global	pwmCycle
  52              		.code	16
  53              		.thumb_func
  54              		.type	pwmCycle, %function
  55              	pwmCycle:
  56              	.LFB42:
 434:main.c        **** 
 435:main.c        **** CY_ISR_PROTO(pwmCycle) {
  57              		.loc 1 435 0
  58              		.cfi_startproc
  59 0000 08B5     		push	{r3, lr}
  60              		.cfi_def_cfa_offset 8
  61              		.cfi_offset 3, -8
  62              		.cfi_offset 14, -4
 436:main.c        ****     PWM_MOT_ClearInterrupt(PWM_MOT_INTR_MASK_TC);
  63              		.loc 1 436 0
  64 0002 0120     		mov	r0, #1
  65 0004 FFF7FEFF 		bl	PWM_MOT_ClearInterrupt
  66              	.LVL1:
 437:main.c        ****     loop_proceed=1;
  67              		.loc 1 437 0
  68 0008 0122     		mov	r2, #1
  69 000a 014B     		ldr	r3, .L5
  70 000c 1A70     		strb	r2, [r3]
 438:main.c        **** }
  71              		.loc 1 438 0
  72              		@ sp needed
  73 000e 08BD     		pop	{r3, pc}
  74              	.L6:
  75              		.align	2
ARM GAS  C:\Users\g\AppData\Local\Temp\ccrbIUhB.s 			page 10


  76              	.L5:
  77 0010 00000000 		.word	loop_proceed
  78              		.cfi_endproc
  79              	.LFE42:
  80              		.size	pwmCycle, .-pwmCycle
  81              		.section	.text.ffast_itoa,"ax",%progbits
  82              		.align	2
  83              		.global	ffast_itoa
  84              		.code	16
  85              		.thumb_func
  86              		.type	ffast_itoa, %function
  87              	ffast_itoa:
  88              	.LFB34:
  25:main.c        ****     char temp;
  89              		.loc 1 25 0
  90              		.cfi_startproc
  91              	.LVL2:
  27:main.c        ****         a_string[0]='-';
  92              		.loc 1 27 0
  93 0000 0029     		cmp	r1, #0
  94 0002 04DA     		bge	.L8
  28:main.c        ****         a_number=-a_number;
  95              		.loc 1 28 0
  96 0004 2D23     		mov	r3, #45
  97 0006 0370     		strb	r3, [r0]
  29:main.c        ****     }
  98              		.loc 1 29 0
  99 0008 4942     		neg	r1, r1
 100              	.LVL3:
 101 000a 09B2     		sxth	r1, r1
 102              	.LVL4:
 103 000c 01E0     		b	.L9
 104              	.L8:
  31:main.c        ****     temp = '0';
 105              		.loc 1 31 0
 106 000e 3023     		mov	r3, #48
 107 0010 0370     		strb	r3, [r0]
 108              	.L9:
 109              	.LVL5:
  32:main.c        ****     while(a_number>=10000) {
 110              		.loc 1 32 0
 111 0012 3023     		mov	r3, #48
  33:main.c        ****         a_number-=10000;
 112              		.loc 1 33 0
 113 0014 05E0     		b	.L10
 114              	.LVL6:
 115              	.L11:
  34:main.c        ****         temp++;
 116              		.loc 1 34 0
 117 0016 174A     		ldr	r2, .L18
 118 0018 9446     		mov	ip, r2
 119 001a 6144     		add	r1, r1, ip
 120              	.LVL7:
 121 001c 09B2     		sxth	r1, r1
 122              	.LVL8:
  35:main.c        ****     }
 123              		.loc 1 35 0
ARM GAS  C:\Users\g\AppData\Local\Temp\ccrbIUhB.s 			page 11


 124 001e 0133     		add	r3, r3, #1
 125              	.LVL9:
 126 0020 DBB2     		uxtb	r3, r3
 127              	.LVL10:
 128              	.L10:
  33:main.c        ****         a_number-=10000;
 129              		.loc 1 33 0
 130 0022 154A     		ldr	r2, .L18+4
 131 0024 9142     		cmp	r1, r2
 132 0026 F6DC     		bgt	.L11
  37:main.c        ****     temp = '0';
 133              		.loc 1 37 0
 134 0028 4370     		strb	r3, [r0, #1]
 135              	.LVL11:
  38:main.c        ****     while(a_number>=1000) {
 136              		.loc 1 38 0
 137 002a 3023     		mov	r3, #48
  39:main.c        ****         a_number-=1000;
 138              		.loc 1 39 0
 139 002c 05E0     		b	.L12
 140              	.LVL12:
 141              	.L13:
  40:main.c        ****         temp++;
 142              		.loc 1 40 0
 143 002e 134A     		ldr	r2, .L18+8
 144 0030 9446     		mov	ip, r2
 145 0032 6144     		add	r1, r1, ip
 146              	.LVL13:
 147 0034 09B2     		sxth	r1, r1
 148              	.LVL14:
  41:main.c        ****     }
 149              		.loc 1 41 0
 150 0036 0133     		add	r3, r3, #1
 151              	.LVL15:
 152 0038 DBB2     		uxtb	r3, r3
 153              	.LVL16:
 154              	.L12:
  39:main.c        ****         a_number-=1000;
 155              		.loc 1 39 0
 156 003a 114A     		ldr	r2, .L18+12
 157 003c 9142     		cmp	r1, r2
 158 003e F6DC     		bgt	.L13
  43:main.c        ****     temp = '0';
 159              		.loc 1 43 0
 160 0040 8370     		strb	r3, [r0, #2]
 161              	.LVL17:
  44:main.c        ****     while(a_number>=100) {
 162              		.loc 1 44 0
 163 0042 3023     		mov	r3, #48
  45:main.c        ****         a_number-=100;
 164              		.loc 1 45 0
 165 0044 03E0     		b	.L14
 166              	.LVL18:
 167              	.L15:
  46:main.c        ****         temp++;
 168              		.loc 1 46 0
 169 0046 6439     		sub	r1, r1, #100
ARM GAS  C:\Users\g\AppData\Local\Temp\ccrbIUhB.s 			page 12


 170              	.LVL19:
 171 0048 09B2     		sxth	r1, r1
 172              	.LVL20:
  47:main.c        ****     }
 173              		.loc 1 47 0
 174 004a 0133     		add	r3, r3, #1
 175              	.LVL21:
 176 004c DBB2     		uxtb	r3, r3
 177              	.LVL22:
 178              	.L14:
  45:main.c        ****         a_number-=100;
 179              		.loc 1 45 0
 180 004e 6329     		cmp	r1, #99
 181 0050 F9DC     		bgt	.L15
  49:main.c        ****     temp = '0';
 182              		.loc 1 49 0
 183 0052 C370     		strb	r3, [r0, #3]
 184              	.LVL23:
  50:main.c        ****     while(a_number>=10) {
 185              		.loc 1 50 0
 186 0054 3023     		mov	r3, #48
  51:main.c        ****         a_number-=10;
 187              		.loc 1 51 0
 188 0056 03E0     		b	.L16
 189              	.LVL24:
 190              	.L17:
  52:main.c        ****         temp++;
 191              		.loc 1 52 0
 192 0058 0A39     		sub	r1, r1, #10
 193              	.LVL25:
 194 005a 09B2     		sxth	r1, r1
 195              	.LVL26:
  53:main.c        ****     }
 196              		.loc 1 53 0
 197 005c 0133     		add	r3, r3, #1
 198              	.LVL27:
 199 005e DBB2     		uxtb	r3, r3
 200              	.LVL28:
 201              	.L16:
  51:main.c        ****         a_number-=10;
 202              		.loc 1 51 0
 203 0060 0929     		cmp	r1, #9
 204 0062 F9DC     		bgt	.L17
  55:main.c        ****     a_string[5]=a_number+'0';
 205              		.loc 1 55 0
 206 0064 0371     		strb	r3, [r0, #4]
  56:main.c        ****     a_string[6]='\0';
 207              		.loc 1 56 0
 208 0066 3031     		add	r1, r1, #48
 209              	.LVL29:
 210 0068 C9B2     		uxtb	r1, r1
 211 006a 4171     		strb	r1, [r0, #5]
  57:main.c        **** 
 212              		.loc 1 57 0
 213 006c 0023     		mov	r3, #0
 214              	.LVL30:
 215 006e 8371     		strb	r3, [r0, #6]
ARM GAS  C:\Users\g\AppData\Local\Temp\ccrbIUhB.s 			page 13


  59:main.c        **** 
 216              		.loc 1 59 0
 217              		@ sp needed
 218 0070 7047     		bx	lr
 219              	.L19:
 220 0072 C046     		.align	2
 221              	.L18:
 222 0074 F0D8FFFF 		.word	-10000
 223 0078 0F270000 		.word	9999
 224 007c 18FCFFFF 		.word	-1000
 225 0080 E7030000 		.word	999
 226              		.cfi_endproc
 227              	.LFE34:
 228              		.size	ffast_itoa, .-ffast_itoa
 229              		.section	.text.fast_itoa,"ax",%progbits
 230              		.align	2
 231              		.global	fast_itoa
 232              		.code	16
 233              		.thumb_func
 234              		.type	fast_itoa, %function
 235              	fast_itoa:
 236              	.LFB35:
  63:main.c        ****     if(a_number<0) {
 237              		.loc 1 63 0
 238              		.cfi_startproc
 239              	.LVL31:
 240 0000 10B5     		push	{r4, lr}
 241              		.cfi_def_cfa_offset 8
 242              		.cfi_offset 4, -8
 243              		.cfi_offset 14, -4
  64:main.c        ****         a_string[0]='-';
 244              		.loc 1 64 0
 245 0002 0029     		cmp	r1, #0
 246 0004 04DA     		bge	.L21
  65:main.c        ****        a_number=-a_number;
 247              		.loc 1 65 0
 248 0006 2D23     		mov	r3, #45
 249 0008 0370     		strb	r3, [r0]
  66:main.c        ****     }
 250              		.loc 1 66 0
 251 000a 4942     		neg	r1, r1
 252              	.LVL32:
 253 000c 09B2     		sxth	r1, r1
 254              	.LVL33:
 255 000e 01E0     		b	.L22
 256              	.L21:
  68:main.c        **** 
 257              		.loc 1 68 0
 258 0010 3023     		mov	r3, #48
 259 0012 0370     		strb	r3, [r0]
 260              	.L22:
 261              	.LVL34:
  73:main.c        **** 
 262              		.loc 1 73 0
 263 0014 0B4B     		ldr	r3, .L25
 264 0016 4B43     		mul	r3, r1
 265 0018 CA17     		asr	r2, r1, #31
ARM GAS  C:\Users\g\AppData\Local\Temp\ccrbIUhB.s 			page 14


 266 001a 920F     		lsr	r2, r2, #30
 267 001c 5118     		add	r1, r2, r1
 268              	.LVL35:
 269 001e 8910     		asr	r1, r1, #2
 270 0020 591A     		sub	r1, r3, r1
 271              	.LVL36:
 272              	.LBB2:
  75:main.c        ****     {
 273              		.loc 1 75 0
 274 0022 0123     		mov	r3, #1
 275 0024 09E0     		b	.L23
 276              	.LVL37:
 277              	.L24:
 278              	.LBB3:
  78:main.c        ****         tmp = (tmp & 0x0fffffff) * 10;
 279              		.loc 1 78 0 discriminator 3
 280 0026 C418     		add	r4, r0, r3
 281 0028 0A0F     		lsr	r2, r1, #28
 282              	.LVL38:
 283 002a 3032     		add	r2, r2, #48
 284              	.LVL39:
 285 002c 2270     		strb	r2, [r4]
  79:main.c        ****     }
 286              		.loc 1 79 0 discriminator 3
 287 002e 0901     		lsl	r1, r1, #4
 288              	.LVL40:
 289 0030 0909     		lsr	r1, r1, #4
 290 0032 8A00     		lsl	r2, r1, #2
 291              	.LVL41:
 292 0034 5118     		add	r1, r2, r1
 293 0036 4900     		lsl	r1, r1, #1
 294              	.LVL42:
 295              	.LBE3:
  75:main.c        ****     {
 296              		.loc 1 75 0 discriminator 3
 297 0038 0133     		add	r3, r3, #1
 298              	.LVL43:
 299              	.L23:
  75:main.c        ****     {
 300              		.loc 1 75 0 is_stmt 0 discriminator 1
 301 003a 052B     		cmp	r3, #5
 302 003c F3D9     		bls	.L24
 303              	.LBE2:
  81:main.c        **** }
 304              		.loc 1 81 0 is_stmt 1
 305 003e 0023     		mov	r3, #0
 306              	.LVL44:
 307 0040 8371     		strb	r3, [r0, #6]
  82:main.c        **** 
 308              		.loc 1 82 0
 309              		@ sp needed
 310 0042 10BD     		pop	{r4, pc}
 311              	.L26:
 312              		.align	2
 313              	.L25:
 314 0044 DC680000 		.word	26844
 315              		.cfi_endproc
ARM GAS  C:\Users\g\AppData\Local\Temp\ccrbIUhB.s 			page 15


 316              	.LFE35:
 317              		.size	fast_itoa, .-fast_itoa
 318              		.section	.text.transmitting,"ax",%progbits
 319              		.align	2
 320              		.global	transmitting
 321              		.code	16
 322              		.thumb_func
 323              		.type	transmitting, %function
 324              	transmitting:
 325              	.LFB37:
 334:main.c        ****     return (transmit_state != 0);
 326              		.loc 1 334 0
 327              		.cfi_startproc
 335:main.c        **** }
 328              		.loc 1 335 0
 329 0000 024B     		ldr	r3, .L28
 330 0002 1878     		ldrb	r0, [r3]
 331 0004 431E     		sub	r3, r0, #1
 332 0006 9841     		sbc	r0, r0, r3
 333 0008 C0B2     		uxtb	r0, r0
 336:main.c        **** void transmit_data()
 334              		.loc 1 336 0
 335              		@ sp needed
 336 000a 7047     		bx	lr
 337              	.L29:
 338              		.align	2
 339              	.L28:
 340 000c 00000000 		.word	.LANCHOR0
 341              		.cfi_endproc
 342              	.LFE37:
 343              		.size	transmitting, .-transmitting
 344              		.section	.text.transmit_data,"ax",%progbits
 345              		.align	2
 346              		.global	transmit_data
 347              		.code	16
 348              		.thumb_func
 349              		.type	transmit_data, %function
 350              	transmit_data:
 351              	.LFB38:
 338:main.c        ****     if (!transmitting())
 352              		.loc 1 338 0
 353              		.cfi_startproc
 354 0000 08B5     		push	{r3, lr}
 355              		.cfi_def_cfa_offset 8
 356              		.cfi_offset 3, -8
 357              		.cfi_offset 14, -4
 339:main.c        ****     {
 358              		.loc 1 339 0
 359 0002 FFF7FEFF 		bl	transmitting
 360              	.LVL45:
 361 0006 0028     		cmp	r0, #0
 362 0008 08D1     		bne	.L30
 341:main.c        ****         transmit_index = 0;
 363              		.loc 1 341 0
 364 000a 0122     		mov	r2, #1
 365 000c 044B     		ldr	r3, .L32
 366 000e 1A70     		strb	r2, [r3]
ARM GAS  C:\Users\g\AppData\Local\Temp\ccrbIUhB.s 			page 16


 342:main.c        ****         UART_SetTxInterruptMode(UART_INTR_TX_NOT_FULL);
 367              		.loc 1 342 0
 368 0010 0022     		mov	r2, #0
 369 0012 044B     		ldr	r3, .L32+4
 370 0014 1A60     		str	r2, [r3]
 343:main.c        ****     }
 371              		.loc 1 343 0
 372 0016 0232     		add	r2, r2, #2
 373 0018 034B     		ldr	r3, .L32+8
 374 001a 1A60     		str	r2, [r3]
 375              	.L30:
 345:main.c        **** 
 376              		.loc 1 345 0
 377              		@ sp needed
 378 001c 08BD     		pop	{r3, pc}
 379              	.L33:
 380 001e C046     		.align	2
 381              	.L32:
 382 0020 00000000 		.word	.LANCHOR0
 383 0024 00000000 		.word	transmit_index
 384 0028 880F0740 		.word	1074204552
 385              		.cfi_endproc
 386              	.LFE38:
 387              		.size	transmit_data, .-transmit_data
 388              		.section	.text.main,"ax",%progbits
 389              		.align	2
 390              		.global	main
 391              		.code	16
 392              		.thumb_func
 393              		.type	main, %function
 394              	main:
 395              	.LFB36:
  99:main.c        **** 
 396              		.loc 1 99 0
 397              		.cfi_startproc
 398 0000 F0B5     		push	{r4, r5, r6, r7, lr}
 399              		.cfi_def_cfa_offset 20
 400              		.cfi_offset 4, -20
 401              		.cfi_offset 5, -16
 402              		.cfi_offset 6, -12
 403              		.cfi_offset 7, -8
 404              		.cfi_offset 14, -4
 405 0002 5F46     		mov	r7, fp
 406 0004 5646     		mov	r6, r10
 407 0006 4D46     		mov	r5, r9
 408 0008 4446     		mov	r4, r8
 409 000a F0B4     		push	{r4, r5, r6, r7}
 410              		.cfi_def_cfa_offset 36
 411              		.cfi_offset 8, -36
 412              		.cfi_offset 9, -32
 413              		.cfi_offset 10, -28
 414              		.cfi_offset 11, -24
 415 000c 85B0     		sub	sp, sp, #20
 416              		.cfi_def_cfa_offset 56
 417              	.LVL46:
 113:main.c        ****     char command_type='z';
 418              		.loc 1 113 0
ARM GAS  C:\Users\g\AppData\Local\Temp\ccrbIUhB.s 			page 17


 419 000e 0024     		mov	r4, #0
 420 0010 02AB     		add	r3, sp, #8
 421 0012 DC80     		strh	r4, [r3, #6]
 422              	.LVL47:
 117:main.c        ****     //Initialize quadrature decoding hardware
 423              		.loc 1 117 0
 424 0014 0120     		mov	r0, #1
 425 0016 FFF7FEFF 		bl	error_Write
 426              	.LVL48:
 119:main.c        ****     //192008N1
 427              		.loc 1 119 0
 428 001a FFF7FEFF 		bl	Counter_1_Start
 429              	.LVL49:
 121:main.c        ****     //12-bit resolution. In phase with PWM_MOT
 430              		.loc 1 121 0
 431 001e FFF7FEFF 		bl	UART_Start
 432              	.LVL50:
 123:main.c        ****     //UART transmit period timer (curently 100 transmissions per second)
 433              		.loc 1 123 0
 434 0022 FFF7FEFF 		bl	ADC_Start
 435              	.LVL51:
 125:main.c        ****     //Just the EEPROM...
 436              		.loc 1 125 0
 437 0026 FFF7FEFF 		bl	TX_SEND_Start
 438              	.LVL52:
 127:main.c        ****     //prepare gate driver for operation.  12-bit 6 kHz PWM
 439              		.loc 1 127 0
 440 002a FFF7FEFF 		bl	EEPROM_Start
 441              	.LVL53:
 129:main.c        ****     PWM_MOT_Start();
 442              		.loc 1 129 0
 443 002e 0120     		mov	r0, #1
 444 0030 FFF7FEFF 		bl	sleep_Write
 445              	.LVL54:
 130:main.c        ****     
 446              		.loc 1 130 0
 447 0034 FFF7FEFF 		bl	PWM_MOT_Start
 448              	.LVL55:
 133:main.c        ****     UART_SetTxInterruptMode(0);
 449              		.loc 1 133 0
 450 0038 C348     		ldr	r0, .L80
 451 003a FFF7FEFF 		bl	rxISR_StartEx
 452              	.LVL56:
 134:main.c        ****     txISR_StartEx(transmitUpdate);
 453              		.loc 1 134 0
 454 003e C34B     		ldr	r3, .L80+4
 455 0040 1C60     		str	r4, [r3]
 135:main.c        ****     pwmISR_StartEx(pwmCycle);
 456              		.loc 1 135 0
 457 0042 C348     		ldr	r0, .L80+8
 458 0044 FFF7FEFF 		bl	txISR_StartEx
 459              	.LVL57:
 136:main.c        ****     
 460              		.loc 1 136 0
 461 0048 C248     		ldr	r0, .L80+12
 462 004a FFF7FEFF 		bl	pwmISR_StartEx
 463              	.LVL58:
ARM GAS  C:\Users\g\AppData\Local\Temp\ccrbIUhB.s 			page 18


 147:main.c        ****     
 464              		.loc 1 147 0
 465 004e FA20     		mov	r0, #250
 466 0050 8000     		lsl	r0, r0, #2
 467 0052 FFF7FEFF 		bl	CyDelay
 468              	.LVL59:
 151:main.c        **** #endif //DEBUG_INTERFACE
 469              		.loc 1 151 0
 470 0056 0120     		mov	r0, #1
 471 0058 FFF7FEFF 		bl	vin_Write
 472              	.LVL60:
 155:main.c        **** 
 473              		.loc 1 155 0
 474              	@ 155 "main.c" 1
 475 005c 62B6     		CPSIE   i
 476              	@ 0 "" 2
 158:main.c        ****     uint32_t loop_counter = 0;
 477              		.loc 1 158 0
 478              		.code	16
 479 005e 0020     		mov	r0, #0
 480 0060 FFF7FEFF 		bl	Counter_1_WriteCounter
 481              	.LVL61:
 103:main.c        ****     
 482              		.loc 1 103 0
 483 0064 0023     		mov	r3, #0
 484 0066 0193     		str	r3, [sp, #4]
 485 0068 9A46     		mov	r10, r3
 486 006a 9B46     		mov	fp, r3
 101:main.c        ****     int32_t  output=0;
 487              		.loc 1 101 0
 488 006c 9846     		mov	r8, r3
 489 006e 0026     		mov	r6, #0
 490 0070 0027     		mov	r7, #0
 491 0072 0025     		mov	r5, #0
 492 0074 00E0     		b	.L36
 493              	.LVL62:
 494              	.L72:
  99:main.c        **** 
 495              		.loc 1 99 0 discriminator 1
 496 0076 3C1C     		mov	r4, r7
 497              	.LVL63:
 498              	.L36:
 164:main.c        ****         //debug_pin_Write(0);
 499              		.loc 1 164 0 discriminator 1
 500 0078 B74B     		ldr	r3, .L80+16
 501 007a 1B78     		ldrb	r3, [r3]
 502 007c ADB2     		uxth	r5, r5
 503 007e BFB2     		uxth	r7, r7
 504 0080 B6B2     		uxth	r6, r6
 505 0082 4246     		mov	r2, r8
 506 0084 6946     		mov	r1, sp
 507 0086 0A80     		strh	r2, [r1]
 508 0088 0A88     		ldrh	r2, [r1]
 509 008a 9046     		mov	r8, r2
 510              	.LVL64:
 511 008c A4B2     		uxth	r4, r4
 512 008e 002B     		cmp	r3, #0
ARM GAS  C:\Users\g\AppData\Local\Temp\ccrbIUhB.s 			page 19


 513 0090 F2D0     		beq	.L36
 166:main.c        ****         loop_counter++;
 514              		.loc 1 166 0
 515 0092 0022     		mov	r2, #0
 516 0094 B04B     		ldr	r3, .L80+16
 517 0096 1A70     		strb	r2, [r3]
 170:main.c        ****             error_Write(0);
 518              		.loc 1 170 0
 519 0098 3AB2     		sxth	r2, r7
 520 009a B04B     		ldr	r3, .L80+20
 521 009c 1B78     		ldrb	r3, [r3]
 522 009e DBB2     		uxtb	r3, r3
 523 00a0 9A42     		cmp	r2, r3
 524 00a2 04DC     		bgt	.L37
 170:main.c        ****             error_Write(0);
 525              		.loc 1 170 0 is_stmt 0 discriminator 1
 526 00a4 AD4B     		ldr	r3, .L80+20
 527 00a6 1B78     		ldrb	r3, [r3]
 528 00a8 5B42     		neg	r3, r3
 529 00aa 9A42     		cmp	r2, r3
 530 00ac 08DA     		bge	.L38
 531              	.L37:
 171:main.c        **** #ifndef DEBUG_INTERFACE
 532              		.loc 1 171 0 is_stmt 1
 533 00ae 0020     		mov	r0, #0
 534 00b0 FFF7FEFF 		bl	error_Write
 535              	.LVL65:
 173:main.c        **** #endif //DEBUG_INTERFACE
 536              		.loc 1 173 0
 537 00b4 0120     		mov	r0, #1
 538 00b6 FFF7FEFF 		bl	err_Write
 539              	.LVL66:
 175:main.c        ****         }
 540              		.loc 1 175 0
 541 00ba 0123     		mov	r3, #1
 542 00bc 9B46     		mov	fp, r3
 543 00be 1EE0     		b	.L39
 544              	.LVL67:
 545              	.L38:
 179:main.c        ****                 timeout_counter++;
 546              		.loc 1 179 0
 547 00c0 A74B     		ldr	r3, .L80+24
 548 00c2 1B88     		ldrh	r3, [r3]
 549 00c4 9BB2     		uxth	r3, r3
 550 00c6 A749     		ldr	r1, .L80+28
 551              	.LVL68:
 552 00c8 8B42     		cmp	r3, r1
 553 00ca 08D8     		bhi	.L40
 180:main.c        ****                 timeout_flag=0;
 554              		.loc 1 180 0
 555 00cc A44A     		ldr	r2, .L80+24
 556 00ce 1388     		ldrh	r3, [r2]
 557 00d0 0133     		add	r3, r3, #1
 558 00d2 9BB2     		uxth	r3, r3
 559 00d4 1380     		strh	r3, [r2]
 560              	.LVL69:
 181:main.c        ****                 motor_shutdown=0;
ARM GAS  C:\Users\g\AppData\Local\Temp\ccrbIUhB.s 			page 20


 561              		.loc 1 181 0
 562 00d6 0023     		mov	r3, #0
 563 00d8 0193     		str	r3, [sp, #4]
 182:main.c        ****             }
 564              		.loc 1 182 0
 565 00da 9A46     		mov	r10, r3
 566 00dc 0FE0     		b	.L39
 567              	.LVL70:
 568              	.L40:
 185:main.c        ****                     error_at_timeout=error;
 569              		.loc 1 185 0
 570 00de 019B     		ldr	r3, [sp, #4]
 571 00e0 002B     		cmp	r3, #0
 572 00e2 03D1     		bne	.L41
 186:main.c        ****                     timeout_flag=1;
 573              		.loc 1 186 0
 574 00e4 B846     		mov	r8, r7
 187:main.c        ****                     motor_shutdown=1;
 575              		.loc 1 187 0
 576 00e6 0133     		add	r3, r3, #1
 577 00e8 0193     		str	r3, [sp, #4]
 578              	.LVL71:
 188:main.c        ****                 }
 579              		.loc 1 188 0
 580 00ea 9A46     		mov	r10, r3
 581              	.LVL72:
 582              	.L41:
 190:main.c        ****             }
 583              		.loc 1 190 0
 584 00ec 4346     		mov	r3, r8
 585 00ee 1BB2     		sxth	r3, r3
 586 00f0 9A1A     		sub	r2, r3, r2
 587 00f2 0332     		add	r2, r2, #3
 588 00f4 062A     		cmp	r2, #6
 589 00f6 02D9     		bls	.L39
 190:main.c        ****             }
 590              		.loc 1 190 0 is_stmt 0 discriminator 1
 591 00f8 0022     		mov	r2, #0
 592 00fa 994B     		ldr	r3, .L80+24
 593 00fc 1A80     		strh	r2, [r3]
 594              	.LVL73:
 595              	.L39:
 196:main.c        ****             error_Write(0);
 596              		.loc 1 196 0 is_stmt 1
 597 00fe FFF7FEFF 		bl	fault_Read
 598              	.LVL74:
 599 0102 0028     		cmp	r0, #0
 600 0104 09D1     		bne	.L42
 197:main.c        **** #ifndef DEBUG_INTERFACE
 601              		.loc 1 197 0
 602 0106 FFF7FEFF 		bl	error_Write
 603              	.LVL75:
 199:main.c        ****             err_Write(1);
 604              		.loc 1 199 0
 605 010a 0020     		mov	r0, #0
 606 010c FFF7FEFF 		bl	vin_Write
 607              	.LVL76:
ARM GAS  C:\Users\g\AppData\Local\Temp\ccrbIUhB.s 			page 21


 200:main.c        **** #endif //DEBUG_INTERFACE
 608              		.loc 1 200 0
 609 0110 0120     		mov	r0, #1
 610 0112 FFF7FEFF 		bl	err_Write
 611              	.LVL77:
 202:main.c        ****         }
 612              		.loc 1 202 0
 613 0116 0123     		mov	r3, #1
 614 0118 9B46     		mov	fp, r3
 615              	.LVL78:
 616              	.L42:
 204:main.c        ****             error_Write(0);
 617              		.loc 1 204 0
 618 011a FFF7FEFF 		bl	ovc_Read
 619              	.LVL79:
 620 011e 0028     		cmp	r0, #0
 621 0120 09D1     		bne	.L43
 205:main.c        **** #ifndef DEBUG_INTERFACE
 622              		.loc 1 205 0
 623 0122 FFF7FEFF 		bl	error_Write
 624              	.LVL80:
 207:main.c        ****             err_Write(1);
 625              		.loc 1 207 0
 626 0126 0020     		mov	r0, #0
 627 0128 FFF7FEFF 		bl	vin_Write
 628              	.LVL81:
 208:main.c        **** #endif //DEBUG_INTERFACE
 629              		.loc 1 208 0
 630 012c 0120     		mov	r0, #1
 631 012e FFF7FEFF 		bl	err_Write
 632              	.LVL82:
 210:main.c        ****         }
 633              		.loc 1 210 0
 634 0132 0123     		mov	r3, #1
 635 0134 9B46     		mov	fp, r3
 636              	.LVL83:
 637              	.L43:
 214:main.c        **** #ifndef DEBUG_INTERFACE
 638              		.loc 1 214 0
 639 0136 FFF7FEFF 		bl	reset_Read
 640              	.LVL84:
 641 013a 0028     		cmp	r0, #0
 642 013c 06D1     		bne	.L44
 216:main.c        ****             err_Write(1);
 643              		.loc 1 216 0
 644 013e FFF7FEFF 		bl	error_Write
 645              	.LVL85:
 217:main.c        **** #endif
 646              		.loc 1 217 0
 647 0142 0120     		mov	r0, #1
 648 0144 FFF7FEFF 		bl	err_Write
 649              	.LVL86:
 219:main.c        ****         }
 650              		.loc 1 219 0
 651 0148 0123     		mov	r3, #1
 652 014a 9B46     		mov	fp, r3
 653              	.LVL87:
ARM GAS  C:\Users\g\AppData\Local\Temp\ccrbIUhB.s 			page 22


 654              	.L44:
 223:main.c        ****         //convert the current limit magnitude to voltage so the error can be computed using the ADC
 655              		.loc 1 223 0
 656 014c 0020     		mov	r0, #0
 657 014e FFF7FEFF 		bl	ADC_GetResult16
 658              	.LVL88:
 659 0152 4010     		asr	r0, r0, #1
 660 0154 83B2     		uxth	r3, r0
 661 0156 9946     		mov	r9, r3
 662              	.LVL89:
 225:main.c        ****         if(duty_reduce>DUTY_REDUCE_MAX) duty_reduce=DUTY_REDUCE_MAX;
 663              		.loc 1 225 0
 664 0158 804B     		ldr	r3, .L80+20
 665 015a 5B78     		ldrb	r3, [r3, #1]
 666 015c 9B00     		lsl	r3, r3, #2
 667 015e 4A46     		mov	r2, r9
 668 0160 12B2     		sxth	r2, r2
 669 0162 D31A     		sub	r3, r2, r3
 670 0164 DB10     		asr	r3, r3, #3
 671 0166 5D19     		add	r5, r3, r5
 672              	.LVL90:
 673 0168 ADB2     		uxth	r5, r5
 674              	.LVL91:
 226:main.c        ****         else if(duty_reduce<0) duty_reduce=0;
 675              		.loc 1 226 0
 676 016a 2AB2     		sxth	r2, r5
 677 016c 7E4B     		ldr	r3, .L80+32
 678 016e 9A42     		cmp	r2, r3
 679 0170 02DC     		bgt	.L74
 227:main.c        ****         
 680              		.loc 1 227 0
 681 0172 002A     		cmp	r2, #0
 682 0174 03DA     		bge	.L45
 683 0176 01E0     		b	.L75
 684              	.L74:
 226:main.c        ****         else if(duty_reduce<0) duty_reduce=0;
 685              		.loc 1 226 0
 686 0178 7B4D     		ldr	r5, .L80+32
 687              	.LVL92:
 688 017a 00E0     		b	.L45
 689              	.LVL93:
 690              	.L75:
 227:main.c        ****         
 691              		.loc 1 227 0
 692 017c 0025     		mov	r5, #0
 693              	.LVL94:
 694              	.L45:
 230:main.c        ****         //calculate change in process variable to prevent derivative kickback
 695              		.loc 1 230 0
 696 017e FFF7FEFF 		bl	Counter_1_ReadCounter
 697              	.LVL95:
 698 0182 0090     		str	r0, [sp]
 699 0184 87B2     		uxth	r7, r0
 700              	.LVL96:
 232:main.c        ****         error_prev=error;
 701              		.loc 1 232 0
 702 0186 041B     		sub	r4, r0, r4
ARM GAS  C:\Users\g\AppData\Local\Temp\ccrbIUhB.s 			page 23


 703              	.LVL97:
 704 0188 A1B2     		uxth	r1, r4
 705              	.LVL98:
 235:main.c        ****             error_integral+=error;
 706              		.loc 1 235 0
 707 018a 5346     		mov	r3, r10
 708 018c 002B     		cmp	r3, #0
 709 018e 02D1     		bne	.L46
 236:main.c        ****         //limit integral error
 710              		.loc 1 236 0
 711 0190 8446     		mov	ip, r0
 712 0192 6644     		add	r6, r6, ip
 713              	.LVL99:
 714 0194 B6B2     		uxth	r6, r6
 715              	.LVL100:
 716              	.L46:
 238:main.c        ****         else if(error_integral<-ERROR_INTEGRAL_MAX) error_integral=-ERROR_INTEGRAL_MAX;
 717              		.loc 1 238 0
 718 0196 33B2     		sxth	r3, r6
 719 0198 744A     		ldr	r2, .L80+36
 720 019a 9342     		cmp	r3, r2
 721 019c 03DC     		bgt	.L76
 239:main.c        ****         
 722              		.loc 1 239 0
 723 019e 744A     		ldr	r2, .L80+40
 724 01a0 9342     		cmp	r3, r2
 725 01a2 02DB     		blt	.L77
 726 01a4 02E0     		b	.L47
 727              	.L76:
 238:main.c        ****         else if(error_integral<-ERROR_INTEGRAL_MAX) error_integral=-ERROR_INTEGRAL_MAX;
 728              		.loc 1 238 0
 729 01a6 714E     		ldr	r6, .L80+36
 730              	.LVL101:
 731 01a8 00E0     		b	.L47
 732              	.LVL102:
 733              	.L77:
 239:main.c        ****         
 734              		.loc 1 239 0
 735 01aa 724E     		ldr	r6, .L80+44
 736              	.LVL103:
 737              	.L47:
 242:main.c        ****         if(fault_detected) {
 738              		.loc 1 242 0
 739 01ac 6B48     		ldr	r0, .L80+20
 740 01ae 4488     		ldrh	r4, [r0, #2]
 741 01b0 3BB2     		sxth	r3, r7
 742 01b2 5C43     		mul	r4, r3
 743 01b4 8388     		ldrh	r3, [r0, #4]
 744 01b6 32B2     		sxth	r2, r6
 745 01b8 5343     		mul	r3, r2
 746 01ba DA11     		asr	r2, r3, #7
 747 01bc A318     		add	r3, r4, r2
 748 01be C288     		ldrh	r2, [r0, #6]
 749 01c0 09B2     		sxth	r1, r1
 750 01c2 5143     		mul	r1, r2
 751              	.LVL104:
 752 01c4 5C1A     		sub	r4, r3, r1
ARM GAS  C:\Users\g\AppData\Local\Temp\ccrbIUhB.s 			page 24


 753              	.LVL105:
 243:main.c        ****             PWM_MOT_WriteCompare(1);
 754              		.loc 1 243 0
 755 01c6 5B46     		mov	r3, fp
 756 01c8 002B     		cmp	r3, #0
 757 01ca 03D0     		beq	.L48
 244:main.c        ****         }
 758              		.loc 1 244 0
 759 01cc 0120     		mov	r0, #1
 760 01ce FFF7FEFF 		bl	PWM_MOT_WriteCompare
 761              	.LVL106:
 762 01d2 2BE0     		b	.L49
 763              	.L48:
 247:main.c        ****                 if(output>=0) phase_Write(1);
 764              		.loc 1 247 0
 765 01d4 614B     		ldr	r3, .L80+20
 766 01d6 1B7A     		ldrb	r3, [r3, #8]
 767 01d8 002B     		cmp	r3, #0
 768 01da 0AD0     		beq	.L50
 248:main.c        ****                 else {
 769              		.loc 1 248 0
 770 01dc 002C     		cmp	r4, #0
 771 01de 03DB     		blt	.L51
 248:main.c        ****                 else {
 772              		.loc 1 248 0 is_stmt 0 discriminator 1
 773 01e0 0120     		mov	r0, #1
 774 01e2 FFF7FEFF 		bl	phase_Write
 775              	.LVL107:
 776 01e6 0EE0     		b	.L52
 777              	.L51:
 250:main.c        ****                     phase_Write(0);
 778              		.loc 1 250 0 is_stmt 1
 779 01e8 6442     		neg	r4, r4
 780              	.LVL108:
 251:main.c        ****                 }
 781              		.loc 1 251 0
 782 01ea 0020     		mov	r0, #0
 783 01ec FFF7FEFF 		bl	phase_Write
 784              	.LVL109:
 785 01f0 09E0     		b	.L52
 786              	.L50:
 255:main.c        ****                 else {
 787              		.loc 1 255 0
 788 01f2 002C     		cmp	r4, #0
 789 01f4 03DB     		blt	.L53
 255:main.c        ****                 else {
 790              		.loc 1 255 0 is_stmt 0 discriminator 1
 791 01f6 0020     		mov	r0, #0
 792 01f8 FFF7FEFF 		bl	phase_Write
 793              	.LVL110:
 794 01fc 03E0     		b	.L52
 795              	.L53:
 257:main.c        ****                     phase_Write(1);
 796              		.loc 1 257 0 is_stmt 1
 797 01fe 6442     		neg	r4, r4
 798              	.LVL111:
 258:main.c        ****                 }
ARM GAS  C:\Users\g\AppData\Local\Temp\ccrbIUhB.s 			page 25


 799              		.loc 1 258 0
 800 0200 0120     		mov	r0, #1
 801 0202 FFF7FEFF 		bl	phase_Write
 802              	.LVL112:
 803              	.L52:
 261:main.c        ****             if(output>4095) output=4095;
 804              		.loc 1 261 0
 805 0206 2412     		asr	r4, r4, #8
 806              	.LVL113:
 262:main.c        ****             output-=duty_reduce;
 807              		.loc 1 262 0
 808 0208 5B4B     		ldr	r3, .L80+48
 809 020a 9C42     		cmp	r4, r3
 810 020c 00DD     		ble	.L54
 811 020e 1C1C     		mov	r4, r3
 812              	.LVL114:
 813              	.L54:
 263:main.c        ****             if(output<1) output=1;
 814              		.loc 1 263 0
 815 0210 28B2     		sxth	r0, r5
 816 0212 201A     		sub	r0, r4, r0
 817              	.LVL115:
 264:main.c        ****             if(motor_shutdown) PWM_MOT_WriteCompare(1);
 818              		.loc 1 264 0
 819 0214 0028     		cmp	r0, #0
 820 0216 00DC     		bgt	.L55
 821 0218 0120     		mov	r0, #1
 822              	.LVL116:
 823              	.L55:
 265:main.c        ****             else PWM_MOT_WriteCompare(output);
 824              		.loc 1 265 0
 825 021a 5346     		mov	r3, r10
 826 021c 002B     		cmp	r3, #0
 827 021e 03D0     		beq	.L56
 265:main.c        ****             else PWM_MOT_WriteCompare(output);
 828              		.loc 1 265 0 is_stmt 0 discriminator 1
 829 0220 0120     		mov	r0, #1
 830              	.LVL117:
 831 0222 FFF7FEFF 		bl	PWM_MOT_WriteCompare
 832              	.LVL118:
 833 0226 01E0     		b	.L49
 834              	.LVL119:
 835              	.L56:
 266:main.c        ****         }
 836              		.loc 1 266 0 is_stmt 1
 837 0228 FFF7FEFF 		bl	PWM_MOT_WriteCompare
 838              	.LVL120:
 839              	.L49:
 271:main.c        ****             command_type=command_parser[0];
 840              		.loc 1 271 0
 841 022c 534B     		ldr	r3, .L80+52
 842 022e 1B78     		ldrb	r3, [r3]
 843 0230 012B     		cmp	r3, #1
 844 0232 66D1     		bne	.L57
 272:main.c        ****             for(int i=0; i<5; i++) command_local[i]=command_parser[i+1];
 845              		.loc 1 272 0
 846 0234 524B     		ldr	r3, .L80+56
ARM GAS  C:\Users\g\AppData\Local\Temp\ccrbIUhB.s 			page 26


 847 0236 1C78     		ldrb	r4, [r3]
 848 0238 E4B2     		uxtb	r4, r4
 849              	.LVL121:
 850              	.LBB4:
 273:main.c        ****             command_value=atoi(command_local);
 851              		.loc 1 273 0
 852 023a 0023     		mov	r3, #0
 853 023c 05E0     		b	.L58
 854              	.LVL122:
 855              	.L59:
 273:main.c        ****             command_value=atoi(command_local);
 856              		.loc 1 273 0 is_stmt 0 discriminator 3
 857 023e 5A1C     		add	r2, r3, #1
 858 0240 4F49     		ldr	r1, .L80+56
 859 0242 895C     		ldrb	r1, [r1, r2]
 860 0244 02A8     		add	r0, sp, #8
 861 0246 C154     		strb	r1, [r0, r3]
 862              	.LVL123:
 863 0248 131C     		mov	r3, r2
 864              	.LVL124:
 865              	.L58:
 273:main.c        ****             command_value=atoi(command_local);
 866              		.loc 1 273 0 discriminator 1
 867 024a 042B     		cmp	r3, #4
 868 024c F7DD     		ble	.L59
 869              	.LBE4:
 274:main.c        ****             switch(command_type) {
 870              		.loc 1 274 0 is_stmt 1
 871 024e 02A8     		add	r0, sp, #8
 872 0250 FFF7FEFF 		bl	atoi
 873              	.LVL125:
 874 0254 02AB     		add	r3, sp, #8
 875 0256 D880     		strh	r0, [r3, #6]
 275:main.c        ****                 //PID coefficients
 876              		.loc 1 275 0
 877 0258 2B3C     		sub	r4, r4, #43
 878              	.LVL126:
 879 025a E3B2     		uxtb	r3, r4
 880 025c 4A2B     		cmp	r3, #74
 881 025e 4DD8     		bhi	.L60
 882 0260 9C00     		lsl	r4, r3, #2
 883              	.LVL127:
 884 0262 484B     		ldr	r3, .L80+60
 885 0264 1B59     		ldr	r3, [r3, r4]
 886 0266 9F46     		mov	pc, r3
 887              		.section	.rodata
 888              		.align	2
 889              	.L62:
 890 0000 D6020000 		.word	.L61
 891 0004 FC020000 		.word	.L60
 892 0008 EA020000 		.word	.L63
 893 000c FC020000 		.word	.L60
 894 0010 FC020000 		.word	.L60
 895 0014 FC020000 		.word	.L60
 896 0018 FC020000 		.word	.L60
 897 001c FC020000 		.word	.L60
 898 0020 FC020000 		.word	.L60
ARM GAS  C:\Users\g\AppData\Local\Temp\ccrbIUhB.s 			page 27


 899 0024 FC020000 		.word	.L60
 900 0028 FC020000 		.word	.L60
 901 002c FC020000 		.word	.L60
 902 0030 FC020000 		.word	.L60
 903 0034 FC020000 		.word	.L60
 904 0038 FC020000 		.word	.L60
 905 003c FC020000 		.word	.L60
 906 0040 FC020000 		.word	.L60
 907 0044 FC020000 		.word	.L60
 908 0048 FC020000 		.word	.L60
 909 004c FC020000 		.word	.L60
 910 0050 FC020000 		.word	.L60
 911 0054 FC020000 		.word	.L60
 912 0058 FC020000 		.word	.L60
 913 005c FC020000 		.word	.L60
 914 0060 FC020000 		.word	.L60
 915 0064 FC020000 		.word	.L60
 916 0068 FC020000 		.word	.L60
 917 006c FC020000 		.word	.L60
 918 0070 FC020000 		.word	.L60
 919 0074 FC020000 		.word	.L60
 920 0078 FC020000 		.word	.L60
 921 007c FC020000 		.word	.L60
 922 0080 FC020000 		.word	.L60
 923 0084 FC020000 		.word	.L60
 924 0088 FC020000 		.word	.L60
 925 008c FC020000 		.word	.L60
 926 0090 FC020000 		.word	.L60
 927 0094 FC020000 		.word	.L60
 928 0098 FC020000 		.word	.L60
 929 009c FC020000 		.word	.L60
 930 00a0 FC020000 		.word	.L60
 931 00a4 FC020000 		.word	.L60
 932 00a8 FC020000 		.word	.L60
 933 00ac FC020000 		.word	.L60
 934 00b0 FC020000 		.word	.L60
 935 00b4 FC020000 		.word	.L60
 936 00b8 FC020000 		.word	.L60
 937 00bc FC020000 		.word	.L60
 938 00c0 FC020000 		.word	.L60
 939 00c4 FC020000 		.word	.L60
 940 00c8 FC020000 		.word	.L60
 941 00cc FC020000 		.word	.L60
 942 00d0 FC020000 		.word	.L60
 943 00d4 FC020000 		.word	.L60
 944 00d8 FC020000 		.word	.L60
 945 00dc FC020000 		.word	.L60
 946 00e0 98020000 		.word	.L64
 947 00e4 88020000 		.word	.L65
 948 00e8 FC020000 		.word	.L60
 949 00ec B8020000 		.word	.L66
 950 00f0 FC020000 		.word	.L60
 951 00f4 FC020000 		.word	.L60
 952 00f8 78020000 		.word	.L67
 953 00fc FC020000 		.word	.L60
 954 0100 FC020000 		.word	.L60
 955 0104 FC020000 		.word	.L60
ARM GAS  C:\Users\g\AppData\Local\Temp\ccrbIUhB.s 			page 28


 956 0108 FC020000 		.word	.L60
 957 010c FC020000 		.word	.L60
 958 0110 FC020000 		.word	.L60
 959 0114 68020000 		.word	.L68
 960 0118 FC020000 		.word	.L60
 961 011c A8020000 		.word	.L69
 962 0120 FC020000 		.word	.L60
 963 0124 FC020000 		.word	.L60
 964 0128 C6020000 		.word	.L70
 965              		.section	.text.main
 966              	.L68:
 278:main.c        ****                 break;
 967              		.loc 1 278 0
 968 0268 02AB     		add	r3, sp, #8
 969 026a 981D     		add	r0, r3, #6
 970 026c 3B49     		ldr	r1, .L80+20
 971 026e 0231     		add	r1, r1, #2
 972 0270 0222     		mov	r2, #2
 973 0272 FFF7FEFF 		bl	EEPROM_Write
 974              	.LVL128:
 279:main.c        ****                 case 'i':
 975              		.loc 1 279 0
 976 0276 41E0     		b	.L60
 977              	.L67:
 281:main.c        ****                 break;
 978              		.loc 1 281 0
 979 0278 02AB     		add	r3, sp, #8
 980 027a 981D     		add	r0, r3, #6
 981 027c 3749     		ldr	r1, .L80+20
 982 027e 0431     		add	r1, r1, #4
 983 0280 0222     		mov	r2, #2
 984 0282 FFF7FEFF 		bl	EEPROM_Write
 985              	.LVL129:
 282:main.c        ****                 case 'd':
 986              		.loc 1 282 0
 987 0286 39E0     		b	.L60
 988              	.L65:
 284:main.c        ****                 break;
 989              		.loc 1 284 0
 990 0288 02AB     		add	r3, sp, #8
 991 028a 981D     		add	r0, r3, #6
 992 028c 3349     		ldr	r1, .L80+20
 993 028e 0631     		add	r1, r1, #6
 994 0290 0222     		mov	r2, #2
 995 0292 FFF7FEFF 		bl	EEPROM_Write
 996              	.LVL130:
 285:main.c        ****                 //current limit value
 997              		.loc 1 285 0
 998 0296 31E0     		b	.L60
 999              	.L64:
 288:main.c        ****                 break;
 1000              		.loc 1 288 0
 1001 0298 02AB     		add	r3, sp, #8
 1002 029a 981D     		add	r0, r3, #6
 1003 029c 2F49     		ldr	r1, .L80+20
 1004 029e 0131     		add	r1, r1, #1
 1005 02a0 0122     		mov	r2, #1
ARM GAS  C:\Users\g\AppData\Local\Temp\ccrbIUhB.s 			page 29


 1006 02a2 FFF7FEFF 		bl	EEPROM_Write
 1007              	.LVL131:
 289:main.c        ****                 //motor direction of rotation flag
 1008              		.loc 1 289 0
 1009 02a6 29E0     		b	.L60
 1010              	.L69:
 292:main.c        ****                 break;
 1011              		.loc 1 292 0
 1012 02a8 02AB     		add	r3, sp, #8
 1013 02aa 981D     		add	r0, r3, #6
 1014 02ac 2B49     		ldr	r1, .L80+20
 1015 02ae 0831     		add	r1, r1, #8
 1016 02b0 0122     		mov	r2, #1
 1017 02b2 FFF7FEFF 		bl	EEPROM_Write
 1018              	.LVL132:
 293:main.c        ****                 //maximum allowable following error
 1019              		.loc 1 293 0
 1020 02b6 21E0     		b	.L60
 1021              	.L66:
 296:main.c        ****                 break;
 1022              		.loc 1 296 0
 1023 02b8 02AB     		add	r3, sp, #8
 1024 02ba 981D     		add	r0, r3, #6
 1025 02bc 2749     		ldr	r1, .L80+20
 1026 02be 0122     		mov	r2, #1
 1027 02c0 FFF7FEFF 		bl	EEPROM_Write
 1028              	.LVL133:
 297:main.c        ****                 //transmit diagnostic data flag
 1029              		.loc 1 297 0
 1030 02c4 1AE0     		b	.L60
 1031              	.L70:
 300:main.c        ****                 break;
 1032              		.loc 1 300 0
 1033 02c6 02AB     		add	r3, sp, #8
 1034 02c8 981D     		add	r0, r3, #6
 1035 02ca 2449     		ldr	r1, .L80+20
 1036 02cc 0931     		add	r1, r1, #9
 1037 02ce 0122     		mov	r2, #1
 1038 02d0 FFF7FEFF 		bl	EEPROM_Write
 1039              	.LVL134:
 301:main.c        ****                 //move motor
 1040              		.loc 1 301 0
 1041 02d4 12E0     		b	.L60
 1042              	.L61:
 304:main.c        ****                 break;
 1043              		.loc 1 304 0
 1044 02d6 FFF7FEFF 		bl	Counter_1_ReadCounter
 1045              	.LVL135:
 1046 02da 02AB     		add	r3, sp, #8
 1047 02dc 0633     		add	r3, r3, #6
 1048 02de 1B88     		ldrh	r3, [r3]
 1049 02e0 C018     		add	r0, r0, r3
 1050 02e2 80B2     		uxth	r0, r0
 1051 02e4 FFF7FEFF 		bl	Counter_1_WriteCounter
 1052              	.LVL136:
 305:main.c        ****                 case '-':
 1053              		.loc 1 305 0
ARM GAS  C:\Users\g\AppData\Local\Temp\ccrbIUhB.s 			page 30


 1054 02e8 08E0     		b	.L60
 1055              	.L63:
 307:main.c        ****                 break;
 1056              		.loc 1 307 0
 1057 02ea FFF7FEFF 		bl	Counter_1_ReadCounter
 1058              	.LVL137:
 1059 02ee 02AB     		add	r3, sp, #8
 1060 02f0 0633     		add	r3, r3, #6
 1061 02f2 1B88     		ldrh	r3, [r3]
 1062 02f4 C01A     		sub	r0, r0, r3
 1063 02f6 80B2     		uxth	r0, r0
 1064 02f8 FFF7FEFF 		bl	Counter_1_WriteCounter
 1065              	.LVL138:
 1066              	.L60:
 310:main.c        ****         }
 1067              		.loc 1 310 0
 1068 02fc 0022     		mov	r2, #0
 1069 02fe 1F4B     		ldr	r3, .L80+52
 1070 0300 1A70     		strb	r2, [r3]
 1071              	.L57:
 313:main.c        ****         {
 1072              		.loc 1 313 0
 1073 0302 FFF7FEFF 		bl	transmitting
 1074              	.LVL139:
 1075 0306 0028     		cmp	r0, #0
 1076 0308 0ED1     		bne	.L71
 316:main.c        ****             fast_itoa(current_tx, 10*millivolts);
 1077              		.loc 1 316 0
 1078 030a 0099     		ldr	r1, [sp]
 1079 030c F531     		add	r1, r1, #245
 1080 030e FF31     		add	r1, r1, #255
 1081 0310 09B2     		sxth	r1, r1
 1082 0312 1D48     		ldr	r0, .L80+64
 1083 0314 FFF7FEFF 		bl	fast_itoa
 1084              	.LVL140:
 317:main.c        ****         }
 1085              		.loc 1 317 0
 1086 0318 4B46     		mov	r3, r9
 1087 031a 9B00     		lsl	r3, r3, #2
 1088 031c 4B44     		add	r3, r3, r9
 1089 031e 5900     		lsl	r1, r3, #1
 1090 0320 09B2     		sxth	r1, r1
 1091 0322 1A48     		ldr	r0, .L80+68
 1092 0324 FFF7FEFF 		bl	fast_itoa
 1093              	.LVL141:
 1094              	.L71:
 321:main.c        ****             transmit_ready = 0; 
 1095              		.loc 1 321 0
 1096 0328 194B     		ldr	r3, .L80+72
 1097 032a 1B78     		ldrb	r3, [r3]
 1098 032c 002B     		cmp	r3, #0
 1099 032e 00D1     		bne	.LCB1048
 1100 0330 A1E6     		b	.L72	@long jump
 1101              	.LCB1048:
 322:main.c        ****             if(*eeprom_uart_data) {
 1102              		.loc 1 322 0
 1103 0332 0022     		mov	r2, #0
ARM GAS  C:\Users\g\AppData\Local\Temp\ccrbIUhB.s 			page 31


 1104 0334 164B     		ldr	r3, .L80+72
 1105 0336 1A70     		strb	r2, [r3]
 323:main.c        ****                 transmit_data();
 1106              		.loc 1 323 0
 1107 0338 084B     		ldr	r3, .L80+20
 1108 033a 5B7A     		ldrb	r3, [r3, #9]
 1109 033c 002B     		cmp	r3, #0
 1110 033e 00D1     		bne	.LCB1056
 1111 0340 99E6     		b	.L72	@long jump
 1112              	.LCB1056:
 324:main.c        ****             }
 1113              		.loc 1 324 0
 1114 0342 FFF7FEFF 		bl	transmit_data
 1115              	.LVL142:
 1116 0346 96E6     		b	.L72
 1117              	.L81:
 1118              		.align	2
 1119              	.L80:
 1120 0348 00000000 		.word	uartReceiveTransmit
 1121 034c 880F0740 		.word	1074204552
 1122 0350 00000000 		.word	transmitUpdate
 1123 0354 00000000 		.word	pwmCycle
 1124 0358 00000000 		.word	loop_proceed
 1125 035c 44010000 		.word	.LANCHOR1
 1126 0360 00000000 		.word	timeout_counter
 1127 0364 CF070000 		.word	1999
 1128 0368 FE0F0000 		.word	4094
 1129 036c 10270000 		.word	10000
 1130 0370 F0D8FFFF 		.word	-10000
 1131 0374 F0D80000 		.word	55536
 1132 0378 FF0F0000 		.word	4095
 1133 037c 00000000 		.word	command_ready
 1134 0380 00000000 		.word	command_parser
 1135 0384 00000000 		.word	.L62
 1136 0388 00000000 		.word	error_tx
 1137 038c 00000000 		.word	current_tx
 1138 0390 00000000 		.word	transmit_ready
 1139              		.cfi_endproc
 1140              	.LFE36:
 1141              		.size	main, .-main
 1142              		.section	.text.transmit_engine,"ax",%progbits
 1143              		.align	2
 1144              		.global	transmit_engine
 1145              		.code	16
 1146              		.thumb_func
 1147              		.type	transmit_engine, %function
 1148              	transmit_engine:
 1149              	.LFB39:
 350:main.c        ****     char c;
 1150              		.loc 1 350 0
 1151              		.cfi_startproc
 1152 0000 10B5     		push	{r4, lr}
 1153              		.cfi_def_cfa_offset 8
 1154              		.cfi_offset 4, -8
 1155              		.cfi_offset 14, -4
 352:main.c        ****     {
 1156              		.loc 1 352 0
ARM GAS  C:\Users\g\AppData\Local\Temp\ccrbIUhB.s 			page 32


 1157 0002 2A4B     		ldr	r3, .L92
 1158 0004 1B78     		ldrb	r3, [r3]
 1159 0006 DBB2     		uxtb	r3, r3
 1160 0008 052B     		cmp	r3, #5
 1161 000a 4DD8     		bhi	.L82
 1162 000c 9B00     		lsl	r3, r3, #2
 1163 000e 284A     		ldr	r2, .L92+4
 1164 0010 D358     		ldr	r3, [r2, r3]
 1165 0012 9F46     		mov	pc, r3
 1166              		.section	.rodata
 1167              		.align	2
 1168              	.L85:
 1169 012c A8000000 		.word	.L82
 1170 0130 14000000 		.word	.L84
 1171 0134 26000000 		.word	.L86
 1172 0138 56000000 		.word	.L87
 1173 013c 68000000 		.word	.L88
 1174 0140 98000000 		.word	.L89
 1175              		.section	.text.transmit_engine
 1176              	.L84:
 357:main.c        ****         UART_UartPutChar('$');
 1177              		.loc 1 357 0
 1178 0014 254A     		ldr	r2, .L92
 1179 0016 1378     		ldrb	r3, [r2]
 1180 0018 0133     		add	r3, r3, #1
 1181 001a DBB2     		uxtb	r3, r3
 1182 001c 1370     		strb	r3, [r2]
 358:main.c        ****         break;
 1183              		.loc 1 358 0
 1184 001e 2420     		mov	r0, #36
 1185 0020 FFF7FEFF 		bl	UART_SpiUartWriteTxData
 1186              	.LVL143:
 359:main.c        ****     case 2:
 1187              		.loc 1 359 0
 1188 0024 40E0     		b	.L82
 1189              	.L86:
 362:main.c        ****         {
 1190              		.loc 1 362 0
 1191 0026 234B     		ldr	r3, .L92+8
 1192 0028 1B68     		ldr	r3, [r3]
 1193 002a 052B     		cmp	r3, #5
 1194 002c 0AD8     		bhi	.L90
 364:main.c        ****             UART_UartPutChar(c);
 1195              		.loc 1 364 0
 1196 002e 214C     		ldr	r4, .L92+8
 1197 0030 2368     		ldr	r3, [r4]
 1198 0032 214A     		ldr	r2, .L92+12
 1199 0034 D05C     		ldrb	r0, [r2, r3]
 1200 0036 C0B2     		uxtb	r0, r0
 1201              	.LVL144:
 365:main.c        ****             transmit_index++;
 1202              		.loc 1 365 0
 1203 0038 FFF7FEFF 		bl	UART_SpiUartWriteTxData
 1204              	.LVL145:
 366:main.c        ****         }
 1205              		.loc 1 366 0
 1206 003c 2368     		ldr	r3, [r4]
ARM GAS  C:\Users\g\AppData\Local\Temp\ccrbIUhB.s 			page 33


 1207 003e 0133     		add	r3, r3, #1
 1208 0040 2360     		str	r3, [r4]
 1209 0042 31E0     		b	.L82
 1210              	.L90:
 370:main.c        ****             transmit_state++;
 1211              		.loc 1 370 0
 1212 0044 0022     		mov	r2, #0
 1213 0046 1B4B     		ldr	r3, .L92+8
 1214 0048 1A60     		str	r2, [r3]
 371:main.c        ****         }
 1215              		.loc 1 371 0
 1216 004a 184A     		ldr	r2, .L92
 1217 004c 1378     		ldrb	r3, [r2]
 1218 004e 0133     		add	r3, r3, #1
 1219 0050 DBB2     		uxtb	r3, r3
 1220 0052 1370     		strb	r3, [r2]
 1221 0054 28E0     		b	.L82
 1222              	.L87:
 375:main.c        ****         UART_UartPutChar(' ');
 1223              		.loc 1 375 0
 1224 0056 154A     		ldr	r2, .L92
 1225 0058 1378     		ldrb	r3, [r2]
 1226 005a 0133     		add	r3, r3, #1
 1227 005c DBB2     		uxtb	r3, r3
 1228 005e 1370     		strb	r3, [r2]
 376:main.c        ****         break;
 1229              		.loc 1 376 0
 1230 0060 2020     		mov	r0, #32
 1231 0062 FFF7FEFF 		bl	UART_SpiUartWriteTxData
 1232              	.LVL146:
 377:main.c        ****     case 4:
 1233              		.loc 1 377 0
 1234 0066 1FE0     		b	.L82
 1235              	.L88:
 380:main.c        ****         {
 1236              		.loc 1 380 0
 1237 0068 124B     		ldr	r3, .L92+8
 1238 006a 1B68     		ldr	r3, [r3]
 1239 006c 052B     		cmp	r3, #5
 1240 006e 0AD8     		bhi	.L91
 382:main.c        ****             UART_UartPutChar(c);
 1241              		.loc 1 382 0
 1242 0070 104C     		ldr	r4, .L92+8
 1243 0072 2368     		ldr	r3, [r4]
 1244 0074 114A     		ldr	r2, .L92+16
 1245 0076 D05C     		ldrb	r0, [r2, r3]
 1246 0078 C0B2     		uxtb	r0, r0
 1247              	.LVL147:
 383:main.c        ****             transmit_index++;
 1248              		.loc 1 383 0
 1249 007a FFF7FEFF 		bl	UART_SpiUartWriteTxData
 1250              	.LVL148:
 384:main.c        ****         }
 1251              		.loc 1 384 0
 1252 007e 2368     		ldr	r3, [r4]
 1253 0080 0133     		add	r3, r3, #1
 1254 0082 2360     		str	r3, [r4]
ARM GAS  C:\Users\g\AppData\Local\Temp\ccrbIUhB.s 			page 34


 1255 0084 10E0     		b	.L82
 1256              	.L91:
 388:main.c        ****             transmit_state++;
 1257              		.loc 1 388 0
 1258 0086 0022     		mov	r2, #0
 1259 0088 0A4B     		ldr	r3, .L92+8
 1260 008a 1A60     		str	r2, [r3]
 389:main.c        ****         }
 1261              		.loc 1 389 0
 1262 008c 074A     		ldr	r2, .L92
 1263 008e 1378     		ldrb	r3, [r2]
 1264 0090 0133     		add	r3, r3, #1
 1265 0092 DBB2     		uxtb	r3, r3
 1266 0094 1370     		strb	r3, [r2]
 1267 0096 07E0     		b	.L82
 1268              	.L89:
 393:main.c        ****         UART_UartPutChar(';');
 1269              		.loc 1 393 0
 1270 0098 0024     		mov	r4, #0
 1271 009a 044B     		ldr	r3, .L92
 1272 009c 1C70     		strb	r4, [r3]
 394:main.c        ****         UART_SetTxInterruptMode(0);
 1273              		.loc 1 394 0
 1274 009e 3B20     		mov	r0, #59
 1275 00a0 FFF7FEFF 		bl	UART_SpiUartWriteTxData
 1276              	.LVL149:
 395:main.c        ****         break;      
 1277              		.loc 1 395 0
 1278 00a4 064B     		ldr	r3, .L92+20
 1279 00a6 1C60     		str	r4, [r3]
 1280              	.L82:
 398:main.c        **** 
 1281              		.loc 1 398 0
 1282              		@ sp needed
 1283 00a8 10BD     		pop	{r4, pc}
 1284              	.L93:
 1285 00aa C046     		.align	2
 1286              	.L92:
 1287 00ac 00000000 		.word	.LANCHOR0
 1288 00b0 2C010000 		.word	.L85
 1289 00b4 00000000 		.word	transmit_index
 1290 00b8 00000000 		.word	error_tx
 1291 00bc 00000000 		.word	current_tx
 1292 00c0 880F0740 		.word	1074204552
 1293              		.cfi_endproc
 1294              	.LFE39:
 1295              		.size	transmit_engine, .-transmit_engine
 1296              		.section	.text.uartReceiveTransmit,"ax",%progbits
 1297              		.align	2
 1298              		.global	uartReceiveTransmit
 1299              		.code	16
 1300              		.thumb_func
 1301              		.type	uartReceiveTransmit, %function
 1302              	uartReceiveTransmit:
 1303              	.LFB40:
 402:main.c        ****     if ((UART_GetInterruptCause() == UART_INTR_CAUSE_RX) && 
 1304              		.loc 1 402 0
ARM GAS  C:\Users\g\AppData\Local\Temp\ccrbIUhB.s 			page 35


 1305              		.cfi_startproc
 1306 0000 08B5     		push	{r3, lr}
 1307              		.cfi_def_cfa_offset 8
 1308              		.cfi_offset 3, -8
 1309              		.cfi_offset 14, -4
 403:main.c        ****         (UART_GetRxInterruptSource() & UART_INTR_RX_NOT_EMPTY))
 1310              		.loc 1 403 0
 1311 0002 1D4B     		ldr	r3, .L99
 1312 0004 1B68     		ldr	r3, [r3]
 1313 0006 082B     		cmp	r3, #8
 1314 0008 28D1     		bne	.L95
 404:main.c        ****     {
 1315              		.loc 1 404 0 discriminator 1
 1316 000a 1C4B     		ldr	r3, .L99+4
 1317 000c 1B68     		ldr	r3, [r3]
 403:main.c        ****         (UART_GetRxInterruptSource() & UART_INTR_RX_NOT_EMPTY))
 1318              		.loc 1 403 0 discriminator 1
 1319 000e 5B07     		lsl	r3, r3, #29
 1320 0010 24D5     		bpl	.L95
 1321              	.LBB5:
 406:main.c        ****         if (c == ';')
 1322              		.loc 1 406 0
 1323 0012 FFF7FEFF 		bl	UART_UartGetChar
 1324              	.LVL150:
 1325 0016 C0B2     		uxtb	r0, r0
 1326              	.LVL151:
 407:main.c        ****         {
 1327              		.loc 1 407 0
 1328 0018 3B28     		cmp	r0, #59
 1329 001a 0AD1     		bne	.L96
 409:main.c        ****             command_index=0;
 1330              		.loc 1 409 0
 1331 001c 184A     		ldr	r2, .L99+8
 1332 001e 1378     		ldrb	r3, [r2]
 1333 0020 DBB2     		uxtb	r3, r3
 1334 0022 1849     		ldr	r1, .L99+12
 1335 0024 C854     		strb	r0, [r1, r3]
 410:main.c        ****             command_ready=1;
 1336              		.loc 1 410 0
 1337 0026 0023     		mov	r3, #0
 1338 0028 1370     		strb	r3, [r2]
 411:main.c        ****         }
 1339              		.loc 1 411 0
 1340 002a 0122     		mov	r2, #1
 1341 002c 164B     		ldr	r3, .L99+16
 1342 002e 1A70     		strb	r2, [r3]
 1343 0030 10E0     		b	.L97
 1344              	.L96:
 413:main.c        ****         {
 1345              		.loc 1 413 0
 1346 0032 134B     		ldr	r3, .L99+8
 1347 0034 1B78     		ldrb	r3, [r3]
 1348 0036 DBB2     		uxtb	r3, r3
 1349 0038 0E2B     		cmp	r3, #14
 1350 003a 0BD8     		bhi	.L97
 415:main.c        ****             command_index++;
 1351              		.loc 1 415 0
ARM GAS  C:\Users\g\AppData\Local\Temp\ccrbIUhB.s 			page 36


 1352 003c 104A     		ldr	r2, .L99+8
 1353 003e 1378     		ldrb	r3, [r2]
 1354 0040 DBB2     		uxtb	r3, r3
 1355 0042 1049     		ldr	r1, .L99+12
 1356 0044 C854     		strb	r0, [r1, r3]
 416:main.c        ****             command_ready=0;
 1357              		.loc 1 416 0
 1358 0046 1378     		ldrb	r3, [r2]
 1359 0048 0133     		add	r3, r3, #1
 1360 004a DBB2     		uxtb	r3, r3
 1361 004c 1370     		strb	r3, [r2]
 417:main.c        ****         }
 1362              		.loc 1 417 0
 1363 004e 0022     		mov	r2, #0
 1364 0050 0D4B     		ldr	r3, .L99+16
 1365 0052 1A70     		strb	r2, [r3]
 1366              	.L97:
 419:main.c        ****     }
 1367              		.loc 1 419 0
 1368 0054 0422     		mov	r2, #4
 1369 0056 094B     		ldr	r3, .L99+4
 1370 0058 1A60     		str	r2, [r3]
 1371              	.LBE5:
 405:main.c        ****         char c = UART_UartGetChar();
 1372              		.loc 1 405 0
 1373 005a 0CE0     		b	.L94
 1374              	.LVL152:
 1375              	.L95:
 421:main.c        ****             (UART_GetTxInterruptSource() & UART_INTR_TX_NOT_FULL))
 1376              		.loc 1 421 0
 1377 005c 064B     		ldr	r3, .L99
 1378 005e 1B68     		ldr	r3, [r3]
 1379 0060 042B     		cmp	r3, #4
 1380 0062 08D1     		bne	.L94
 422:main.c        ****     {
 1381              		.loc 1 422 0 discriminator 1
 1382 0064 094B     		ldr	r3, .L99+20
 1383 0066 1B68     		ldr	r3, [r3]
 421:main.c        ****             (UART_GetTxInterruptSource() & UART_INTR_TX_NOT_FULL))
 1384              		.loc 1 421 0 discriminator 1
 1385 0068 9B07     		lsl	r3, r3, #30
 1386 006a 04D5     		bpl	.L94
 424:main.c        ****         UART_ClearTxInterruptSource(UART_INTR_TX_NOT_FULL);
 1387              		.loc 1 424 0
 1388 006c FFF7FEFF 		bl	transmit_engine
 1389              	.LVL153:
 425:main.c        ****     }
 1390              		.loc 1 425 0
 1391 0070 0222     		mov	r2, #2
 1392 0072 064B     		ldr	r3, .L99+20
 1393 0074 1A60     		str	r2, [r3]
 1394              	.L94:
 427:main.c        **** 
 1395              		.loc 1 427 0
 1396              		@ sp needed
 1397 0076 08BD     		pop	{r3, pc}
 1398              	.L100:
ARM GAS  C:\Users\g\AppData\Local\Temp\ccrbIUhB.s 			page 37


 1399              		.align	2
 1400              	.L99:
 1401 0078 000E0740 		.word	1074204160
 1402 007c C00F0740 		.word	1074204608
 1403 0080 00000000 		.word	command_index
 1404 0084 00000000 		.word	command_parser
 1405 0088 00000000 		.word	command_ready
 1406 008c 800F0740 		.word	1074204544
 1407              		.cfi_endproc
 1408              	.LFE40:
 1409              		.size	uartReceiveTransmit, .-uartReceiveTransmit
 1410              		.comm	transmit_index,4,4
 1411              		.global	transmit_state
 1412              		.comm	error_tx,7,4
 1413              		.comm	current_tx,7,4
 1414              		.comm	command_parser,16,4
 1415              		.comm	loop_proceed,1,1
 1416              		.comm	transmit_ready,1,1
 1417              		.comm	command_index,1,1
 1418              		.comm	command_ready,1,1
 1419              		.comm	timeout_counter,2,2
 1420              		.section	.rodata
 1421              		.align	1
 1422              		.set	.LANCHOR1,. + 0
 1423              		.type	ferror.6328, %object
 1424              		.size	ferror.6328, 1
 1425              	ferror.6328:
 1426 0144 FF       		.byte	-1
 1427              		.type	current_setting.6326, %object
 1428              		.size	current_setting.6326, 1
 1429              	current_setting.6326:
 1430 0145 FF       		.byte	-1
 1431              		.type	kp.6323, %object
 1432              		.size	kp.6323, 2
 1433              	kp.6323:
 1434 0146 C409     		.short	2500
 1435              		.type	ki.6324, %object
 1436              		.size	ki.6324, 2
 1437              	ki.6324:
 1438 0148 0000     		.space	2
 1439              		.type	kd.6325, %object
 1440              		.size	kd.6325, 2
 1441              	kd.6325:
 1442 014a 0000     		.space	2
 1443              		.type	invert_motor.6327, %object
 1444              		.size	invert_motor.6327, 1
 1445              	invert_motor.6327:
 1446 014c 00       		.space	1
 1447              		.type	uart_data.6329, %object
 1448              		.size	uart_data.6329, 1
 1449              	uart_data.6329:
 1450 014d 01       		.byte	1
 1451 014e 0000     		.bss
 1452              		.set	.LANCHOR0,. + 0
 1453              		.type	transmit_state, %object
 1454              		.size	transmit_state, 1
 1455              	transmit_state:
ARM GAS  C:\Users\g\AppData\Local\Temp\ccrbIUhB.s 			page 38


 1456 0000 00       		.space	1
 1457              		.text
 1458              	.Letext0:
 1459              		.file 2 "c:\\program files (x86)\\cypress\\psoc creator\\4.0\\psoc creator\\import\\gnu\\arm\\4.9.
 1460              		.file 3 "c:\\program files (x86)\\cypress\\psoc creator\\4.0\\psoc creator\\import\\gnu\\arm\\4.9.
 1461              		.file 4 "Generated_Source\\PSoC4/cytypes.h"
 1462              		.file 5 "c:\\program files (x86)\\cypress\\psoc creator\\4.0\\psoc creator\\import\\gnu\\arm\\4.9.
 1463              		.file 6 "Generated_Source\\PSoC4/PWM_MOT.h"
 1464              		.file 7 "Generated_Source\\PSoC4/error.h"
 1465              		.file 8 "Generated_Source\\PSoC4/txISR.h"
 1466              		.file 9 "Generated_Source\\PSoC4/Counter_1.h"
 1467              		.file 10 "Generated_Source\\PSoC4/UART.h"
 1468              		.file 11 "Generated_Source\\PSoC4/ADC.h"
 1469              		.file 12 "Generated_Source\\PSoC4/TX_SEND.h"
 1470              		.file 13 "Generated_Source\\PSoC4/EEPROM.h"
 1471              		.file 14 "Generated_Source\\PSoC4/sleep.h"
 1472              		.file 15 "Generated_Source\\PSoC4/rxISR.h"
 1473              		.file 16 "Generated_Source\\PSoC4/pwmISR.h"
 1474              		.file 17 "Generated_Source\\PSoC4/CyLib.h"
 1475              		.file 18 "Generated_Source\\PSoC4/vin.h"
 1476              		.file 19 "Generated_Source\\PSoC4/err.h"
 1477              		.file 20 "Generated_Source\\PSoC4/fault.h"
 1478              		.file 21 "Generated_Source\\PSoC4/ovc.h"
 1479              		.file 22 "Generated_Source\\PSoC4/reset.h"
 1480              		.file 23 "Generated_Source\\PSoC4/phase.h"
 1481              		.file 24 "c:\\program files (x86)\\cypress\\psoc creator\\4.0\\psoc creator\\import\\gnu\\arm\\4.9
 1482              		.file 25 "Generated_Source\\PSoC4/UART_SPI_UART.h"