ARM GAS  C:\Users\g\AppData\Local\Temp\ccAVeCE4.s 			page 1


   1              		.cpu cortex-m0
   2              		.fpu softvfp
   3              		.eabi_attribute 20, 1
   4              		.eabi_attribute 21, 1
   5              		.eabi_attribute 23, 3
   6              		.eabi_attribute 24, 1
   7              		.eabi_attribute 25, 1
   8              		.eabi_attribute 26, 1
   9              		.eabi_attribute 30, 1
  10              		.eabi_attribute 34, 0
  11              		.eabi_attribute 18, 4
  12              		.code	16
  13              		.file	"pwmISR.c"
  14              		.text
  15              	.Ltext0:
  16              		.cfi_sections	.debug_frame
  17              		.section	.text.pwmISR_Interrupt,"ax",%progbits
  18              		.align	2
  19              		.global	pwmISR_Interrupt
  20              		.code	16
  21              		.thumb_func
  22              		.type	pwmISR_Interrupt, %function
  23              	pwmISR_Interrupt:
  24              	.LFB3:
  25              		.file 1 "Generated_Source\\PSoC4\\pwmISR.c"
   1:Generated_Source\PSoC4/pwmISR.c **** /*******************************************************************************
   2:Generated_Source\PSoC4/pwmISR.c **** * File Name: pwmISR.c  
   3:Generated_Source\PSoC4/pwmISR.c **** * Version 1.70
   4:Generated_Source\PSoC4/pwmISR.c **** *
   5:Generated_Source\PSoC4/pwmISR.c **** *  Description:
   6:Generated_Source\PSoC4/pwmISR.c **** *   API for controlling the state of an interrupt.
   7:Generated_Source\PSoC4/pwmISR.c **** *
   8:Generated_Source\PSoC4/pwmISR.c **** *
   9:Generated_Source\PSoC4/pwmISR.c **** *  Note:
  10:Generated_Source\PSoC4/pwmISR.c **** *
  11:Generated_Source\PSoC4/pwmISR.c **** ********************************************************************************
  12:Generated_Source\PSoC4/pwmISR.c **** * Copyright 2008-2015, Cypress Semiconductor Corporation.  All rights reserved.
  13:Generated_Source\PSoC4/pwmISR.c **** * You may use this file only in accordance with the license, terms, conditions, 
  14:Generated_Source\PSoC4/pwmISR.c **** * disclaimers, and limitations in the end user license agreement accompanying 
  15:Generated_Source\PSoC4/pwmISR.c **** * the software package with which this file was provided.
  16:Generated_Source\PSoC4/pwmISR.c **** *******************************************************************************/
  17:Generated_Source\PSoC4/pwmISR.c **** 
  18:Generated_Source\PSoC4/pwmISR.c **** 
  19:Generated_Source\PSoC4/pwmISR.c **** #include <cydevice_trm.h>
  20:Generated_Source\PSoC4/pwmISR.c **** #include <CyLib.h>
  21:Generated_Source\PSoC4/pwmISR.c **** #include <pwmISR.h>
  22:Generated_Source\PSoC4/pwmISR.c **** #include "cyapicallbacks.h"
  23:Generated_Source\PSoC4/pwmISR.c **** 
  24:Generated_Source\PSoC4/pwmISR.c **** #if !defined(pwmISR__REMOVED) /* Check for removal by optimization */
  25:Generated_Source\PSoC4/pwmISR.c **** 
  26:Generated_Source\PSoC4/pwmISR.c **** /*******************************************************************************
  27:Generated_Source\PSoC4/pwmISR.c **** *  Place your includes, defines and code here 
  28:Generated_Source\PSoC4/pwmISR.c **** ********************************************************************************/
  29:Generated_Source\PSoC4/pwmISR.c **** /* `#START pwmISR_intc` */
  30:Generated_Source\PSoC4/pwmISR.c **** 
  31:Generated_Source\PSoC4/pwmISR.c **** /* `#END` */
  32:Generated_Source\PSoC4/pwmISR.c **** 
ARM GAS  C:\Users\g\AppData\Local\Temp\ccAVeCE4.s 			page 2


  33:Generated_Source\PSoC4/pwmISR.c **** extern cyisraddress CyRamVectors[CYINT_IRQ_BASE + CY_NUM_INTERRUPTS];
  34:Generated_Source\PSoC4/pwmISR.c **** 
  35:Generated_Source\PSoC4/pwmISR.c **** /* Declared in startup, used to set unused interrupts to. */
  36:Generated_Source\PSoC4/pwmISR.c **** CY_ISR_PROTO(IntDefaultHandler);
  37:Generated_Source\PSoC4/pwmISR.c **** 
  38:Generated_Source\PSoC4/pwmISR.c **** 
  39:Generated_Source\PSoC4/pwmISR.c **** /*******************************************************************************
  40:Generated_Source\PSoC4/pwmISR.c **** * Function Name: pwmISR_Start
  41:Generated_Source\PSoC4/pwmISR.c **** ********************************************************************************
  42:Generated_Source\PSoC4/pwmISR.c **** *
  43:Generated_Source\PSoC4/pwmISR.c **** * Summary:
  44:Generated_Source\PSoC4/pwmISR.c **** *  Set up the interrupt and enable it. This function disables the interrupt, 
  45:Generated_Source\PSoC4/pwmISR.c **** *  sets the default interrupt vector, sets the priority from the value in the
  46:Generated_Source\PSoC4/pwmISR.c **** *  Design Wide Resources Interrupt Editor, then enables the interrupt to the 
  47:Generated_Source\PSoC4/pwmISR.c **** *  interrupt controller.
  48:Generated_Source\PSoC4/pwmISR.c **** *
  49:Generated_Source\PSoC4/pwmISR.c **** * Parameters:  
  50:Generated_Source\PSoC4/pwmISR.c **** *   None
  51:Generated_Source\PSoC4/pwmISR.c **** *
  52:Generated_Source\PSoC4/pwmISR.c **** * Return:
  53:Generated_Source\PSoC4/pwmISR.c **** *   None
  54:Generated_Source\PSoC4/pwmISR.c **** *
  55:Generated_Source\PSoC4/pwmISR.c **** *******************************************************************************/
  56:Generated_Source\PSoC4/pwmISR.c **** void pwmISR_Start(void)
  57:Generated_Source\PSoC4/pwmISR.c **** {
  58:Generated_Source\PSoC4/pwmISR.c ****     /* For all we know the interrupt is active. */
  59:Generated_Source\PSoC4/pwmISR.c ****     pwmISR_Disable();
  60:Generated_Source\PSoC4/pwmISR.c **** 
  61:Generated_Source\PSoC4/pwmISR.c ****     /* Set the ISR to point to the pwmISR Interrupt. */
  62:Generated_Source\PSoC4/pwmISR.c ****     pwmISR_SetVector(&pwmISR_Interrupt);
  63:Generated_Source\PSoC4/pwmISR.c **** 
  64:Generated_Source\PSoC4/pwmISR.c ****     /* Set the priority. */
  65:Generated_Source\PSoC4/pwmISR.c ****     pwmISR_SetPriority((uint8)pwmISR_INTC_PRIOR_NUMBER);
  66:Generated_Source\PSoC4/pwmISR.c **** 
  67:Generated_Source\PSoC4/pwmISR.c ****     /* Enable it. */
  68:Generated_Source\PSoC4/pwmISR.c ****     pwmISR_Enable();
  69:Generated_Source\PSoC4/pwmISR.c **** }
  70:Generated_Source\PSoC4/pwmISR.c **** 
  71:Generated_Source\PSoC4/pwmISR.c **** 
  72:Generated_Source\PSoC4/pwmISR.c **** /*******************************************************************************
  73:Generated_Source\PSoC4/pwmISR.c **** * Function Name: pwmISR_StartEx
  74:Generated_Source\PSoC4/pwmISR.c **** ********************************************************************************
  75:Generated_Source\PSoC4/pwmISR.c **** *
  76:Generated_Source\PSoC4/pwmISR.c **** * Summary:
  77:Generated_Source\PSoC4/pwmISR.c **** *  Sets up the interrupt and enables it. This function disables the interrupt,
  78:Generated_Source\PSoC4/pwmISR.c **** *  sets the interrupt vector based on the address passed in, sets the priority 
  79:Generated_Source\PSoC4/pwmISR.c **** *  from the value in the Design Wide Resources Interrupt Editor, then enables 
  80:Generated_Source\PSoC4/pwmISR.c **** *  the interrupt to the interrupt controller.
  81:Generated_Source\PSoC4/pwmISR.c **** *  
  82:Generated_Source\PSoC4/pwmISR.c **** *  When defining ISR functions, the CY_ISR and CY_ISR_PROTO macros should be 
  83:Generated_Source\PSoC4/pwmISR.c **** *  used to provide consistent definition across compilers:
  84:Generated_Source\PSoC4/pwmISR.c **** *  
  85:Generated_Source\PSoC4/pwmISR.c **** *  Function definition example:
  86:Generated_Source\PSoC4/pwmISR.c **** *   CY_ISR(MyISR)
  87:Generated_Source\PSoC4/pwmISR.c **** *   {
  88:Generated_Source\PSoC4/pwmISR.c **** *   }
  89:Generated_Source\PSoC4/pwmISR.c **** *   Function prototype example:
ARM GAS  C:\Users\g\AppData\Local\Temp\ccAVeCE4.s 			page 3


  90:Generated_Source\PSoC4/pwmISR.c **** *   CY_ISR_PROTO(MyISR);
  91:Generated_Source\PSoC4/pwmISR.c **** *
  92:Generated_Source\PSoC4/pwmISR.c **** * Parameters:  
  93:Generated_Source\PSoC4/pwmISR.c **** *   address: Address of the ISR to set in the interrupt vector table.
  94:Generated_Source\PSoC4/pwmISR.c **** *
  95:Generated_Source\PSoC4/pwmISR.c **** * Return:
  96:Generated_Source\PSoC4/pwmISR.c **** *   None
  97:Generated_Source\PSoC4/pwmISR.c **** *
  98:Generated_Source\PSoC4/pwmISR.c **** *******************************************************************************/
  99:Generated_Source\PSoC4/pwmISR.c **** void pwmISR_StartEx(cyisraddress address)
 100:Generated_Source\PSoC4/pwmISR.c **** {
 101:Generated_Source\PSoC4/pwmISR.c ****     /* For all we know the interrupt is active. */
 102:Generated_Source\PSoC4/pwmISR.c ****     pwmISR_Disable();
 103:Generated_Source\PSoC4/pwmISR.c **** 
 104:Generated_Source\PSoC4/pwmISR.c ****     /* Set the ISR to point to the pwmISR Interrupt. */
 105:Generated_Source\PSoC4/pwmISR.c ****     pwmISR_SetVector(address);
 106:Generated_Source\PSoC4/pwmISR.c **** 
 107:Generated_Source\PSoC4/pwmISR.c ****     /* Set the priority. */
 108:Generated_Source\PSoC4/pwmISR.c ****     pwmISR_SetPriority((uint8)pwmISR_INTC_PRIOR_NUMBER);
 109:Generated_Source\PSoC4/pwmISR.c **** 
 110:Generated_Source\PSoC4/pwmISR.c ****     /* Enable it. */
 111:Generated_Source\PSoC4/pwmISR.c ****     pwmISR_Enable();
 112:Generated_Source\PSoC4/pwmISR.c **** }
 113:Generated_Source\PSoC4/pwmISR.c **** 
 114:Generated_Source\PSoC4/pwmISR.c **** 
 115:Generated_Source\PSoC4/pwmISR.c **** /*******************************************************************************
 116:Generated_Source\PSoC4/pwmISR.c **** * Function Name: pwmISR_Stop
 117:Generated_Source\PSoC4/pwmISR.c **** ********************************************************************************
 118:Generated_Source\PSoC4/pwmISR.c **** *
 119:Generated_Source\PSoC4/pwmISR.c **** * Summary:
 120:Generated_Source\PSoC4/pwmISR.c **** *   Disables and removes the interrupt.
 121:Generated_Source\PSoC4/pwmISR.c **** *
 122:Generated_Source\PSoC4/pwmISR.c **** * Parameters:  
 123:Generated_Source\PSoC4/pwmISR.c **** *   None
 124:Generated_Source\PSoC4/pwmISR.c **** *
 125:Generated_Source\PSoC4/pwmISR.c **** * Return:
 126:Generated_Source\PSoC4/pwmISR.c **** *   None
 127:Generated_Source\PSoC4/pwmISR.c **** *
 128:Generated_Source\PSoC4/pwmISR.c **** *******************************************************************************/
 129:Generated_Source\PSoC4/pwmISR.c **** void pwmISR_Stop(void)
 130:Generated_Source\PSoC4/pwmISR.c **** {
 131:Generated_Source\PSoC4/pwmISR.c ****     /* Disable this interrupt. */
 132:Generated_Source\PSoC4/pwmISR.c ****     pwmISR_Disable();
 133:Generated_Source\PSoC4/pwmISR.c **** 
 134:Generated_Source\PSoC4/pwmISR.c ****     /* Set the ISR to point to the passive one. */
 135:Generated_Source\PSoC4/pwmISR.c ****     pwmISR_SetVector(&IntDefaultHandler);
 136:Generated_Source\PSoC4/pwmISR.c **** }
 137:Generated_Source\PSoC4/pwmISR.c **** 
 138:Generated_Source\PSoC4/pwmISR.c **** 
 139:Generated_Source\PSoC4/pwmISR.c **** /*******************************************************************************
 140:Generated_Source\PSoC4/pwmISR.c **** * Function Name: pwmISR_Interrupt
 141:Generated_Source\PSoC4/pwmISR.c **** ********************************************************************************
 142:Generated_Source\PSoC4/pwmISR.c **** *
 143:Generated_Source\PSoC4/pwmISR.c **** * Summary:
 144:Generated_Source\PSoC4/pwmISR.c **** *   The default Interrupt Service Routine for pwmISR.
 145:Generated_Source\PSoC4/pwmISR.c **** *
 146:Generated_Source\PSoC4/pwmISR.c **** *   Add custom code between the START and END comments to keep the next version
ARM GAS  C:\Users\g\AppData\Local\Temp\ccAVeCE4.s 			page 4


 147:Generated_Source\PSoC4/pwmISR.c **** *   of this file from over-writing your code.
 148:Generated_Source\PSoC4/pwmISR.c **** *
 149:Generated_Source\PSoC4/pwmISR.c **** *   Note You may use either the default ISR by using this API, or you may define
 150:Generated_Source\PSoC4/pwmISR.c **** *   your own separate ISR through ISR_StartEx().
 151:Generated_Source\PSoC4/pwmISR.c **** *
 152:Generated_Source\PSoC4/pwmISR.c **** * Parameters:  
 153:Generated_Source\PSoC4/pwmISR.c **** *   None
 154:Generated_Source\PSoC4/pwmISR.c **** *
 155:Generated_Source\PSoC4/pwmISR.c **** * Return:
 156:Generated_Source\PSoC4/pwmISR.c **** *   None
 157:Generated_Source\PSoC4/pwmISR.c **** *
 158:Generated_Source\PSoC4/pwmISR.c **** *******************************************************************************/
 159:Generated_Source\PSoC4/pwmISR.c **** CY_ISR(pwmISR_Interrupt)
 160:Generated_Source\PSoC4/pwmISR.c **** {
  26              		.loc 1 160 0
  27              		.cfi_startproc
 161:Generated_Source\PSoC4/pwmISR.c ****     #ifdef pwmISR_INTERRUPT_INTERRUPT_CALLBACK
 162:Generated_Source\PSoC4/pwmISR.c ****         pwmISR_Interrupt_InterruptCallback();
 163:Generated_Source\PSoC4/pwmISR.c ****     #endif /* pwmISR_INTERRUPT_INTERRUPT_CALLBACK */ 
 164:Generated_Source\PSoC4/pwmISR.c **** 
 165:Generated_Source\PSoC4/pwmISR.c ****     /*  Place your Interrupt code here. */
 166:Generated_Source\PSoC4/pwmISR.c ****     /* `#START pwmISR_Interrupt` */
 167:Generated_Source\PSoC4/pwmISR.c **** 
 168:Generated_Source\PSoC4/pwmISR.c ****     /* `#END` */
 169:Generated_Source\PSoC4/pwmISR.c **** }
  28              		.loc 1 169 0
  29              		@ sp needed
  30 0000 7047     		bx	lr
  31              		.cfi_endproc
  32              	.LFE3:
  33              		.size	pwmISR_Interrupt, .-pwmISR_Interrupt
  34 0002 C046     		.section	.text.pwmISR_SetVector,"ax",%progbits
  35              		.align	2
  36              		.global	pwmISR_SetVector
  37              		.code	16
  38              		.thumb_func
  39              		.type	pwmISR_SetVector, %function
  40              	pwmISR_SetVector:
  41              	.LFB4:
 170:Generated_Source\PSoC4/pwmISR.c **** 
 171:Generated_Source\PSoC4/pwmISR.c **** 
 172:Generated_Source\PSoC4/pwmISR.c **** /*******************************************************************************
 173:Generated_Source\PSoC4/pwmISR.c **** * Function Name: pwmISR_SetVector
 174:Generated_Source\PSoC4/pwmISR.c **** ********************************************************************************
 175:Generated_Source\PSoC4/pwmISR.c **** *
 176:Generated_Source\PSoC4/pwmISR.c **** * Summary:
 177:Generated_Source\PSoC4/pwmISR.c **** *   Change the ISR vector for the Interrupt. Note calling pwmISR_Start
 178:Generated_Source\PSoC4/pwmISR.c **** *   will override any effect this method would have had. To set the vector 
 179:Generated_Source\PSoC4/pwmISR.c **** *   before the component has been started use pwmISR_StartEx instead.
 180:Generated_Source\PSoC4/pwmISR.c **** * 
 181:Generated_Source\PSoC4/pwmISR.c **** *   When defining ISR functions, the CY_ISR and CY_ISR_PROTO macros should be 
 182:Generated_Source\PSoC4/pwmISR.c **** *   used to provide consistent definition across compilers:
 183:Generated_Source\PSoC4/pwmISR.c **** *
 184:Generated_Source\PSoC4/pwmISR.c **** *   Function definition example:
 185:Generated_Source\PSoC4/pwmISR.c **** *   CY_ISR(MyISR)
 186:Generated_Source\PSoC4/pwmISR.c **** *   {
 187:Generated_Source\PSoC4/pwmISR.c **** *   }
ARM GAS  C:\Users\g\AppData\Local\Temp\ccAVeCE4.s 			page 5


 188:Generated_Source\PSoC4/pwmISR.c **** *
 189:Generated_Source\PSoC4/pwmISR.c **** *   Function prototype example:
 190:Generated_Source\PSoC4/pwmISR.c **** *     CY_ISR_PROTO(MyISR);
 191:Generated_Source\PSoC4/pwmISR.c **** *
 192:Generated_Source\PSoC4/pwmISR.c **** * Parameters:
 193:Generated_Source\PSoC4/pwmISR.c **** *   address: Address of the ISR to set in the interrupt vector table.
 194:Generated_Source\PSoC4/pwmISR.c **** *
 195:Generated_Source\PSoC4/pwmISR.c **** * Return:
 196:Generated_Source\PSoC4/pwmISR.c **** *   None
 197:Generated_Source\PSoC4/pwmISR.c **** *
 198:Generated_Source\PSoC4/pwmISR.c **** *******************************************************************************/
 199:Generated_Source\PSoC4/pwmISR.c **** void pwmISR_SetVector(cyisraddress address)
 200:Generated_Source\PSoC4/pwmISR.c **** {
  42              		.loc 1 200 0
  43              		.cfi_startproc
  44              	.LVL0:
 201:Generated_Source\PSoC4/pwmISR.c ****     CyRamVectors[CYINT_IRQ_BASE + pwmISR__INTC_NUMBER] = address;
  45              		.loc 1 201 0
  46 0000 8023     		mov	r3, #128
  47 0002 014A     		ldr	r2, .L3
  48 0004 D050     		str	r0, [r2, r3]
 202:Generated_Source\PSoC4/pwmISR.c **** }
  49              		.loc 1 202 0
  50              		@ sp needed
  51 0006 7047     		bx	lr
  52              	.L4:
  53              		.align	2
  54              	.L3:
  55 0008 00000000 		.word	CyRamVectors
  56              		.cfi_endproc
  57              	.LFE4:
  58              		.size	pwmISR_SetVector, .-pwmISR_SetVector
  59              		.section	.text.pwmISR_GetVector,"ax",%progbits
  60              		.align	2
  61              		.global	pwmISR_GetVector
  62              		.code	16
  63              		.thumb_func
  64              		.type	pwmISR_GetVector, %function
  65              	pwmISR_GetVector:
  66              	.LFB5:
 203:Generated_Source\PSoC4/pwmISR.c **** 
 204:Generated_Source\PSoC4/pwmISR.c **** 
 205:Generated_Source\PSoC4/pwmISR.c **** /*******************************************************************************
 206:Generated_Source\PSoC4/pwmISR.c **** * Function Name: pwmISR_GetVector
 207:Generated_Source\PSoC4/pwmISR.c **** ********************************************************************************
 208:Generated_Source\PSoC4/pwmISR.c **** *
 209:Generated_Source\PSoC4/pwmISR.c **** * Summary:
 210:Generated_Source\PSoC4/pwmISR.c **** *   Gets the "address" of the current ISR vector for the Interrupt.
 211:Generated_Source\PSoC4/pwmISR.c **** *
 212:Generated_Source\PSoC4/pwmISR.c **** * Parameters:
 213:Generated_Source\PSoC4/pwmISR.c **** *   None
 214:Generated_Source\PSoC4/pwmISR.c **** *
 215:Generated_Source\PSoC4/pwmISR.c **** * Return:
 216:Generated_Source\PSoC4/pwmISR.c **** *   Address of the ISR in the interrupt vector table.
 217:Generated_Source\PSoC4/pwmISR.c **** *
 218:Generated_Source\PSoC4/pwmISR.c **** *******************************************************************************/
 219:Generated_Source\PSoC4/pwmISR.c **** cyisraddress pwmISR_GetVector(void)
ARM GAS  C:\Users\g\AppData\Local\Temp\ccAVeCE4.s 			page 6


 220:Generated_Source\PSoC4/pwmISR.c **** {
  67              		.loc 1 220 0
  68              		.cfi_startproc
 221:Generated_Source\PSoC4/pwmISR.c ****     return CyRamVectors[CYINT_IRQ_BASE + pwmISR__INTC_NUMBER];
  69              		.loc 1 221 0
  70 0000 8023     		mov	r3, #128
  71 0002 014A     		ldr	r2, .L6
  72 0004 D058     		ldr	r0, [r2, r3]
 222:Generated_Source\PSoC4/pwmISR.c **** }
  73              		.loc 1 222 0
  74              		@ sp needed
  75 0006 7047     		bx	lr
  76              	.L7:
  77              		.align	2
  78              	.L6:
  79 0008 00000000 		.word	CyRamVectors
  80              		.cfi_endproc
  81              	.LFE5:
  82              		.size	pwmISR_GetVector, .-pwmISR_GetVector
  83              		.section	.text.pwmISR_SetPriority,"ax",%progbits
  84              		.align	2
  85              		.global	pwmISR_SetPriority
  86              		.code	16
  87              		.thumb_func
  88              		.type	pwmISR_SetPriority, %function
  89              	pwmISR_SetPriority:
  90              	.LFB6:
 223:Generated_Source\PSoC4/pwmISR.c **** 
 224:Generated_Source\PSoC4/pwmISR.c **** 
 225:Generated_Source\PSoC4/pwmISR.c **** /*******************************************************************************
 226:Generated_Source\PSoC4/pwmISR.c **** * Function Name: pwmISR_SetPriority
 227:Generated_Source\PSoC4/pwmISR.c **** ********************************************************************************
 228:Generated_Source\PSoC4/pwmISR.c **** *
 229:Generated_Source\PSoC4/pwmISR.c **** * Summary:
 230:Generated_Source\PSoC4/pwmISR.c **** *   Sets the Priority of the Interrupt. 
 231:Generated_Source\PSoC4/pwmISR.c **** *
 232:Generated_Source\PSoC4/pwmISR.c **** *   Note calling pwmISR_Start or pwmISR_StartEx will 
 233:Generated_Source\PSoC4/pwmISR.c **** *   override any effect this API would have had. This API should only be called
 234:Generated_Source\PSoC4/pwmISR.c **** *   after pwmISR_Start or pwmISR_StartEx has been called. 
 235:Generated_Source\PSoC4/pwmISR.c **** *   To set the initial priority for the component, use the Design-Wide Resources
 236:Generated_Source\PSoC4/pwmISR.c **** *   Interrupt Editor.
 237:Generated_Source\PSoC4/pwmISR.c **** *
 238:Generated_Source\PSoC4/pwmISR.c **** *   Note This API has no effect on Non-maskable interrupt NMI).
 239:Generated_Source\PSoC4/pwmISR.c **** *
 240:Generated_Source\PSoC4/pwmISR.c **** * Parameters:
 241:Generated_Source\PSoC4/pwmISR.c **** *   priority: Priority of the interrupt, 0 being the highest priority
 242:Generated_Source\PSoC4/pwmISR.c **** *             PSoC 3 and PSoC 5LP: Priority is from 0 to 7.
 243:Generated_Source\PSoC4/pwmISR.c **** *             PSoC 4: Priority is from 0 to 3.
 244:Generated_Source\PSoC4/pwmISR.c **** *
 245:Generated_Source\PSoC4/pwmISR.c **** * Return:
 246:Generated_Source\PSoC4/pwmISR.c **** *   None
 247:Generated_Source\PSoC4/pwmISR.c **** *
 248:Generated_Source\PSoC4/pwmISR.c **** *******************************************************************************/
 249:Generated_Source\PSoC4/pwmISR.c **** void pwmISR_SetPriority(uint8 priority)
 250:Generated_Source\PSoC4/pwmISR.c **** {
  91              		.loc 1 250 0
  92              		.cfi_startproc
ARM GAS  C:\Users\g\AppData\Local\Temp\ccAVeCE4.s 			page 7


  93              	.LVL1:
  94 0000 10B5     		push	{r4, lr}
  95              		.cfi_def_cfa_offset 8
  96              		.cfi_offset 4, -8
  97              		.cfi_offset 14, -4
  98 0002 041C     		mov	r4, r0
  99              	.LVL2:
 251:Generated_Source\PSoC4/pwmISR.c **** 	uint8 interruptState;
 252:Generated_Source\PSoC4/pwmISR.c ****     uint32 priorityOffset = ((pwmISR__INTC_NUMBER % 4u) * 8u) + 6u;
 253:Generated_Source\PSoC4/pwmISR.c ****     
 254:Generated_Source\PSoC4/pwmISR.c **** 	interruptState = CyEnterCriticalSection();
 100              		.loc 1 254 0
 101 0004 FFF7FEFF 		bl	CyEnterCriticalSection
 102              	.LVL3:
 255:Generated_Source\PSoC4/pwmISR.c ****     *pwmISR_INTC_PRIOR = (*pwmISR_INTC_PRIOR & (uint32)(~pwmISR__INTC_PRIOR_MASK)) |
 103              		.loc 1 255 0
 104 0008 044A     		ldr	r2, .L9
 105 000a 1368     		ldr	r3, [r2]
 106 000c C021     		mov	r1, #192
 107 000e 8B43     		bic	r3, r1
 256:Generated_Source\PSoC4/pwmISR.c ****                                     ((uint32)priority << priorityOffset);
 108              		.loc 1 256 0
 109 0010 A401     		lsl	r4, r4, #6
 255:Generated_Source\PSoC4/pwmISR.c ****     *pwmISR_INTC_PRIOR = (*pwmISR_INTC_PRIOR & (uint32)(~pwmISR__INTC_PRIOR_MASK)) |
 110              		.loc 1 255 0
 111 0012 1C43     		orr	r4, r3
 112 0014 1460     		str	r4, [r2]
 257:Generated_Source\PSoC4/pwmISR.c **** 	CyExitCriticalSection(interruptState);
 113              		.loc 1 257 0
 114 0016 FFF7FEFF 		bl	CyExitCriticalSection
 115              	.LVL4:
 258:Generated_Source\PSoC4/pwmISR.c **** }
 116              		.loc 1 258 0
 117              		@ sp needed
 118 001a 10BD     		pop	{r4, pc}
 119              	.L10:
 120              		.align	2
 121              	.L9:
 122 001c 10E400E0 		.word	-536812528
 123              		.cfi_endproc
 124              	.LFE6:
 125              		.size	pwmISR_SetPriority, .-pwmISR_SetPriority
 126              		.section	.text.pwmISR_GetPriority,"ax",%progbits
 127              		.align	2
 128              		.global	pwmISR_GetPriority
 129              		.code	16
 130              		.thumb_func
 131              		.type	pwmISR_GetPriority, %function
 132              	pwmISR_GetPriority:
 133              	.LFB7:
 259:Generated_Source\PSoC4/pwmISR.c **** 
 260:Generated_Source\PSoC4/pwmISR.c **** 
 261:Generated_Source\PSoC4/pwmISR.c **** /*******************************************************************************
 262:Generated_Source\PSoC4/pwmISR.c **** * Function Name: pwmISR_GetPriority
 263:Generated_Source\PSoC4/pwmISR.c **** ********************************************************************************
 264:Generated_Source\PSoC4/pwmISR.c **** *
 265:Generated_Source\PSoC4/pwmISR.c **** * Summary:
ARM GAS  C:\Users\g\AppData\Local\Temp\ccAVeCE4.s 			page 8


 266:Generated_Source\PSoC4/pwmISR.c **** *   Gets the Priority of the Interrupt.
 267:Generated_Source\PSoC4/pwmISR.c **** *
 268:Generated_Source\PSoC4/pwmISR.c **** * Parameters:
 269:Generated_Source\PSoC4/pwmISR.c **** *   None
 270:Generated_Source\PSoC4/pwmISR.c **** *
 271:Generated_Source\PSoC4/pwmISR.c **** * Return:
 272:Generated_Source\PSoC4/pwmISR.c **** *   Priority of the interrupt, 0 being the highest priority
 273:Generated_Source\PSoC4/pwmISR.c **** *    PSoC 3 and PSoC 5LP: Priority is from 0 to 7.
 274:Generated_Source\PSoC4/pwmISR.c **** *    PSoC 4: Priority is from 0 to 3.
 275:Generated_Source\PSoC4/pwmISR.c **** *
 276:Generated_Source\PSoC4/pwmISR.c **** *******************************************************************************/
 277:Generated_Source\PSoC4/pwmISR.c **** uint8 pwmISR_GetPriority(void)
 278:Generated_Source\PSoC4/pwmISR.c **** {
 134              		.loc 1 278 0
 135              		.cfi_startproc
 136              	.LVL5:
 279:Generated_Source\PSoC4/pwmISR.c ****     uint32 priority;
 280:Generated_Source\PSoC4/pwmISR.c **** 	uint32 priorityOffset = ((pwmISR__INTC_NUMBER % 4u) * 8u) + 6u;
 281:Generated_Source\PSoC4/pwmISR.c **** 
 282:Generated_Source\PSoC4/pwmISR.c ****     priority = (*pwmISR_INTC_PRIOR & pwmISR__INTC_PRIOR_MASK) >> priorityOffset;
 137              		.loc 1 282 0
 138 0000 024B     		ldr	r3, .L12
 139 0002 1868     		ldr	r0, [r3]
 140 0004 0006     		lsl	r0, r0, #24
 141              	.LVL6:
 283:Generated_Source\PSoC4/pwmISR.c **** 
 284:Generated_Source\PSoC4/pwmISR.c ****     return (uint8)priority;
 142              		.loc 1 284 0
 143 0006 800F     		lsr	r0, r0, #30
 144              	.LVL7:
 285:Generated_Source\PSoC4/pwmISR.c **** }
 145              		.loc 1 285 0
 146              		@ sp needed
 147 0008 7047     		bx	lr
 148              	.L13:
 149 000a C046     		.align	2
 150              	.L12:
 151 000c 10E400E0 		.word	-536812528
 152              		.cfi_endproc
 153              	.LFE7:
 154              		.size	pwmISR_GetPriority, .-pwmISR_GetPriority
 155              		.section	.text.pwmISR_Enable,"ax",%progbits
 156              		.align	2
 157              		.global	pwmISR_Enable
 158              		.code	16
 159              		.thumb_func
 160              		.type	pwmISR_Enable, %function
 161              	pwmISR_Enable:
 162              	.LFB8:
 286:Generated_Source\PSoC4/pwmISR.c **** 
 287:Generated_Source\PSoC4/pwmISR.c **** 
 288:Generated_Source\PSoC4/pwmISR.c **** /*******************************************************************************
 289:Generated_Source\PSoC4/pwmISR.c **** * Function Name: pwmISR_Enable
 290:Generated_Source\PSoC4/pwmISR.c **** ********************************************************************************
 291:Generated_Source\PSoC4/pwmISR.c **** *
 292:Generated_Source\PSoC4/pwmISR.c **** * Summary:
 293:Generated_Source\PSoC4/pwmISR.c **** *   Enables the interrupt to the interrupt controller. Do not call this function
ARM GAS  C:\Users\g\AppData\Local\Temp\ccAVeCE4.s 			page 9


 294:Generated_Source\PSoC4/pwmISR.c **** *   unless ISR_Start() has been called or the functionality of the ISR_Start() 
 295:Generated_Source\PSoC4/pwmISR.c **** *   function, which sets the vector and the priority, has been called.
 296:Generated_Source\PSoC4/pwmISR.c **** *
 297:Generated_Source\PSoC4/pwmISR.c **** * Parameters:
 298:Generated_Source\PSoC4/pwmISR.c **** *   None
 299:Generated_Source\PSoC4/pwmISR.c **** *
 300:Generated_Source\PSoC4/pwmISR.c **** * Return:
 301:Generated_Source\PSoC4/pwmISR.c **** *   None
 302:Generated_Source\PSoC4/pwmISR.c **** *
 303:Generated_Source\PSoC4/pwmISR.c **** *******************************************************************************/
 304:Generated_Source\PSoC4/pwmISR.c **** void pwmISR_Enable(void)
 305:Generated_Source\PSoC4/pwmISR.c **** {
 163              		.loc 1 305 0
 164              		.cfi_startproc
 306:Generated_Source\PSoC4/pwmISR.c ****     /* Enable the general interrupt. */
 307:Generated_Source\PSoC4/pwmISR.c ****     *pwmISR_INTC_SET_EN = pwmISR__INTC_MASK;
 165              		.loc 1 307 0
 166 0000 8022     		mov	r2, #128
 167 0002 5202     		lsl	r2, r2, #9
 168 0004 014B     		ldr	r3, .L15
 169 0006 1A60     		str	r2, [r3]
 308:Generated_Source\PSoC4/pwmISR.c **** }
 170              		.loc 1 308 0
 171              		@ sp needed
 172 0008 7047     		bx	lr
 173              	.L16:
 174 000a C046     		.align	2
 175              	.L15:
 176 000c 00E100E0 		.word	-536813312
 177              		.cfi_endproc
 178              	.LFE8:
 179              		.size	pwmISR_Enable, .-pwmISR_Enable
 180              		.section	.text.pwmISR_GetState,"ax",%progbits
 181              		.align	2
 182              		.global	pwmISR_GetState
 183              		.code	16
 184              		.thumb_func
 185              		.type	pwmISR_GetState, %function
 186              	pwmISR_GetState:
 187              	.LFB9:
 309:Generated_Source\PSoC4/pwmISR.c **** 
 310:Generated_Source\PSoC4/pwmISR.c **** 
 311:Generated_Source\PSoC4/pwmISR.c **** /*******************************************************************************
 312:Generated_Source\PSoC4/pwmISR.c **** * Function Name: pwmISR_GetState
 313:Generated_Source\PSoC4/pwmISR.c **** ********************************************************************************
 314:Generated_Source\PSoC4/pwmISR.c **** *
 315:Generated_Source\PSoC4/pwmISR.c **** * Summary:
 316:Generated_Source\PSoC4/pwmISR.c **** *   Gets the state (enabled, disabled) of the Interrupt.
 317:Generated_Source\PSoC4/pwmISR.c **** *
 318:Generated_Source\PSoC4/pwmISR.c **** * Parameters:
 319:Generated_Source\PSoC4/pwmISR.c **** *   None
 320:Generated_Source\PSoC4/pwmISR.c **** *
 321:Generated_Source\PSoC4/pwmISR.c **** * Return:
 322:Generated_Source\PSoC4/pwmISR.c **** *   1 if enabled, 0 if disabled.
 323:Generated_Source\PSoC4/pwmISR.c **** *
 324:Generated_Source\PSoC4/pwmISR.c **** *******************************************************************************/
 325:Generated_Source\PSoC4/pwmISR.c **** uint8 pwmISR_GetState(void)
ARM GAS  C:\Users\g\AppData\Local\Temp\ccAVeCE4.s 			page 10


 326:Generated_Source\PSoC4/pwmISR.c **** {
 188              		.loc 1 326 0
 189              		.cfi_startproc
 327:Generated_Source\PSoC4/pwmISR.c ****     /* Get the state of the general interrupt. */
 328:Generated_Source\PSoC4/pwmISR.c ****     return ((*pwmISR_INTC_SET_EN & (uint32)pwmISR__INTC_MASK) != 0u) ? 1u:0u;
 190              		.loc 1 328 0
 191 0000 034B     		ldr	r3, .L20
 192 0002 1B68     		ldr	r3, [r3]
 193 0004 DB03     		lsl	r3, r3, #15
 194 0006 01D5     		bpl	.L19
 195 0008 0120     		mov	r0, #1
 196 000a 00E0     		b	.L18
 197              	.L19:
 198 000c 0020     		mov	r0, #0
 199              	.L18:
 329:Generated_Source\PSoC4/pwmISR.c **** }
 200              		.loc 1 329 0 discriminator 4
 201              		@ sp needed
 202 000e 7047     		bx	lr
 203              	.L21:
 204              		.align	2
 205              	.L20:
 206 0010 00E100E0 		.word	-536813312
 207              		.cfi_endproc
 208              	.LFE9:
 209              		.size	pwmISR_GetState, .-pwmISR_GetState
 210              		.section	.text.pwmISR_Disable,"ax",%progbits
 211              		.align	2
 212              		.global	pwmISR_Disable
 213              		.code	16
 214              		.thumb_func
 215              		.type	pwmISR_Disable, %function
 216              	pwmISR_Disable:
 217              	.LFB10:
 330:Generated_Source\PSoC4/pwmISR.c **** 
 331:Generated_Source\PSoC4/pwmISR.c **** 
 332:Generated_Source\PSoC4/pwmISR.c **** /*******************************************************************************
 333:Generated_Source\PSoC4/pwmISR.c **** * Function Name: pwmISR_Disable
 334:Generated_Source\PSoC4/pwmISR.c **** ********************************************************************************
 335:Generated_Source\PSoC4/pwmISR.c **** *
 336:Generated_Source\PSoC4/pwmISR.c **** * Summary:
 337:Generated_Source\PSoC4/pwmISR.c **** *   Disables the Interrupt in the interrupt controller.
 338:Generated_Source\PSoC4/pwmISR.c **** *
 339:Generated_Source\PSoC4/pwmISR.c **** * Parameters:
 340:Generated_Source\PSoC4/pwmISR.c **** *   None
 341:Generated_Source\PSoC4/pwmISR.c **** *
 342:Generated_Source\PSoC4/pwmISR.c **** * Return:
 343:Generated_Source\PSoC4/pwmISR.c **** *   None
 344:Generated_Source\PSoC4/pwmISR.c **** *
 345:Generated_Source\PSoC4/pwmISR.c **** *******************************************************************************/
 346:Generated_Source\PSoC4/pwmISR.c **** void pwmISR_Disable(void)
 347:Generated_Source\PSoC4/pwmISR.c **** {
 218              		.loc 1 347 0
 219              		.cfi_startproc
 348:Generated_Source\PSoC4/pwmISR.c ****     /* Disable the general interrupt. */
 349:Generated_Source\PSoC4/pwmISR.c ****     *pwmISR_INTC_CLR_EN = pwmISR__INTC_MASK;
 220              		.loc 1 349 0
ARM GAS  C:\Users\g\AppData\Local\Temp\ccAVeCE4.s 			page 11


 221 0000 8022     		mov	r2, #128
 222 0002 5202     		lsl	r2, r2, #9
 223 0004 014B     		ldr	r3, .L23
 224 0006 1A60     		str	r2, [r3]
 350:Generated_Source\PSoC4/pwmISR.c **** }
 225              		.loc 1 350 0
 226              		@ sp needed
 227 0008 7047     		bx	lr
 228              	.L24:
 229 000a C046     		.align	2
 230              	.L23:
 231 000c 80E100E0 		.word	-536813184
 232              		.cfi_endproc
 233              	.LFE10:
 234              		.size	pwmISR_Disable, .-pwmISR_Disable
 235              		.section	.text.pwmISR_Start,"ax",%progbits
 236              		.align	2
 237              		.global	pwmISR_Start
 238              		.code	16
 239              		.thumb_func
 240              		.type	pwmISR_Start, %function
 241              	pwmISR_Start:
 242              	.LFB0:
  57:Generated_Source\PSoC4/pwmISR.c ****     /* For all we know the interrupt is active. */
 243              		.loc 1 57 0
 244              		.cfi_startproc
 245 0000 08B5     		push	{r3, lr}
 246              		.cfi_def_cfa_offset 8
 247              		.cfi_offset 3, -8
 248              		.cfi_offset 14, -4
  59:Generated_Source\PSoC4/pwmISR.c **** 
 249              		.loc 1 59 0
 250 0002 FFF7FEFF 		bl	pwmISR_Disable
 251              	.LVL8:
  62:Generated_Source\PSoC4/pwmISR.c **** 
 252              		.loc 1 62 0
 253 0006 0448     		ldr	r0, .L26
 254 0008 FFF7FEFF 		bl	pwmISR_SetVector
 255              	.LVL9:
  65:Generated_Source\PSoC4/pwmISR.c **** 
 256              		.loc 1 65 0
 257 000c 0320     		mov	r0, #3
 258 000e FFF7FEFF 		bl	pwmISR_SetPriority
 259              	.LVL10:
  68:Generated_Source\PSoC4/pwmISR.c **** }
 260              		.loc 1 68 0
 261 0012 FFF7FEFF 		bl	pwmISR_Enable
 262              	.LVL11:
  69:Generated_Source\PSoC4/pwmISR.c **** 
 263              		.loc 1 69 0
 264              		@ sp needed
 265 0016 08BD     		pop	{r3, pc}
 266              	.L27:
 267              		.align	2
 268              	.L26:
 269 0018 00000000 		.word	pwmISR_Interrupt
 270              		.cfi_endproc
ARM GAS  C:\Users\g\AppData\Local\Temp\ccAVeCE4.s 			page 12


 271              	.LFE0:
 272              		.size	pwmISR_Start, .-pwmISR_Start
 273              		.section	.text.pwmISR_StartEx,"ax",%progbits
 274              		.align	2
 275              		.global	pwmISR_StartEx
 276              		.code	16
 277              		.thumb_func
 278              		.type	pwmISR_StartEx, %function
 279              	pwmISR_StartEx:
 280              	.LFB1:
 100:Generated_Source\PSoC4/pwmISR.c ****     /* For all we know the interrupt is active. */
 281              		.loc 1 100 0
 282              		.cfi_startproc
 283              	.LVL12:
 284 0000 10B5     		push	{r4, lr}
 285              		.cfi_def_cfa_offset 8
 286              		.cfi_offset 4, -8
 287              		.cfi_offset 14, -4
 288 0002 041C     		mov	r4, r0
 102:Generated_Source\PSoC4/pwmISR.c **** 
 289              		.loc 1 102 0
 290 0004 FFF7FEFF 		bl	pwmISR_Disable
 291              	.LVL13:
 105:Generated_Source\PSoC4/pwmISR.c **** 
 292              		.loc 1 105 0
 293 0008 201C     		mov	r0, r4
 294 000a FFF7FEFF 		bl	pwmISR_SetVector
 295              	.LVL14:
 108:Generated_Source\PSoC4/pwmISR.c **** 
 296              		.loc 1 108 0
 297 000e 0320     		mov	r0, #3
 298 0010 FFF7FEFF 		bl	pwmISR_SetPriority
 299              	.LVL15:
 111:Generated_Source\PSoC4/pwmISR.c **** }
 300              		.loc 1 111 0
 301 0014 FFF7FEFF 		bl	pwmISR_Enable
 302              	.LVL16:
 112:Generated_Source\PSoC4/pwmISR.c **** 
 303              		.loc 1 112 0
 304              		@ sp needed
 305              	.LVL17:
 306 0018 10BD     		pop	{r4, pc}
 307              		.cfi_endproc
 308              	.LFE1:
 309              		.size	pwmISR_StartEx, .-pwmISR_StartEx
 310 001a C046     		.section	.text.pwmISR_Stop,"ax",%progbits
 311              		.align	2
 312              		.global	pwmISR_Stop
 313              		.code	16
 314              		.thumb_func
 315              		.type	pwmISR_Stop, %function
 316              	pwmISR_Stop:
 317              	.LFB2:
 130:Generated_Source\PSoC4/pwmISR.c ****     /* Disable this interrupt. */
 318              		.loc 1 130 0
 319              		.cfi_startproc
 320 0000 08B5     		push	{r3, lr}
ARM GAS  C:\Users\g\AppData\Local\Temp\ccAVeCE4.s 			page 13


 321              		.cfi_def_cfa_offset 8
 322              		.cfi_offset 3, -8
 323              		.cfi_offset 14, -4
 132:Generated_Source\PSoC4/pwmISR.c **** 
 324              		.loc 1 132 0
 325 0002 FFF7FEFF 		bl	pwmISR_Disable
 326              	.LVL18:
 135:Generated_Source\PSoC4/pwmISR.c **** }
 327              		.loc 1 135 0
 328 0006 0248     		ldr	r0, .L30
 329 0008 FFF7FEFF 		bl	pwmISR_SetVector
 330              	.LVL19:
 136:Generated_Source\PSoC4/pwmISR.c **** 
 331              		.loc 1 136 0
 332              		@ sp needed
 333 000c 08BD     		pop	{r3, pc}
 334              	.L31:
 335 000e C046     		.align	2
 336              	.L30:
 337 0010 00000000 		.word	IntDefaultHandler
 338              		.cfi_endproc
 339              	.LFE2:
 340              		.size	pwmISR_Stop, .-pwmISR_Stop
 341              		.section	.text.pwmISR_SetPending,"ax",%progbits
 342              		.align	2
 343              		.global	pwmISR_SetPending
 344              		.code	16
 345              		.thumb_func
 346              		.type	pwmISR_SetPending, %function
 347              	pwmISR_SetPending:
 348              	.LFB11:
 351:Generated_Source\PSoC4/pwmISR.c **** 
 352:Generated_Source\PSoC4/pwmISR.c **** 
 353:Generated_Source\PSoC4/pwmISR.c **** /*******************************************************************************
 354:Generated_Source\PSoC4/pwmISR.c **** * Function Name: pwmISR_SetPending
 355:Generated_Source\PSoC4/pwmISR.c **** ********************************************************************************
 356:Generated_Source\PSoC4/pwmISR.c **** *
 357:Generated_Source\PSoC4/pwmISR.c **** * Summary:
 358:Generated_Source\PSoC4/pwmISR.c **** *   Causes the Interrupt to enter the pending state, a software method of
 359:Generated_Source\PSoC4/pwmISR.c **** *   generating the interrupt.
 360:Generated_Source\PSoC4/pwmISR.c **** *
 361:Generated_Source\PSoC4/pwmISR.c **** * Parameters:
 362:Generated_Source\PSoC4/pwmISR.c **** *   None
 363:Generated_Source\PSoC4/pwmISR.c **** *
 364:Generated_Source\PSoC4/pwmISR.c **** * Return:
 365:Generated_Source\PSoC4/pwmISR.c **** *   None
 366:Generated_Source\PSoC4/pwmISR.c **** *
 367:Generated_Source\PSoC4/pwmISR.c **** * Side Effects:
 368:Generated_Source\PSoC4/pwmISR.c **** *   If interrupts are enabled and the interrupt is set up properly, the ISR is
 369:Generated_Source\PSoC4/pwmISR.c **** *   entered (depending on the priority of this interrupt and other pending 
 370:Generated_Source\PSoC4/pwmISR.c **** *   interrupts).
 371:Generated_Source\PSoC4/pwmISR.c **** *
 372:Generated_Source\PSoC4/pwmISR.c **** *******************************************************************************/
 373:Generated_Source\PSoC4/pwmISR.c **** void pwmISR_SetPending(void)
 374:Generated_Source\PSoC4/pwmISR.c **** {
 349              		.loc 1 374 0
 350              		.cfi_startproc
ARM GAS  C:\Users\g\AppData\Local\Temp\ccAVeCE4.s 			page 14


 375:Generated_Source\PSoC4/pwmISR.c ****     *pwmISR_INTC_SET_PD = pwmISR__INTC_MASK;
 351              		.loc 1 375 0
 352 0000 8022     		mov	r2, #128
 353 0002 5202     		lsl	r2, r2, #9
 354 0004 014B     		ldr	r3, .L33
 355 0006 1A60     		str	r2, [r3]
 376:Generated_Source\PSoC4/pwmISR.c **** }
 356              		.loc 1 376 0
 357              		@ sp needed
 358 0008 7047     		bx	lr
 359              	.L34:
 360 000a C046     		.align	2
 361              	.L33:
 362 000c 00E200E0 		.word	-536813056
 363              		.cfi_endproc
 364              	.LFE11:
 365              		.size	pwmISR_SetPending, .-pwmISR_SetPending
 366              		.section	.text.pwmISR_ClearPending,"ax",%progbits
 367              		.align	2
 368              		.global	pwmISR_ClearPending
 369              		.code	16
 370              		.thumb_func
 371              		.type	pwmISR_ClearPending, %function
 372              	pwmISR_ClearPending:
 373              	.LFB12:
 377:Generated_Source\PSoC4/pwmISR.c **** 
 378:Generated_Source\PSoC4/pwmISR.c **** 
 379:Generated_Source\PSoC4/pwmISR.c **** /*******************************************************************************
 380:Generated_Source\PSoC4/pwmISR.c **** * Function Name: pwmISR_ClearPending
 381:Generated_Source\PSoC4/pwmISR.c **** ********************************************************************************
 382:Generated_Source\PSoC4/pwmISR.c **** *
 383:Generated_Source\PSoC4/pwmISR.c **** * Summary:
 384:Generated_Source\PSoC4/pwmISR.c **** *   Clears a pending interrupt in the interrupt controller.
 385:Generated_Source\PSoC4/pwmISR.c **** *
 386:Generated_Source\PSoC4/pwmISR.c **** *   Note Some interrupt sources are clear-on-read and require the block 
 387:Generated_Source\PSoC4/pwmISR.c **** *   interrupt/status register to be read/cleared with the appropriate block API 
 388:Generated_Source\PSoC4/pwmISR.c **** *   (GPIO, UART, and so on). Otherwise the ISR will continue to remain in 
 389:Generated_Source\PSoC4/pwmISR.c **** *   pending state even though the interrupt itself is cleared using this API.
 390:Generated_Source\PSoC4/pwmISR.c **** *
 391:Generated_Source\PSoC4/pwmISR.c **** * Parameters:
 392:Generated_Source\PSoC4/pwmISR.c **** *   None
 393:Generated_Source\PSoC4/pwmISR.c **** *
 394:Generated_Source\PSoC4/pwmISR.c **** * Return:
 395:Generated_Source\PSoC4/pwmISR.c **** *   None
 396:Generated_Source\PSoC4/pwmISR.c **** *
 397:Generated_Source\PSoC4/pwmISR.c **** *******************************************************************************/
 398:Generated_Source\PSoC4/pwmISR.c **** void pwmISR_ClearPending(void)
 399:Generated_Source\PSoC4/pwmISR.c **** {
 374              		.loc 1 399 0
 375              		.cfi_startproc
 400:Generated_Source\PSoC4/pwmISR.c ****     *pwmISR_INTC_CLR_PD = pwmISR__INTC_MASK;
 376              		.loc 1 400 0
 377 0000 8022     		mov	r2, #128
 378 0002 5202     		lsl	r2, r2, #9
 379 0004 014B     		ldr	r3, .L36
 380 0006 1A60     		str	r2, [r3]
 401:Generated_Source\PSoC4/pwmISR.c **** }
ARM GAS  C:\Users\g\AppData\Local\Temp\ccAVeCE4.s 			page 15


 381              		.loc 1 401 0
 382              		@ sp needed
 383 0008 7047     		bx	lr
 384              	.L37:
 385 000a C046     		.align	2
 386              	.L36:
 387 000c 80E200E0 		.word	-536812928
 388              		.cfi_endproc
 389              	.LFE12:
 390              		.size	pwmISR_ClearPending, .-pwmISR_ClearPending
 391              		.text
 392              	.Letext0:
 393              		.file 2 "Generated_Source\\PSoC4/cytypes.h"
 394              		.file 3 "Generated_Source\\PSoC4/CyLib.h"