ARM GAS  C:\Users\g\AppData\Local\Temp\ccqy7DLs.s 			page 1


   1              		.cpu cortex-m0
   2              		.fpu softvfp
   3              		.eabi_attribute 20, 1
   4              		.eabi_attribute 21, 1
   5              		.eabi_attribute 23, 3
   6              		.eabi_attribute 24, 1
   7              		.eabi_attribute 25, 1
   8              		.eabi_attribute 26, 1
   9              		.eabi_attribute 30, 1
  10              		.eabi_attribute 34, 0
  11              		.eabi_attribute 18, 4
  12              		.code	16
  13              		.file	"UART_UART.c"
  14              		.text
  15              	.Ltext0:
  16              		.cfi_sections	.debug_frame
  17              		.section	.text.UART_UartInit,"ax",%progbits
  18              		.align	2
  19              		.global	UART_UartInit
  20              		.code	16
  21              		.thumb_func
  22              		.type	UART_UartInit, %function
  23              	UART_UartInit:
  24              	.LFB0:
  25              		.file 1 ".\\Generated_Source\\PSoC4\\UART_UART.c"
   1:.\Generated_Source\PSoC4/UART_UART.c **** /***************************************************************************//**
   2:.\Generated_Source\PSoC4/UART_UART.c **** * \file UART_UART.c
   3:.\Generated_Source\PSoC4/UART_UART.c **** * \version 3.20
   4:.\Generated_Source\PSoC4/UART_UART.c **** *
   5:.\Generated_Source\PSoC4/UART_UART.c **** * \brief
   6:.\Generated_Source\PSoC4/UART_UART.c **** *  This file provides the source code to the API for the SCB Component in
   7:.\Generated_Source\PSoC4/UART_UART.c **** *  UART mode.
   8:.\Generated_Source\PSoC4/UART_UART.c **** *
   9:.\Generated_Source\PSoC4/UART_UART.c **** * Note:
  10:.\Generated_Source\PSoC4/UART_UART.c **** *
  11:.\Generated_Source\PSoC4/UART_UART.c **** *******************************************************************************
  12:.\Generated_Source\PSoC4/UART_UART.c **** * \copyright
  13:.\Generated_Source\PSoC4/UART_UART.c **** * Copyright 2013-2016, Cypress Semiconductor Corporation.  All rights reserved.
  14:.\Generated_Source\PSoC4/UART_UART.c **** * You may use this file only in accordance with the license, terms, conditions,
  15:.\Generated_Source\PSoC4/UART_UART.c **** * disclaimers, and limitations in the end user license agreement accompanying
  16:.\Generated_Source\PSoC4/UART_UART.c **** * the software package with which this file was provided.
  17:.\Generated_Source\PSoC4/UART_UART.c **** *******************************************************************************/
  18:.\Generated_Source\PSoC4/UART_UART.c **** 
  19:.\Generated_Source\PSoC4/UART_UART.c **** #include "UART_PVT.h"
  20:.\Generated_Source\PSoC4/UART_UART.c **** #include "UART_SPI_UART_PVT.h"
  21:.\Generated_Source\PSoC4/UART_UART.c **** #include "cyapicallbacks.h"
  22:.\Generated_Source\PSoC4/UART_UART.c **** 
  23:.\Generated_Source\PSoC4/UART_UART.c **** #if (UART_UART_WAKE_ENABLE_CONST && UART_UART_RX_WAKEUP_IRQ)
  24:.\Generated_Source\PSoC4/UART_UART.c ****     /**
  25:.\Generated_Source\PSoC4/UART_UART.c ****     * \addtogroup group_globals
  26:.\Generated_Source\PSoC4/UART_UART.c ****     * \{
  27:.\Generated_Source\PSoC4/UART_UART.c ****     */
  28:.\Generated_Source\PSoC4/UART_UART.c ****     /** This global variable determines whether to enable Skip Start
  29:.\Generated_Source\PSoC4/UART_UART.c ****     * functionality when UART_Sleep() function is called:
  30:.\Generated_Source\PSoC4/UART_UART.c ****     * 0 – disable, other values – enable. Default value is 1.
  31:.\Generated_Source\PSoC4/UART_UART.c ****     * It is only available when Enable wakeup from Deep Sleep Mode is enabled.
  32:.\Generated_Source\PSoC4/UART_UART.c ****     */
ARM GAS  C:\Users\g\AppData\Local\Temp\ccqy7DLs.s 			page 2


  33:.\Generated_Source\PSoC4/UART_UART.c ****     uint8 UART_skipStart = 1u;
  34:.\Generated_Source\PSoC4/UART_UART.c ****     /** \} globals */
  35:.\Generated_Source\PSoC4/UART_UART.c **** #endif /* (UART_UART_WAKE_ENABLE_CONST && UART_UART_RX_WAKEUP_IRQ) */
  36:.\Generated_Source\PSoC4/UART_UART.c **** 
  37:.\Generated_Source\PSoC4/UART_UART.c **** #if(UART_SCB_MODE_UNCONFIG_CONST_CFG)
  38:.\Generated_Source\PSoC4/UART_UART.c **** 
  39:.\Generated_Source\PSoC4/UART_UART.c ****     /***************************************
  40:.\Generated_Source\PSoC4/UART_UART.c ****     *  Configuration Structure Initialization
  41:.\Generated_Source\PSoC4/UART_UART.c ****     ***************************************/
  42:.\Generated_Source\PSoC4/UART_UART.c **** 
  43:.\Generated_Source\PSoC4/UART_UART.c ****     const UART_UART_INIT_STRUCT UART_configUart =
  44:.\Generated_Source\PSoC4/UART_UART.c ****     {
  45:.\Generated_Source\PSoC4/UART_UART.c ****         UART_UART_SUB_MODE,
  46:.\Generated_Source\PSoC4/UART_UART.c ****         UART_UART_DIRECTION,
  47:.\Generated_Source\PSoC4/UART_UART.c ****         UART_UART_DATA_BITS_NUM,
  48:.\Generated_Source\PSoC4/UART_UART.c ****         UART_UART_PARITY_TYPE,
  49:.\Generated_Source\PSoC4/UART_UART.c ****         UART_UART_STOP_BITS_NUM,
  50:.\Generated_Source\PSoC4/UART_UART.c ****         UART_UART_OVS_FACTOR,
  51:.\Generated_Source\PSoC4/UART_UART.c ****         UART_UART_IRDA_LOW_POWER,
  52:.\Generated_Source\PSoC4/UART_UART.c ****         UART_UART_MEDIAN_FILTER_ENABLE,
  53:.\Generated_Source\PSoC4/UART_UART.c ****         UART_UART_RETRY_ON_NACK,
  54:.\Generated_Source\PSoC4/UART_UART.c ****         UART_UART_IRDA_POLARITY,
  55:.\Generated_Source\PSoC4/UART_UART.c ****         UART_UART_DROP_ON_PARITY_ERR,
  56:.\Generated_Source\PSoC4/UART_UART.c ****         UART_UART_DROP_ON_FRAME_ERR,
  57:.\Generated_Source\PSoC4/UART_UART.c ****         UART_UART_WAKE_ENABLE,
  58:.\Generated_Source\PSoC4/UART_UART.c ****         0u,
  59:.\Generated_Source\PSoC4/UART_UART.c ****         NULL,
  60:.\Generated_Source\PSoC4/UART_UART.c ****         0u,
  61:.\Generated_Source\PSoC4/UART_UART.c ****         NULL,
  62:.\Generated_Source\PSoC4/UART_UART.c ****         UART_UART_MP_MODE_ENABLE,
  63:.\Generated_Source\PSoC4/UART_UART.c ****         UART_UART_MP_ACCEPT_ADDRESS,
  64:.\Generated_Source\PSoC4/UART_UART.c ****         UART_UART_MP_RX_ADDRESS,
  65:.\Generated_Source\PSoC4/UART_UART.c ****         UART_UART_MP_RX_ADDRESS_MASK,
  66:.\Generated_Source\PSoC4/UART_UART.c ****         (uint32) UART_SCB_IRQ_INTERNAL,
  67:.\Generated_Source\PSoC4/UART_UART.c ****         UART_UART_INTR_RX_MASK,
  68:.\Generated_Source\PSoC4/UART_UART.c ****         UART_UART_RX_TRIGGER_LEVEL,
  69:.\Generated_Source\PSoC4/UART_UART.c ****         UART_UART_INTR_TX_MASK,
  70:.\Generated_Source\PSoC4/UART_UART.c ****         UART_UART_TX_TRIGGER_LEVEL,
  71:.\Generated_Source\PSoC4/UART_UART.c ****         (uint8) UART_UART_BYTE_MODE_ENABLE,
  72:.\Generated_Source\PSoC4/UART_UART.c ****         (uint8) UART_UART_CTS_ENABLE,
  73:.\Generated_Source\PSoC4/UART_UART.c ****         (uint8) UART_UART_CTS_POLARITY,
  74:.\Generated_Source\PSoC4/UART_UART.c ****         (uint8) UART_UART_RTS_POLARITY,
  75:.\Generated_Source\PSoC4/UART_UART.c ****         (uint8) UART_UART_RTS_FIFO_LEVEL
  76:.\Generated_Source\PSoC4/UART_UART.c ****     };
  77:.\Generated_Source\PSoC4/UART_UART.c **** 
  78:.\Generated_Source\PSoC4/UART_UART.c **** 
  79:.\Generated_Source\PSoC4/UART_UART.c ****     /*******************************************************************************
  80:.\Generated_Source\PSoC4/UART_UART.c ****     * Function Name: UART_UartInit
  81:.\Generated_Source\PSoC4/UART_UART.c ****     ****************************************************************************//**
  82:.\Generated_Source\PSoC4/UART_UART.c ****     *
  83:.\Generated_Source\PSoC4/UART_UART.c ****     *  Configures the UART for UART operation.
  84:.\Generated_Source\PSoC4/UART_UART.c ****     *
  85:.\Generated_Source\PSoC4/UART_UART.c ****     *  This function is intended specifically to be used when the UART
  86:.\Generated_Source\PSoC4/UART_UART.c ****     *  configuration is set to “Unconfigured UART” in the customizer.
  87:.\Generated_Source\PSoC4/UART_UART.c ****     *  After initializing the UART in UART mode using this function,
  88:.\Generated_Source\PSoC4/UART_UART.c ****     *  the component can be enabled using the UART_Start() or
  89:.\Generated_Source\PSoC4/UART_UART.c ****     * UART_Enable() function.
ARM GAS  C:\Users\g\AppData\Local\Temp\ccqy7DLs.s 			page 3


  90:.\Generated_Source\PSoC4/UART_UART.c ****     *  This function uses a pointer to a structure that provides the configuration
  91:.\Generated_Source\PSoC4/UART_UART.c ****     *  settings. This structure contains the same information that would otherwise
  92:.\Generated_Source\PSoC4/UART_UART.c ****     *  be provided by the customizer settings.
  93:.\Generated_Source\PSoC4/UART_UART.c ****     *
  94:.\Generated_Source\PSoC4/UART_UART.c ****     *  \param config: pointer to a structure that contains the following list of
  95:.\Generated_Source\PSoC4/UART_UART.c ****     *   fields. These fields match the selections available in the customizer.
  96:.\Generated_Source\PSoC4/UART_UART.c ****     *   Refer to the customizer for further description of the settings.
  97:.\Generated_Source\PSoC4/UART_UART.c ****     *
  98:.\Generated_Source\PSoC4/UART_UART.c ****     *******************************************************************************/
  99:.\Generated_Source\PSoC4/UART_UART.c ****     void UART_UartInit(const UART_UART_INIT_STRUCT *config)
 100:.\Generated_Source\PSoC4/UART_UART.c ****     {
 101:.\Generated_Source\PSoC4/UART_UART.c ****         uint32 pinsConfig;
 102:.\Generated_Source\PSoC4/UART_UART.c **** 
 103:.\Generated_Source\PSoC4/UART_UART.c ****         if (NULL == config)
 104:.\Generated_Source\PSoC4/UART_UART.c ****         {
 105:.\Generated_Source\PSoC4/UART_UART.c ****             CYASSERT(0u != 0u); /* Halt execution due to bad function parameter */
 106:.\Generated_Source\PSoC4/UART_UART.c ****         }
 107:.\Generated_Source\PSoC4/UART_UART.c ****         else
 108:.\Generated_Source\PSoC4/UART_UART.c ****         {
 109:.\Generated_Source\PSoC4/UART_UART.c ****             /* Get direction to configure UART pins: TX, RX or TX+RX */
 110:.\Generated_Source\PSoC4/UART_UART.c ****             pinsConfig  = config->direction;
 111:.\Generated_Source\PSoC4/UART_UART.c **** 
 112:.\Generated_Source\PSoC4/UART_UART.c ****         #if !(UART_CY_SCBIP_V0 || UART_CY_SCBIP_V1)
 113:.\Generated_Source\PSoC4/UART_UART.c ****             /* Add RTS and CTS pins to configure */
 114:.\Generated_Source\PSoC4/UART_UART.c ****             pinsConfig |= (0u != config->rtsRxFifoLevel) ? (UART_UART_RTS_PIN_ENABLE) : (0u);
 115:.\Generated_Source\PSoC4/UART_UART.c ****             pinsConfig |= (0u != config->enableCts)      ? (UART_UART_CTS_PIN_ENABLE) : (0u);
 116:.\Generated_Source\PSoC4/UART_UART.c ****         #endif /* !(UART_CY_SCBIP_V0 || UART_CY_SCBIP_V1) */
 117:.\Generated_Source\PSoC4/UART_UART.c **** 
 118:.\Generated_Source\PSoC4/UART_UART.c ****             /* Configure pins */
 119:.\Generated_Source\PSoC4/UART_UART.c ****             UART_SetPins(UART_SCB_MODE_UART, config->mode, pinsConfig);
 120:.\Generated_Source\PSoC4/UART_UART.c **** 
 121:.\Generated_Source\PSoC4/UART_UART.c ****             /* Store internal configuration */
 122:.\Generated_Source\PSoC4/UART_UART.c ****             UART_scbMode       = (uint8) UART_SCB_MODE_UART;
 123:.\Generated_Source\PSoC4/UART_UART.c ****             UART_scbEnableWake = (uint8) config->enableWake;
 124:.\Generated_Source\PSoC4/UART_UART.c ****             UART_scbEnableIntr = (uint8) config->enableInterrupt;
 125:.\Generated_Source\PSoC4/UART_UART.c **** 
 126:.\Generated_Source\PSoC4/UART_UART.c ****             /* Set RX direction internal variables */
 127:.\Generated_Source\PSoC4/UART_UART.c ****             UART_rxBuffer      =         config->rxBuffer;
 128:.\Generated_Source\PSoC4/UART_UART.c ****             UART_rxDataBits    = (uint8) config->dataBits;
 129:.\Generated_Source\PSoC4/UART_UART.c ****             UART_rxBufferSize  = (uint8) config->rxBufferSize;
 130:.\Generated_Source\PSoC4/UART_UART.c **** 
 131:.\Generated_Source\PSoC4/UART_UART.c ****             /* Set TX direction internal variables */
 132:.\Generated_Source\PSoC4/UART_UART.c ****             UART_txBuffer      =         config->txBuffer;
 133:.\Generated_Source\PSoC4/UART_UART.c ****             UART_txDataBits    = (uint8) config->dataBits;
 134:.\Generated_Source\PSoC4/UART_UART.c ****             UART_txBufferSize  = (uint8) config->txBufferSize;
 135:.\Generated_Source\PSoC4/UART_UART.c **** 
 136:.\Generated_Source\PSoC4/UART_UART.c ****             /* Configure UART interface */
 137:.\Generated_Source\PSoC4/UART_UART.c ****             if(UART_UART_MODE_IRDA == config->mode)
 138:.\Generated_Source\PSoC4/UART_UART.c ****             {
 139:.\Generated_Source\PSoC4/UART_UART.c ****                 /* OVS settings: IrDA */
 140:.\Generated_Source\PSoC4/UART_UART.c ****                 UART_CTRL_REG  = ((0u != config->enableIrdaLowPower) ?
 141:.\Generated_Source\PSoC4/UART_UART.c ****                                                 (UART_UART_GET_CTRL_OVS_IRDA_LP(config->oversample)
 142:.\Generated_Source\PSoC4/UART_UART.c ****                                                 (UART_CTRL_OVS_IRDA_OVS16));
 143:.\Generated_Source\PSoC4/UART_UART.c ****             }
 144:.\Generated_Source\PSoC4/UART_UART.c ****             else
 145:.\Generated_Source\PSoC4/UART_UART.c ****             {
 146:.\Generated_Source\PSoC4/UART_UART.c ****                 /* OVS settings: UART and SmartCard */
ARM GAS  C:\Users\g\AppData\Local\Temp\ccqy7DLs.s 			page 4


 147:.\Generated_Source\PSoC4/UART_UART.c ****                 UART_CTRL_REG  = UART_GET_CTRL_OVS(config->oversample);
 148:.\Generated_Source\PSoC4/UART_UART.c ****             }
 149:.\Generated_Source\PSoC4/UART_UART.c **** 
 150:.\Generated_Source\PSoC4/UART_UART.c ****             UART_CTRL_REG     |= UART_GET_CTRL_BYTE_MODE  (config->enableByteMode)      |
 151:.\Generated_Source\PSoC4/UART_UART.c ****                                              UART_GET_CTRL_ADDR_ACCEPT(config->multiprocAcceptAddr)
 152:.\Generated_Source\PSoC4/UART_UART.c ****                                              UART_CTRL_UART;
 153:.\Generated_Source\PSoC4/UART_UART.c **** 
 154:.\Generated_Source\PSoC4/UART_UART.c ****             /* Configure sub-mode: UART, SmartCard or IrDA */
 155:.\Generated_Source\PSoC4/UART_UART.c ****             UART_UART_CTRL_REG = UART_GET_UART_CTRL_MODE(config->mode);
 156:.\Generated_Source\PSoC4/UART_UART.c **** 
 157:.\Generated_Source\PSoC4/UART_UART.c ****             /* Configure RX direction */
 158:.\Generated_Source\PSoC4/UART_UART.c ****             UART_UART_RX_CTRL_REG = UART_GET_UART_RX_CTRL_MODE(config->stopBits)              |
 159:.\Generated_Source\PSoC4/UART_UART.c ****                                         UART_GET_UART_RX_CTRL_POLARITY(config->enableInvertedRx)   
 160:.\Generated_Source\PSoC4/UART_UART.c ****                                         UART_GET_UART_RX_CTRL_MP_MODE(config->enableMultiproc)     
 161:.\Generated_Source\PSoC4/UART_UART.c ****                                         UART_GET_UART_RX_CTRL_DROP_ON_PARITY_ERR(config->dropOnPari
 162:.\Generated_Source\PSoC4/UART_UART.c ****                                         UART_GET_UART_RX_CTRL_DROP_ON_FRAME_ERR(config->dropOnFrame
 163:.\Generated_Source\PSoC4/UART_UART.c **** 
 164:.\Generated_Source\PSoC4/UART_UART.c ****             if(UART_UART_PARITY_NONE != config->parity)
 165:.\Generated_Source\PSoC4/UART_UART.c ****             {
 166:.\Generated_Source\PSoC4/UART_UART.c ****                UART_UART_RX_CTRL_REG |= UART_GET_UART_RX_CTRL_PARITY(config->parity) |
 167:.\Generated_Source\PSoC4/UART_UART.c ****                                                     UART_UART_RX_CTRL_PARITY_ENABLED;
 168:.\Generated_Source\PSoC4/UART_UART.c ****             }
 169:.\Generated_Source\PSoC4/UART_UART.c **** 
 170:.\Generated_Source\PSoC4/UART_UART.c ****             UART_RX_CTRL_REG      = UART_GET_RX_CTRL_DATA_WIDTH(config->dataBits)       |
 171:.\Generated_Source\PSoC4/UART_UART.c ****                                                 UART_GET_RX_CTRL_MEDIAN(config->enableMedianFilter)
 172:.\Generated_Source\PSoC4/UART_UART.c ****                                                 UART_GET_UART_RX_CTRL_ENABLED(config->direction);
 173:.\Generated_Source\PSoC4/UART_UART.c **** 
 174:.\Generated_Source\PSoC4/UART_UART.c ****             UART_RX_FIFO_CTRL_REG = UART_GET_RX_FIFO_CTRL_TRIGGER_LEVEL(config->rxTriggerLevel);
 175:.\Generated_Source\PSoC4/UART_UART.c **** 
 176:.\Generated_Source\PSoC4/UART_UART.c ****             /* Configure MP address */
 177:.\Generated_Source\PSoC4/UART_UART.c ****             UART_RX_MATCH_REG     = UART_GET_RX_MATCH_ADDR(config->multiprocAddr) |
 178:.\Generated_Source\PSoC4/UART_UART.c ****                                                 UART_GET_RX_MATCH_MASK(config->multiprocAddrMask);
 179:.\Generated_Source\PSoC4/UART_UART.c **** 
 180:.\Generated_Source\PSoC4/UART_UART.c ****             /* Configure RX direction */
 181:.\Generated_Source\PSoC4/UART_UART.c ****             UART_UART_TX_CTRL_REG = UART_GET_UART_TX_CTRL_MODE(config->stopBits) |
 182:.\Generated_Source\PSoC4/UART_UART.c ****                                                 UART_GET_UART_TX_CTRL_RETRY_NACK(config->enableRetr
 183:.\Generated_Source\PSoC4/UART_UART.c **** 
 184:.\Generated_Source\PSoC4/UART_UART.c ****             if(UART_UART_PARITY_NONE != config->parity)
 185:.\Generated_Source\PSoC4/UART_UART.c ****             {
 186:.\Generated_Source\PSoC4/UART_UART.c ****                UART_UART_TX_CTRL_REG |= UART_GET_UART_TX_CTRL_PARITY(config->parity) |
 187:.\Generated_Source\PSoC4/UART_UART.c ****                                                     UART_UART_TX_CTRL_PARITY_ENABLED;
 188:.\Generated_Source\PSoC4/UART_UART.c ****             }
 189:.\Generated_Source\PSoC4/UART_UART.c **** 
 190:.\Generated_Source\PSoC4/UART_UART.c ****             UART_TX_CTRL_REG      = UART_GET_TX_CTRL_DATA_WIDTH(config->dataBits)    |
 191:.\Generated_Source\PSoC4/UART_UART.c ****                                                 UART_GET_UART_TX_CTRL_ENABLED(config->direction);
 192:.\Generated_Source\PSoC4/UART_UART.c **** 
 193:.\Generated_Source\PSoC4/UART_UART.c ****             UART_TX_FIFO_CTRL_REG = UART_GET_TX_FIFO_CTRL_TRIGGER_LEVEL(config->txTriggerLevel);
 194:.\Generated_Source\PSoC4/UART_UART.c **** 
 195:.\Generated_Source\PSoC4/UART_UART.c ****         #if !(UART_CY_SCBIP_V0 || UART_CY_SCBIP_V1)
 196:.\Generated_Source\PSoC4/UART_UART.c ****             UART_UART_FLOW_CTRL_REG = UART_GET_UART_FLOW_CTRL_CTS_ENABLE(config->enableCts) | \
 197:.\Generated_Source\PSoC4/UART_UART.c ****                                             UART_GET_UART_FLOW_CTRL_CTS_POLARITY (config->ctsPolari
 198:.\Generated_Source\PSoC4/UART_UART.c ****                                             UART_GET_UART_FLOW_CTRL_RTS_POLARITY (config->rtsPolari
 199:.\Generated_Source\PSoC4/UART_UART.c ****                                             UART_GET_UART_FLOW_CTRL_TRIGGER_LEVEL(config->rtsRxFifo
 200:.\Generated_Source\PSoC4/UART_UART.c ****         #endif /* !(UART_CY_SCBIP_V0 || UART_CY_SCBIP_V1) */
 201:.\Generated_Source\PSoC4/UART_UART.c **** 
 202:.\Generated_Source\PSoC4/UART_UART.c ****             /* Configure interrupt with UART handler but do not enable it */
 203:.\Generated_Source\PSoC4/UART_UART.c ****             CyIntDisable    (UART_ISR_NUMBER);
ARM GAS  C:\Users\g\AppData\Local\Temp\ccqy7DLs.s 			page 5


 204:.\Generated_Source\PSoC4/UART_UART.c ****             CyIntSetPriority(UART_ISR_NUMBER, UART_ISR_PRIORITY);
 205:.\Generated_Source\PSoC4/UART_UART.c ****             (void) CyIntSetVector(UART_ISR_NUMBER, &UART_SPI_UART_ISR);
 206:.\Generated_Source\PSoC4/UART_UART.c **** 
 207:.\Generated_Source\PSoC4/UART_UART.c ****             /* Configure WAKE interrupt */
 208:.\Generated_Source\PSoC4/UART_UART.c ****         #if(UART_UART_RX_WAKEUP_IRQ)
 209:.\Generated_Source\PSoC4/UART_UART.c ****             CyIntDisable    (UART_RX_WAKE_ISR_NUMBER);
 210:.\Generated_Source\PSoC4/UART_UART.c ****             CyIntSetPriority(UART_RX_WAKE_ISR_NUMBER, UART_RX_WAKE_ISR_PRIORITY);
 211:.\Generated_Source\PSoC4/UART_UART.c ****             (void) CyIntSetVector(UART_RX_WAKE_ISR_NUMBER, &UART_UART_WAKEUP_ISR);
 212:.\Generated_Source\PSoC4/UART_UART.c ****         #endif /* (UART_UART_RX_WAKEUP_IRQ) */
 213:.\Generated_Source\PSoC4/UART_UART.c **** 
 214:.\Generated_Source\PSoC4/UART_UART.c ****             /* Configure interrupt sources */
 215:.\Generated_Source\PSoC4/UART_UART.c ****             UART_INTR_I2C_EC_MASK_REG = UART_NO_INTR_SOURCES;
 216:.\Generated_Source\PSoC4/UART_UART.c ****             UART_INTR_SPI_EC_MASK_REG = UART_NO_INTR_SOURCES;
 217:.\Generated_Source\PSoC4/UART_UART.c ****             UART_INTR_SLAVE_MASK_REG  = UART_NO_INTR_SOURCES;
 218:.\Generated_Source\PSoC4/UART_UART.c ****             UART_INTR_MASTER_MASK_REG = UART_NO_INTR_SOURCES;
 219:.\Generated_Source\PSoC4/UART_UART.c ****             UART_INTR_RX_MASK_REG     = config->rxInterruptMask;
 220:.\Generated_Source\PSoC4/UART_UART.c ****             UART_INTR_TX_MASK_REG     = config->txInterruptMask;
 221:.\Generated_Source\PSoC4/UART_UART.c ****         
 222:.\Generated_Source\PSoC4/UART_UART.c ****             /* Configure TX interrupt sources to restore. */
 223:.\Generated_Source\PSoC4/UART_UART.c ****             UART_IntrTxMask = LO16(UART_INTR_TX_MASK_REG);
 224:.\Generated_Source\PSoC4/UART_UART.c **** 
 225:.\Generated_Source\PSoC4/UART_UART.c ****             /* Clear RX buffer indexes */
 226:.\Generated_Source\PSoC4/UART_UART.c ****             UART_rxBufferHead     = 0u;
 227:.\Generated_Source\PSoC4/UART_UART.c ****             UART_rxBufferTail     = 0u;
 228:.\Generated_Source\PSoC4/UART_UART.c ****             UART_rxBufferOverflow = 0u;
 229:.\Generated_Source\PSoC4/UART_UART.c **** 
 230:.\Generated_Source\PSoC4/UART_UART.c ****             /* Clear TX buffer indexes */
 231:.\Generated_Source\PSoC4/UART_UART.c ****             UART_txBufferHead = 0u;
 232:.\Generated_Source\PSoC4/UART_UART.c ****             UART_txBufferTail = 0u;
 233:.\Generated_Source\PSoC4/UART_UART.c ****         }
 234:.\Generated_Source\PSoC4/UART_UART.c ****     }
 235:.\Generated_Source\PSoC4/UART_UART.c **** 
 236:.\Generated_Source\PSoC4/UART_UART.c **** #else
 237:.\Generated_Source\PSoC4/UART_UART.c **** 
 238:.\Generated_Source\PSoC4/UART_UART.c ****     /*******************************************************************************
 239:.\Generated_Source\PSoC4/UART_UART.c ****     * Function Name: UART_UartInit
 240:.\Generated_Source\PSoC4/UART_UART.c ****     ****************************************************************************//**
 241:.\Generated_Source\PSoC4/UART_UART.c ****     *
 242:.\Generated_Source\PSoC4/UART_UART.c ****     *  Configures the SCB for the UART operation.
 243:.\Generated_Source\PSoC4/UART_UART.c ****     *
 244:.\Generated_Source\PSoC4/UART_UART.c ****     *******************************************************************************/
 245:.\Generated_Source\PSoC4/UART_UART.c ****     void UART_UartInit(void)
 246:.\Generated_Source\PSoC4/UART_UART.c ****     {
  26              		.loc 1 246 0
  27              		.cfi_startproc
  28 0000 10B5     		push	{r4, lr}
  29              		.cfi_def_cfa_offset 8
  30              		.cfi_offset 4, -8
  31              		.cfi_offset 14, -4
 247:.\Generated_Source\PSoC4/UART_UART.c ****         /* Configure UART interface */
 248:.\Generated_Source\PSoC4/UART_UART.c ****         UART_CTRL_REG = UART_UART_DEFAULT_CTRL;
  32              		.loc 1 248 0
  33 0002 1E4A     		ldr	r2, .L2
  34 0004 1E4B     		ldr	r3, .L2+4
  35 0006 1A60     		str	r2, [r3]
 249:.\Generated_Source\PSoC4/UART_UART.c **** 
 250:.\Generated_Source\PSoC4/UART_UART.c ****         /* Configure sub-mode: UART, SmartCard or IrDA */
ARM GAS  C:\Users\g\AppData\Local\Temp\ccqy7DLs.s 			page 6


 251:.\Generated_Source\PSoC4/UART_UART.c ****         UART_UART_CTRL_REG = UART_UART_DEFAULT_UART_CTRL;
  36              		.loc 1 251 0
  37 0008 0024     		mov	r4, #0
  38 000a 1E4B     		ldr	r3, .L2+8
  39 000c 1C60     		str	r4, [r3]
 252:.\Generated_Source\PSoC4/UART_UART.c **** 
 253:.\Generated_Source\PSoC4/UART_UART.c ****         /* Configure RX direction */
 254:.\Generated_Source\PSoC4/UART_UART.c ****         UART_UART_RX_CTRL_REG = UART_UART_DEFAULT_UART_RX_CTRL;
  40              		.loc 1 254 0
  41 000e 0122     		mov	r2, #1
  42 0010 1D4B     		ldr	r3, .L2+12
  43 0012 1A60     		str	r2, [r3]
 255:.\Generated_Source\PSoC4/UART_UART.c ****         UART_RX_CTRL_REG      = UART_UART_DEFAULT_RX_CTRL;
  44              		.loc 1 255 0
  45 0014 1D4B     		ldr	r3, .L2+16
  46 0016 1E49     		ldr	r1, .L2+20
  47 0018 0B60     		str	r3, [r1]
 256:.\Generated_Source\PSoC4/UART_UART.c ****         UART_RX_FIFO_CTRL_REG = UART_UART_DEFAULT_RX_FIFO_CTRL;
  48              		.loc 1 256 0
  49 001a 0720     		mov	r0, #7
  50 001c 1D49     		ldr	r1, .L2+24
  51 001e 0860     		str	r0, [r1]
 257:.\Generated_Source\PSoC4/UART_UART.c ****         UART_RX_MATCH_REG     = UART_UART_DEFAULT_RX_MATCH_REG;
  52              		.loc 1 257 0
  53 0020 1D49     		ldr	r1, .L2+28
  54 0022 0C60     		str	r4, [r1]
 258:.\Generated_Source\PSoC4/UART_UART.c **** 
 259:.\Generated_Source\PSoC4/UART_UART.c ****         /* Configure TX direction */
 260:.\Generated_Source\PSoC4/UART_UART.c ****         UART_UART_TX_CTRL_REG = UART_UART_DEFAULT_UART_TX_CTRL;
  55              		.loc 1 260 0
  56 0024 1D49     		ldr	r1, .L2+32
  57 0026 0A60     		str	r2, [r1]
 261:.\Generated_Source\PSoC4/UART_UART.c ****         UART_TX_CTRL_REG      = UART_UART_DEFAULT_TX_CTRL;
  58              		.loc 1 261 0
  59 0028 1D4A     		ldr	r2, .L2+36
  60 002a 1360     		str	r3, [r2]
 262:.\Generated_Source\PSoC4/UART_UART.c ****         UART_TX_FIFO_CTRL_REG = UART_UART_DEFAULT_TX_FIFO_CTRL;
  61              		.loc 1 262 0
  62 002c 1D4B     		ldr	r3, .L2+40
  63 002e 1C60     		str	r4, [r3]
 263:.\Generated_Source\PSoC4/UART_UART.c **** 
 264:.\Generated_Source\PSoC4/UART_UART.c ****     #if !(UART_CY_SCBIP_V0 || UART_CY_SCBIP_V1)
 265:.\Generated_Source\PSoC4/UART_UART.c ****         UART_UART_FLOW_CTRL_REG = UART_UART_DEFAULT_FLOW_CTRL;
 266:.\Generated_Source\PSoC4/UART_UART.c ****     #endif /* !(UART_CY_SCBIP_V0 || UART_CY_SCBIP_V1) */
 267:.\Generated_Source\PSoC4/UART_UART.c **** 
 268:.\Generated_Source\PSoC4/UART_UART.c ****         /* Configure interrupt with UART handler but do not enable it */
 269:.\Generated_Source\PSoC4/UART_UART.c ****     #if(UART_SCB_IRQ_INTERNAL)
 270:.\Generated_Source\PSoC4/UART_UART.c ****         CyIntDisable    (UART_ISR_NUMBER);
  64              		.loc 1 270 0
  65 0030 0430     		add	r0, r0, #4
  66 0032 FFF7FEFF 		bl	CyIntDisable
  67              	.LVL0:
 271:.\Generated_Source\PSoC4/UART_UART.c ****         CyIntSetPriority(UART_ISR_NUMBER, UART_ISR_PRIORITY);
  68              		.loc 1 271 0
  69 0036 0B20     		mov	r0, #11
  70 0038 0321     		mov	r1, #3
  71 003a FFF7FEFF 		bl	CyIntSetPriority
ARM GAS  C:\Users\g\AppData\Local\Temp\ccqy7DLs.s 			page 7


  72              	.LVL1:
 272:.\Generated_Source\PSoC4/UART_UART.c ****         (void) CyIntSetVector(UART_ISR_NUMBER, &UART_SPI_UART_ISR);
  73              		.loc 1 272 0
  74 003e 0B20     		mov	r0, #11
  75 0040 1949     		ldr	r1, .L2+44
  76 0042 FFF7FEFF 		bl	CyIntSetVector
  77              	.LVL2:
 273:.\Generated_Source\PSoC4/UART_UART.c ****     #endif /* (UART_SCB_IRQ_INTERNAL) */
 274:.\Generated_Source\PSoC4/UART_UART.c **** 
 275:.\Generated_Source\PSoC4/UART_UART.c ****         /* Configure WAKE interrupt */
 276:.\Generated_Source\PSoC4/UART_UART.c ****     #if(UART_UART_RX_WAKEUP_IRQ)
 277:.\Generated_Source\PSoC4/UART_UART.c ****         CyIntDisable    (UART_RX_WAKE_ISR_NUMBER);
 278:.\Generated_Source\PSoC4/UART_UART.c ****         CyIntSetPriority(UART_RX_WAKE_ISR_NUMBER, UART_RX_WAKE_ISR_PRIORITY);
 279:.\Generated_Source\PSoC4/UART_UART.c ****         (void) CyIntSetVector(UART_RX_WAKE_ISR_NUMBER, &UART_UART_WAKEUP_ISR);
 280:.\Generated_Source\PSoC4/UART_UART.c ****     #endif /* (UART_UART_RX_WAKEUP_IRQ) */
 281:.\Generated_Source\PSoC4/UART_UART.c **** 
 282:.\Generated_Source\PSoC4/UART_UART.c ****         /* Configure interrupt sources */
 283:.\Generated_Source\PSoC4/UART_UART.c ****         UART_INTR_I2C_EC_MASK_REG = UART_UART_DEFAULT_INTR_I2C_EC_MASK;
  78              		.loc 1 283 0
  79 0046 194B     		ldr	r3, .L2+48
  80 0048 1C60     		str	r4, [r3]
 284:.\Generated_Source\PSoC4/UART_UART.c ****         UART_INTR_SPI_EC_MASK_REG = UART_UART_DEFAULT_INTR_SPI_EC_MASK;
  81              		.loc 1 284 0
  82 004a 194B     		ldr	r3, .L2+52
  83 004c 1C60     		str	r4, [r3]
 285:.\Generated_Source\PSoC4/UART_UART.c ****         UART_INTR_SLAVE_MASK_REG  = UART_UART_DEFAULT_INTR_SLAVE_MASK;
  84              		.loc 1 285 0
  85 004e 194B     		ldr	r3, .L2+56
  86 0050 1C60     		str	r4, [r3]
 286:.\Generated_Source\PSoC4/UART_UART.c ****         UART_INTR_MASTER_MASK_REG = UART_UART_DEFAULT_INTR_MASTER_MASK;
  87              		.loc 1 286 0
  88 0052 194B     		ldr	r3, .L2+60
  89 0054 1C60     		str	r4, [r3]
 287:.\Generated_Source\PSoC4/UART_UART.c ****         UART_INTR_RX_MASK_REG     = UART_UART_DEFAULT_INTR_RX_MASK;
  90              		.loc 1 287 0
  91 0056 0422     		mov	r2, #4
  92 0058 184B     		ldr	r3, .L2+64
  93 005a 1A60     		str	r2, [r3]
 288:.\Generated_Source\PSoC4/UART_UART.c ****         UART_INTR_TX_MASK_REG     = UART_UART_DEFAULT_INTR_TX_MASK;
  94              		.loc 1 288 0
  95 005c 184B     		ldr	r3, .L2+68
  96 005e 1C60     		str	r4, [r3]
 289:.\Generated_Source\PSoC4/UART_UART.c ****     
 290:.\Generated_Source\PSoC4/UART_UART.c ****         /* Configure TX interrupt sources to restore. */
 291:.\Generated_Source\PSoC4/UART_UART.c ****         UART_IntrTxMask = LO16(UART_INTR_TX_MASK_REG);
  97              		.loc 1 291 0
  98 0060 1A68     		ldr	r2, [r3]
  99 0062 184B     		ldr	r3, .L2+72
 100 0064 1A80     		strh	r2, [r3]
 292:.\Generated_Source\PSoC4/UART_UART.c **** 
 293:.\Generated_Source\PSoC4/UART_UART.c ****     #if(UART_INTERNAL_RX_SW_BUFFER_CONST)
 294:.\Generated_Source\PSoC4/UART_UART.c ****         UART_rxBufferHead     = 0u;
 101              		.loc 1 294 0
 102 0066 184B     		ldr	r3, .L2+76
 103 0068 1C60     		str	r4, [r3]
 295:.\Generated_Source\PSoC4/UART_UART.c ****         UART_rxBufferTail     = 0u;
 104              		.loc 1 295 0
ARM GAS  C:\Users\g\AppData\Local\Temp\ccqy7DLs.s 			page 8


 105 006a 184B     		ldr	r3, .L2+80
 106 006c 1C60     		str	r4, [r3]
 296:.\Generated_Source\PSoC4/UART_UART.c ****         UART_rxBufferOverflow = 0u;
 107              		.loc 1 296 0
 108 006e 184B     		ldr	r3, .L2+84
 109 0070 1C70     		strb	r4, [r3]
 297:.\Generated_Source\PSoC4/UART_UART.c ****     #endif /* (UART_INTERNAL_RX_SW_BUFFER_CONST) */
 298:.\Generated_Source\PSoC4/UART_UART.c **** 
 299:.\Generated_Source\PSoC4/UART_UART.c ****     #if(UART_INTERNAL_TX_SW_BUFFER_CONST)
 300:.\Generated_Source\PSoC4/UART_UART.c ****         UART_txBufferHead = 0u;
 110              		.loc 1 300 0
 111 0072 184B     		ldr	r3, .L2+88
 112 0074 1C60     		str	r4, [r3]
 301:.\Generated_Source\PSoC4/UART_UART.c ****         UART_txBufferTail = 0u;
 113              		.loc 1 301 0
 114 0076 184B     		ldr	r3, .L2+92
 115 0078 1C60     		str	r4, [r3]
 302:.\Generated_Source\PSoC4/UART_UART.c ****     #endif /* (UART_INTERNAL_TX_SW_BUFFER_CONST) */
 303:.\Generated_Source\PSoC4/UART_UART.c ****     }
 116              		.loc 1 303 0
 117              		@ sp needed
 118 007a 10BD     		pop	{r4, pc}
 119              	.L3:
 120              		.align	2
 121              	.L2:
 122 007c 0B000002 		.word	33554443
 123 0080 00000740 		.word	1074200576
 124 0084 40000740 		.word	1074200640
 125 0088 48000740 		.word	1074200648
 126 008c 07000080 		.word	-2147483641
 127 0090 00030740 		.word	1074201344
 128 0094 04030740 		.word	1074201348
 129 0098 10030740 		.word	1074201360
 130 009c 44000740 		.word	1074200644
 131 00a0 00020740 		.word	1074201088
 132 00a4 04020740 		.word	1074201092
 133 00a8 00000000 		.word	UART_SPI_UART_ISR
 134 00ac 880E0740 		.word	1074204296
 135 00b0 C80E0740 		.word	1074204360
 136 00b4 480F0740 		.word	1074204488
 137 00b8 080F0740 		.word	1074204424
 138 00bc C80F0740 		.word	1074204616
 139 00c0 880F0740 		.word	1074204552
 140 00c4 00000000 		.word	UART_IntrTxMask
 141 00c8 00000000 		.word	UART_rxBufferHead
 142 00cc 00000000 		.word	UART_rxBufferTail
 143 00d0 00000000 		.word	UART_rxBufferOverflow
 144 00d4 00000000 		.word	UART_txBufferHead
 145 00d8 00000000 		.word	UART_txBufferTail
 146              		.cfi_endproc
 147              	.LFE0:
 148              		.size	UART_UartInit, .-UART_UartInit
 149              		.section	.text.UART_UartPostEnable,"ax",%progbits
 150              		.align	2
 151              		.global	UART_UartPostEnable
 152              		.code	16
 153              		.thumb_func
ARM GAS  C:\Users\g\AppData\Local\Temp\ccqy7DLs.s 			page 9


 154              		.type	UART_UartPostEnable, %function
 155              	UART_UartPostEnable:
 156              	.LFB1:
 304:.\Generated_Source\PSoC4/UART_UART.c **** #endif /* (UART_SCB_MODE_UNCONFIG_CONST_CFG) */
 305:.\Generated_Source\PSoC4/UART_UART.c **** 
 306:.\Generated_Source\PSoC4/UART_UART.c **** 
 307:.\Generated_Source\PSoC4/UART_UART.c **** /*******************************************************************************
 308:.\Generated_Source\PSoC4/UART_UART.c **** * Function Name: UART_UartPostEnable
 309:.\Generated_Source\PSoC4/UART_UART.c **** ****************************************************************************//**
 310:.\Generated_Source\PSoC4/UART_UART.c **** *
 311:.\Generated_Source\PSoC4/UART_UART.c **** *  Restores HSIOM settings for the UART output pins (TX and/or RTS) to be
 312:.\Generated_Source\PSoC4/UART_UART.c **** *  controlled by the SCB UART.
 313:.\Generated_Source\PSoC4/UART_UART.c **** *
 314:.\Generated_Source\PSoC4/UART_UART.c **** *******************************************************************************/
 315:.\Generated_Source\PSoC4/UART_UART.c **** void UART_UartPostEnable(void)
 316:.\Generated_Source\PSoC4/UART_UART.c **** {
 157              		.loc 1 316 0
 158              		.cfi_startproc
 317:.\Generated_Source\PSoC4/UART_UART.c **** #if (UART_SCB_MODE_UNCONFIG_CONST_CFG)
 318:.\Generated_Source\PSoC4/UART_UART.c ****     #if (UART_TX_SDA_MISO_PIN)
 319:.\Generated_Source\PSoC4/UART_UART.c ****         if (UART_CHECK_TX_SDA_MISO_PIN_USED)
 320:.\Generated_Source\PSoC4/UART_UART.c ****         {
 321:.\Generated_Source\PSoC4/UART_UART.c ****             /* Set SCB UART to drive the output pin */
 322:.\Generated_Source\PSoC4/UART_UART.c ****             UART_SET_HSIOM_SEL(UART_TX_SDA_MISO_HSIOM_REG, UART_TX_SDA_MISO_HSIOM_MASK,
 323:.\Generated_Source\PSoC4/UART_UART.c ****                                            UART_TX_SDA_MISO_HSIOM_POS, UART_TX_SDA_MISO_HSIOM_SEL_U
 324:.\Generated_Source\PSoC4/UART_UART.c ****         }
 325:.\Generated_Source\PSoC4/UART_UART.c ****     #endif /* (UART_TX_SDA_MISO_PIN_PIN) */
 326:.\Generated_Source\PSoC4/UART_UART.c **** 
 327:.\Generated_Source\PSoC4/UART_UART.c ****     #if !(UART_CY_SCBIP_V0 || UART_CY_SCBIP_V1)
 328:.\Generated_Source\PSoC4/UART_UART.c ****         #if (UART_SS0_PIN)
 329:.\Generated_Source\PSoC4/UART_UART.c ****             if (UART_CHECK_SS0_PIN_USED)
 330:.\Generated_Source\PSoC4/UART_UART.c ****             {
 331:.\Generated_Source\PSoC4/UART_UART.c ****                 /* Set SCB UART to drive the output pin */
 332:.\Generated_Source\PSoC4/UART_UART.c ****                 UART_SET_HSIOM_SEL(UART_SS0_HSIOM_REG, UART_SS0_HSIOM_MASK,
 333:.\Generated_Source\PSoC4/UART_UART.c ****                                                UART_SS0_HSIOM_POS, UART_SS0_HSIOM_SEL_UART);
 334:.\Generated_Source\PSoC4/UART_UART.c ****             }
 335:.\Generated_Source\PSoC4/UART_UART.c ****         #endif /* (UART_SS0_PIN) */
 336:.\Generated_Source\PSoC4/UART_UART.c ****     #endif /* !(UART_CY_SCBIP_V0 || UART_CY_SCBIP_V1) */
 337:.\Generated_Source\PSoC4/UART_UART.c **** 
 338:.\Generated_Source\PSoC4/UART_UART.c **** #else
 339:.\Generated_Source\PSoC4/UART_UART.c ****     #if (UART_UART_TX_PIN)
 340:.\Generated_Source\PSoC4/UART_UART.c ****          /* Set SCB UART to drive the output pin */
 341:.\Generated_Source\PSoC4/UART_UART.c ****         UART_SET_HSIOM_SEL(UART_TX_HSIOM_REG, UART_TX_HSIOM_MASK,
 159              		.loc 1 341 0
 160 0000 0549     		ldr	r1, .L5
 161 0002 0B68     		ldr	r3, [r1]
 162 0004 F022     		mov	r2, #240
 163 0006 9343     		bic	r3, r2
 164 0008 603A     		sub	r2, r2, #96
 165 000a 1343     		orr	r3, r2
 166 000c 0B60     		str	r3, [r1]
 342:.\Generated_Source\PSoC4/UART_UART.c ****                                        UART_TX_HSIOM_POS, UART_TX_HSIOM_SEL_UART);
 343:.\Generated_Source\PSoC4/UART_UART.c ****     #endif /* (UART_UART_TX_PIN) */
 344:.\Generated_Source\PSoC4/UART_UART.c **** 
 345:.\Generated_Source\PSoC4/UART_UART.c ****     #if (UART_UART_RTS_PIN)
 346:.\Generated_Source\PSoC4/UART_UART.c ****         /* Set SCB UART to drive the output pin */
 347:.\Generated_Source\PSoC4/UART_UART.c ****         UART_SET_HSIOM_SEL(UART_RTS_HSIOM_REG, UART_RTS_HSIOM_MASK,
ARM GAS  C:\Users\g\AppData\Local\Temp\ccqy7DLs.s 			page 10


 348:.\Generated_Source\PSoC4/UART_UART.c ****                                        UART_RTS_HSIOM_POS, UART_RTS_HSIOM_SEL_UART);
 349:.\Generated_Source\PSoC4/UART_UART.c ****     #endif /* (UART_UART_RTS_PIN) */
 350:.\Generated_Source\PSoC4/UART_UART.c **** #endif /* (UART_SCB_MODE_UNCONFIG_CONST_CFG) */
 351:.\Generated_Source\PSoC4/UART_UART.c **** 
 352:.\Generated_Source\PSoC4/UART_UART.c ****     /* Restore TX interrupt sources. */
 353:.\Generated_Source\PSoC4/UART_UART.c ****     UART_SetTxInterruptMode(UART_IntrTxMask);
 167              		.loc 1 353 0
 168 000e 034B     		ldr	r3, .L5+4
 169 0010 1A88     		ldrh	r2, [r3]
 170 0012 034B     		ldr	r3, .L5+8
 171 0014 1A60     		str	r2, [r3]
 354:.\Generated_Source\PSoC4/UART_UART.c **** }
 172              		.loc 1 354 0
 173              		@ sp needed
 174 0016 7047     		bx	lr
 175              	.L6:
 176              		.align	2
 177              	.L5:
 178 0018 0C000140 		.word	1073807372
 179 001c 00000000 		.word	UART_IntrTxMask
 180 0020 880F0740 		.word	1074204552
 181              		.cfi_endproc
 182              	.LFE1:
 183              		.size	UART_UartPostEnable, .-UART_UartPostEnable
 184              		.section	.text.UART_UartStop,"ax",%progbits
 185              		.align	2
 186              		.global	UART_UartStop
 187              		.code	16
 188              		.thumb_func
 189              		.type	UART_UartStop, %function
 190              	UART_UartStop:
 191              	.LFB2:
 355:.\Generated_Source\PSoC4/UART_UART.c **** 
 356:.\Generated_Source\PSoC4/UART_UART.c **** 
 357:.\Generated_Source\PSoC4/UART_UART.c **** /*******************************************************************************
 358:.\Generated_Source\PSoC4/UART_UART.c **** * Function Name: UART_UartStop
 359:.\Generated_Source\PSoC4/UART_UART.c **** ****************************************************************************//**
 360:.\Generated_Source\PSoC4/UART_UART.c **** *
 361:.\Generated_Source\PSoC4/UART_UART.c **** *  Changes the HSIOM settings for the UART output pins (TX and/or RTS) to keep
 362:.\Generated_Source\PSoC4/UART_UART.c **** *  them inactive after the block is disabled. The output pins are controlled by
 363:.\Generated_Source\PSoC4/UART_UART.c **** *  the GPIO data register. Also, the function disables the skip start feature
 364:.\Generated_Source\PSoC4/UART_UART.c **** *  to not cause it to trigger after the component is enabled.
 365:.\Generated_Source\PSoC4/UART_UART.c **** *
 366:.\Generated_Source\PSoC4/UART_UART.c **** *******************************************************************************/
 367:.\Generated_Source\PSoC4/UART_UART.c **** void UART_UartStop(void)
 368:.\Generated_Source\PSoC4/UART_UART.c **** {
 192              		.loc 1 368 0
 193              		.cfi_startproc
 369:.\Generated_Source\PSoC4/UART_UART.c **** #if(UART_SCB_MODE_UNCONFIG_CONST_CFG)
 370:.\Generated_Source\PSoC4/UART_UART.c ****     #if (UART_TX_SDA_MISO_PIN)
 371:.\Generated_Source\PSoC4/UART_UART.c ****         if (UART_CHECK_TX_SDA_MISO_PIN_USED)
 372:.\Generated_Source\PSoC4/UART_UART.c ****         {
 373:.\Generated_Source\PSoC4/UART_UART.c ****             /* Set GPIO to drive output pin */
 374:.\Generated_Source\PSoC4/UART_UART.c ****             UART_SET_HSIOM_SEL(UART_TX_SDA_MISO_HSIOM_REG, UART_TX_SDA_MISO_HSIOM_MASK,
 375:.\Generated_Source\PSoC4/UART_UART.c ****                                            UART_TX_SDA_MISO_HSIOM_POS, UART_TX_SDA_MISO_HSIOM_SEL_G
 376:.\Generated_Source\PSoC4/UART_UART.c ****         }
 377:.\Generated_Source\PSoC4/UART_UART.c ****     #endif /* (UART_TX_SDA_MISO_PIN_PIN) */
ARM GAS  C:\Users\g\AppData\Local\Temp\ccqy7DLs.s 			page 11


 378:.\Generated_Source\PSoC4/UART_UART.c **** 
 379:.\Generated_Source\PSoC4/UART_UART.c ****     #if !(UART_CY_SCBIP_V0 || UART_CY_SCBIP_V1)
 380:.\Generated_Source\PSoC4/UART_UART.c ****         #if (UART_SS0_PIN)
 381:.\Generated_Source\PSoC4/UART_UART.c ****             if (UART_CHECK_SS0_PIN_USED)
 382:.\Generated_Source\PSoC4/UART_UART.c ****             {
 383:.\Generated_Source\PSoC4/UART_UART.c ****                 /* Set output pin state after block is disabled */
 384:.\Generated_Source\PSoC4/UART_UART.c ****                 UART_spi_ss0_Write(UART_GET_UART_RTS_INACTIVE);
 385:.\Generated_Source\PSoC4/UART_UART.c **** 
 386:.\Generated_Source\PSoC4/UART_UART.c ****                 /* Set GPIO to drive output pin */
 387:.\Generated_Source\PSoC4/UART_UART.c ****                 UART_SET_HSIOM_SEL(UART_SS0_HSIOM_REG, UART_SS0_HSIOM_MASK,
 388:.\Generated_Source\PSoC4/UART_UART.c ****                                                UART_SS0_HSIOM_POS, UART_SS0_HSIOM_SEL_GPIO);
 389:.\Generated_Source\PSoC4/UART_UART.c ****             }
 390:.\Generated_Source\PSoC4/UART_UART.c ****         #endif /* (UART_SS0_PIN) */
 391:.\Generated_Source\PSoC4/UART_UART.c ****     #endif /* !(UART_CY_SCBIP_V0 || UART_CY_SCBIP_V1) */
 392:.\Generated_Source\PSoC4/UART_UART.c **** 
 393:.\Generated_Source\PSoC4/UART_UART.c **** #else
 394:.\Generated_Source\PSoC4/UART_UART.c ****     #if (UART_UART_TX_PIN)
 395:.\Generated_Source\PSoC4/UART_UART.c ****         /* Set GPIO to drive output pin */
 396:.\Generated_Source\PSoC4/UART_UART.c ****         UART_SET_HSIOM_SEL(UART_TX_HSIOM_REG, UART_TX_HSIOM_MASK,
 194              		.loc 1 396 0
 195 0000 064A     		ldr	r2, .L8
 196 0002 1368     		ldr	r3, [r2]
 197 0004 F021     		mov	r1, #240
 198 0006 8B43     		bic	r3, r1
 199 0008 1360     		str	r3, [r2]
 397:.\Generated_Source\PSoC4/UART_UART.c ****                                        UART_TX_HSIOM_POS, UART_TX_HSIOM_SEL_GPIO);
 398:.\Generated_Source\PSoC4/UART_UART.c ****     #endif /* (UART_UART_TX_PIN) */
 399:.\Generated_Source\PSoC4/UART_UART.c **** 
 400:.\Generated_Source\PSoC4/UART_UART.c ****     #if (UART_UART_RTS_PIN)
 401:.\Generated_Source\PSoC4/UART_UART.c ****         /* Set output pin state after block is disabled */
 402:.\Generated_Source\PSoC4/UART_UART.c ****         UART_rts_Write(UART_GET_UART_RTS_INACTIVE);
 403:.\Generated_Source\PSoC4/UART_UART.c **** 
 404:.\Generated_Source\PSoC4/UART_UART.c ****         /* Set GPIO to drive output pin */
 405:.\Generated_Source\PSoC4/UART_UART.c ****         UART_SET_HSIOM_SEL(UART_RTS_HSIOM_REG, UART_RTS_HSIOM_MASK,
 406:.\Generated_Source\PSoC4/UART_UART.c ****                                        UART_RTS_HSIOM_POS, UART_RTS_HSIOM_SEL_GPIO);
 407:.\Generated_Source\PSoC4/UART_UART.c ****     #endif /* (UART_UART_RTS_PIN) */
 408:.\Generated_Source\PSoC4/UART_UART.c **** 
 409:.\Generated_Source\PSoC4/UART_UART.c **** #endif /* (UART_SCB_MODE_UNCONFIG_CONST_CFG) */
 410:.\Generated_Source\PSoC4/UART_UART.c **** 
 411:.\Generated_Source\PSoC4/UART_UART.c **** #if (UART_UART_WAKE_ENABLE_CONST)
 412:.\Generated_Source\PSoC4/UART_UART.c ****     /* Disable skip start feature used for wakeup */
 413:.\Generated_Source\PSoC4/UART_UART.c ****     UART_UART_RX_CTRL_REG &= (uint32) ~UART_UART_RX_CTRL_SKIP_START;
 414:.\Generated_Source\PSoC4/UART_UART.c **** #endif /* (UART_UART_WAKE_ENABLE_CONST) */
 415:.\Generated_Source\PSoC4/UART_UART.c **** 
 416:.\Generated_Source\PSoC4/UART_UART.c ****     /* Store TX interrupt sources (exclude level triggered). */
 417:.\Generated_Source\PSoC4/UART_UART.c ****     UART_IntrTxMask = LO16(UART_GetTxInterruptMode() & UART_INTR_UART_TX_RESTORE);
 200              		.loc 1 417 0
 201 000a 054B     		ldr	r3, .L8+4
 202 000c 1A68     		ldr	r2, [r3]
 203 000e E423     		mov	r3, #228
 204 0010 DB00     		lsl	r3, r3, #3
 205 0012 1340     		and	r3, r2
 206 0014 034A     		ldr	r2, .L8+8
 207 0016 1380     		strh	r3, [r2]
 418:.\Generated_Source\PSoC4/UART_UART.c **** }
 208              		.loc 1 418 0
 209              		@ sp needed
ARM GAS  C:\Users\g\AppData\Local\Temp\ccqy7DLs.s 			page 12


 210 0018 7047     		bx	lr
 211              	.L9:
 212 001a C046     		.align	2
 213              	.L8:
 214 001c 0C000140 		.word	1073807372
 215 0020 880F0740 		.word	1074204552
 216 0024 00000000 		.word	UART_IntrTxMask
 217              		.cfi_endproc
 218              	.LFE2:
 219              		.size	UART_UartStop, .-UART_UartStop
 220              		.section	.text.UART_UartSetRxAddress,"ax",%progbits
 221              		.align	2
 222              		.global	UART_UartSetRxAddress
 223              		.code	16
 224              		.thumb_func
 225              		.type	UART_UartSetRxAddress, %function
 226              	UART_UartSetRxAddress:
 227              	.LFB3:
 419:.\Generated_Source\PSoC4/UART_UART.c **** 
 420:.\Generated_Source\PSoC4/UART_UART.c **** 
 421:.\Generated_Source\PSoC4/UART_UART.c **** /*******************************************************************************
 422:.\Generated_Source\PSoC4/UART_UART.c **** * Function Name: UART_UartSetRxAddress
 423:.\Generated_Source\PSoC4/UART_UART.c **** ****************************************************************************//**
 424:.\Generated_Source\PSoC4/UART_UART.c **** *
 425:.\Generated_Source\PSoC4/UART_UART.c **** *  Sets the hardware detectable receiver address for the UART in the
 426:.\Generated_Source\PSoC4/UART_UART.c **** *  Multiprocessor mode.
 427:.\Generated_Source\PSoC4/UART_UART.c **** *
 428:.\Generated_Source\PSoC4/UART_UART.c **** *  \param address: Address for hardware address detection.
 429:.\Generated_Source\PSoC4/UART_UART.c **** *
 430:.\Generated_Source\PSoC4/UART_UART.c **** *******************************************************************************/
 431:.\Generated_Source\PSoC4/UART_UART.c **** void UART_UartSetRxAddress(uint32 address)
 432:.\Generated_Source\PSoC4/UART_UART.c **** {
 228              		.loc 1 432 0
 229              		.cfi_startproc
 230              	.LVL3:
 433:.\Generated_Source\PSoC4/UART_UART.c ****      uint32 matchReg;
 434:.\Generated_Source\PSoC4/UART_UART.c **** 
 435:.\Generated_Source\PSoC4/UART_UART.c ****     matchReg = UART_RX_MATCH_REG;
 231              		.loc 1 435 0
 232 0000 034A     		ldr	r2, .L11
 233 0002 1368     		ldr	r3, [r2]
 234              	.LVL4:
 436:.\Generated_Source\PSoC4/UART_UART.c **** 
 437:.\Generated_Source\PSoC4/UART_UART.c ****     matchReg &= ((uint32) ~UART_RX_MATCH_ADDR_MASK); /* Clear address bits */
 235              		.loc 1 437 0
 236 0004 FF21     		mov	r1, #255
 237 0006 8B43     		bic	r3, r1
 238              	.LVL5:
 438:.\Generated_Source\PSoC4/UART_UART.c ****     matchReg |= ((uint32)  (address & UART_RX_MATCH_ADDR_MASK)); /* Set address  */
 239              		.loc 1 438 0
 240 0008 0840     		and	r0, r1
 241              	.LVL6:
 242 000a 1843     		orr	r0, r3
 243              	.LVL7:
 439:.\Generated_Source\PSoC4/UART_UART.c **** 
 440:.\Generated_Source\PSoC4/UART_UART.c ****     UART_RX_MATCH_REG = matchReg;
 244              		.loc 1 440 0
ARM GAS  C:\Users\g\AppData\Local\Temp\ccqy7DLs.s 			page 13


 245 000c 1060     		str	r0, [r2]
 441:.\Generated_Source\PSoC4/UART_UART.c **** }
 246              		.loc 1 441 0
 247              		@ sp needed
 248 000e 7047     		bx	lr
 249              	.L12:
 250              		.align	2
 251              	.L11:
 252 0010 10030740 		.word	1074201360
 253              		.cfi_endproc
 254              	.LFE3:
 255              		.size	UART_UartSetRxAddress, .-UART_UartSetRxAddress
 256              		.section	.text.UART_UartSetRxAddressMask,"ax",%progbits
 257              		.align	2
 258              		.global	UART_UartSetRxAddressMask
 259              		.code	16
 260              		.thumb_func
 261              		.type	UART_UartSetRxAddressMask, %function
 262              	UART_UartSetRxAddressMask:
 263              	.LFB4:
 442:.\Generated_Source\PSoC4/UART_UART.c **** 
 443:.\Generated_Source\PSoC4/UART_UART.c **** 
 444:.\Generated_Source\PSoC4/UART_UART.c **** /*******************************************************************************
 445:.\Generated_Source\PSoC4/UART_UART.c **** * Function Name: UART_UartSetRxAddressMask
 446:.\Generated_Source\PSoC4/UART_UART.c **** ****************************************************************************//**
 447:.\Generated_Source\PSoC4/UART_UART.c **** *
 448:.\Generated_Source\PSoC4/UART_UART.c **** *  Sets the hardware address mask for the UART in the Multiprocessor mode.
 449:.\Generated_Source\PSoC4/UART_UART.c **** *
 450:.\Generated_Source\PSoC4/UART_UART.c **** *  \param addressMask: Address mask.
 451:.\Generated_Source\PSoC4/UART_UART.c **** *   - Bit value 0 – excludes bit from address comparison.
 452:.\Generated_Source\PSoC4/UART_UART.c **** *   - Bit value 1 – the bit needs to match with the corresponding bit
 453:.\Generated_Source\PSoC4/UART_UART.c **** *     of the address.
 454:.\Generated_Source\PSoC4/UART_UART.c **** *
 455:.\Generated_Source\PSoC4/UART_UART.c **** *******************************************************************************/
 456:.\Generated_Source\PSoC4/UART_UART.c **** void UART_UartSetRxAddressMask(uint32 addressMask)
 457:.\Generated_Source\PSoC4/UART_UART.c **** {
 264              		.loc 1 457 0
 265              		.cfi_startproc
 266              	.LVL8:
 458:.\Generated_Source\PSoC4/UART_UART.c ****     uint32 matchReg;
 459:.\Generated_Source\PSoC4/UART_UART.c **** 
 460:.\Generated_Source\PSoC4/UART_UART.c ****     matchReg = UART_RX_MATCH_REG;
 267              		.loc 1 460 0
 268 0000 034A     		ldr	r2, .L14
 269 0002 1168     		ldr	r1, [r2]
 270              	.LVL9:
 461:.\Generated_Source\PSoC4/UART_UART.c **** 
 462:.\Generated_Source\PSoC4/UART_UART.c ****     matchReg &= ((uint32) ~UART_RX_MATCH_MASK_MASK); /* Clear address mask bits */
 271              		.loc 1 462 0
 272 0004 034B     		ldr	r3, .L14+4
 273 0006 0B40     		and	r3, r1
 274              	.LVL10:
 463:.\Generated_Source\PSoC4/UART_UART.c ****     matchReg |= ((uint32) (addressMask << UART_RX_MATCH_MASK_POS));
 275              		.loc 1 463 0
 276 0008 0004     		lsl	r0, r0, #16
 277              	.LVL11:
 278 000a 1843     		orr	r0, r3
ARM GAS  C:\Users\g\AppData\Local\Temp\ccqy7DLs.s 			page 14


 279              	.LVL12:
 464:.\Generated_Source\PSoC4/UART_UART.c **** 
 465:.\Generated_Source\PSoC4/UART_UART.c ****     UART_RX_MATCH_REG = matchReg;
 280              		.loc 1 465 0
 281 000c 1060     		str	r0, [r2]
 466:.\Generated_Source\PSoC4/UART_UART.c **** }
 282              		.loc 1 466 0
 283              		@ sp needed
 284 000e 7047     		bx	lr
 285              	.L15:
 286              		.align	2
 287              	.L14:
 288 0010 10030740 		.word	1074201360
 289 0014 FFFF00FF 		.word	-16711681
 290              		.cfi_endproc
 291              	.LFE4:
 292              		.size	UART_UartSetRxAddressMask, .-UART_UartSetRxAddressMask
 293              		.section	.text.UART_UartGetChar,"ax",%progbits
 294              		.align	2
 295              		.global	UART_UartGetChar
 296              		.code	16
 297              		.thumb_func
 298              		.type	UART_UartGetChar, %function
 299              	UART_UartGetChar:
 300              	.LFB5:
 467:.\Generated_Source\PSoC4/UART_UART.c **** 
 468:.\Generated_Source\PSoC4/UART_UART.c **** 
 469:.\Generated_Source\PSoC4/UART_UART.c **** #if(UART_UART_RX_DIRECTION)
 470:.\Generated_Source\PSoC4/UART_UART.c ****     /*******************************************************************************
 471:.\Generated_Source\PSoC4/UART_UART.c ****     * Function Name: UART_UartGetChar
 472:.\Generated_Source\PSoC4/UART_UART.c ****     ****************************************************************************//**
 473:.\Generated_Source\PSoC4/UART_UART.c ****     *
 474:.\Generated_Source\PSoC4/UART_UART.c ****     *  Retrieves next data element from receive buffer.
 475:.\Generated_Source\PSoC4/UART_UART.c ****     *  This function is designed for ASCII characters and returns a char where
 476:.\Generated_Source\PSoC4/UART_UART.c ****     *  1 to 255 are valid characters and 0 indicates an error occurred or no data
 477:.\Generated_Source\PSoC4/UART_UART.c ****     *  is present.
 478:.\Generated_Source\PSoC4/UART_UART.c ****     *  - RX software buffer is disabled: Returns data element retrieved from RX
 479:.\Generated_Source\PSoC4/UART_UART.c ****     *    FIFO.
 480:.\Generated_Source\PSoC4/UART_UART.c ****     *  - RX software buffer is enabled: Returns data element from the software
 481:.\Generated_Source\PSoC4/UART_UART.c ****     *    receive buffer.
 482:.\Generated_Source\PSoC4/UART_UART.c ****     *
 483:.\Generated_Source\PSoC4/UART_UART.c ****     *  \return
 484:.\Generated_Source\PSoC4/UART_UART.c ****     *   Next data element from the receive buffer. ASCII character values from
 485:.\Generated_Source\PSoC4/UART_UART.c ****     *   1 to 255 are valid. A returned zero signifies an error condition or no
 486:.\Generated_Source\PSoC4/UART_UART.c ****     *   data available.
 487:.\Generated_Source\PSoC4/UART_UART.c ****     *
 488:.\Generated_Source\PSoC4/UART_UART.c ****     *  \sideeffect
 489:.\Generated_Source\PSoC4/UART_UART.c ****     *   The errors bits may not correspond with reading characters due to
 490:.\Generated_Source\PSoC4/UART_UART.c ****     *   RX FIFO and software buffer usage.
 491:.\Generated_Source\PSoC4/UART_UART.c ****     *   RX software buffer is enabled: The internal software buffer overflow
 492:.\Generated_Source\PSoC4/UART_UART.c ****     *   is not treated as an error condition.
 493:.\Generated_Source\PSoC4/UART_UART.c ****     *   Check UART_rxBufferOverflow to capture that error condition.
 494:.\Generated_Source\PSoC4/UART_UART.c ****     *
 495:.\Generated_Source\PSoC4/UART_UART.c ****     *******************************************************************************/
 496:.\Generated_Source\PSoC4/UART_UART.c ****     uint32 UART_UartGetChar(void)
 497:.\Generated_Source\PSoC4/UART_UART.c ****     {
 301              		.loc 1 497 0
ARM GAS  C:\Users\g\AppData\Local\Temp\ccqy7DLs.s 			page 15


 302              		.cfi_startproc
 303 0000 08B5     		push	{r3, lr}
 304              		.cfi_def_cfa_offset 8
 305              		.cfi_offset 3, -8
 306              		.cfi_offset 14, -4
 307              	.LVL13:
 498:.\Generated_Source\PSoC4/UART_UART.c ****         uint32 rxData = 0u;
 499:.\Generated_Source\PSoC4/UART_UART.c **** 
 500:.\Generated_Source\PSoC4/UART_UART.c ****         /* Reads data only if there is data to read */
 501:.\Generated_Source\PSoC4/UART_UART.c ****         if (0u != UART_SpiUartGetRxBufferSize())
 308              		.loc 1 501 0
 309 0002 FFF7FEFF 		bl	UART_SpiUartGetRxBufferSize
 310              	.LVL14:
 311 0006 0028     		cmp	r0, #0
 312 0008 02D0     		beq	.L19
 502:.\Generated_Source\PSoC4/UART_UART.c ****         {
 503:.\Generated_Source\PSoC4/UART_UART.c ****             rxData = UART_SpiUartReadRxData();
 313              		.loc 1 503 0
 314 000a FFF7FEFF 		bl	UART_SpiUartReadRxData
 315              	.LVL15:
 316 000e 00E0     		b	.L17
 317              	.LVL16:
 318              	.L19:
 498:.\Generated_Source\PSoC4/UART_UART.c ****         uint32 rxData = 0u;
 319              		.loc 1 498 0
 320 0010 0020     		mov	r0, #0
 321              	.LVL17:
 322              	.L17:
 504:.\Generated_Source\PSoC4/UART_UART.c ****         }
 505:.\Generated_Source\PSoC4/UART_UART.c **** 
 506:.\Generated_Source\PSoC4/UART_UART.c ****         if (UART_CHECK_INTR_RX(UART_INTR_RX_ERR))
 323              		.loc 1 506 0
 324 0012 054B     		ldr	r3, .L20
 325 0014 1A68     		ldr	r2, [r3]
 326 0016 D823     		mov	r3, #216
 327 0018 9B00     		lsl	r3, r3, #2
 328 001a 1A42     		tst	r2, r3
 329 001c 03D0     		beq	.L18
 330              	.LVL18:
 507:.\Generated_Source\PSoC4/UART_UART.c ****         {
 508:.\Generated_Source\PSoC4/UART_UART.c ****             rxData = 0u; /* Error occurred: returns zero */
 509:.\Generated_Source\PSoC4/UART_UART.c ****             UART_ClearRxInterruptSource(UART_INTR_RX_ERR);
 331              		.loc 1 509 0
 332 001e 1A1C     		mov	r2, r3
 333 0020 014B     		ldr	r3, .L20
 334 0022 1A60     		str	r2, [r3]
 508:.\Generated_Source\PSoC4/UART_UART.c ****             UART_ClearRxInterruptSource(UART_INTR_RX_ERR);
 335              		.loc 1 508 0
 336 0024 0020     		mov	r0, #0
 337              	.LVL19:
 338              	.L18:
 510:.\Generated_Source\PSoC4/UART_UART.c ****         }
 511:.\Generated_Source\PSoC4/UART_UART.c **** 
 512:.\Generated_Source\PSoC4/UART_UART.c ****         return (rxData);
 513:.\Generated_Source\PSoC4/UART_UART.c ****     }
 339              		.loc 1 513 0
 340              		@ sp needed
ARM GAS  C:\Users\g\AppData\Local\Temp\ccqy7DLs.s 			page 16


 341 0026 08BD     		pop	{r3, pc}
 342              	.L21:
 343              		.align	2
 344              	.L20:
 345 0028 C00F0740 		.word	1074204608
 346              		.cfi_endproc
 347              	.LFE5:
 348              		.size	UART_UartGetChar, .-UART_UartGetChar
 349              		.section	.text.UART_UartGetByte,"ax",%progbits
 350              		.align	2
 351              		.global	UART_UartGetByte
 352              		.code	16
 353              		.thumb_func
 354              		.type	UART_UartGetByte, %function
 355              	UART_UartGetByte:
 356              	.LFB6:
 514:.\Generated_Source\PSoC4/UART_UART.c **** 
 515:.\Generated_Source\PSoC4/UART_UART.c **** 
 516:.\Generated_Source\PSoC4/UART_UART.c ****     /*******************************************************************************
 517:.\Generated_Source\PSoC4/UART_UART.c ****     * Function Name: UART_UartGetByte
 518:.\Generated_Source\PSoC4/UART_UART.c ****     ****************************************************************************//**
 519:.\Generated_Source\PSoC4/UART_UART.c ****     *
 520:.\Generated_Source\PSoC4/UART_UART.c ****     *  Retrieves the next data element from the receive buffer, returns the
 521:.\Generated_Source\PSoC4/UART_UART.c ****     *  received byte and error condition.
 522:.\Generated_Source\PSoC4/UART_UART.c ****     *   - The RX software buffer is disabled: returns the data element retrieved
 523:.\Generated_Source\PSoC4/UART_UART.c ****     *     from the RX FIFO. Undefined data will be returned if the RX FIFO is
 524:.\Generated_Source\PSoC4/UART_UART.c ****     *     empty.
 525:.\Generated_Source\PSoC4/UART_UART.c ****     *   - The RX software buffer is enabled: returns data element from the
 526:.\Generated_Source\PSoC4/UART_UART.c ****     *     software receive buffer.
 527:.\Generated_Source\PSoC4/UART_UART.c ****     *
 528:.\Generated_Source\PSoC4/UART_UART.c ****     *  \return
 529:.\Generated_Source\PSoC4/UART_UART.c ****     *   Bits 7-0 contain the next data element from the receive buffer and
 530:.\Generated_Source\PSoC4/UART_UART.c ****     *   other bits contain the error condition.
 531:.\Generated_Source\PSoC4/UART_UART.c ****     *   - UART_UART_RX_OVERFLOW - Attempt to write to a full
 532:.\Generated_Source\PSoC4/UART_UART.c ****     *     receiver FIFO.
 533:.\Generated_Source\PSoC4/UART_UART.c ****     *   - UART_UART_RX_UNDERFLOW	Attempt to read from an empty
 534:.\Generated_Source\PSoC4/UART_UART.c ****     *     receiver FIFO.
 535:.\Generated_Source\PSoC4/UART_UART.c ****     *   - UART_UART_RX_FRAME_ERROR - UART framing error detected.
 536:.\Generated_Source\PSoC4/UART_UART.c ****     *   - UART_UART_RX_PARITY_ERROR - UART parity error detected.
 537:.\Generated_Source\PSoC4/UART_UART.c ****     *
 538:.\Generated_Source\PSoC4/UART_UART.c ****     *  \sideeffect
 539:.\Generated_Source\PSoC4/UART_UART.c ****     *   The errors bits may not correspond with reading characters due to
 540:.\Generated_Source\PSoC4/UART_UART.c ****     *   RX FIFO and software buffer usage.
 541:.\Generated_Source\PSoC4/UART_UART.c ****     *   RX software buffer is enabled: The internal software buffer overflow
 542:.\Generated_Source\PSoC4/UART_UART.c ****     *   is not treated as an error condition.
 543:.\Generated_Source\PSoC4/UART_UART.c ****     *   Check UART_rxBufferOverflow to capture that error condition.
 544:.\Generated_Source\PSoC4/UART_UART.c ****     *
 545:.\Generated_Source\PSoC4/UART_UART.c ****     *******************************************************************************/
 546:.\Generated_Source\PSoC4/UART_UART.c ****     uint32 UART_UartGetByte(void)
 547:.\Generated_Source\PSoC4/UART_UART.c ****     {
 357              		.loc 1 547 0
 358              		.cfi_startproc
 359 0000 10B5     		push	{r4, lr}
 360              		.cfi_def_cfa_offset 8
 361              		.cfi_offset 4, -8
 362              		.cfi_offset 14, -4
 548:.\Generated_Source\PSoC4/UART_UART.c ****         uint32 rxData;
ARM GAS  C:\Users\g\AppData\Local\Temp\ccqy7DLs.s 			page 17


 549:.\Generated_Source\PSoC4/UART_UART.c ****         uint32 tmpStatus;
 550:.\Generated_Source\PSoC4/UART_UART.c **** 
 551:.\Generated_Source\PSoC4/UART_UART.c ****         #if (UART_CHECK_RX_SW_BUFFER)
 552:.\Generated_Source\PSoC4/UART_UART.c ****         {
 553:.\Generated_Source\PSoC4/UART_UART.c ****             UART_DisableInt();
 363              		.loc 1 553 0
 364 0002 0B20     		mov	r0, #11
 365 0004 FFF7FEFF 		bl	CyIntDisable
 366              	.LVL20:
 554:.\Generated_Source\PSoC4/UART_UART.c ****         }
 555:.\Generated_Source\PSoC4/UART_UART.c ****         #endif
 556:.\Generated_Source\PSoC4/UART_UART.c **** 
 557:.\Generated_Source\PSoC4/UART_UART.c ****         if (0u != UART_SpiUartGetRxBufferSize())
 367              		.loc 1 557 0
 368 0008 FFF7FEFF 		bl	UART_SpiUartGetRxBufferSize
 369              	.LVL21:
 370 000c 0028     		cmp	r0, #0
 371 000e 06D0     		beq	.L23
 558:.\Generated_Source\PSoC4/UART_UART.c ****         {
 559:.\Generated_Source\PSoC4/UART_UART.c ****             /* Enables interrupt to receive more bytes: at least one byte is in
 560:.\Generated_Source\PSoC4/UART_UART.c ****             * buffer.
 561:.\Generated_Source\PSoC4/UART_UART.c ****             */
 562:.\Generated_Source\PSoC4/UART_UART.c ****             #if (UART_CHECK_RX_SW_BUFFER)
 563:.\Generated_Source\PSoC4/UART_UART.c ****             {
 564:.\Generated_Source\PSoC4/UART_UART.c ****                 UART_EnableInt();
 372              		.loc 1 564 0
 373 0010 0B20     		mov	r0, #11
 374 0012 FFF7FEFF 		bl	CyIntEnable
 375              	.LVL22:
 565:.\Generated_Source\PSoC4/UART_UART.c ****             }
 566:.\Generated_Source\PSoC4/UART_UART.c ****             #endif
 567:.\Generated_Source\PSoC4/UART_UART.c **** 
 568:.\Generated_Source\PSoC4/UART_UART.c ****             /* Get received byte */
 569:.\Generated_Source\PSoC4/UART_UART.c ****             rxData = UART_SpiUartReadRxData();
 376              		.loc 1 569 0
 377 0016 FFF7FEFF 		bl	UART_SpiUartReadRxData
 378              	.LVL23:
 379 001a 041C     		mov	r4, r0
 380              	.LVL24:
 381 001c 07E0     		b	.L24
 382              	.LVL25:
 383              	.L23:
 570:.\Generated_Source\PSoC4/UART_UART.c ****         }
 571:.\Generated_Source\PSoC4/UART_UART.c ****         else
 572:.\Generated_Source\PSoC4/UART_UART.c ****         {
 573:.\Generated_Source\PSoC4/UART_UART.c ****             /* Reads a byte directly from RX FIFO: underflow is raised in the
 574:.\Generated_Source\PSoC4/UART_UART.c ****             * case of empty. Otherwise the first received byte will be read.
 575:.\Generated_Source\PSoC4/UART_UART.c ****             */
 576:.\Generated_Source\PSoC4/UART_UART.c ****             rxData = UART_RX_FIFO_RD_REG;
 384              		.loc 1 576 0
 385 001e 084B     		ldr	r3, .L25
 386 0020 1C68     		ldr	r4, [r3]
 387              	.LVL26:
 577:.\Generated_Source\PSoC4/UART_UART.c **** 
 578:.\Generated_Source\PSoC4/UART_UART.c **** 
 579:.\Generated_Source\PSoC4/UART_UART.c ****             /* Enables interrupt to receive more bytes. */
 580:.\Generated_Source\PSoC4/UART_UART.c ****             #if (UART_CHECK_RX_SW_BUFFER)
ARM GAS  C:\Users\g\AppData\Local\Temp\ccqy7DLs.s 			page 18


 581:.\Generated_Source\PSoC4/UART_UART.c ****             {
 582:.\Generated_Source\PSoC4/UART_UART.c **** 
 583:.\Generated_Source\PSoC4/UART_UART.c ****                 /* The byte has been read from RX FIFO. Clear RX interrupt to
 584:.\Generated_Source\PSoC4/UART_UART.c ****                 * not involve interrupt handler when RX FIFO is empty.
 585:.\Generated_Source\PSoC4/UART_UART.c ****                 */
 586:.\Generated_Source\PSoC4/UART_UART.c ****                 UART_ClearRxInterruptSource(UART_INTR_RX_NOT_EMPTY);
 388              		.loc 1 586 0
 389 0022 0422     		mov	r2, #4
 390 0024 074B     		ldr	r3, .L25+4
 391 0026 1A60     		str	r2, [r3]
 587:.\Generated_Source\PSoC4/UART_UART.c **** 
 588:.\Generated_Source\PSoC4/UART_UART.c ****                 UART_EnableInt();
 392              		.loc 1 588 0
 393 0028 0B20     		mov	r0, #11
 394 002a FFF7FEFF 		bl	CyIntEnable
 395              	.LVL27:
 396              	.L24:
 589:.\Generated_Source\PSoC4/UART_UART.c ****             }
 590:.\Generated_Source\PSoC4/UART_UART.c ****             #endif
 591:.\Generated_Source\PSoC4/UART_UART.c ****         }
 592:.\Generated_Source\PSoC4/UART_UART.c **** 
 593:.\Generated_Source\PSoC4/UART_UART.c ****         /* Get and clear RX error mask */
 594:.\Generated_Source\PSoC4/UART_UART.c ****         tmpStatus = (UART_GetRxInterruptSource() & UART_INTR_RX_ERR);
 397              		.loc 1 594 0
 398 002e 054B     		ldr	r3, .L25+4
 399 0030 1868     		ldr	r0, [r3]
 400 0032 D822     		mov	r2, #216
 401 0034 9200     		lsl	r2, r2, #2
 402 0036 1040     		and	r0, r2
 403              	.LVL28:
 595:.\Generated_Source\PSoC4/UART_UART.c ****         UART_ClearRxInterruptSource(UART_INTR_RX_ERR);
 404              		.loc 1 595 0
 405 0038 1A60     		str	r2, [r3]
 596:.\Generated_Source\PSoC4/UART_UART.c **** 
 597:.\Generated_Source\PSoC4/UART_UART.c ****         /* Puts together data and error status:
 598:.\Generated_Source\PSoC4/UART_UART.c ****         * MP mode and accept address: 9th bit is set to notify mark.
 599:.\Generated_Source\PSoC4/UART_UART.c ****         */
 600:.\Generated_Source\PSoC4/UART_UART.c ****         rxData |= ((uint32) (tmpStatus << 8u));
 406              		.loc 1 600 0
 407 003a 0002     		lsl	r0, r0, #8
 408              	.LVL29:
 409 003c 2043     		orr	r0, r4
 410              	.LVL30:
 601:.\Generated_Source\PSoC4/UART_UART.c **** 
 602:.\Generated_Source\PSoC4/UART_UART.c ****         return (rxData);
 603:.\Generated_Source\PSoC4/UART_UART.c ****     }
 411              		.loc 1 603 0
 412              		@ sp needed
 413 003e 10BD     		pop	{r4, pc}
 414              	.L26:
 415              		.align	2
 416              	.L25:
 417 0040 40030740 		.word	1074201408
 418 0044 C00F0740 		.word	1074204608
 419              		.cfi_endproc
 420              	.LFE6:
 421              		.size	UART_UartGetByte, .-UART_UartGetByte
ARM GAS  C:\Users\g\AppData\Local\Temp\ccqy7DLs.s 			page 19


 422              		.section	.text.UART_UartPutString,"ax",%progbits
 423              		.align	2
 424              		.global	UART_UartPutString
 425              		.code	16
 426              		.thumb_func
 427              		.type	UART_UartPutString, %function
 428              	UART_UartPutString:
 429              	.LFB7:
 604:.\Generated_Source\PSoC4/UART_UART.c **** 
 605:.\Generated_Source\PSoC4/UART_UART.c **** 
 606:.\Generated_Source\PSoC4/UART_UART.c ****     #if !(UART_CY_SCBIP_V0 || UART_CY_SCBIP_V1)
 607:.\Generated_Source\PSoC4/UART_UART.c ****         /*******************************************************************************
 608:.\Generated_Source\PSoC4/UART_UART.c ****         * Function Name: UART_UartSetRtsPolarity
 609:.\Generated_Source\PSoC4/UART_UART.c ****         ****************************************************************************//**
 610:.\Generated_Source\PSoC4/UART_UART.c ****         *
 611:.\Generated_Source\PSoC4/UART_UART.c ****         *  Sets active polarity of RTS output signal.
 612:.\Generated_Source\PSoC4/UART_UART.c ****         *  Only available for PSoC 4100 BLE / PSoC 4200 BLE / PSoC 4100M / PSoC 4200M /
 613:.\Generated_Source\PSoC4/UART_UART.c ****         *  PSoC 4200L / PSoC 4000S / PSoC 4100S / PSoC Analog Coprocessor devices.
 614:.\Generated_Source\PSoC4/UART_UART.c ****         *
 615:.\Generated_Source\PSoC4/UART_UART.c ****         *  \param polarity: Active polarity of RTS output signal.
 616:.\Generated_Source\PSoC4/UART_UART.c ****         *   - UART_UART_RTS_ACTIVE_LOW  - RTS signal is active low.
 617:.\Generated_Source\PSoC4/UART_UART.c ****         *   - UART_UART_RTS_ACTIVE_HIGH - RTS signal is active high.
 618:.\Generated_Source\PSoC4/UART_UART.c ****         *
 619:.\Generated_Source\PSoC4/UART_UART.c ****         *******************************************************************************/
 620:.\Generated_Source\PSoC4/UART_UART.c ****         void UART_UartSetRtsPolarity(uint32 polarity)
 621:.\Generated_Source\PSoC4/UART_UART.c ****         {
 622:.\Generated_Source\PSoC4/UART_UART.c ****             if(0u != polarity)
 623:.\Generated_Source\PSoC4/UART_UART.c ****             {
 624:.\Generated_Source\PSoC4/UART_UART.c ****                 UART_UART_FLOW_CTRL_REG |= (uint32)  UART_UART_FLOW_CTRL_RTS_POLARITY;
 625:.\Generated_Source\PSoC4/UART_UART.c ****             }
 626:.\Generated_Source\PSoC4/UART_UART.c ****             else
 627:.\Generated_Source\PSoC4/UART_UART.c ****             {
 628:.\Generated_Source\PSoC4/UART_UART.c ****                 UART_UART_FLOW_CTRL_REG &= (uint32) ~UART_UART_FLOW_CTRL_RTS_POLARITY;
 629:.\Generated_Source\PSoC4/UART_UART.c ****             }
 630:.\Generated_Source\PSoC4/UART_UART.c ****         }
 631:.\Generated_Source\PSoC4/UART_UART.c **** 
 632:.\Generated_Source\PSoC4/UART_UART.c **** 
 633:.\Generated_Source\PSoC4/UART_UART.c ****         /*******************************************************************************
 634:.\Generated_Source\PSoC4/UART_UART.c ****         * Function Name: UART_UartSetRtsFifoLevel
 635:.\Generated_Source\PSoC4/UART_UART.c ****         ****************************************************************************//**
 636:.\Generated_Source\PSoC4/UART_UART.c ****         *
 637:.\Generated_Source\PSoC4/UART_UART.c ****         *  Sets level in the RX FIFO for RTS signal activation.
 638:.\Generated_Source\PSoC4/UART_UART.c ****         *  While the RX FIFO has fewer entries than the RX FIFO level the RTS signal
 639:.\Generated_Source\PSoC4/UART_UART.c ****         *  remains active, otherwise the RTS signal becomes inactive.
 640:.\Generated_Source\PSoC4/UART_UART.c ****         *  Only available for PSoC 4100 BLE / PSoC 4200 BLE / PSoC 4100M / PSoC 4200M /
 641:.\Generated_Source\PSoC4/UART_UART.c ****         *  PSoC 4200L / PSoC 4000S / PSoC 4100S / PSoC Analog Coprocessor devices.
 642:.\Generated_Source\PSoC4/UART_UART.c ****         *
 643:.\Generated_Source\PSoC4/UART_UART.c ****         *  \param level: Level in the RX FIFO for RTS signal activation.
 644:.\Generated_Source\PSoC4/UART_UART.c ****         *   The range of valid level values is between 0 and RX FIFO depth - 1.
 645:.\Generated_Source\PSoC4/UART_UART.c ****         *   Setting level value to 0 disables RTS signal activation.
 646:.\Generated_Source\PSoC4/UART_UART.c ****         *
 647:.\Generated_Source\PSoC4/UART_UART.c ****         *******************************************************************************/
 648:.\Generated_Source\PSoC4/UART_UART.c ****         void UART_UartSetRtsFifoLevel(uint32 level)
 649:.\Generated_Source\PSoC4/UART_UART.c ****         {
 650:.\Generated_Source\PSoC4/UART_UART.c ****             uint32 uartFlowCtrl;
 651:.\Generated_Source\PSoC4/UART_UART.c **** 
 652:.\Generated_Source\PSoC4/UART_UART.c ****             uartFlowCtrl = UART_UART_FLOW_CTRL_REG;
ARM GAS  C:\Users\g\AppData\Local\Temp\ccqy7DLs.s 			page 20


 653:.\Generated_Source\PSoC4/UART_UART.c **** 
 654:.\Generated_Source\PSoC4/UART_UART.c ****             uartFlowCtrl &= ((uint32) ~UART_UART_FLOW_CTRL_TRIGGER_LEVEL_MASK); /* Clear level mask
 655:.\Generated_Source\PSoC4/UART_UART.c ****             uartFlowCtrl |= ((uint32) (UART_UART_FLOW_CTRL_TRIGGER_LEVEL_MASK & level));
 656:.\Generated_Source\PSoC4/UART_UART.c **** 
 657:.\Generated_Source\PSoC4/UART_UART.c ****             UART_UART_FLOW_CTRL_REG = uartFlowCtrl;
 658:.\Generated_Source\PSoC4/UART_UART.c ****         }
 659:.\Generated_Source\PSoC4/UART_UART.c ****     #endif /* !(UART_CY_SCBIP_V0 || UART_CY_SCBIP_V1) */
 660:.\Generated_Source\PSoC4/UART_UART.c **** 
 661:.\Generated_Source\PSoC4/UART_UART.c **** #endif /* (UART_UART_RX_DIRECTION) */
 662:.\Generated_Source\PSoC4/UART_UART.c **** 
 663:.\Generated_Source\PSoC4/UART_UART.c **** 
 664:.\Generated_Source\PSoC4/UART_UART.c **** #if(UART_UART_TX_DIRECTION)
 665:.\Generated_Source\PSoC4/UART_UART.c ****     /*******************************************************************************
 666:.\Generated_Source\PSoC4/UART_UART.c ****     * Function Name: UART_UartPutString
 667:.\Generated_Source\PSoC4/UART_UART.c ****     ****************************************************************************//**
 668:.\Generated_Source\PSoC4/UART_UART.c ****     *
 669:.\Generated_Source\PSoC4/UART_UART.c ****     *  Places a NULL terminated string in the transmit buffer to be sent at the
 670:.\Generated_Source\PSoC4/UART_UART.c ****     *  next available bus time.
 671:.\Generated_Source\PSoC4/UART_UART.c ****     *  This function is blocking and waits until there is a space available to put
 672:.\Generated_Source\PSoC4/UART_UART.c ****     *  requested data in transmit buffer.
 673:.\Generated_Source\PSoC4/UART_UART.c ****     *
 674:.\Generated_Source\PSoC4/UART_UART.c ****     *  \param string: pointer to the null terminated string array to be placed in the
 675:.\Generated_Source\PSoC4/UART_UART.c ****     *   transmit buffer.
 676:.\Generated_Source\PSoC4/UART_UART.c ****     *
 677:.\Generated_Source\PSoC4/UART_UART.c ****     *******************************************************************************/
 678:.\Generated_Source\PSoC4/UART_UART.c ****     void UART_UartPutString(const char8 string[])
 679:.\Generated_Source\PSoC4/UART_UART.c ****     {
 430              		.loc 1 679 0
 431              		.cfi_startproc
 432              	.LVL31:
 433 0000 38B5     		push	{r3, r4, r5, lr}
 434              		.cfi_def_cfa_offset 16
 435              		.cfi_offset 3, -16
 436              		.cfi_offset 4, -12
 437              		.cfi_offset 5, -8
 438              		.cfi_offset 14, -4
 439 0002 051C     		mov	r5, r0
 440              	.LVL32:
 680:.\Generated_Source\PSoC4/UART_UART.c ****         uint32 bufIndex;
 681:.\Generated_Source\PSoC4/UART_UART.c **** 
 682:.\Generated_Source\PSoC4/UART_UART.c ****         bufIndex = 0u;
 441              		.loc 1 682 0
 442 0004 0024     		mov	r4, #0
 683:.\Generated_Source\PSoC4/UART_UART.c **** 
 684:.\Generated_Source\PSoC4/UART_UART.c ****         /* Blocks the control flow until all data has been sent */
 685:.\Generated_Source\PSoC4/UART_UART.c ****         while(string[bufIndex] != ((char8) 0))
 443              		.loc 1 685 0
 444 0006 02E0     		b	.L28
 445              	.LVL33:
 446              	.L29:
 686:.\Generated_Source\PSoC4/UART_UART.c ****         {
 687:.\Generated_Source\PSoC4/UART_UART.c ****             UART_UartPutChar((uint32) string[bufIndex]);
 447              		.loc 1 687 0
 448 0008 FFF7FEFF 		bl	UART_SpiUartWriteTxData
 449              	.LVL34:
 688:.\Generated_Source\PSoC4/UART_UART.c ****             bufIndex++;
 450              		.loc 1 688 0
ARM GAS  C:\Users\g\AppData\Local\Temp\ccqy7DLs.s 			page 21


 451 000c 0134     		add	r4, r4, #1
 452              	.LVL35:
 453              	.L28:
 685:.\Generated_Source\PSoC4/UART_UART.c ****         {
 454              		.loc 1 685 0
 455 000e 285D     		ldrb	r0, [r5, r4]
 456 0010 0028     		cmp	r0, #0
 457 0012 F9D1     		bne	.L29
 689:.\Generated_Source\PSoC4/UART_UART.c ****         }
 690:.\Generated_Source\PSoC4/UART_UART.c ****     }
 458              		.loc 1 690 0
 459              		@ sp needed
 460              	.LVL36:
 461              	.LVL37:
 462 0014 38BD     		pop	{r3, r4, r5, pc}
 463              		.cfi_endproc
 464              	.LFE7:
 465              		.size	UART_UartPutString, .-UART_UartPutString
 466 0016 C046     		.section	.text.UART_UartPutCRLF,"ax",%progbits
 467              		.align	2
 468              		.global	UART_UartPutCRLF
 469              		.code	16
 470              		.thumb_func
 471              		.type	UART_UartPutCRLF, %function
 472              	UART_UartPutCRLF:
 473              	.LFB8:
 691:.\Generated_Source\PSoC4/UART_UART.c **** 
 692:.\Generated_Source\PSoC4/UART_UART.c **** 
 693:.\Generated_Source\PSoC4/UART_UART.c ****     /*******************************************************************************
 694:.\Generated_Source\PSoC4/UART_UART.c ****     * Function Name: UART_UartPutCRLF
 695:.\Generated_Source\PSoC4/UART_UART.c ****     ****************************************************************************//**
 696:.\Generated_Source\PSoC4/UART_UART.c ****     *
 697:.\Generated_Source\PSoC4/UART_UART.c ****     *  Places byte of data followed by a carriage return (0x0D) and line feed
 698:.\Generated_Source\PSoC4/UART_UART.c ****     *  (0x0A) in the transmit buffer.
 699:.\Generated_Source\PSoC4/UART_UART.c ****     *  This function is blocking and waits until there is a space available to put
 700:.\Generated_Source\PSoC4/UART_UART.c ****     *  all requested data in transmit buffer.
 701:.\Generated_Source\PSoC4/UART_UART.c ****     *
 702:.\Generated_Source\PSoC4/UART_UART.c ****     *  \param txDataByte: the data to be transmitted.
 703:.\Generated_Source\PSoC4/UART_UART.c ****     *
 704:.\Generated_Source\PSoC4/UART_UART.c ****     *******************************************************************************/
 705:.\Generated_Source\PSoC4/UART_UART.c ****     void UART_UartPutCRLF(uint32 txDataByte)
 706:.\Generated_Source\PSoC4/UART_UART.c ****     {
 474              		.loc 1 706 0
 475              		.cfi_startproc
 476              	.LVL38:
 477 0000 08B5     		push	{r3, lr}
 478              		.cfi_def_cfa_offset 8
 479              		.cfi_offset 3, -8
 480              		.cfi_offset 14, -4
 707:.\Generated_Source\PSoC4/UART_UART.c ****         UART_UartPutChar(txDataByte);  /* Blocks control flow until all data has been sent */
 481              		.loc 1 707 0
 482 0002 FFF7FEFF 		bl	UART_SpiUartWriteTxData
 483              	.LVL39:
 708:.\Generated_Source\PSoC4/UART_UART.c ****         UART_UartPutChar(0x0Du);       /* Blocks control flow until all data has been sent */
 484              		.loc 1 708 0
 485 0006 0D20     		mov	r0, #13
 486 0008 FFF7FEFF 		bl	UART_SpiUartWriteTxData
ARM GAS  C:\Users\g\AppData\Local\Temp\ccqy7DLs.s 			page 22


 487              	.LVL40:
 709:.\Generated_Source\PSoC4/UART_UART.c ****         UART_UartPutChar(0x0Au);       /* Blocks control flow until all data has been sent */
 488              		.loc 1 709 0
 489 000c 0A20     		mov	r0, #10
 490 000e FFF7FEFF 		bl	UART_SpiUartWriteTxData
 491              	.LVL41:
 710:.\Generated_Source\PSoC4/UART_UART.c ****     }
 492              		.loc 1 710 0
 493              		@ sp needed
 494 0012 08BD     		pop	{r3, pc}
 495              		.cfi_endproc
 496              	.LFE8:
 497              		.size	UART_UartPutCRLF, .-UART_UartPutCRLF
 498              		.text
 499              	.Letext0:
 500              		.file 2 "Generated_Source\\PSoC4/cytypes.h"
 501              		.file 3 ".\\Generated_Source\\PSoC4\\UART_PVT.h"
 502              		.file 4 ".\\Generated_Source\\PSoC4\\UART_SPI_UART_PVT.h"
 503              		.file 5 "Generated_Source\\PSoC4/CyLib.h"
 504              		.file 6 ".\\Generated_Source\\PSoC4\\UART_SPI_UART.h"