ARM GAS  C:\Users\g\AppData\Local\Temp\ccJkQXBc.s 			page 1


   1              		.cpu cortex-m0
   2              		.fpu softvfp
   3              		.eabi_attribute 20, 1
   4              		.eabi_attribute 21, 1
   5              		.eabi_attribute 23, 3
   6              		.eabi_attribute 24, 1
   7              		.eabi_attribute 25, 1
   8              		.eabi_attribute 26, 1
   9              		.eabi_attribute 30, 2
  10              		.eabi_attribute 34, 0
  11              		.eabi_attribute 18, 4
  12              		.code	16
  13              		.file	"ADC_IRQ.c"
  14              		.text
  15              	.Ltext0:
  16              		.cfi_sections	.debug_frame
  17              		.section	.text.ADC_IRQ_Interrupt,"ax",%progbits
  18              		.align	2
  19              		.global	ADC_IRQ_Interrupt
  20              		.code	16
  21              		.thumb_func
  22              		.type	ADC_IRQ_Interrupt, %function
  23              	ADC_IRQ_Interrupt:
  24              	.LFB3:
  25              		.file 1 ".\\Generated_Source\\PSoC4\\ADC_IRQ.c"
   1:.\Generated_Source\PSoC4/ADC_IRQ.c **** /*******************************************************************************
   2:.\Generated_Source\PSoC4/ADC_IRQ.c **** * File Name: ADC_IRQ.c  
   3:.\Generated_Source\PSoC4/ADC_IRQ.c **** * Version 1.70
   4:.\Generated_Source\PSoC4/ADC_IRQ.c **** *
   5:.\Generated_Source\PSoC4/ADC_IRQ.c **** *  Description:
   6:.\Generated_Source\PSoC4/ADC_IRQ.c **** *   API for controlling the state of an interrupt.
   7:.\Generated_Source\PSoC4/ADC_IRQ.c **** *
   8:.\Generated_Source\PSoC4/ADC_IRQ.c **** *
   9:.\Generated_Source\PSoC4/ADC_IRQ.c **** *  Note:
  10:.\Generated_Source\PSoC4/ADC_IRQ.c **** *
  11:.\Generated_Source\PSoC4/ADC_IRQ.c **** ********************************************************************************
  12:.\Generated_Source\PSoC4/ADC_IRQ.c **** * Copyright 2008-2015, Cypress Semiconductor Corporation.  All rights reserved.
  13:.\Generated_Source\PSoC4/ADC_IRQ.c **** * You may use this file only in accordance with the license, terms, conditions, 
  14:.\Generated_Source\PSoC4/ADC_IRQ.c **** * disclaimers, and limitations in the end user license agreement accompanying 
  15:.\Generated_Source\PSoC4/ADC_IRQ.c **** * the software package with which this file was provided.
  16:.\Generated_Source\PSoC4/ADC_IRQ.c **** *******************************************************************************/
  17:.\Generated_Source\PSoC4/ADC_IRQ.c **** 
  18:.\Generated_Source\PSoC4/ADC_IRQ.c **** 
  19:.\Generated_Source\PSoC4/ADC_IRQ.c **** #include <cydevice_trm.h>
  20:.\Generated_Source\PSoC4/ADC_IRQ.c **** #include <CyLib.h>
  21:.\Generated_Source\PSoC4/ADC_IRQ.c **** #include <ADC_IRQ.h>
  22:.\Generated_Source\PSoC4/ADC_IRQ.c **** #include "cyapicallbacks.h"
  23:.\Generated_Source\PSoC4/ADC_IRQ.c **** 
  24:.\Generated_Source\PSoC4/ADC_IRQ.c **** #if !defined(ADC_IRQ__REMOVED) /* Check for removal by optimization */
  25:.\Generated_Source\PSoC4/ADC_IRQ.c **** 
  26:.\Generated_Source\PSoC4/ADC_IRQ.c **** /*******************************************************************************
  27:.\Generated_Source\PSoC4/ADC_IRQ.c **** *  Place your includes, defines and code here 
  28:.\Generated_Source\PSoC4/ADC_IRQ.c **** ********************************************************************************/
  29:.\Generated_Source\PSoC4/ADC_IRQ.c **** /* `#START ADC_IRQ_intc` */
  30:.\Generated_Source\PSoC4/ADC_IRQ.c **** 
  31:.\Generated_Source\PSoC4/ADC_IRQ.c **** /* `#END` */
  32:.\Generated_Source\PSoC4/ADC_IRQ.c **** 
ARM GAS  C:\Users\g\AppData\Local\Temp\ccJkQXBc.s 			page 2


  33:.\Generated_Source\PSoC4/ADC_IRQ.c **** extern cyisraddress CyRamVectors[CYINT_IRQ_BASE + CY_NUM_INTERRUPTS];
  34:.\Generated_Source\PSoC4/ADC_IRQ.c **** 
  35:.\Generated_Source\PSoC4/ADC_IRQ.c **** /* Declared in startup, used to set unused interrupts to. */
  36:.\Generated_Source\PSoC4/ADC_IRQ.c **** CY_ISR_PROTO(IntDefaultHandler);
  37:.\Generated_Source\PSoC4/ADC_IRQ.c **** 
  38:.\Generated_Source\PSoC4/ADC_IRQ.c **** 
  39:.\Generated_Source\PSoC4/ADC_IRQ.c **** /*******************************************************************************
  40:.\Generated_Source\PSoC4/ADC_IRQ.c **** * Function Name: ADC_IRQ_Start
  41:.\Generated_Source\PSoC4/ADC_IRQ.c **** ********************************************************************************
  42:.\Generated_Source\PSoC4/ADC_IRQ.c **** *
  43:.\Generated_Source\PSoC4/ADC_IRQ.c **** * Summary:
  44:.\Generated_Source\PSoC4/ADC_IRQ.c **** *  Set up the interrupt and enable it. This function disables the interrupt, 
  45:.\Generated_Source\PSoC4/ADC_IRQ.c **** *  sets the default interrupt vector, sets the priority from the value in the
  46:.\Generated_Source\PSoC4/ADC_IRQ.c **** *  Design Wide Resources Interrupt Editor, then enables the interrupt to the 
  47:.\Generated_Source\PSoC4/ADC_IRQ.c **** *  interrupt controller.
  48:.\Generated_Source\PSoC4/ADC_IRQ.c **** *
  49:.\Generated_Source\PSoC4/ADC_IRQ.c **** * Parameters:  
  50:.\Generated_Source\PSoC4/ADC_IRQ.c **** *   None
  51:.\Generated_Source\PSoC4/ADC_IRQ.c **** *
  52:.\Generated_Source\PSoC4/ADC_IRQ.c **** * Return:
  53:.\Generated_Source\PSoC4/ADC_IRQ.c **** *   None
  54:.\Generated_Source\PSoC4/ADC_IRQ.c **** *
  55:.\Generated_Source\PSoC4/ADC_IRQ.c **** *******************************************************************************/
  56:.\Generated_Source\PSoC4/ADC_IRQ.c **** void ADC_IRQ_Start(void)
  57:.\Generated_Source\PSoC4/ADC_IRQ.c **** {
  58:.\Generated_Source\PSoC4/ADC_IRQ.c ****     /* For all we know the interrupt is active. */
  59:.\Generated_Source\PSoC4/ADC_IRQ.c ****     ADC_IRQ_Disable();
  60:.\Generated_Source\PSoC4/ADC_IRQ.c **** 
  61:.\Generated_Source\PSoC4/ADC_IRQ.c ****     /* Set the ISR to point to the ADC_IRQ Interrupt. */
  62:.\Generated_Source\PSoC4/ADC_IRQ.c ****     ADC_IRQ_SetVector(&ADC_IRQ_Interrupt);
  63:.\Generated_Source\PSoC4/ADC_IRQ.c **** 
  64:.\Generated_Source\PSoC4/ADC_IRQ.c ****     /* Set the priority. */
  65:.\Generated_Source\PSoC4/ADC_IRQ.c ****     ADC_IRQ_SetPriority((uint8)ADC_IRQ_INTC_PRIOR_NUMBER);
  66:.\Generated_Source\PSoC4/ADC_IRQ.c **** 
  67:.\Generated_Source\PSoC4/ADC_IRQ.c ****     /* Enable it. */
  68:.\Generated_Source\PSoC4/ADC_IRQ.c ****     ADC_IRQ_Enable();
  69:.\Generated_Source\PSoC4/ADC_IRQ.c **** }
  70:.\Generated_Source\PSoC4/ADC_IRQ.c **** 
  71:.\Generated_Source\PSoC4/ADC_IRQ.c **** 
  72:.\Generated_Source\PSoC4/ADC_IRQ.c **** /*******************************************************************************
  73:.\Generated_Source\PSoC4/ADC_IRQ.c **** * Function Name: ADC_IRQ_StartEx
  74:.\Generated_Source\PSoC4/ADC_IRQ.c **** ********************************************************************************
  75:.\Generated_Source\PSoC4/ADC_IRQ.c **** *
  76:.\Generated_Source\PSoC4/ADC_IRQ.c **** * Summary:
  77:.\Generated_Source\PSoC4/ADC_IRQ.c **** *  Sets up the interrupt and enables it. This function disables the interrupt,
  78:.\Generated_Source\PSoC4/ADC_IRQ.c **** *  sets the interrupt vector based on the address passed in, sets the priority 
  79:.\Generated_Source\PSoC4/ADC_IRQ.c **** *  from the value in the Design Wide Resources Interrupt Editor, then enables 
  80:.\Generated_Source\PSoC4/ADC_IRQ.c **** *  the interrupt to the interrupt controller.
  81:.\Generated_Source\PSoC4/ADC_IRQ.c **** *  
  82:.\Generated_Source\PSoC4/ADC_IRQ.c **** *  When defining ISR functions, the CY_ISR and CY_ISR_PROTO macros should be 
  83:.\Generated_Source\PSoC4/ADC_IRQ.c **** *  used to provide consistent definition across compilers:
  84:.\Generated_Source\PSoC4/ADC_IRQ.c **** *  
  85:.\Generated_Source\PSoC4/ADC_IRQ.c **** *  Function definition example:
  86:.\Generated_Source\PSoC4/ADC_IRQ.c **** *   CY_ISR(MyISR)
  87:.\Generated_Source\PSoC4/ADC_IRQ.c **** *   {
  88:.\Generated_Source\PSoC4/ADC_IRQ.c **** *   }
  89:.\Generated_Source\PSoC4/ADC_IRQ.c **** *   Function prototype example:
ARM GAS  C:\Users\g\AppData\Local\Temp\ccJkQXBc.s 			page 3


  90:.\Generated_Source\PSoC4/ADC_IRQ.c **** *   CY_ISR_PROTO(MyISR);
  91:.\Generated_Source\PSoC4/ADC_IRQ.c **** *
  92:.\Generated_Source\PSoC4/ADC_IRQ.c **** * Parameters:  
  93:.\Generated_Source\PSoC4/ADC_IRQ.c **** *   address: Address of the ISR to set in the interrupt vector table.
  94:.\Generated_Source\PSoC4/ADC_IRQ.c **** *
  95:.\Generated_Source\PSoC4/ADC_IRQ.c **** * Return:
  96:.\Generated_Source\PSoC4/ADC_IRQ.c **** *   None
  97:.\Generated_Source\PSoC4/ADC_IRQ.c **** *
  98:.\Generated_Source\PSoC4/ADC_IRQ.c **** *******************************************************************************/
  99:.\Generated_Source\PSoC4/ADC_IRQ.c **** void ADC_IRQ_StartEx(cyisraddress address)
 100:.\Generated_Source\PSoC4/ADC_IRQ.c **** {
 101:.\Generated_Source\PSoC4/ADC_IRQ.c ****     /* For all we know the interrupt is active. */
 102:.\Generated_Source\PSoC4/ADC_IRQ.c ****     ADC_IRQ_Disable();
 103:.\Generated_Source\PSoC4/ADC_IRQ.c **** 
 104:.\Generated_Source\PSoC4/ADC_IRQ.c ****     /* Set the ISR to point to the ADC_IRQ Interrupt. */
 105:.\Generated_Source\PSoC4/ADC_IRQ.c ****     ADC_IRQ_SetVector(address);
 106:.\Generated_Source\PSoC4/ADC_IRQ.c **** 
 107:.\Generated_Source\PSoC4/ADC_IRQ.c ****     /* Set the priority. */
 108:.\Generated_Source\PSoC4/ADC_IRQ.c ****     ADC_IRQ_SetPriority((uint8)ADC_IRQ_INTC_PRIOR_NUMBER);
 109:.\Generated_Source\PSoC4/ADC_IRQ.c **** 
 110:.\Generated_Source\PSoC4/ADC_IRQ.c ****     /* Enable it. */
 111:.\Generated_Source\PSoC4/ADC_IRQ.c ****     ADC_IRQ_Enable();
 112:.\Generated_Source\PSoC4/ADC_IRQ.c **** }
 113:.\Generated_Source\PSoC4/ADC_IRQ.c **** 
 114:.\Generated_Source\PSoC4/ADC_IRQ.c **** 
 115:.\Generated_Source\PSoC4/ADC_IRQ.c **** /*******************************************************************************
 116:.\Generated_Source\PSoC4/ADC_IRQ.c **** * Function Name: ADC_IRQ_Stop
 117:.\Generated_Source\PSoC4/ADC_IRQ.c **** ********************************************************************************
 118:.\Generated_Source\PSoC4/ADC_IRQ.c **** *
 119:.\Generated_Source\PSoC4/ADC_IRQ.c **** * Summary:
 120:.\Generated_Source\PSoC4/ADC_IRQ.c **** *   Disables and removes the interrupt.
 121:.\Generated_Source\PSoC4/ADC_IRQ.c **** *
 122:.\Generated_Source\PSoC4/ADC_IRQ.c **** * Parameters:  
 123:.\Generated_Source\PSoC4/ADC_IRQ.c **** *   None
 124:.\Generated_Source\PSoC4/ADC_IRQ.c **** *
 125:.\Generated_Source\PSoC4/ADC_IRQ.c **** * Return:
 126:.\Generated_Source\PSoC4/ADC_IRQ.c **** *   None
 127:.\Generated_Source\PSoC4/ADC_IRQ.c **** *
 128:.\Generated_Source\PSoC4/ADC_IRQ.c **** *******************************************************************************/
 129:.\Generated_Source\PSoC4/ADC_IRQ.c **** void ADC_IRQ_Stop(void)
 130:.\Generated_Source\PSoC4/ADC_IRQ.c **** {
 131:.\Generated_Source\PSoC4/ADC_IRQ.c ****     /* Disable this interrupt. */
 132:.\Generated_Source\PSoC4/ADC_IRQ.c ****     ADC_IRQ_Disable();
 133:.\Generated_Source\PSoC4/ADC_IRQ.c **** 
 134:.\Generated_Source\PSoC4/ADC_IRQ.c ****     /* Set the ISR to point to the passive one. */
 135:.\Generated_Source\PSoC4/ADC_IRQ.c ****     ADC_IRQ_SetVector(&IntDefaultHandler);
 136:.\Generated_Source\PSoC4/ADC_IRQ.c **** }
 137:.\Generated_Source\PSoC4/ADC_IRQ.c **** 
 138:.\Generated_Source\PSoC4/ADC_IRQ.c **** 
 139:.\Generated_Source\PSoC4/ADC_IRQ.c **** /*******************************************************************************
 140:.\Generated_Source\PSoC4/ADC_IRQ.c **** * Function Name: ADC_IRQ_Interrupt
 141:.\Generated_Source\PSoC4/ADC_IRQ.c **** ********************************************************************************
 142:.\Generated_Source\PSoC4/ADC_IRQ.c **** *
 143:.\Generated_Source\PSoC4/ADC_IRQ.c **** * Summary:
 144:.\Generated_Source\PSoC4/ADC_IRQ.c **** *   The default Interrupt Service Routine for ADC_IRQ.
 145:.\Generated_Source\PSoC4/ADC_IRQ.c **** *
 146:.\Generated_Source\PSoC4/ADC_IRQ.c **** *   Add custom code between the START and END comments to keep the next version
ARM GAS  C:\Users\g\AppData\Local\Temp\ccJkQXBc.s 			page 4


 147:.\Generated_Source\PSoC4/ADC_IRQ.c **** *   of this file from over-writing your code.
 148:.\Generated_Source\PSoC4/ADC_IRQ.c **** *
 149:.\Generated_Source\PSoC4/ADC_IRQ.c **** *   Note You may use either the default ISR by using this API, or you may define
 150:.\Generated_Source\PSoC4/ADC_IRQ.c **** *   your own separate ISR through ISR_StartEx().
 151:.\Generated_Source\PSoC4/ADC_IRQ.c **** *
 152:.\Generated_Source\PSoC4/ADC_IRQ.c **** * Parameters:  
 153:.\Generated_Source\PSoC4/ADC_IRQ.c **** *   None
 154:.\Generated_Source\PSoC4/ADC_IRQ.c **** *
 155:.\Generated_Source\PSoC4/ADC_IRQ.c **** * Return:
 156:.\Generated_Source\PSoC4/ADC_IRQ.c **** *   None
 157:.\Generated_Source\PSoC4/ADC_IRQ.c **** *
 158:.\Generated_Source\PSoC4/ADC_IRQ.c **** *******************************************************************************/
 159:.\Generated_Source\PSoC4/ADC_IRQ.c **** CY_ISR(ADC_IRQ_Interrupt)
 160:.\Generated_Source\PSoC4/ADC_IRQ.c **** {
  26              		.loc 1 160 0
  27              		.cfi_startproc
 161:.\Generated_Source\PSoC4/ADC_IRQ.c ****     #ifdef ADC_IRQ_INTERRUPT_INTERRUPT_CALLBACK
 162:.\Generated_Source\PSoC4/ADC_IRQ.c ****         ADC_IRQ_Interrupt_InterruptCallback();
 163:.\Generated_Source\PSoC4/ADC_IRQ.c ****     #endif /* ADC_IRQ_INTERRUPT_INTERRUPT_CALLBACK */ 
 164:.\Generated_Source\PSoC4/ADC_IRQ.c **** 
 165:.\Generated_Source\PSoC4/ADC_IRQ.c ****     /*  Place your Interrupt code here. */
 166:.\Generated_Source\PSoC4/ADC_IRQ.c ****     /* `#START ADC_IRQ_Interrupt` */
 167:.\Generated_Source\PSoC4/ADC_IRQ.c **** 
 168:.\Generated_Source\PSoC4/ADC_IRQ.c ****     /* `#END` */
 169:.\Generated_Source\PSoC4/ADC_IRQ.c **** }
  28              		.loc 1 169 0
  29              		@ sp needed
  30 0000 7047     		bx	lr
  31              		.cfi_endproc
  32              	.LFE3:
  33              		.size	ADC_IRQ_Interrupt, .-ADC_IRQ_Interrupt
  34 0002 C046     		.section	.text.ADC_IRQ_Stop,"ax",%progbits
  35              		.align	2
  36              		.global	ADC_IRQ_Stop
  37              		.code	16
  38              		.thumb_func
  39              		.type	ADC_IRQ_Stop, %function
  40              	ADC_IRQ_Stop:
  41              	.LFB2:
 130:.\Generated_Source\PSoC4/ADC_IRQ.c ****     /* Disable this interrupt. */
  42              		.loc 1 130 0
  43              		.cfi_startproc
  44              	.LBB18:
  45              	.LBB19:
 170:.\Generated_Source\PSoC4/ADC_IRQ.c **** 
 171:.\Generated_Source\PSoC4/ADC_IRQ.c **** 
 172:.\Generated_Source\PSoC4/ADC_IRQ.c **** /*******************************************************************************
 173:.\Generated_Source\PSoC4/ADC_IRQ.c **** * Function Name: ADC_IRQ_SetVector
 174:.\Generated_Source\PSoC4/ADC_IRQ.c **** ********************************************************************************
 175:.\Generated_Source\PSoC4/ADC_IRQ.c **** *
 176:.\Generated_Source\PSoC4/ADC_IRQ.c **** * Summary:
 177:.\Generated_Source\PSoC4/ADC_IRQ.c **** *   Change the ISR vector for the Interrupt. Note calling ADC_IRQ_Start
 178:.\Generated_Source\PSoC4/ADC_IRQ.c **** *   will override any effect this method would have had. To set the vector 
 179:.\Generated_Source\PSoC4/ADC_IRQ.c **** *   before the component has been started use ADC_IRQ_StartEx instead.
 180:.\Generated_Source\PSoC4/ADC_IRQ.c **** * 
 181:.\Generated_Source\PSoC4/ADC_IRQ.c **** *   When defining ISR functions, the CY_ISR and CY_ISR_PROTO macros should be 
 182:.\Generated_Source\PSoC4/ADC_IRQ.c **** *   used to provide consistent definition across compilers:
ARM GAS  C:\Users\g\AppData\Local\Temp\ccJkQXBc.s 			page 5


 183:.\Generated_Source\PSoC4/ADC_IRQ.c **** *
 184:.\Generated_Source\PSoC4/ADC_IRQ.c **** *   Function definition example:
 185:.\Generated_Source\PSoC4/ADC_IRQ.c **** *   CY_ISR(MyISR)
 186:.\Generated_Source\PSoC4/ADC_IRQ.c **** *   {
 187:.\Generated_Source\PSoC4/ADC_IRQ.c **** *   }
 188:.\Generated_Source\PSoC4/ADC_IRQ.c **** *
 189:.\Generated_Source\PSoC4/ADC_IRQ.c **** *   Function prototype example:
 190:.\Generated_Source\PSoC4/ADC_IRQ.c **** *     CY_ISR_PROTO(MyISR);
 191:.\Generated_Source\PSoC4/ADC_IRQ.c **** *
 192:.\Generated_Source\PSoC4/ADC_IRQ.c **** * Parameters:
 193:.\Generated_Source\PSoC4/ADC_IRQ.c **** *   address: Address of the ISR to set in the interrupt vector table.
 194:.\Generated_Source\PSoC4/ADC_IRQ.c **** *
 195:.\Generated_Source\PSoC4/ADC_IRQ.c **** * Return:
 196:.\Generated_Source\PSoC4/ADC_IRQ.c **** *   None
 197:.\Generated_Source\PSoC4/ADC_IRQ.c **** *
 198:.\Generated_Source\PSoC4/ADC_IRQ.c **** *******************************************************************************/
 199:.\Generated_Source\PSoC4/ADC_IRQ.c **** void ADC_IRQ_SetVector(cyisraddress address)
 200:.\Generated_Source\PSoC4/ADC_IRQ.c **** {
 201:.\Generated_Source\PSoC4/ADC_IRQ.c ****     CyRamVectors[CYINT_IRQ_BASE + ADC_IRQ__INTC_NUMBER] = address;
 202:.\Generated_Source\PSoC4/ADC_IRQ.c **** }
 203:.\Generated_Source\PSoC4/ADC_IRQ.c **** 
 204:.\Generated_Source\PSoC4/ADC_IRQ.c **** 
 205:.\Generated_Source\PSoC4/ADC_IRQ.c **** /*******************************************************************************
 206:.\Generated_Source\PSoC4/ADC_IRQ.c **** * Function Name: ADC_IRQ_GetVector
 207:.\Generated_Source\PSoC4/ADC_IRQ.c **** ********************************************************************************
 208:.\Generated_Source\PSoC4/ADC_IRQ.c **** *
 209:.\Generated_Source\PSoC4/ADC_IRQ.c **** * Summary:
 210:.\Generated_Source\PSoC4/ADC_IRQ.c **** *   Gets the "address" of the current ISR vector for the Interrupt.
 211:.\Generated_Source\PSoC4/ADC_IRQ.c **** *
 212:.\Generated_Source\PSoC4/ADC_IRQ.c **** * Parameters:
 213:.\Generated_Source\PSoC4/ADC_IRQ.c **** *   None
 214:.\Generated_Source\PSoC4/ADC_IRQ.c **** *
 215:.\Generated_Source\PSoC4/ADC_IRQ.c **** * Return:
 216:.\Generated_Source\PSoC4/ADC_IRQ.c **** *   Address of the ISR in the interrupt vector table.
 217:.\Generated_Source\PSoC4/ADC_IRQ.c **** *
 218:.\Generated_Source\PSoC4/ADC_IRQ.c **** *******************************************************************************/
 219:.\Generated_Source\PSoC4/ADC_IRQ.c **** cyisraddress ADC_IRQ_GetVector(void)
 220:.\Generated_Source\PSoC4/ADC_IRQ.c **** {
 221:.\Generated_Source\PSoC4/ADC_IRQ.c ****     return CyRamVectors[CYINT_IRQ_BASE + ADC_IRQ__INTC_NUMBER];
 222:.\Generated_Source\PSoC4/ADC_IRQ.c **** }
 223:.\Generated_Source\PSoC4/ADC_IRQ.c **** 
 224:.\Generated_Source\PSoC4/ADC_IRQ.c **** 
 225:.\Generated_Source\PSoC4/ADC_IRQ.c **** /*******************************************************************************
 226:.\Generated_Source\PSoC4/ADC_IRQ.c **** * Function Name: ADC_IRQ_SetPriority
 227:.\Generated_Source\PSoC4/ADC_IRQ.c **** ********************************************************************************
 228:.\Generated_Source\PSoC4/ADC_IRQ.c **** *
 229:.\Generated_Source\PSoC4/ADC_IRQ.c **** * Summary:
 230:.\Generated_Source\PSoC4/ADC_IRQ.c **** *   Sets the Priority of the Interrupt. 
 231:.\Generated_Source\PSoC4/ADC_IRQ.c **** *
 232:.\Generated_Source\PSoC4/ADC_IRQ.c **** *   Note calling ADC_IRQ_Start or ADC_IRQ_StartEx will 
 233:.\Generated_Source\PSoC4/ADC_IRQ.c **** *   override any effect this API would have had. This API should only be called
 234:.\Generated_Source\PSoC4/ADC_IRQ.c **** *   after ADC_IRQ_Start or ADC_IRQ_StartEx has been called. 
 235:.\Generated_Source\PSoC4/ADC_IRQ.c **** *   To set the initial priority for the component, use the Design-Wide Resources
 236:.\Generated_Source\PSoC4/ADC_IRQ.c **** *   Interrupt Editor.
 237:.\Generated_Source\PSoC4/ADC_IRQ.c **** *
 238:.\Generated_Source\PSoC4/ADC_IRQ.c **** *   Note This API has no effect on Non-maskable interrupt NMI).
 239:.\Generated_Source\PSoC4/ADC_IRQ.c **** *
ARM GAS  C:\Users\g\AppData\Local\Temp\ccJkQXBc.s 			page 6


 240:.\Generated_Source\PSoC4/ADC_IRQ.c **** * Parameters:
 241:.\Generated_Source\PSoC4/ADC_IRQ.c **** *   priority: Priority of the interrupt, 0 being the highest priority
 242:.\Generated_Source\PSoC4/ADC_IRQ.c **** *             PSoC 3 and PSoC 5LP: Priority is from 0 to 7.
 243:.\Generated_Source\PSoC4/ADC_IRQ.c **** *             PSoC 4: Priority is from 0 to 3.
 244:.\Generated_Source\PSoC4/ADC_IRQ.c **** *
 245:.\Generated_Source\PSoC4/ADC_IRQ.c **** * Return:
 246:.\Generated_Source\PSoC4/ADC_IRQ.c **** *   None
 247:.\Generated_Source\PSoC4/ADC_IRQ.c **** *
 248:.\Generated_Source\PSoC4/ADC_IRQ.c **** *******************************************************************************/
 249:.\Generated_Source\PSoC4/ADC_IRQ.c **** void ADC_IRQ_SetPriority(uint8 priority)
 250:.\Generated_Source\PSoC4/ADC_IRQ.c **** {
 251:.\Generated_Source\PSoC4/ADC_IRQ.c **** 	uint8 interruptState;
 252:.\Generated_Source\PSoC4/ADC_IRQ.c ****     uint32 priorityOffset = ((ADC_IRQ__INTC_NUMBER % 4u) * 8u) + 6u;
 253:.\Generated_Source\PSoC4/ADC_IRQ.c ****     
 254:.\Generated_Source\PSoC4/ADC_IRQ.c **** 	interruptState = CyEnterCriticalSection();
 255:.\Generated_Source\PSoC4/ADC_IRQ.c ****     *ADC_IRQ_INTC_PRIOR = (*ADC_IRQ_INTC_PRIOR & (uint32)(~ADC_IRQ__INTC_PRIOR_MASK)) |
 256:.\Generated_Source\PSoC4/ADC_IRQ.c ****                                     ((uint32)priority << priorityOffset);
 257:.\Generated_Source\PSoC4/ADC_IRQ.c **** 	CyExitCriticalSection(interruptState);
 258:.\Generated_Source\PSoC4/ADC_IRQ.c **** }
 259:.\Generated_Source\PSoC4/ADC_IRQ.c **** 
 260:.\Generated_Source\PSoC4/ADC_IRQ.c **** 
 261:.\Generated_Source\PSoC4/ADC_IRQ.c **** /*******************************************************************************
 262:.\Generated_Source\PSoC4/ADC_IRQ.c **** * Function Name: ADC_IRQ_GetPriority
 263:.\Generated_Source\PSoC4/ADC_IRQ.c **** ********************************************************************************
 264:.\Generated_Source\PSoC4/ADC_IRQ.c **** *
 265:.\Generated_Source\PSoC4/ADC_IRQ.c **** * Summary:
 266:.\Generated_Source\PSoC4/ADC_IRQ.c **** *   Gets the Priority of the Interrupt.
 267:.\Generated_Source\PSoC4/ADC_IRQ.c **** *
 268:.\Generated_Source\PSoC4/ADC_IRQ.c **** * Parameters:
 269:.\Generated_Source\PSoC4/ADC_IRQ.c **** *   None
 270:.\Generated_Source\PSoC4/ADC_IRQ.c **** *
 271:.\Generated_Source\PSoC4/ADC_IRQ.c **** * Return:
 272:.\Generated_Source\PSoC4/ADC_IRQ.c **** *   Priority of the interrupt, 0 being the highest priority
 273:.\Generated_Source\PSoC4/ADC_IRQ.c **** *    PSoC 3 and PSoC 5LP: Priority is from 0 to 7.
 274:.\Generated_Source\PSoC4/ADC_IRQ.c **** *    PSoC 4: Priority is from 0 to 3.
 275:.\Generated_Source\PSoC4/ADC_IRQ.c **** *
 276:.\Generated_Source\PSoC4/ADC_IRQ.c **** *******************************************************************************/
 277:.\Generated_Source\PSoC4/ADC_IRQ.c **** uint8 ADC_IRQ_GetPriority(void)
 278:.\Generated_Source\PSoC4/ADC_IRQ.c **** {
 279:.\Generated_Source\PSoC4/ADC_IRQ.c ****     uint32 priority;
 280:.\Generated_Source\PSoC4/ADC_IRQ.c **** 	uint32 priorityOffset = ((ADC_IRQ__INTC_NUMBER % 4u) * 8u) + 6u;
 281:.\Generated_Source\PSoC4/ADC_IRQ.c **** 
 282:.\Generated_Source\PSoC4/ADC_IRQ.c ****     priority = (*ADC_IRQ_INTC_PRIOR & ADC_IRQ__INTC_PRIOR_MASK) >> priorityOffset;
 283:.\Generated_Source\PSoC4/ADC_IRQ.c **** 
 284:.\Generated_Source\PSoC4/ADC_IRQ.c ****     return (uint8)priority;
 285:.\Generated_Source\PSoC4/ADC_IRQ.c **** }
 286:.\Generated_Source\PSoC4/ADC_IRQ.c **** 
 287:.\Generated_Source\PSoC4/ADC_IRQ.c **** 
 288:.\Generated_Source\PSoC4/ADC_IRQ.c **** /*******************************************************************************
 289:.\Generated_Source\PSoC4/ADC_IRQ.c **** * Function Name: ADC_IRQ_Enable
 290:.\Generated_Source\PSoC4/ADC_IRQ.c **** ********************************************************************************
 291:.\Generated_Source\PSoC4/ADC_IRQ.c **** *
 292:.\Generated_Source\PSoC4/ADC_IRQ.c **** * Summary:
 293:.\Generated_Source\PSoC4/ADC_IRQ.c **** *   Enables the interrupt to the interrupt controller. Do not call this function
 294:.\Generated_Source\PSoC4/ADC_IRQ.c **** *   unless ISR_Start() has been called or the functionality of the ISR_Start() 
 295:.\Generated_Source\PSoC4/ADC_IRQ.c **** *   function, which sets the vector and the priority, has been called.
 296:.\Generated_Source\PSoC4/ADC_IRQ.c **** *
ARM GAS  C:\Users\g\AppData\Local\Temp\ccJkQXBc.s 			page 7


 297:.\Generated_Source\PSoC4/ADC_IRQ.c **** * Parameters:
 298:.\Generated_Source\PSoC4/ADC_IRQ.c **** *   None
 299:.\Generated_Source\PSoC4/ADC_IRQ.c **** *
 300:.\Generated_Source\PSoC4/ADC_IRQ.c **** * Return:
 301:.\Generated_Source\PSoC4/ADC_IRQ.c **** *   None
 302:.\Generated_Source\PSoC4/ADC_IRQ.c **** *
 303:.\Generated_Source\PSoC4/ADC_IRQ.c **** *******************************************************************************/
 304:.\Generated_Source\PSoC4/ADC_IRQ.c **** void ADC_IRQ_Enable(void)
 305:.\Generated_Source\PSoC4/ADC_IRQ.c **** {
 306:.\Generated_Source\PSoC4/ADC_IRQ.c ****     /* Enable the general interrupt. */
 307:.\Generated_Source\PSoC4/ADC_IRQ.c ****     *ADC_IRQ_INTC_SET_EN = ADC_IRQ__INTC_MASK;
 308:.\Generated_Source\PSoC4/ADC_IRQ.c **** }
 309:.\Generated_Source\PSoC4/ADC_IRQ.c **** 
 310:.\Generated_Source\PSoC4/ADC_IRQ.c **** 
 311:.\Generated_Source\PSoC4/ADC_IRQ.c **** /*******************************************************************************
 312:.\Generated_Source\PSoC4/ADC_IRQ.c **** * Function Name: ADC_IRQ_GetState
 313:.\Generated_Source\PSoC4/ADC_IRQ.c **** ********************************************************************************
 314:.\Generated_Source\PSoC4/ADC_IRQ.c **** *
 315:.\Generated_Source\PSoC4/ADC_IRQ.c **** * Summary:
 316:.\Generated_Source\PSoC4/ADC_IRQ.c **** *   Gets the state (enabled, disabled) of the Interrupt.
 317:.\Generated_Source\PSoC4/ADC_IRQ.c **** *
 318:.\Generated_Source\PSoC4/ADC_IRQ.c **** * Parameters:
 319:.\Generated_Source\PSoC4/ADC_IRQ.c **** *   None
 320:.\Generated_Source\PSoC4/ADC_IRQ.c **** *
 321:.\Generated_Source\PSoC4/ADC_IRQ.c **** * Return:
 322:.\Generated_Source\PSoC4/ADC_IRQ.c **** *   1 if enabled, 0 if disabled.
 323:.\Generated_Source\PSoC4/ADC_IRQ.c **** *
 324:.\Generated_Source\PSoC4/ADC_IRQ.c **** *******************************************************************************/
 325:.\Generated_Source\PSoC4/ADC_IRQ.c **** uint8 ADC_IRQ_GetState(void)
 326:.\Generated_Source\PSoC4/ADC_IRQ.c **** {
 327:.\Generated_Source\PSoC4/ADC_IRQ.c ****     /* Get the state of the general interrupt. */
 328:.\Generated_Source\PSoC4/ADC_IRQ.c ****     return ((*ADC_IRQ_INTC_SET_EN & (uint32)ADC_IRQ__INTC_MASK) != 0u) ? 1u:0u;
 329:.\Generated_Source\PSoC4/ADC_IRQ.c **** }
 330:.\Generated_Source\PSoC4/ADC_IRQ.c **** 
 331:.\Generated_Source\PSoC4/ADC_IRQ.c **** 
 332:.\Generated_Source\PSoC4/ADC_IRQ.c **** /*******************************************************************************
 333:.\Generated_Source\PSoC4/ADC_IRQ.c **** * Function Name: ADC_IRQ_Disable
 334:.\Generated_Source\PSoC4/ADC_IRQ.c **** ********************************************************************************
 335:.\Generated_Source\PSoC4/ADC_IRQ.c **** *
 336:.\Generated_Source\PSoC4/ADC_IRQ.c **** * Summary:
 337:.\Generated_Source\PSoC4/ADC_IRQ.c **** *   Disables the Interrupt in the interrupt controller.
 338:.\Generated_Source\PSoC4/ADC_IRQ.c **** *
 339:.\Generated_Source\PSoC4/ADC_IRQ.c **** * Parameters:
 340:.\Generated_Source\PSoC4/ADC_IRQ.c **** *   None
 341:.\Generated_Source\PSoC4/ADC_IRQ.c **** *
 342:.\Generated_Source\PSoC4/ADC_IRQ.c **** * Return:
 343:.\Generated_Source\PSoC4/ADC_IRQ.c **** *   None
 344:.\Generated_Source\PSoC4/ADC_IRQ.c **** *
 345:.\Generated_Source\PSoC4/ADC_IRQ.c **** *******************************************************************************/
 346:.\Generated_Source\PSoC4/ADC_IRQ.c **** void ADC_IRQ_Disable(void)
 347:.\Generated_Source\PSoC4/ADC_IRQ.c **** {
 348:.\Generated_Source\PSoC4/ADC_IRQ.c ****     /* Disable the general interrupt. */
 349:.\Generated_Source\PSoC4/ADC_IRQ.c ****     *ADC_IRQ_INTC_CLR_EN = ADC_IRQ__INTC_MASK;
  46              		.loc 1 349 0
  47 0000 8022     		mov	r2, #128
  48 0002 034B     		ldr	r3, .L3
  49 0004 D201     		lsl	r2, r2, #7
ARM GAS  C:\Users\g\AppData\Local\Temp\ccJkQXBc.s 			page 8


  50 0006 1A60     		str	r2, [r3]
  51              	.LVL0:
  52              	.LBE19:
  53              	.LBE18:
  54              	.LBB20:
  55              	.LBB21:
 201:.\Generated_Source\PSoC4/ADC_IRQ.c **** }
  56              		.loc 1 201 0
  57 0008 024A     		ldr	r2, .L3+4
  58 000a 034B     		ldr	r3, .L3+8
  59              	.LBE21:
  60              	.LBE20:
 136:.\Generated_Source\PSoC4/ADC_IRQ.c **** 
  61              		.loc 1 136 0
  62              		@ sp needed
  63              	.LBB23:
  64              	.LBB22:
 201:.\Generated_Source\PSoC4/ADC_IRQ.c **** }
  65              		.loc 1 201 0
  66 000c 9A67     		str	r2, [r3, #120]
  67              	.LBE22:
  68              	.LBE23:
 136:.\Generated_Source\PSoC4/ADC_IRQ.c **** 
  69              		.loc 1 136 0
  70 000e 7047     		bx	lr
  71              	.L4:
  72              		.align	2
  73              	.L3:
  74 0010 80E100E0 		.word	-536813184
  75 0014 00000000 		.word	IntDefaultHandler
  76 0018 00000000 		.word	CyRamVectors
  77              		.cfi_endproc
  78              	.LFE2:
  79              		.size	ADC_IRQ_Stop, .-ADC_IRQ_Stop
  80              		.section	.text.ADC_IRQ_SetVector,"ax",%progbits
  81              		.align	2
  82              		.global	ADC_IRQ_SetVector
  83              		.code	16
  84              		.thumb_func
  85              		.type	ADC_IRQ_SetVector, %function
  86              	ADC_IRQ_SetVector:
  87              	.LFB4:
 200:.\Generated_Source\PSoC4/ADC_IRQ.c ****     CyRamVectors[CYINT_IRQ_BASE + ADC_IRQ__INTC_NUMBER] = address;
  88              		.loc 1 200 0
  89              		.cfi_startproc
  90              	.LVL1:
 201:.\Generated_Source\PSoC4/ADC_IRQ.c **** }
  91              		.loc 1 201 0
  92 0000 014B     		ldr	r3, .L6
 202:.\Generated_Source\PSoC4/ADC_IRQ.c **** 
  93              		.loc 1 202 0
  94              		@ sp needed
 201:.\Generated_Source\PSoC4/ADC_IRQ.c **** }
  95              		.loc 1 201 0
  96 0002 9867     		str	r0, [r3, #120]
 202:.\Generated_Source\PSoC4/ADC_IRQ.c **** 
  97              		.loc 1 202 0
ARM GAS  C:\Users\g\AppData\Local\Temp\ccJkQXBc.s 			page 9


  98 0004 7047     		bx	lr
  99              	.L7:
 100 0006 C046     		.align	2
 101              	.L6:
 102 0008 00000000 		.word	CyRamVectors
 103              		.cfi_endproc
 104              	.LFE4:
 105              		.size	ADC_IRQ_SetVector, .-ADC_IRQ_SetVector
 106              		.section	.text.ADC_IRQ_GetVector,"ax",%progbits
 107              		.align	2
 108              		.global	ADC_IRQ_GetVector
 109              		.code	16
 110              		.thumb_func
 111              		.type	ADC_IRQ_GetVector, %function
 112              	ADC_IRQ_GetVector:
 113              	.LFB5:
 220:.\Generated_Source\PSoC4/ADC_IRQ.c ****     return CyRamVectors[CYINT_IRQ_BASE + ADC_IRQ__INTC_NUMBER];
 114              		.loc 1 220 0
 115              		.cfi_startproc
 221:.\Generated_Source\PSoC4/ADC_IRQ.c **** }
 116              		.loc 1 221 0
 117 0000 014B     		ldr	r3, .L9
 222:.\Generated_Source\PSoC4/ADC_IRQ.c **** 
 118              		.loc 1 222 0
 119              		@ sp needed
 221:.\Generated_Source\PSoC4/ADC_IRQ.c **** }
 120              		.loc 1 221 0
 121 0002 986F     		ldr	r0, [r3, #120]
 222:.\Generated_Source\PSoC4/ADC_IRQ.c **** 
 122              		.loc 1 222 0
 123 0004 7047     		bx	lr
 124              	.L10:
 125 0006 C046     		.align	2
 126              	.L9:
 127 0008 00000000 		.word	CyRamVectors
 128              		.cfi_endproc
 129              	.LFE5:
 130              		.size	ADC_IRQ_GetVector, .-ADC_IRQ_GetVector
 131              		.section	.text.ADC_IRQ_SetPriority,"ax",%progbits
 132              		.align	2
 133              		.global	ADC_IRQ_SetPriority
 134              		.code	16
 135              		.thumb_func
 136              		.type	ADC_IRQ_SetPriority, %function
 137              	ADC_IRQ_SetPriority:
 138              	.LFB6:
 250:.\Generated_Source\PSoC4/ADC_IRQ.c **** 	uint8 interruptState;
 139              		.loc 1 250 0
 140              		.cfi_startproc
 141              	.LVL2:
 142 0000 10B5     		push	{r4, lr}
 143              		.cfi_def_cfa_offset 8
 144              		.cfi_offset 4, -8
 145              		.cfi_offset 14, -4
 250:.\Generated_Source\PSoC4/ADC_IRQ.c **** 	uint8 interruptState;
 146              		.loc 1 250 0
 147 0002 041C     		mov	r4, r0
ARM GAS  C:\Users\g\AppData\Local\Temp\ccJkQXBc.s 			page 10


 254:.\Generated_Source\PSoC4/ADC_IRQ.c ****     *ADC_IRQ_INTC_PRIOR = (*ADC_IRQ_INTC_PRIOR & (uint32)(~ADC_IRQ__INTC_PRIOR_MASK)) |
 148              		.loc 1 254 0
 149 0004 FFF7FEFF 		bl	CyEnterCriticalSection
 150              	.LVL3:
 255:.\Generated_Source\PSoC4/ADC_IRQ.c ****                                     ((uint32)priority << priorityOffset);
 151              		.loc 1 255 0
 152 0008 0449     		ldr	r1, .L12
 153 000a 054A     		ldr	r2, .L12+4
 154 000c 0B68     		ldr	r3, [r1]
 256:.\Generated_Source\PSoC4/ADC_IRQ.c **** 	CyExitCriticalSection(interruptState);
 155              		.loc 1 256 0
 156 000e A405     		lsl	r4, r4, #22
 255:.\Generated_Source\PSoC4/ADC_IRQ.c ****                                     ((uint32)priority << priorityOffset);
 157              		.loc 1 255 0
 158 0010 1340     		and	r3, r2
 159 0012 2343     		orr	r3, r4
 160 0014 0B60     		str	r3, [r1]
 257:.\Generated_Source\PSoC4/ADC_IRQ.c **** }
 161              		.loc 1 257 0
 162 0016 FFF7FEFF 		bl	CyExitCriticalSection
 163              	.LVL4:
 258:.\Generated_Source\PSoC4/ADC_IRQ.c **** 
 164              		.loc 1 258 0
 165              		@ sp needed
 166 001a 10BD     		pop	{r4, pc}
 167              	.L13:
 168              		.align	2
 169              	.L12:
 170 001c 0CE400E0 		.word	-536812532
 171 0020 FFFF3FFF 		.word	-12582913
 172              		.cfi_endproc
 173              	.LFE6:
 174              		.size	ADC_IRQ_SetPriority, .-ADC_IRQ_SetPriority
 175              		.section	.text.ADC_IRQ_Start,"ax",%progbits
 176              		.align	2
 177              		.global	ADC_IRQ_Start
 178              		.code	16
 179              		.thumb_func
 180              		.type	ADC_IRQ_Start, %function
 181              	ADC_IRQ_Start:
 182              	.LFB0:
  57:.\Generated_Source\PSoC4/ADC_IRQ.c ****     /* For all we know the interrupt is active. */
 183              		.loc 1 57 0
 184              		.cfi_startproc
 185 0000 10B5     		push	{r4, lr}
 186              		.cfi_def_cfa_offset 8
 187              		.cfi_offset 4, -8
 188              		.cfi_offset 14, -4
 189              	.LBB24:
 190              	.LBB25:
 191              		.loc 1 349 0
 192 0002 8024     		mov	r4, #128
 193 0004 054B     		ldr	r3, .L15
 194 0006 E401     		lsl	r4, r4, #7
 195 0008 1C60     		str	r4, [r3]
 196              	.LVL5:
 197              	.LBE25:
ARM GAS  C:\Users\g\AppData\Local\Temp\ccJkQXBc.s 			page 11


 198              	.LBE24:
 199              	.LBB26:
 200              	.LBB27:
 201:.\Generated_Source\PSoC4/ADC_IRQ.c **** }
 201              		.loc 1 201 0
 202 000a 054A     		ldr	r2, .L15+4
 203 000c 054B     		ldr	r3, .L15+8
 204              	.LBE27:
 205              	.LBE26:
  65:.\Generated_Source\PSoC4/ADC_IRQ.c **** 
 206              		.loc 1 65 0
 207 000e 0320     		mov	r0, #3
 208              	.LBB29:
 209              	.LBB28:
 201:.\Generated_Source\PSoC4/ADC_IRQ.c **** }
 210              		.loc 1 201 0
 211 0010 9A67     		str	r2, [r3, #120]
 212              	.LBE28:
 213              	.LBE29:
  65:.\Generated_Source\PSoC4/ADC_IRQ.c **** 
 214              		.loc 1 65 0
 215 0012 FFF7FEFF 		bl	ADC_IRQ_SetPriority
 216              	.LVL6:
 217              	.LBB30:
 218              	.LBB31:
 307:.\Generated_Source\PSoC4/ADC_IRQ.c **** }
 219              		.loc 1 307 0
 220 0016 044B     		ldr	r3, .L15+12
 221              	.LBE31:
 222              	.LBE30:
  69:.\Generated_Source\PSoC4/ADC_IRQ.c **** 
 223              		.loc 1 69 0
 224              		@ sp needed
 225              	.LBB33:
 226              	.LBB32:
 307:.\Generated_Source\PSoC4/ADC_IRQ.c **** }
 227              		.loc 1 307 0
 228 0018 1C60     		str	r4, [r3]
 229              	.LBE32:
 230              	.LBE33:
  69:.\Generated_Source\PSoC4/ADC_IRQ.c **** 
 231              		.loc 1 69 0
 232 001a 10BD     		pop	{r4, pc}
 233              	.L16:
 234              		.align	2
 235              	.L15:
 236 001c 80E100E0 		.word	-536813184
 237 0020 00000000 		.word	ADC_IRQ_Interrupt
 238 0024 00000000 		.word	CyRamVectors
 239 0028 00E100E0 		.word	-536813312
 240              		.cfi_endproc
 241              	.LFE0:
 242              		.size	ADC_IRQ_Start, .-ADC_IRQ_Start
 243              		.section	.text.ADC_IRQ_StartEx,"ax",%progbits
 244              		.align	2
 245              		.global	ADC_IRQ_StartEx
 246              		.code	16
ARM GAS  C:\Users\g\AppData\Local\Temp\ccJkQXBc.s 			page 12


 247              		.thumb_func
 248              		.type	ADC_IRQ_StartEx, %function
 249              	ADC_IRQ_StartEx:
 250              	.LFB1:
 100:.\Generated_Source\PSoC4/ADC_IRQ.c ****     /* For all we know the interrupt is active. */
 251              		.loc 1 100 0
 252              		.cfi_startproc
 253              	.LVL7:
 254 0000 10B5     		push	{r4, lr}
 255              		.cfi_def_cfa_offset 8
 256              		.cfi_offset 4, -8
 257              		.cfi_offset 14, -4
 258              	.LBB34:
 259              	.LBB35:
 260              		.loc 1 349 0
 261 0002 8024     		mov	r4, #128
 262 0004 054B     		ldr	r3, .L18
 263 0006 E401     		lsl	r4, r4, #7
 264 0008 1C60     		str	r4, [r3]
 265              	.LVL8:
 266              	.LBE35:
 267              	.LBE34:
 268              	.LBB36:
 269              	.LBB37:
 201:.\Generated_Source\PSoC4/ADC_IRQ.c **** }
 270              		.loc 1 201 0
 271 000a 054B     		ldr	r3, .L18+4
 272              	.LBE37:
 273              	.LBE36:
 112:.\Generated_Source\PSoC4/ADC_IRQ.c **** 
 274              		.loc 1 112 0
 275              		@ sp needed
 276              	.LBB39:
 277              	.LBB38:
 201:.\Generated_Source\PSoC4/ADC_IRQ.c **** }
 278              		.loc 1 201 0
 279 000c 9867     		str	r0, [r3, #120]
 280              	.LBE38:
 281              	.LBE39:
 108:.\Generated_Source\PSoC4/ADC_IRQ.c **** 
 282              		.loc 1 108 0
 283 000e 0320     		mov	r0, #3
 284              	.LVL9:
 285 0010 FFF7FEFF 		bl	ADC_IRQ_SetPriority
 286              	.LVL10:
 287              	.LBB40:
 288              	.LBB41:
 307:.\Generated_Source\PSoC4/ADC_IRQ.c **** }
 289              		.loc 1 307 0
 290 0014 034B     		ldr	r3, .L18+8
 291 0016 1C60     		str	r4, [r3]
 292              	.LBE41:
 293              	.LBE40:
 112:.\Generated_Source\PSoC4/ADC_IRQ.c **** 
 294              		.loc 1 112 0
 295 0018 10BD     		pop	{r4, pc}
 296              	.L19:
ARM GAS  C:\Users\g\AppData\Local\Temp\ccJkQXBc.s 			page 13


 297 001a C046     		.align	2
 298              	.L18:
 299 001c 80E100E0 		.word	-536813184
 300 0020 00000000 		.word	CyRamVectors
 301 0024 00E100E0 		.word	-536813312
 302              		.cfi_endproc
 303              	.LFE1:
 304              		.size	ADC_IRQ_StartEx, .-ADC_IRQ_StartEx
 305              		.section	.text.ADC_IRQ_GetPriority,"ax",%progbits
 306              		.align	2
 307              		.global	ADC_IRQ_GetPriority
 308              		.code	16
 309              		.thumb_func
 310              		.type	ADC_IRQ_GetPriority, %function
 311              	ADC_IRQ_GetPriority:
 312              	.LFB7:
 278:.\Generated_Source\PSoC4/ADC_IRQ.c ****     uint32 priority;
 313              		.loc 1 278 0
 314              		.cfi_startproc
 315              	.LVL11:
 282:.\Generated_Source\PSoC4/ADC_IRQ.c **** 
 316              		.loc 1 282 0
 317 0000 024B     		ldr	r3, .L21
 285:.\Generated_Source\PSoC4/ADC_IRQ.c **** 
 318              		.loc 1 285 0
 319              		@ sp needed
 282:.\Generated_Source\PSoC4/ADC_IRQ.c **** 
 320              		.loc 1 282 0
 321 0002 1868     		ldr	r0, [r3]
 322              	.LVL12:
 323 0004 0002     		lsl	r0, r0, #8
 324              	.LVL13:
 284:.\Generated_Source\PSoC4/ADC_IRQ.c **** }
 325              		.loc 1 284 0
 326 0006 800F     		lsr	r0, r0, #30
 285:.\Generated_Source\PSoC4/ADC_IRQ.c **** 
 327              		.loc 1 285 0
 328 0008 7047     		bx	lr
 329              	.L22:
 330 000a C046     		.align	2
 331              	.L21:
 332 000c 0CE400E0 		.word	-536812532
 333              		.cfi_endproc
 334              	.LFE7:
 335              		.size	ADC_IRQ_GetPriority, .-ADC_IRQ_GetPriority
 336              		.section	.text.ADC_IRQ_Enable,"ax",%progbits
 337              		.align	2
 338              		.global	ADC_IRQ_Enable
 339              		.code	16
 340              		.thumb_func
 341              		.type	ADC_IRQ_Enable, %function
 342              	ADC_IRQ_Enable:
 343              	.LFB8:
 305:.\Generated_Source\PSoC4/ADC_IRQ.c ****     /* Enable the general interrupt. */
 344              		.loc 1 305 0
 345              		.cfi_startproc
 307:.\Generated_Source\PSoC4/ADC_IRQ.c **** }
ARM GAS  C:\Users\g\AppData\Local\Temp\ccJkQXBc.s 			page 14


 346              		.loc 1 307 0
 347 0000 8022     		mov	r2, #128
 348 0002 024B     		ldr	r3, .L24
 349 0004 D201     		lsl	r2, r2, #7
 350 0006 1A60     		str	r2, [r3]
 308:.\Generated_Source\PSoC4/ADC_IRQ.c **** 
 351              		.loc 1 308 0
 352              		@ sp needed
 353 0008 7047     		bx	lr
 354              	.L25:
 355 000a C046     		.align	2
 356              	.L24:
 357 000c 00E100E0 		.word	-536813312
 358              		.cfi_endproc
 359              	.LFE8:
 360              		.size	ADC_IRQ_Enable, .-ADC_IRQ_Enable
 361              		.section	.text.ADC_IRQ_GetState,"ax",%progbits
 362              		.align	2
 363              		.global	ADC_IRQ_GetState
 364              		.code	16
 365              		.thumb_func
 366              		.type	ADC_IRQ_GetState, %function
 367              	ADC_IRQ_GetState:
 368              	.LFB9:
 326:.\Generated_Source\PSoC4/ADC_IRQ.c ****     /* Get the state of the general interrupt. */
 369              		.loc 1 326 0
 370              		.cfi_startproc
 328:.\Generated_Source\PSoC4/ADC_IRQ.c **** }
 371              		.loc 1 328 0
 372 0000 024B     		ldr	r3, .L27
 329:.\Generated_Source\PSoC4/ADC_IRQ.c **** 
 373              		.loc 1 329 0
 374              		@ sp needed
 328:.\Generated_Source\PSoC4/ADC_IRQ.c **** }
 375              		.loc 1 328 0
 376 0002 1868     		ldr	r0, [r3]
 377 0004 4004     		lsl	r0, r0, #17
 378 0006 C00F     		lsr	r0, r0, #31
 329:.\Generated_Source\PSoC4/ADC_IRQ.c **** 
 379              		.loc 1 329 0
 380 0008 7047     		bx	lr
 381              	.L28:
 382 000a C046     		.align	2
 383              	.L27:
 384 000c 00E100E0 		.word	-536813312
 385              		.cfi_endproc
 386              	.LFE9:
 387              		.size	ADC_IRQ_GetState, .-ADC_IRQ_GetState
 388              		.section	.text.ADC_IRQ_Disable,"ax",%progbits
 389              		.align	2
 390              		.global	ADC_IRQ_Disable
 391              		.code	16
 392              		.thumb_func
 393              		.type	ADC_IRQ_Disable, %function
 394              	ADC_IRQ_Disable:
 395              	.LFB10:
 347:.\Generated_Source\PSoC4/ADC_IRQ.c ****     /* Disable the general interrupt. */
ARM GAS  C:\Users\g\AppData\Local\Temp\ccJkQXBc.s 			page 15


 396              		.loc 1 347 0
 397              		.cfi_startproc
 398              		.loc 1 349 0
 399 0000 8022     		mov	r2, #128
 400 0002 024B     		ldr	r3, .L30
 401 0004 D201     		lsl	r2, r2, #7
 402 0006 1A60     		str	r2, [r3]
 350:.\Generated_Source\PSoC4/ADC_IRQ.c **** }
 403              		.loc 1 350 0
 404              		@ sp needed
 405 0008 7047     		bx	lr
 406              	.L31:
 407 000a C046     		.align	2
 408              	.L30:
 409 000c 80E100E0 		.word	-536813184
 410              		.cfi_endproc
 411              	.LFE10:
 412              		.size	ADC_IRQ_Disable, .-ADC_IRQ_Disable
 413              		.section	.text.ADC_IRQ_SetPending,"ax",%progbits
 414              		.align	2
 415              		.global	ADC_IRQ_SetPending
 416              		.code	16
 417              		.thumb_func
 418              		.type	ADC_IRQ_SetPending, %function
 419              	ADC_IRQ_SetPending:
 420              	.LFB11:
 351:.\Generated_Source\PSoC4/ADC_IRQ.c **** 
 352:.\Generated_Source\PSoC4/ADC_IRQ.c **** 
 353:.\Generated_Source\PSoC4/ADC_IRQ.c **** /*******************************************************************************
 354:.\Generated_Source\PSoC4/ADC_IRQ.c **** * Function Name: ADC_IRQ_SetPending
 355:.\Generated_Source\PSoC4/ADC_IRQ.c **** ********************************************************************************
 356:.\Generated_Source\PSoC4/ADC_IRQ.c **** *
 357:.\Generated_Source\PSoC4/ADC_IRQ.c **** * Summary:
 358:.\Generated_Source\PSoC4/ADC_IRQ.c **** *   Causes the Interrupt to enter the pending state, a software method of
 359:.\Generated_Source\PSoC4/ADC_IRQ.c **** *   generating the interrupt.
 360:.\Generated_Source\PSoC4/ADC_IRQ.c **** *
 361:.\Generated_Source\PSoC4/ADC_IRQ.c **** * Parameters:
 362:.\Generated_Source\PSoC4/ADC_IRQ.c **** *   None
 363:.\Generated_Source\PSoC4/ADC_IRQ.c **** *
 364:.\Generated_Source\PSoC4/ADC_IRQ.c **** * Return:
 365:.\Generated_Source\PSoC4/ADC_IRQ.c **** *   None
 366:.\Generated_Source\PSoC4/ADC_IRQ.c **** *
 367:.\Generated_Source\PSoC4/ADC_IRQ.c **** * Side Effects:
 368:.\Generated_Source\PSoC4/ADC_IRQ.c **** *   If interrupts are enabled and the interrupt is set up properly, the ISR is
 369:.\Generated_Source\PSoC4/ADC_IRQ.c **** *   entered (depending on the priority of this interrupt and other pending 
 370:.\Generated_Source\PSoC4/ADC_IRQ.c **** *   interrupts).
 371:.\Generated_Source\PSoC4/ADC_IRQ.c **** *
 372:.\Generated_Source\PSoC4/ADC_IRQ.c **** *******************************************************************************/
 373:.\Generated_Source\PSoC4/ADC_IRQ.c **** void ADC_IRQ_SetPending(void)
 374:.\Generated_Source\PSoC4/ADC_IRQ.c **** {
 421              		.loc 1 374 0
 422              		.cfi_startproc
 375:.\Generated_Source\PSoC4/ADC_IRQ.c ****     *ADC_IRQ_INTC_SET_PD = ADC_IRQ__INTC_MASK;
 423              		.loc 1 375 0
 424 0000 8022     		mov	r2, #128
 425 0002 024B     		ldr	r3, .L33
 426 0004 D201     		lsl	r2, r2, #7
ARM GAS  C:\Users\g\AppData\Local\Temp\ccJkQXBc.s 			page 16


 427 0006 1A60     		str	r2, [r3]
 376:.\Generated_Source\PSoC4/ADC_IRQ.c **** }
 428              		.loc 1 376 0
 429              		@ sp needed
 430 0008 7047     		bx	lr
 431              	.L34:
 432 000a C046     		.align	2
 433              	.L33:
 434 000c 00E200E0 		.word	-536813056
 435              		.cfi_endproc
 436              	.LFE11:
 437              		.size	ADC_IRQ_SetPending, .-ADC_IRQ_SetPending
 438              		.section	.text.ADC_IRQ_ClearPending,"ax",%progbits
 439              		.align	2
 440              		.global	ADC_IRQ_ClearPending
 441              		.code	16
 442              		.thumb_func
 443              		.type	ADC_IRQ_ClearPending, %function
 444              	ADC_IRQ_ClearPending:
 445              	.LFB12:
 377:.\Generated_Source\PSoC4/ADC_IRQ.c **** 
 378:.\Generated_Source\PSoC4/ADC_IRQ.c **** 
 379:.\Generated_Source\PSoC4/ADC_IRQ.c **** /*******************************************************************************
 380:.\Generated_Source\PSoC4/ADC_IRQ.c **** * Function Name: ADC_IRQ_ClearPending
 381:.\Generated_Source\PSoC4/ADC_IRQ.c **** ********************************************************************************
 382:.\Generated_Source\PSoC4/ADC_IRQ.c **** *
 383:.\Generated_Source\PSoC4/ADC_IRQ.c **** * Summary:
 384:.\Generated_Source\PSoC4/ADC_IRQ.c **** *   Clears a pending interrupt in the interrupt controller.
 385:.\Generated_Source\PSoC4/ADC_IRQ.c **** *
 386:.\Generated_Source\PSoC4/ADC_IRQ.c **** *   Note Some interrupt sources are clear-on-read and require the block 
 387:.\Generated_Source\PSoC4/ADC_IRQ.c **** *   interrupt/status register to be read/cleared with the appropriate block API 
 388:.\Generated_Source\PSoC4/ADC_IRQ.c **** *   (GPIO, UART, and so on). Otherwise the ISR will continue to remain in 
 389:.\Generated_Source\PSoC4/ADC_IRQ.c **** *   pending state even though the interrupt itself is cleared using this API.
 390:.\Generated_Source\PSoC4/ADC_IRQ.c **** *
 391:.\Generated_Source\PSoC4/ADC_IRQ.c **** * Parameters:
 392:.\Generated_Source\PSoC4/ADC_IRQ.c **** *   None
 393:.\Generated_Source\PSoC4/ADC_IRQ.c **** *
 394:.\Generated_Source\PSoC4/ADC_IRQ.c **** * Return:
 395:.\Generated_Source\PSoC4/ADC_IRQ.c **** *   None
 396:.\Generated_Source\PSoC4/ADC_IRQ.c **** *
 397:.\Generated_Source\PSoC4/ADC_IRQ.c **** *******************************************************************************/
 398:.\Generated_Source\PSoC4/ADC_IRQ.c **** void ADC_IRQ_ClearPending(void)
 399:.\Generated_Source\PSoC4/ADC_IRQ.c **** {
 446              		.loc 1 399 0
 447              		.cfi_startproc
 400:.\Generated_Source\PSoC4/ADC_IRQ.c ****     *ADC_IRQ_INTC_CLR_PD = ADC_IRQ__INTC_MASK;
 448              		.loc 1 400 0
 449 0000 8022     		mov	r2, #128
 450 0002 024B     		ldr	r3, .L36
 451 0004 D201     		lsl	r2, r2, #7
 452 0006 1A60     		str	r2, [r3]
 401:.\Generated_Source\PSoC4/ADC_IRQ.c **** }
 453              		.loc 1 401 0
 454              		@ sp needed
 455 0008 7047     		bx	lr
 456              	.L37:
 457 000a C046     		.align	2
ARM GAS  C:\Users\g\AppData\Local\Temp\ccJkQXBc.s 			page 17


 458              	.L36:
 459 000c 80E200E0 		.word	-536812928
 460              		.cfi_endproc
 461              	.LFE12:
 462              		.size	ADC_IRQ_ClearPending, .-ADC_IRQ_ClearPending
 463              		.text
 464              	.Letext0:
 465              		.file 2 "Generated_Source\\PSoC4/cytypes.h"
 466              		.file 3 "Generated_Source\\PSoC4/CyLib.h"