ARM GAS  C:\Users\g\AppData\Local\Temp\ccbZpV42.s 			page 1


   1              		.cpu cortex-m0
   2              		.fpu softvfp
   3              		.eabi_attribute 20, 1
   4              		.eabi_attribute 21, 1
   5              		.eabi_attribute 23, 3
   6              		.eabi_attribute 24, 1
   7              		.eabi_attribute 25, 1
   8              		.eabi_attribute 26, 1
   9              		.eabi_attribute 30, 2
  10              		.eabi_attribute 34, 0
  11              		.eabi_attribute 18, 4
  12              		.code	16
  13              		.file	"ADC_PM.c"
  14              		.text
  15              	.Ltext0:
  16              		.cfi_sections	.debug_frame
  17              		.section	.text.ADC_SaveConfig,"ax",%progbits
  18              		.align	2
  19              		.global	ADC_SaveConfig
  20              		.code	16
  21              		.thumb_func
  22              		.type	ADC_SaveConfig, %function
  23              	ADC_SaveConfig:
  24              	.LFB0:
  25              		.file 1 ".\\Generated_Source\\PSoC4\\ADC_PM.c"
   1:.\Generated_Source\PSoC4/ADC_PM.c **** /*******************************************************************************
   2:.\Generated_Source\PSoC4/ADC_PM.c **** * File Name: ADC_PM.c
   3:.\Generated_Source\PSoC4/ADC_PM.c **** * Version 2.40
   4:.\Generated_Source\PSoC4/ADC_PM.c **** *
   5:.\Generated_Source\PSoC4/ADC_PM.c **** * Description:
   6:.\Generated_Source\PSoC4/ADC_PM.c **** *  This file provides Sleep/WakeUp APIs functionality.
   7:.\Generated_Source\PSoC4/ADC_PM.c **** *
   8:.\Generated_Source\PSoC4/ADC_PM.c **** * Note:
   9:.\Generated_Source\PSoC4/ADC_PM.c **** *
  10:.\Generated_Source\PSoC4/ADC_PM.c **** ********************************************************************************
  11:.\Generated_Source\PSoC4/ADC_PM.c **** * Copyright 2008-2015, Cypress Semiconductor Corporation.  All rights reserved.
  12:.\Generated_Source\PSoC4/ADC_PM.c **** * You may use this file only in accordance with the license, terms, conditions,
  13:.\Generated_Source\PSoC4/ADC_PM.c **** * disclaimers, and limitations in the end user license agreement accompanying
  14:.\Generated_Source\PSoC4/ADC_PM.c **** * the software package with which this file was provided.
  15:.\Generated_Source\PSoC4/ADC_PM.c **** *******************************************************************************/
  16:.\Generated_Source\PSoC4/ADC_PM.c **** 
  17:.\Generated_Source\PSoC4/ADC_PM.c **** #include "ADC.h"
  18:.\Generated_Source\PSoC4/ADC_PM.c **** 
  19:.\Generated_Source\PSoC4/ADC_PM.c **** 
  20:.\Generated_Source\PSoC4/ADC_PM.c **** /***************************************
  21:.\Generated_Source\PSoC4/ADC_PM.c **** * Local data allocation
  22:.\Generated_Source\PSoC4/ADC_PM.c **** ***************************************/
  23:.\Generated_Source\PSoC4/ADC_PM.c **** 
  24:.\Generated_Source\PSoC4/ADC_PM.c **** static ADC_BACKUP_STRUCT  ADC_backup =
  25:.\Generated_Source\PSoC4/ADC_PM.c **** {
  26:.\Generated_Source\PSoC4/ADC_PM.c ****     ADC_DISABLED
  27:.\Generated_Source\PSoC4/ADC_PM.c **** };
  28:.\Generated_Source\PSoC4/ADC_PM.c **** 
  29:.\Generated_Source\PSoC4/ADC_PM.c **** 
  30:.\Generated_Source\PSoC4/ADC_PM.c **** /*******************************************************************************
  31:.\Generated_Source\PSoC4/ADC_PM.c **** * Function Name: ADC_SaveConfig
  32:.\Generated_Source\PSoC4/ADC_PM.c **** ********************************************************************************
ARM GAS  C:\Users\g\AppData\Local\Temp\ccbZpV42.s 			page 2


  33:.\Generated_Source\PSoC4/ADC_PM.c **** *
  34:.\Generated_Source\PSoC4/ADC_PM.c **** * Summary:
  35:.\Generated_Source\PSoC4/ADC_PM.c **** *  Saves the current user configuration.
  36:.\Generated_Source\PSoC4/ADC_PM.c **** *
  37:.\Generated_Source\PSoC4/ADC_PM.c **** * Parameters:
  38:.\Generated_Source\PSoC4/ADC_PM.c **** *  None.
  39:.\Generated_Source\PSoC4/ADC_PM.c **** *
  40:.\Generated_Source\PSoC4/ADC_PM.c **** * Return:
  41:.\Generated_Source\PSoC4/ADC_PM.c **** *  None.
  42:.\Generated_Source\PSoC4/ADC_PM.c **** *
  43:.\Generated_Source\PSoC4/ADC_PM.c **** *******************************************************************************/
  44:.\Generated_Source\PSoC4/ADC_PM.c **** void ADC_SaveConfig(void)
  45:.\Generated_Source\PSoC4/ADC_PM.c **** {
  26              		.loc 1 45 0
  27              		.cfi_startproc
  46:.\Generated_Source\PSoC4/ADC_PM.c ****     /* All configuration registers are marked as [reset_all_retention] */
  47:.\Generated_Source\PSoC4/ADC_PM.c **** }
  28              		.loc 1 47 0
  29              		@ sp needed
  30 0000 7047     		bx	lr
  31              		.cfi_endproc
  32              	.LFE0:
  33              		.size	ADC_SaveConfig, .-ADC_SaveConfig
  34 0002 C046     		.section	.text.ADC_RestoreConfig,"ax",%progbits
  35              		.align	2
  36              		.global	ADC_RestoreConfig
  37              		.code	16
  38              		.thumb_func
  39              		.type	ADC_RestoreConfig, %function
  40              	ADC_RestoreConfig:
  41              	.LFB1:
  48:.\Generated_Source\PSoC4/ADC_PM.c **** 
  49:.\Generated_Source\PSoC4/ADC_PM.c **** 
  50:.\Generated_Source\PSoC4/ADC_PM.c **** /*******************************************************************************
  51:.\Generated_Source\PSoC4/ADC_PM.c **** * Function Name: ADC_RestoreConfig
  52:.\Generated_Source\PSoC4/ADC_PM.c **** ********************************************************************************
  53:.\Generated_Source\PSoC4/ADC_PM.c **** *
  54:.\Generated_Source\PSoC4/ADC_PM.c **** * Summary:
  55:.\Generated_Source\PSoC4/ADC_PM.c **** *  Restores the current user configuration.
  56:.\Generated_Source\PSoC4/ADC_PM.c **** *
  57:.\Generated_Source\PSoC4/ADC_PM.c **** * Parameters:
  58:.\Generated_Source\PSoC4/ADC_PM.c **** *  None.
  59:.\Generated_Source\PSoC4/ADC_PM.c **** *
  60:.\Generated_Source\PSoC4/ADC_PM.c **** * Return:
  61:.\Generated_Source\PSoC4/ADC_PM.c **** *  None.
  62:.\Generated_Source\PSoC4/ADC_PM.c **** *
  63:.\Generated_Source\PSoC4/ADC_PM.c **** *******************************************************************************/
  64:.\Generated_Source\PSoC4/ADC_PM.c **** void ADC_RestoreConfig(void)
  65:.\Generated_Source\PSoC4/ADC_PM.c **** {
  42              		.loc 1 65 0
  43              		.cfi_startproc
  66:.\Generated_Source\PSoC4/ADC_PM.c ****     /* All congiguration registers are marked as [reset_all_retention] */
  67:.\Generated_Source\PSoC4/ADC_PM.c **** }
  44              		.loc 1 67 0
  45              		@ sp needed
  46 0000 7047     		bx	lr
  47              		.cfi_endproc
ARM GAS  C:\Users\g\AppData\Local\Temp\ccbZpV42.s 			page 3


  48              	.LFE1:
  49              		.size	ADC_RestoreConfig, .-ADC_RestoreConfig
  50 0002 C046     		.section	.text.ADC_Sleep,"ax",%progbits
  51              		.align	2
  52              		.global	ADC_Sleep
  53              		.code	16
  54              		.thumb_func
  55              		.type	ADC_Sleep, %function
  56              	ADC_Sleep:
  57              	.LFB2:
  68:.\Generated_Source\PSoC4/ADC_PM.c **** 
  69:.\Generated_Source\PSoC4/ADC_PM.c **** 
  70:.\Generated_Source\PSoC4/ADC_PM.c **** /*******************************************************************************
  71:.\Generated_Source\PSoC4/ADC_PM.c **** * Function Name: ADC_Sleep
  72:.\Generated_Source\PSoC4/ADC_PM.c **** ********************************************************************************
  73:.\Generated_Source\PSoC4/ADC_PM.c **** *
  74:.\Generated_Source\PSoC4/ADC_PM.c **** * Summary:
  75:.\Generated_Source\PSoC4/ADC_PM.c **** *  Stops the ADC operation and saves the configuration registers and component
  76:.\Generated_Source\PSoC4/ADC_PM.c **** *  enable state. Should be called just prior to entering sleep.
  77:.\Generated_Source\PSoC4/ADC_PM.c **** *
  78:.\Generated_Source\PSoC4/ADC_PM.c **** * Parameters:
  79:.\Generated_Source\PSoC4/ADC_PM.c **** *  None.
  80:.\Generated_Source\PSoC4/ADC_PM.c **** *
  81:.\Generated_Source\PSoC4/ADC_PM.c **** * Return:
  82:.\Generated_Source\PSoC4/ADC_PM.c **** *  None.
  83:.\Generated_Source\PSoC4/ADC_PM.c **** *
  84:.\Generated_Source\PSoC4/ADC_PM.c **** * Global Variables:
  85:.\Generated_Source\PSoC4/ADC_PM.c **** *  ADC_backup - modified.
  86:.\Generated_Source\PSoC4/ADC_PM.c **** *
  87:.\Generated_Source\PSoC4/ADC_PM.c **** *******************************************************************************/
  88:.\Generated_Source\PSoC4/ADC_PM.c **** void ADC_Sleep(void)
  89:.\Generated_Source\PSoC4/ADC_PM.c **** {
  58              		.loc 1 89 0
  59              		.cfi_startproc
  90:.\Generated_Source\PSoC4/ADC_PM.c ****     /* During deepsleep/ hibernate mode keep SARMUX active, i.e. do not open
  91:.\Generated_Source\PSoC4/ADC_PM.c ****     *   all switches (disconnect), to be used for ADFT
  92:.\Generated_Source\PSoC4/ADC_PM.c ****     */
  93:.\Generated_Source\PSoC4/ADC_PM.c ****     ADC_SAR_DFT_CTRL_REG |= ADC_ADFT_OVERRIDE;
  60              		.loc 1 93 0
  61 0000 8021     		mov	r1, #128
  62 0002 144A     		ldr	r2, .L14
  63 0004 0906     		lsl	r1, r1, #24
  64 0006 1368     		ldr	r3, [r2]
  89:.\Generated_Source\PSoC4/ADC_PM.c ****     /* During deepsleep/ hibernate mode keep SARMUX active, i.e. do not open
  65              		.loc 1 89 0
  66 0008 10B5     		push	{r4, lr}
  67              		.cfi_def_cfa_offset 8
  68              		.cfi_offset 4, -8
  69              		.cfi_offset 14, -4
  70              		.loc 1 93 0
  71 000a 0B43     		orr	r3, r1
  72 000c 1360     		str	r3, [r2]
  94:.\Generated_Source\PSoC4/ADC_PM.c ****     if((ADC_SAR_CTRL_REG  & ADC_ENABLE) != 0u)
  73              		.loc 1 94 0
  74 000e 124B     		ldr	r3, .L14+4
  75 0010 1B68     		ldr	r3, [r3]
  76 0012 002B     		cmp	r3, #0
ARM GAS  C:\Users\g\AppData\Local\Temp\ccbZpV42.s 			page 4


  77 0014 03DB     		blt	.L12
  95:.\Generated_Source\PSoC4/ADC_PM.c ****     {
  96:.\Generated_Source\PSoC4/ADC_PM.c ****         if((ADC_SAR_SAMPLE_CTRL_REG & ADC_CONTINUOUS_EN) != 0u)
  97:.\Generated_Source\PSoC4/ADC_PM.c ****         {
  98:.\Generated_Source\PSoC4/ADC_PM.c ****             ADC_backup.enableState = ADC_ENABLED | ADC_STARTED;
  99:.\Generated_Source\PSoC4/ADC_PM.c ****         }
 100:.\Generated_Source\PSoC4/ADC_PM.c ****         else
 101:.\Generated_Source\PSoC4/ADC_PM.c ****         {
 102:.\Generated_Source\PSoC4/ADC_PM.c ****             ADC_backup.enableState = ADC_ENABLED;
 103:.\Generated_Source\PSoC4/ADC_PM.c ****         }
 104:.\Generated_Source\PSoC4/ADC_PM.c ****         ADC_StopConvert();
 105:.\Generated_Source\PSoC4/ADC_PM.c ****         ADC_Stop();
 106:.\Generated_Source\PSoC4/ADC_PM.c ****         
 107:.\Generated_Source\PSoC4/ADC_PM.c ****         /* Disable the SAR internal pump before entering the chip low power mode */
 108:.\Generated_Source\PSoC4/ADC_PM.c ****         if((ADC_SAR_CTRL_REG & ADC_BOOSTPUMP_EN) != 0u)
 109:.\Generated_Source\PSoC4/ADC_PM.c ****         {
 110:.\Generated_Source\PSoC4/ADC_PM.c ****             ADC_SAR_CTRL_REG &= (uint32)~ADC_BOOSTPUMP_EN;
 111:.\Generated_Source\PSoC4/ADC_PM.c ****             ADC_backup.enableState |= ADC_BOOSTPUMP_ENABLED;
 112:.\Generated_Source\PSoC4/ADC_PM.c ****         }
 113:.\Generated_Source\PSoC4/ADC_PM.c ****     }
 114:.\Generated_Source\PSoC4/ADC_PM.c ****     else
 115:.\Generated_Source\PSoC4/ADC_PM.c ****     {
 116:.\Generated_Source\PSoC4/ADC_PM.c ****         ADC_backup.enableState = ADC_DISABLED;
  78              		.loc 1 116 0
  79 0016 0022     		mov	r2, #0
  80 0018 104B     		ldr	r3, .L14+8
  81 001a 1A70     		strb	r2, [r3]
  82              	.L3:
 117:.\Generated_Source\PSoC4/ADC_PM.c ****     }
 118:.\Generated_Source\PSoC4/ADC_PM.c **** }
  83              		.loc 1 118 0
  84              		@ sp needed
  85 001c 10BD     		pop	{r4, pc}
  86              	.L12:
  96:.\Generated_Source\PSoC4/ADC_PM.c ****         {
  87              		.loc 1 96 0
  88 001e 104B     		ldr	r3, .L14+12
  98:.\Generated_Source\PSoC4/ADC_PM.c ****         }
  89              		.loc 1 98 0
  90 0020 0E4C     		ldr	r4, .L14+8
  96:.\Generated_Source\PSoC4/ADC_PM.c ****         {
  91              		.loc 1 96 0
  92 0022 1B68     		ldr	r3, [r3]
  93 0024 DB03     		lsl	r3, r3, #15
  94 0026 12D4     		bmi	.L13
 102:.\Generated_Source\PSoC4/ADC_PM.c ****         }
  95              		.loc 1 102 0
  96 0028 0123     		mov	r3, #1
  97 002a 2370     		strb	r3, [r4]
  98              	.L6:
 104:.\Generated_Source\PSoC4/ADC_PM.c ****         ADC_Stop();
  99              		.loc 1 104 0
 100 002c FFF7FEFF 		bl	ADC_StopConvert
 101              	.LVL0:
 105:.\Generated_Source\PSoC4/ADC_PM.c ****         
 102              		.loc 1 105 0
 103 0030 FFF7FEFF 		bl	ADC_Stop
ARM GAS  C:\Users\g\AppData\Local\Temp\ccbZpV42.s 			page 5


 104              	.LVL1:
 108:.\Generated_Source\PSoC4/ADC_PM.c ****         {
 105              		.loc 1 108 0
 106 0034 084B     		ldr	r3, .L14+4
 107 0036 1A68     		ldr	r2, [r3]
 108 0038 D202     		lsl	r2, r2, #11
 109 003a EFD5     		bpl	.L3
 110:.\Generated_Source\PSoC4/ADC_PM.c ****             ADC_backup.enableState |= ADC_BOOSTPUMP_ENABLED;
 110              		.loc 1 110 0
 111 003c 1968     		ldr	r1, [r3]
 112 003e 094A     		ldr	r2, .L14+16
 113 0040 0A40     		and	r2, r1
 114 0042 1A60     		str	r2, [r3]
 111:.\Generated_Source\PSoC4/ADC_PM.c ****         }
 115              		.loc 1 111 0
 116 0044 0423     		mov	r3, #4
 117 0046 2278     		ldrb	r2, [r4]
 118 0048 1343     		orr	r3, r2
 119 004a 2370     		strb	r3, [r4]
 120 004c E6E7     		b	.L3
 121              	.L13:
  98:.\Generated_Source\PSoC4/ADC_PM.c ****         }
 122              		.loc 1 98 0
 123 004e 0323     		mov	r3, #3
 124 0050 2370     		strb	r3, [r4]
 125 0052 EBE7     		b	.L6
 126              	.L15:
 127              		.align	2
 128              	.L14:
 129 0054 30001A40 		.word	1075445808
 130 0058 00001A40 		.word	1075445760
 131 005c 00000000 		.word	.LANCHOR0
 132 0060 04001A40 		.word	1075445764
 133 0064 FFFFEFFF 		.word	-1048577
 134              		.cfi_endproc
 135              	.LFE2:
 136              		.size	ADC_Sleep, .-ADC_Sleep
 137              		.section	.text.ADC_Wakeup,"ax",%progbits
 138              		.align	2
 139              		.global	ADC_Wakeup
 140              		.code	16
 141              		.thumb_func
 142              		.type	ADC_Wakeup, %function
 143              	ADC_Wakeup:
 144              	.LFB3:
 119:.\Generated_Source\PSoC4/ADC_PM.c **** 
 120:.\Generated_Source\PSoC4/ADC_PM.c **** 
 121:.\Generated_Source\PSoC4/ADC_PM.c **** /*******************************************************************************
 122:.\Generated_Source\PSoC4/ADC_PM.c **** * Function Name: ADC_Wakeup
 123:.\Generated_Source\PSoC4/ADC_PM.c **** ********************************************************************************
 124:.\Generated_Source\PSoC4/ADC_PM.c **** *
 125:.\Generated_Source\PSoC4/ADC_PM.c **** * Summary:
 126:.\Generated_Source\PSoC4/ADC_PM.c **** *  Restores the component enable state and configuration registers.
 127:.\Generated_Source\PSoC4/ADC_PM.c **** *  This should be called just after awaking from sleep mode.
 128:.\Generated_Source\PSoC4/ADC_PM.c **** *
 129:.\Generated_Source\PSoC4/ADC_PM.c **** * Parameters:
 130:.\Generated_Source\PSoC4/ADC_PM.c **** *  None.
ARM GAS  C:\Users\g\AppData\Local\Temp\ccbZpV42.s 			page 6


 131:.\Generated_Source\PSoC4/ADC_PM.c **** *
 132:.\Generated_Source\PSoC4/ADC_PM.c **** * Return:
 133:.\Generated_Source\PSoC4/ADC_PM.c **** *  None.
 134:.\Generated_Source\PSoC4/ADC_PM.c **** *
 135:.\Generated_Source\PSoC4/ADC_PM.c **** * Global Variables:
 136:.\Generated_Source\PSoC4/ADC_PM.c **** *  ADC_backup - used.
 137:.\Generated_Source\PSoC4/ADC_PM.c **** *
 138:.\Generated_Source\PSoC4/ADC_PM.c **** *******************************************************************************/
 139:.\Generated_Source\PSoC4/ADC_PM.c **** void ADC_Wakeup(void)
 140:.\Generated_Source\PSoC4/ADC_PM.c **** {
 145              		.loc 1 140 0
 146              		.cfi_startproc
 141:.\Generated_Source\PSoC4/ADC_PM.c ****     ADC_SAR_DFT_CTRL_REG &= (uint32)~ADC_ADFT_OVERRIDE;
 147              		.loc 1 141 0
 148 0000 0D4A     		ldr	r2, .L28
 140:.\Generated_Source\PSoC4/ADC_PM.c ****     ADC_SAR_DFT_CTRL_REG &= (uint32)~ADC_ADFT_OVERRIDE;
 149              		.loc 1 140 0
 150 0002 10B5     		push	{r4, lr}
 151              		.cfi_def_cfa_offset 8
 152              		.cfi_offset 4, -8
 153              		.cfi_offset 14, -4
 154              		.loc 1 141 0
 155 0004 1368     		ldr	r3, [r2]
 142:.\Generated_Source\PSoC4/ADC_PM.c ****     if(ADC_backup.enableState != ADC_DISABLED)
 156              		.loc 1 142 0
 157 0006 0D4C     		ldr	r4, .L28+4
 141:.\Generated_Source\PSoC4/ADC_PM.c ****     ADC_SAR_DFT_CTRL_REG &= (uint32)~ADC_ADFT_OVERRIDE;
 158              		.loc 1 141 0
 159 0008 5B00     		lsl	r3, r3, #1
 160 000a 5B08     		lsr	r3, r3, #1
 161 000c 1360     		str	r3, [r2]
 162              		.loc 1 142 0
 163 000e 2378     		ldrb	r3, [r4]
 164 0010 002B     		cmp	r3, #0
 165 0012 0CD0     		beq	.L16
 143:.\Generated_Source\PSoC4/ADC_PM.c ****     {
 144:.\Generated_Source\PSoC4/ADC_PM.c ****         /* Enable the SAR internal pump  */
 145:.\Generated_Source\PSoC4/ADC_PM.c ****         if((ADC_backup.enableState & ADC_BOOSTPUMP_ENABLED) != 0u)
 166              		.loc 1 145 0
 167 0014 5B07     		lsl	r3, r3, #29
 168 0016 05D5     		bpl	.L19
 146:.\Generated_Source\PSoC4/ADC_PM.c ****         {
 147:.\Generated_Source\PSoC4/ADC_PM.c ****             ADC_SAR_CTRL_REG |= ADC_BOOSTPUMP_EN;
 169              		.loc 1 147 0
 170 0018 8021     		mov	r1, #128
 171 001a 094A     		ldr	r2, .L28+8
 172 001c 4903     		lsl	r1, r1, #13
 173 001e 1368     		ldr	r3, [r2]
 174 0020 0B43     		orr	r3, r1
 175 0022 1360     		str	r3, [r2]
 176              	.L19:
 148:.\Generated_Source\PSoC4/ADC_PM.c ****         }
 149:.\Generated_Source\PSoC4/ADC_PM.c ****         ADC_Enable();
 177              		.loc 1 149 0
 178 0024 FFF7FEFF 		bl	ADC_Enable
 179              	.LVL2:
 150:.\Generated_Source\PSoC4/ADC_PM.c ****         if((ADC_backup.enableState & ADC_STARTED) != 0u)
ARM GAS  C:\Users\g\AppData\Local\Temp\ccbZpV42.s 			page 7


 180              		.loc 1 150 0
 181 0028 2378     		ldrb	r3, [r4]
 182 002a 9B07     		lsl	r3, r3, #30
 183 002c 00D4     		bmi	.L27
 184              	.L16:
 151:.\Generated_Source\PSoC4/ADC_PM.c ****         {
 152:.\Generated_Source\PSoC4/ADC_PM.c ****             ADC_StartConvert();
 153:.\Generated_Source\PSoC4/ADC_PM.c ****         }
 154:.\Generated_Source\PSoC4/ADC_PM.c ****     }
 155:.\Generated_Source\PSoC4/ADC_PM.c **** }
 185              		.loc 1 155 0
 186              		@ sp needed
 187 002e 10BD     		pop	{r4, pc}
 188              	.L27:
 152:.\Generated_Source\PSoC4/ADC_PM.c ****         }
 189              		.loc 1 152 0
 190 0030 FFF7FEFF 		bl	ADC_StartConvert
 191              	.LVL3:
 192 0034 FBE7     		b	.L16
 193              	.L29:
 194 0036 C046     		.align	2
 195              	.L28:
 196 0038 30001A40 		.word	1075445808
 197 003c 00000000 		.word	.LANCHOR0
 198 0040 00001A40 		.word	1075445760
 199              		.cfi_endproc
 200              	.LFE3:
 201              		.size	ADC_Wakeup, .-ADC_Wakeup
 202              		.bss
 203              		.align	2
 204              		.set	.LANCHOR0,. + 0
 205              		.type	ADC_backup, %object
 206              		.size	ADC_backup, 1
 207              	ADC_backup:
 208 0000 00       		.space	1
 209 0001 000000   		.text
 210              	.Letext0:
 211              		.file 2 ".\\Generated_Source\\PSoC4\\cytypes.h"
 212              		.file 3 ".\\Generated_Source\\PSoC4\\ADC.h"