ARM GAS  C:\Users\g\AppData\Local\Temp\cc1rfPP8.s 			page 1


   1              		.cpu cortex-m0
   2              		.fpu softvfp
   3              		.eabi_attribute 20, 1
   4              		.eabi_attribute 21, 1
   5              		.eabi_attribute 23, 3
   6              		.eabi_attribute 24, 1
   7              		.eabi_attribute 25, 1
   8              		.eabi_attribute 26, 1
   9              		.eabi_attribute 30, 2
  10              		.eabi_attribute 34, 0
  11              		.eabi_attribute 18, 4
  12              		.code	16
  13              		.file	"cyfitter_cfg.c"
  14              		.text
  15              	.Ltext0:
  16              		.cfi_sections	.debug_frame
  17              		.section	.text.SetAnalogRoutingPumps,"ax",%progbits
  18              		.align	2
  19              		.global	SetAnalogRoutingPumps
  20              		.code	16
  21              		.thumb_func
  22              		.type	SetAnalogRoutingPumps, %function
  23              	SetAnalogRoutingPumps:
  24              	.LFB6:
  25              		.file 1 ".\\Generated_Source\\PSoC4\\cyfitter_cfg.c"
   1:.\Generated_Source\PSoC4/cyfitter_cfg.c **** /*******************************************************************************
   2:.\Generated_Source\PSoC4/cyfitter_cfg.c **** * File Name: cyfitter_cfg.c
   3:.\Generated_Source\PSoC4/cyfitter_cfg.c **** * 
   4:.\Generated_Source\PSoC4/cyfitter_cfg.c **** * PSoC Creator  3.3 CP3
   5:.\Generated_Source\PSoC4/cyfitter_cfg.c **** *
   6:.\Generated_Source\PSoC4/cyfitter_cfg.c **** * Description:
   7:.\Generated_Source\PSoC4/cyfitter_cfg.c **** * This file contains device initialization code.
   8:.\Generated_Source\PSoC4/cyfitter_cfg.c **** * Except for the user defined sections in CyClockStartupError(), this file should not be modified.
   9:.\Generated_Source\PSoC4/cyfitter_cfg.c **** * This file is automatically generated by PSoC Creator.
  10:.\Generated_Source\PSoC4/cyfitter_cfg.c **** *
  11:.\Generated_Source\PSoC4/cyfitter_cfg.c **** ********************************************************************************
  12:.\Generated_Source\PSoC4/cyfitter_cfg.c **** * Copyright (c) 2007-2016 Cypress Semiconductor.  All rights reserved.
  13:.\Generated_Source\PSoC4/cyfitter_cfg.c **** * You may use this file only in accordance with the license, terms, conditions, 
  14:.\Generated_Source\PSoC4/cyfitter_cfg.c **** * disclaimers, and limitations in the end user license agreement accompanying 
  15:.\Generated_Source\PSoC4/cyfitter_cfg.c **** * the software package with which this file was provided.
  16:.\Generated_Source\PSoC4/cyfitter_cfg.c **** ********************************************************************************/
  17:.\Generated_Source\PSoC4/cyfitter_cfg.c **** 
  18:.\Generated_Source\PSoC4/cyfitter_cfg.c **** #include <string.h>
  19:.\Generated_Source\PSoC4/cyfitter_cfg.c **** #include "cytypes.h"
  20:.\Generated_Source\PSoC4/cyfitter_cfg.c **** #include "cydevice_trm.h"
  21:.\Generated_Source\PSoC4/cyfitter_cfg.c **** #include "cyfitter.h"
  22:.\Generated_Source\PSoC4/cyfitter_cfg.c **** #include "CyLib.h"
  23:.\Generated_Source\PSoC4/cyfitter_cfg.c **** #include "CyLFClk.h"
  24:.\Generated_Source\PSoC4/cyfitter_cfg.c **** #include "cyfitter_cfg.h"
  25:.\Generated_Source\PSoC4/cyfitter_cfg.c **** 
  26:.\Generated_Source\PSoC4/cyfitter_cfg.c **** 
  27:.\Generated_Source\PSoC4/cyfitter_cfg.c **** #if defined(__GNUC__) || defined(__ARMCC_VERSION)
  28:.\Generated_Source\PSoC4/cyfitter_cfg.c ****     #define CYPACKED 
  29:.\Generated_Source\PSoC4/cyfitter_cfg.c ****     #define CYPACKED_ATTR __attribute__ ((packed))
  30:.\Generated_Source\PSoC4/cyfitter_cfg.c ****     #define CYALIGNED __attribute__ ((aligned))
  31:.\Generated_Source\PSoC4/cyfitter_cfg.c ****     #define CY_CFG_UNUSED __attribute__ ((unused))
  32:.\Generated_Source\PSoC4/cyfitter_cfg.c ****     #ifndef CY_CFG_SECTION
ARM GAS  C:\Users\g\AppData\Local\Temp\cc1rfPP8.s 			page 2


  33:.\Generated_Source\PSoC4/cyfitter_cfg.c ****         #define CY_CFG_SECTION __attribute__ ((section(".psocinit")))
  34:.\Generated_Source\PSoC4/cyfitter_cfg.c ****     #endif
  35:.\Generated_Source\PSoC4/cyfitter_cfg.c ****     
  36:.\Generated_Source\PSoC4/cyfitter_cfg.c ****     #if defined(__ARMCC_VERSION)
  37:.\Generated_Source\PSoC4/cyfitter_cfg.c ****         #define CY_CFG_MEMORY_BARRIER() __memory_changed()
  38:.\Generated_Source\PSoC4/cyfitter_cfg.c ****     #else
  39:.\Generated_Source\PSoC4/cyfitter_cfg.c ****         #define CY_CFG_MEMORY_BARRIER() __sync_synchronize()
  40:.\Generated_Source\PSoC4/cyfitter_cfg.c ****     #endif
  41:.\Generated_Source\PSoC4/cyfitter_cfg.c ****     
  42:.\Generated_Source\PSoC4/cyfitter_cfg.c **** #elif defined(__ICCARM__)
  43:.\Generated_Source\PSoC4/cyfitter_cfg.c ****     #include <intrinsics.h>
  44:.\Generated_Source\PSoC4/cyfitter_cfg.c **** 
  45:.\Generated_Source\PSoC4/cyfitter_cfg.c ****     #define CYPACKED __packed
  46:.\Generated_Source\PSoC4/cyfitter_cfg.c ****     #define CYPACKED_ATTR 
  47:.\Generated_Source\PSoC4/cyfitter_cfg.c ****     #define CYALIGNED _Pragma("data_alignment=4")
  48:.\Generated_Source\PSoC4/cyfitter_cfg.c ****     #define CY_CFG_UNUSED _Pragma("diag_suppress=Pe177")
  49:.\Generated_Source\PSoC4/cyfitter_cfg.c ****     #define CY_CFG_SECTION _Pragma("location=\".psocinit\"")
  50:.\Generated_Source\PSoC4/cyfitter_cfg.c ****     
  51:.\Generated_Source\PSoC4/cyfitter_cfg.c ****     #define CY_CFG_MEMORY_BARRIER() __DMB()
  52:.\Generated_Source\PSoC4/cyfitter_cfg.c ****     
  53:.\Generated_Source\PSoC4/cyfitter_cfg.c **** #else
  54:.\Generated_Source\PSoC4/cyfitter_cfg.c ****     #error Unsupported toolchain
  55:.\Generated_Source\PSoC4/cyfitter_cfg.c **** #endif
  56:.\Generated_Source\PSoC4/cyfitter_cfg.c **** 
  57:.\Generated_Source\PSoC4/cyfitter_cfg.c **** 
  58:.\Generated_Source\PSoC4/cyfitter_cfg.c **** CY_CFG_UNUSED
  59:.\Generated_Source\PSoC4/cyfitter_cfg.c **** static void CYMEMZERO(void *s, size_t n);
  60:.\Generated_Source\PSoC4/cyfitter_cfg.c **** CY_CFG_UNUSED
  61:.\Generated_Source\PSoC4/cyfitter_cfg.c **** static void CYMEMZERO(void *s, size_t n)
  62:.\Generated_Source\PSoC4/cyfitter_cfg.c **** {
  63:.\Generated_Source\PSoC4/cyfitter_cfg.c **** 	(void)memset(s, 0, n);
  64:.\Generated_Source\PSoC4/cyfitter_cfg.c **** }
  65:.\Generated_Source\PSoC4/cyfitter_cfg.c **** CY_CFG_UNUSED
  66:.\Generated_Source\PSoC4/cyfitter_cfg.c **** static void CYCONFIGCPY(void *dest, const void *src, size_t n);
  67:.\Generated_Source\PSoC4/cyfitter_cfg.c **** CY_CFG_UNUSED
  68:.\Generated_Source\PSoC4/cyfitter_cfg.c **** static void CYCONFIGCPY(void *dest, const void *src, size_t n)
  69:.\Generated_Source\PSoC4/cyfitter_cfg.c **** {
  70:.\Generated_Source\PSoC4/cyfitter_cfg.c **** 	(void)memcpy(dest, src, n);
  71:.\Generated_Source\PSoC4/cyfitter_cfg.c **** }
  72:.\Generated_Source\PSoC4/cyfitter_cfg.c **** CY_CFG_UNUSED
  73:.\Generated_Source\PSoC4/cyfitter_cfg.c **** static void CYCONFIGCPYCODE(void *dest, const void *src, size_t n);
  74:.\Generated_Source\PSoC4/cyfitter_cfg.c **** CY_CFG_UNUSED
  75:.\Generated_Source\PSoC4/cyfitter_cfg.c **** static void CYCONFIGCPYCODE(void *dest, const void *src, size_t n)
  76:.\Generated_Source\PSoC4/cyfitter_cfg.c **** {
  77:.\Generated_Source\PSoC4/cyfitter_cfg.c **** 	(void)memcpy(dest, src, n);
  78:.\Generated_Source\PSoC4/cyfitter_cfg.c **** }
  79:.\Generated_Source\PSoC4/cyfitter_cfg.c **** 
  80:.\Generated_Source\PSoC4/cyfitter_cfg.c **** 
  81:.\Generated_Source\PSoC4/cyfitter_cfg.c **** 
  82:.\Generated_Source\PSoC4/cyfitter_cfg.c **** /* Clock startup error codes                                                   */
  83:.\Generated_Source\PSoC4/cyfitter_cfg.c **** #define CYCLOCKSTART_NO_ERROR    0u
  84:.\Generated_Source\PSoC4/cyfitter_cfg.c **** #define CYCLOCKSTART_XTAL_ERROR  1u
  85:.\Generated_Source\PSoC4/cyfitter_cfg.c **** #define CYCLOCKSTART_32KHZ_ERROR 2u
  86:.\Generated_Source\PSoC4/cyfitter_cfg.c **** #define CYCLOCKSTART_PLL_ERROR   3u
  87:.\Generated_Source\PSoC4/cyfitter_cfg.c **** 
  88:.\Generated_Source\PSoC4/cyfitter_cfg.c **** #ifdef CY_NEED_CYCLOCKSTARTUPERROR
  89:.\Generated_Source\PSoC4/cyfitter_cfg.c **** /*******************************************************************************
ARM GAS  C:\Users\g\AppData\Local\Temp\cc1rfPP8.s 			page 3


  90:.\Generated_Source\PSoC4/cyfitter_cfg.c **** * Function Name: CyClockStartupError
  91:.\Generated_Source\PSoC4/cyfitter_cfg.c **** ********************************************************************************
  92:.\Generated_Source\PSoC4/cyfitter_cfg.c **** * Summary:
  93:.\Generated_Source\PSoC4/cyfitter_cfg.c **** *  If an error is encountered during clock configuration (crystal startup error,
  94:.\Generated_Source\PSoC4/cyfitter_cfg.c **** *  PLL lock error, etc.), the system will end up here.  Unless reimplemented by
  95:.\Generated_Source\PSoC4/cyfitter_cfg.c **** *  the customer, this function will stop in an infinite loop.
  96:.\Generated_Source\PSoC4/cyfitter_cfg.c **** *
  97:.\Generated_Source\PSoC4/cyfitter_cfg.c **** * Parameters:
  98:.\Generated_Source\PSoC4/cyfitter_cfg.c **** *   void
  99:.\Generated_Source\PSoC4/cyfitter_cfg.c **** *
 100:.\Generated_Source\PSoC4/cyfitter_cfg.c **** * Return:
 101:.\Generated_Source\PSoC4/cyfitter_cfg.c **** *   void
 102:.\Generated_Source\PSoC4/cyfitter_cfg.c **** *
 103:.\Generated_Source\PSoC4/cyfitter_cfg.c **** *******************************************************************************/
 104:.\Generated_Source\PSoC4/cyfitter_cfg.c **** CY_CFG_UNUSED
 105:.\Generated_Source\PSoC4/cyfitter_cfg.c **** static void CyClockStartupError(uint8 errorCode);
 106:.\Generated_Source\PSoC4/cyfitter_cfg.c **** CY_CFG_UNUSED
 107:.\Generated_Source\PSoC4/cyfitter_cfg.c **** static void CyClockStartupError(uint8 errorCode)
 108:.\Generated_Source\PSoC4/cyfitter_cfg.c **** {
 109:.\Generated_Source\PSoC4/cyfitter_cfg.c ****     /* To remove the compiler warning if errorCode not used.                */
 110:.\Generated_Source\PSoC4/cyfitter_cfg.c ****     errorCode = errorCode;
 111:.\Generated_Source\PSoC4/cyfitter_cfg.c **** 
 112:.\Generated_Source\PSoC4/cyfitter_cfg.c ****     /* `#START CyClockStartupError` */
 113:.\Generated_Source\PSoC4/cyfitter_cfg.c **** 
 114:.\Generated_Source\PSoC4/cyfitter_cfg.c ****     /* If we have a clock startup error (bad MHz crystal, PLL lock, etc.),  */
 115:.\Generated_Source\PSoC4/cyfitter_cfg.c ****     /* we will end up here to allow the customer to implement something to  */
 116:.\Generated_Source\PSoC4/cyfitter_cfg.c ****     /* deal with the clock condition.                                       */
 117:.\Generated_Source\PSoC4/cyfitter_cfg.c **** 
 118:.\Generated_Source\PSoC4/cyfitter_cfg.c ****     /* `#END` */
 119:.\Generated_Source\PSoC4/cyfitter_cfg.c **** 
 120:.\Generated_Source\PSoC4/cyfitter_cfg.c ****     /* If nothing else, stop here since the clocks have not started         */
 121:.\Generated_Source\PSoC4/cyfitter_cfg.c ****     /* correctly.                                                           */
 122:.\Generated_Source\PSoC4/cyfitter_cfg.c ****     while(1) {}
 123:.\Generated_Source\PSoC4/cyfitter_cfg.c **** }
 124:.\Generated_Source\PSoC4/cyfitter_cfg.c **** #endif
 125:.\Generated_Source\PSoC4/cyfitter_cfg.c **** 
 126:.\Generated_Source\PSoC4/cyfitter_cfg.c **** #define CY_CFG_BASE_ADDR_COUNT 10u
 127:.\Generated_Source\PSoC4/cyfitter_cfg.c **** CYPACKED typedef struct
 128:.\Generated_Source\PSoC4/cyfitter_cfg.c **** {
 129:.\Generated_Source\PSoC4/cyfitter_cfg.c **** 	uint8 offset;
 130:.\Generated_Source\PSoC4/cyfitter_cfg.c **** 	uint8 value;
 131:.\Generated_Source\PSoC4/cyfitter_cfg.c **** } CYPACKED_ATTR cy_cfg_addrvalue_t;
 132:.\Generated_Source\PSoC4/cyfitter_cfg.c **** 
 133:.\Generated_Source\PSoC4/cyfitter_cfg.c **** 
 134:.\Generated_Source\PSoC4/cyfitter_cfg.c **** 
 135:.\Generated_Source\PSoC4/cyfitter_cfg.c **** /*******************************************************************************
 136:.\Generated_Source\PSoC4/cyfitter_cfg.c **** * Function Name: cfg_write_bytes32
 137:.\Generated_Source\PSoC4/cyfitter_cfg.c **** ********************************************************************************
 138:.\Generated_Source\PSoC4/cyfitter_cfg.c **** * Summary:
 139:.\Generated_Source\PSoC4/cyfitter_cfg.c **** *  This function is used for setting up the chip configuration areas that
 140:.\Generated_Source\PSoC4/cyfitter_cfg.c **** *  contain relatively sparse data.
 141:.\Generated_Source\PSoC4/cyfitter_cfg.c **** *
 142:.\Generated_Source\PSoC4/cyfitter_cfg.c **** * Parameters:
 143:.\Generated_Source\PSoC4/cyfitter_cfg.c **** *   void
 144:.\Generated_Source\PSoC4/cyfitter_cfg.c **** *
 145:.\Generated_Source\PSoC4/cyfitter_cfg.c **** * Return:
 146:.\Generated_Source\PSoC4/cyfitter_cfg.c **** *   void
ARM GAS  C:\Users\g\AppData\Local\Temp\cc1rfPP8.s 			page 4


 147:.\Generated_Source\PSoC4/cyfitter_cfg.c **** *
 148:.\Generated_Source\PSoC4/cyfitter_cfg.c **** *******************************************************************************/
 149:.\Generated_Source\PSoC4/cyfitter_cfg.c **** static void cfg_write_bytes32(const uint32 addr_table[], const cy_cfg_addrvalue_t data_table[]);
 150:.\Generated_Source\PSoC4/cyfitter_cfg.c **** static void cfg_write_bytes32(const uint32 addr_table[], const cy_cfg_addrvalue_t data_table[])
 151:.\Generated_Source\PSoC4/cyfitter_cfg.c **** {
 152:.\Generated_Source\PSoC4/cyfitter_cfg.c **** 	/* For 32-bit little-endian architectures */
 153:.\Generated_Source\PSoC4/cyfitter_cfg.c **** 	uint32 i, j = 0u;
 154:.\Generated_Source\PSoC4/cyfitter_cfg.c **** 	for (i = 0u; i < CY_CFG_BASE_ADDR_COUNT; i++)
 155:.\Generated_Source\PSoC4/cyfitter_cfg.c **** 	{
 156:.\Generated_Source\PSoC4/cyfitter_cfg.c **** 		uint32 baseAddr = addr_table[i];
 157:.\Generated_Source\PSoC4/cyfitter_cfg.c **** 		uint8 count = (uint8)baseAddr;
 158:.\Generated_Source\PSoC4/cyfitter_cfg.c **** 		baseAddr &= 0xFFFFFF00u;
 159:.\Generated_Source\PSoC4/cyfitter_cfg.c **** 		while (count != 0u)
 160:.\Generated_Source\PSoC4/cyfitter_cfg.c **** 		{
 161:.\Generated_Source\PSoC4/cyfitter_cfg.c **** 			CY_SET_XTND_REG8((void CYFAR *)(baseAddr + data_table[j].offset), data_table[j].value);
 162:.\Generated_Source\PSoC4/cyfitter_cfg.c **** 			j++;
 163:.\Generated_Source\PSoC4/cyfitter_cfg.c **** 			count--;
 164:.\Generated_Source\PSoC4/cyfitter_cfg.c **** 		}
 165:.\Generated_Source\PSoC4/cyfitter_cfg.c **** 	}
 166:.\Generated_Source\PSoC4/cyfitter_cfg.c **** }
 167:.\Generated_Source\PSoC4/cyfitter_cfg.c **** 
 168:.\Generated_Source\PSoC4/cyfitter_cfg.c **** 
 169:.\Generated_Source\PSoC4/cyfitter_cfg.c **** /*******************************************************************************
 170:.\Generated_Source\PSoC4/cyfitter_cfg.c **** * Function Name: ClockSetup
 171:.\Generated_Source\PSoC4/cyfitter_cfg.c **** ********************************************************************************
 172:.\Generated_Source\PSoC4/cyfitter_cfg.c **** *
 173:.\Generated_Source\PSoC4/cyfitter_cfg.c **** * Summary:
 174:.\Generated_Source\PSoC4/cyfitter_cfg.c **** *   Performs the initialization of all of the clocks in the device based on the
 175:.\Generated_Source\PSoC4/cyfitter_cfg.c **** *   settings in the Clock tab of the DWR.  This includes enabling the requested
 176:.\Generated_Source\PSoC4/cyfitter_cfg.c **** *   clocks and setting the necessary dividers to produce the desired frequency. 
 177:.\Generated_Source\PSoC4/cyfitter_cfg.c **** *
 178:.\Generated_Source\PSoC4/cyfitter_cfg.c **** * Parameters:
 179:.\Generated_Source\PSoC4/cyfitter_cfg.c **** *   void
 180:.\Generated_Source\PSoC4/cyfitter_cfg.c **** *
 181:.\Generated_Source\PSoC4/cyfitter_cfg.c **** * Return:
 182:.\Generated_Source\PSoC4/cyfitter_cfg.c **** *   void
 183:.\Generated_Source\PSoC4/cyfitter_cfg.c **** *
 184:.\Generated_Source\PSoC4/cyfitter_cfg.c **** *******************************************************************************/
 185:.\Generated_Source\PSoC4/cyfitter_cfg.c **** static void ClockSetup(void);
 186:.\Generated_Source\PSoC4/cyfitter_cfg.c **** CY_CFG_SECTION
 187:.\Generated_Source\PSoC4/cyfitter_cfg.c **** static void ClockSetup(void)
 188:.\Generated_Source\PSoC4/cyfitter_cfg.c **** {
 189:.\Generated_Source\PSoC4/cyfitter_cfg.c **** 	/* Enable HALF_EN before trimming for the flash accelerator. */
 190:.\Generated_Source\PSoC4/cyfitter_cfg.c **** 	CY_SET_REG32((void CYXDATA *)(CYREG_CLK_SELECT), (CY_GET_REG32((void *)CYREG_CLK_SELECT) | 0x00040
 191:.\Generated_Source\PSoC4/cyfitter_cfg.c **** 
 192:.\Generated_Source\PSoC4/cyfitter_cfg.c **** 	/* Setup and trim IMO based on desired frequency. */
 193:.\Generated_Source\PSoC4/cyfitter_cfg.c **** 	CySysClkWriteImoFreq(48u);
 194:.\Generated_Source\PSoC4/cyfitter_cfg.c **** 	/* CYDEV_CLK_ILO_CONFIG Starting address: CYDEV_CLK_ILO_CONFIG */
 195:.\Generated_Source\PSoC4/cyfitter_cfg.c **** 	CY_SET_XTND_REG32((void CYFAR *)(CYREG_CLK_ILO_CONFIG), 0x80000006u);
 196:.\Generated_Source\PSoC4/cyfitter_cfg.c **** 
 197:.\Generated_Source\PSoC4/cyfitter_cfg.c **** 
 198:.\Generated_Source\PSoC4/cyfitter_cfg.c **** 	/* CYDEV_CLK_SELECT00 Starting address: CYDEV_CLK_SELECT00 */
 199:.\Generated_Source\PSoC4/cyfitter_cfg.c **** 	CY_SET_XTND_REG32((void CYFAR *)(CYREG_CLK_SELECT03), 0x00000011u);
 200:.\Generated_Source\PSoC4/cyfitter_cfg.c **** 	CY_SET_XTND_REG32((void CYFAR *)(CYREG_CLK_SELECT07), 0x00000030u);
 201:.\Generated_Source\PSoC4/cyfitter_cfg.c **** 	CY_SET_XTND_REG32((void CYFAR *)(CYREG_CLK_SELECT08), 0x00000010u);
 202:.\Generated_Source\PSoC4/cyfitter_cfg.c **** 	CY_SET_XTND_REG32((void CYFAR *)(CYREG_CLK_SELECT09), 0x00000020u);
 203:.\Generated_Source\PSoC4/cyfitter_cfg.c **** 	CY_SET_XTND_REG32((void CYFAR *)(CYREG_CLK_SELECT12), 0x00000010u);
ARM GAS  C:\Users\g\AppData\Local\Temp\cc1rfPP8.s 			page 5


 204:.\Generated_Source\PSoC4/cyfitter_cfg.c **** 
 205:.\Generated_Source\PSoC4/cyfitter_cfg.c **** 	/* CYDEV_CLK_IMO_CONFIG Starting address: CYDEV_CLK_IMO_CONFIG */
 206:.\Generated_Source\PSoC4/cyfitter_cfg.c **** 	CY_SET_XTND_REG32((void CYFAR *)(CYREG_CLK_IMO_CONFIG), 0x82000000u);
 207:.\Generated_Source\PSoC4/cyfitter_cfg.c **** 
 208:.\Generated_Source\PSoC4/cyfitter_cfg.c **** 	/* CYDEV_CLK_SELECT Starting address: CYDEV_CLK_SELECT */
 209:.\Generated_Source\PSoC4/cyfitter_cfg.c **** 	CY_SET_XTND_REG32((void CYFAR *)(CYREG_CLK_SELECT), 0x00040000u);
 210:.\Generated_Source\PSoC4/cyfitter_cfg.c **** 
 211:.\Generated_Source\PSoC4/cyfitter_cfg.c **** 	/* CYDEV_CLK_DIVIDER_A00 Starting address: CYDEV_CLK_DIVIDER_A00 */
 212:.\Generated_Source\PSoC4/cyfitter_cfg.c **** 	CY_SET_XTND_REG32((void CYFAR *)(CYREG_CLK_DIVIDER_A00), 0x80000003u);
 213:.\Generated_Source\PSoC4/cyfitter_cfg.c **** 
 214:.\Generated_Source\PSoC4/cyfitter_cfg.c **** 	/* CYDEV_CLK_DIVIDER_B00 Starting address: CYDEV_CLK_DIVIDER_B00 */
 215:.\Generated_Source\PSoC4/cyfitter_cfg.c **** 	CY_SET_XTND_REG32((void CYFAR *)(CYREG_CLK_DIVIDER_B00), 0x80000000u);
 216:.\Generated_Source\PSoC4/cyfitter_cfg.c **** 
 217:.\Generated_Source\PSoC4/cyfitter_cfg.c **** 	/* CYDEV_CLK_DIVIDER_C00 Starting address: CYDEV_CLK_DIVIDER_C00 */
 218:.\Generated_Source\PSoC4/cyfitter_cfg.c **** 	CY_SET_XTND_REG32((void CYFAR *)(CYREG_CLK_DIVIDER_C00), 0x80000003u);
 219:.\Generated_Source\PSoC4/cyfitter_cfg.c **** 
 220:.\Generated_Source\PSoC4/cyfitter_cfg.c **** 	/* CYDEV_CLK_DIVIDER_A01 Starting address: CYDEV_CLK_DIVIDER_A01 */
 221:.\Generated_Source\PSoC4/cyfitter_cfg.c **** 	CY_SET_XTND_REG32((void CYFAR *)(CYREG_CLK_DIVIDER_A01), 0x800000CFu);
 222:.\Generated_Source\PSoC4/cyfitter_cfg.c **** 
 223:.\Generated_Source\PSoC4/cyfitter_cfg.c **** 	(void)CyIntSetVector(9u, &CySysWdtIsr);
 224:.\Generated_Source\PSoC4/cyfitter_cfg.c **** 	CyIntEnable(9u);
 225:.\Generated_Source\PSoC4/cyfitter_cfg.c **** 	CY_SET_XTND_REG32((void CYFAR *)(CYREG_WDT_CONFIG), 0x00000000u);
 226:.\Generated_Source\PSoC4/cyfitter_cfg.c **** }
 227:.\Generated_Source\PSoC4/cyfitter_cfg.c **** 
 228:.\Generated_Source\PSoC4/cyfitter_cfg.c **** 
 229:.\Generated_Source\PSoC4/cyfitter_cfg.c **** /* Analog API Functions */
 230:.\Generated_Source\PSoC4/cyfitter_cfg.c **** 
 231:.\Generated_Source\PSoC4/cyfitter_cfg.c **** 
 232:.\Generated_Source\PSoC4/cyfitter_cfg.c **** /*******************************************************************************
 233:.\Generated_Source\PSoC4/cyfitter_cfg.c **** * Function Name: AnalogSetDefault
 234:.\Generated_Source\PSoC4/cyfitter_cfg.c **** ********************************************************************************
 235:.\Generated_Source\PSoC4/cyfitter_cfg.c **** *
 236:.\Generated_Source\PSoC4/cyfitter_cfg.c **** * Summary:
 237:.\Generated_Source\PSoC4/cyfitter_cfg.c **** *  Sets up the analog portions of the chip to default values based on chip
 238:.\Generated_Source\PSoC4/cyfitter_cfg.c **** *  configuration options from the project.
 239:.\Generated_Source\PSoC4/cyfitter_cfg.c **** *
 240:.\Generated_Source\PSoC4/cyfitter_cfg.c **** * Parameters:
 241:.\Generated_Source\PSoC4/cyfitter_cfg.c **** *  void
 242:.\Generated_Source\PSoC4/cyfitter_cfg.c **** *
 243:.\Generated_Source\PSoC4/cyfitter_cfg.c **** * Return:
 244:.\Generated_Source\PSoC4/cyfitter_cfg.c **** *  void
 245:.\Generated_Source\PSoC4/cyfitter_cfg.c **** *
 246:.\Generated_Source\PSoC4/cyfitter_cfg.c **** *******************************************************************************/
 247:.\Generated_Source\PSoC4/cyfitter_cfg.c **** static void AnalogSetDefault(void);
 248:.\Generated_Source\PSoC4/cyfitter_cfg.c **** static void AnalogSetDefault(void)
 249:.\Generated_Source\PSoC4/cyfitter_cfg.c **** {
 250:.\Generated_Source\PSoC4/cyfitter_cfg.c **** 	CY_SET_XTND_REG32((void CYFAR *)CYREG_SAR_MUX_SWITCH0, 0x00000004u);
 251:.\Generated_Source\PSoC4/cyfitter_cfg.c **** 	/* Variable VDDA is selected; no pumps are enabled by default */
 252:.\Generated_Source\PSoC4/cyfitter_cfg.c **** }
 253:.\Generated_Source\PSoC4/cyfitter_cfg.c **** 
 254:.\Generated_Source\PSoC4/cyfitter_cfg.c **** 
 255:.\Generated_Source\PSoC4/cyfitter_cfg.c **** /*******************************************************************************
 256:.\Generated_Source\PSoC4/cyfitter_cfg.c **** * Function Name: SetAnalogRoutingPumps
 257:.\Generated_Source\PSoC4/cyfitter_cfg.c **** ********************************************************************************
 258:.\Generated_Source\PSoC4/cyfitter_cfg.c **** *
 259:.\Generated_Source\PSoC4/cyfitter_cfg.c **** * Summary:
 260:.\Generated_Source\PSoC4/cyfitter_cfg.c **** * Enables or disables the analog pumps feeding analog routing switches.
ARM GAS  C:\Users\g\AppData\Local\Temp\cc1rfPP8.s 			page 6


 261:.\Generated_Source\PSoC4/cyfitter_cfg.c **** * Intended to be called at startup, based on the Vdda system configuration;
 262:.\Generated_Source\PSoC4/cyfitter_cfg.c **** * may be called during operation when the user informs us that the Vdda voltage crossed the pump th
 263:.\Generated_Source\PSoC4/cyfitter_cfg.c **** *
 264:.\Generated_Source\PSoC4/cyfitter_cfg.c **** * Parameters:
 265:.\Generated_Source\PSoC4/cyfitter_cfg.c **** *  enabled - 1 to enable the pumps, 0 to disable the pumps
 266:.\Generated_Source\PSoC4/cyfitter_cfg.c **** *
 267:.\Generated_Source\PSoC4/cyfitter_cfg.c **** * Return:
 268:.\Generated_Source\PSoC4/cyfitter_cfg.c **** *  void
 269:.\Generated_Source\PSoC4/cyfitter_cfg.c **** *
 270:.\Generated_Source\PSoC4/cyfitter_cfg.c **** *******************************************************************************/
 271:.\Generated_Source\PSoC4/cyfitter_cfg.c **** void SetAnalogRoutingPumps(uint8 enabled)
 272:.\Generated_Source\PSoC4/cyfitter_cfg.c **** {
  26              		.loc 1 272 0
  27              		.cfi_startproc
  28              	.LVL0:
 273:.\Generated_Source\PSoC4/cyfitter_cfg.c **** 	uint32 regValue = CY_GET_XTND_REG32((void *)(CYREG_SAR_PUMP_CTRL));
  29              		.loc 1 273 0
  30 0000 064B     		ldr	r3, .L6
  31 0002 1B68     		ldr	r3, [r3]
  32              	.LVL1:
 274:.\Generated_Source\PSoC4/cyfitter_cfg.c **** 	if (enabled != 0u)
  33              		.loc 1 274 0
  34 0004 0028     		cmp	r0, #0
  35 0006 04D1     		bne	.L5
 275:.\Generated_Source\PSoC4/cyfitter_cfg.c **** 	{
 276:.\Generated_Source\PSoC4/cyfitter_cfg.c **** 		regValue |= 0x80000000u;
 277:.\Generated_Source\PSoC4/cyfitter_cfg.c **** 	}
 278:.\Generated_Source\PSoC4/cyfitter_cfg.c **** 	else
 279:.\Generated_Source\PSoC4/cyfitter_cfg.c **** 	{
 280:.\Generated_Source\PSoC4/cyfitter_cfg.c **** 		regValue &= ~0x80000000u;
  36              		.loc 1 280 0
  37 0008 5B00     		lsl	r3, r3, #1
  38              	.LVL2:
  39 000a 5B08     		lsr	r3, r3, #1
  40              	.LVL3:
  41              	.L3:
 281:.\Generated_Source\PSoC4/cyfitter_cfg.c **** 	}
 282:.\Generated_Source\PSoC4/cyfitter_cfg.c **** 	CY_SET_XTND_REG32((void *)(CYREG_SAR_PUMP_CTRL), regValue);
  42              		.loc 1 282 0
  43 000c 034A     		ldr	r2, .L6
 283:.\Generated_Source\PSoC4/cyfitter_cfg.c **** }
  44              		.loc 1 283 0
  45              		@ sp needed
 282:.\Generated_Source\PSoC4/cyfitter_cfg.c **** }
  46              		.loc 1 282 0
  47 000e 1360     		str	r3, [r2]
  48              		.loc 1 283 0
  49 0010 7047     		bx	lr
  50              	.L5:
 276:.\Generated_Source\PSoC4/cyfitter_cfg.c **** 	}
  51              		.loc 1 276 0
  52 0012 8022     		mov	r2, #128
  53 0014 1206     		lsl	r2, r2, #24
  54 0016 1343     		orr	r3, r2
  55              	.LVL4:
  56 0018 F8E7     		b	.L3
  57              	.L7:
ARM GAS  C:\Users\g\AppData\Local\Temp\cc1rfPP8.s 			page 7


  58 001a C046     		.align	2
  59              	.L6:
  60 001c 80031A40 		.word	1075446656
  61              		.cfi_endproc
  62              	.LFE6:
  63              		.size	SetAnalogRoutingPumps, .-SetAnalogRoutingPumps
  64              		.section	.psocinit,"ax",%progbits
  65              		.align	2
  66              		.global	cyfitter_cfg
  67              		.code	16
  68              		.thumb_func
  69              		.type	cyfitter_cfg, %function
  70              	cyfitter_cfg:
  71              	.LFB7:
 284:.\Generated_Source\PSoC4/cyfitter_cfg.c **** 
 285:.\Generated_Source\PSoC4/cyfitter_cfg.c **** #define CY_AMUX_UNUSED CYREG_CM0_ROM_DWT
 286:.\Generated_Source\PSoC4/cyfitter_cfg.c **** 
 287:.\Generated_Source\PSoC4/cyfitter_cfg.c **** 
 288:.\Generated_Source\PSoC4/cyfitter_cfg.c **** /*******************************************************************************
 289:.\Generated_Source\PSoC4/cyfitter_cfg.c **** * Function Name: cyfitter_cfg
 290:.\Generated_Source\PSoC4/cyfitter_cfg.c **** ********************************************************************************
 291:.\Generated_Source\PSoC4/cyfitter_cfg.c **** * Summary:
 292:.\Generated_Source\PSoC4/cyfitter_cfg.c **** *  This function is called by the start-up code for the selected device. It
 293:.\Generated_Source\PSoC4/cyfitter_cfg.c **** *  performs all of the necessary device configuration based on the design
 294:.\Generated_Source\PSoC4/cyfitter_cfg.c **** *  settings.  This includes settings from the Design Wide Resources (DWR) such
 295:.\Generated_Source\PSoC4/cyfitter_cfg.c **** *  as Clocks and Pins as well as any component configuration that is necessary.
 296:.\Generated_Source\PSoC4/cyfitter_cfg.c **** *
 297:.\Generated_Source\PSoC4/cyfitter_cfg.c **** * Parameters:  
 298:.\Generated_Source\PSoC4/cyfitter_cfg.c **** *   void
 299:.\Generated_Source\PSoC4/cyfitter_cfg.c **** *
 300:.\Generated_Source\PSoC4/cyfitter_cfg.c **** * Return:
 301:.\Generated_Source\PSoC4/cyfitter_cfg.c **** *   void
 302:.\Generated_Source\PSoC4/cyfitter_cfg.c **** *
 303:.\Generated_Source\PSoC4/cyfitter_cfg.c **** *******************************************************************************/
 304:.\Generated_Source\PSoC4/cyfitter_cfg.c **** CY_CFG_SECTION
 305:.\Generated_Source\PSoC4/cyfitter_cfg.c **** void cyfitter_cfg(void)
 306:.\Generated_Source\PSoC4/cyfitter_cfg.c **** {
  72              		.loc 1 306 0
  73              		.cfi_startproc
  74 0000 F0B5     		push	{r4, r5, r6, r7, lr}
  75              		.cfi_def_cfa_offset 20
  76              		.cfi_offset 4, -20
  77              		.cfi_offset 5, -16
  78              		.cfi_offset 6, -12
  79              		.cfi_offset 7, -8
  80              		.cfi_offset 14, -4
  81 0002 4746     		mov	r7, r8
  82 0004 80B4     		push	{r7}
  83              		.cfi_def_cfa_offset 24
  84              		.cfi_offset 8, -24
 307:.\Generated_Source\PSoC4/cyfitter_cfg.c **** 	/* Disable interrupts by default. Let user enable if/when they want. */
 308:.\Generated_Source\PSoC4/cyfitter_cfg.c **** 	CyGlobalIntDisable;
  85              		.loc 1 308 0
  86              	@ 308 ".\Generated_Source\PSoC4\cyfitter_cfg.c" 1
  87 0006 72B6     		CPSID   i
  88              	@ 0 "" 2
 309:.\Generated_Source\PSoC4/cyfitter_cfg.c **** 
ARM GAS  C:\Users\g\AppData\Local\Temp\cc1rfPP8.s 			page 8


 310:.\Generated_Source\PSoC4/cyfitter_cfg.c **** 	/* Enable the clock in the interrupt controller for the routed interrupts */
 311:.\Generated_Source\PSoC4/cyfitter_cfg.c **** 	CY_SET_REG8((void *)CYREG_UDB_UDBIF_INT_CLK_CTL, 0x01u);
  89              		.loc 1 311 0
  90              		.code	16
  91 0008 0122     		mov	r2, #1
  92 000a 5F4B     		ldr	r3, .L17
  93              	.LBB20:
  94              	.LBB21:
  95              	.LBB22:
  96              	.LBB23:
  63:.\Generated_Source\PSoC4/cyfitter_cfg.c **** }
  97              		.loc 1 63 0
  98 000c 0021     		mov	r1, #0
  99              	.LBE23:
 100              	.LBE22:
 101              	.LBE21:
 102              	.LBE20:
 103              		.loc 1 311 0
 104 000e 1A70     		strb	r2, [r3]
 105              	.LVL5:
 106              	.LBB36:
 107              	.LBB28:
 108              	.LBB26:
 109              	.LBB24:
  63:.\Generated_Source\PSoC4/cyfitter_cfg.c **** }
 110              		.loc 1 63 0
 111 0010 8022     		mov	r2, #128
 112 0012 5E48     		ldr	r0, .L17+4
 113 0014 D200     		lsl	r2, r2, #3
 114 0016 FFF7FEFF 		bl	memset
 115              	.LVL6:
 116 001a 8022     		mov	r2, #128
 117 001c 5C48     		ldr	r0, .L17+8
 118 001e 0021     		mov	r1, #0
 119 0020 D200     		lsl	r2, r2, #3
 120 0022 FFF7FEFF 		bl	memset
 121              	.LVL7:
 122 0026 2823     		mov	r3, #40
 123 0028 9846     		mov	r8, r3
 124 002a 5A4D     		ldr	r5, .L17+12
 125              	.LBE24:
 126              	.LBE26:
 127              	.LBE28:
 128              	.LBB29:
 129              	.LBB30:
 130              	.LBB31:
 158:.\Generated_Source\PSoC4/cyfitter_cfg.c **** 		while (count != 0u)
 131              		.loc 1 158 0
 132 002c D733     		add	r3, r3, #215
 133 002e A844     		add	r8, r8, r5
 134              	.LBE31:
 135              	.LBE30:
 136              	.LBE29:
 137              	.LBB34:
 138              	.LBB27:
 139              	.LBB25:
  63:.\Generated_Source\PSoC4/cyfitter_cfg.c **** }
ARM GAS  C:\Users\g\AppData\Local\Temp\cc1rfPP8.s 			page 9


 140              		.loc 1 63 0
 141 0030 0027     		mov	r7, #0
 142              	.LBE25:
 143              	.LBE27:
 144              	.LBE34:
 145              	.LBB35:
 146              	.LBB33:
 147              	.LBB32:
 158:.\Generated_Source\PSoC4/cyfitter_cfg.c **** 		while (count != 0u)
 148              		.loc 1 158 0
 149 0032 9C46     		mov	ip, r3
 150 0034 4646     		mov	r6, r8
 151              	.LVL8:
 152              	.L11:
 153 0036 6346     		mov	r3, ip
 154 0038 2868     		ldr	r0, [r5]
 157:.\Generated_Source\PSoC4/cyfitter_cfg.c **** 		baseAddr &= 0xFFFFFF00u;
 155              		.loc 1 157 0
 156 003a 2A78     		ldrb	r2, [r5]
 157              	.LVL9:
 158:.\Generated_Source\PSoC4/cyfitter_cfg.c **** 		while (count != 0u)
 158              		.loc 1 158 0
 159 003c 9843     		bic	r0, r3
 160              	.LVL10:
 159:.\Generated_Source\PSoC4/cyfitter_cfg.c **** 		{
 161              		.loc 1 159 0
 162 003e 002A     		cmp	r2, #0
 163 0040 0ED0     		beq	.L9
 164 0042 511E     		sub	r1, r2, #1
 165 0044 7C1C     		add	r4, r7, #1
 166 0046 CAB2     		uxtb	r2, r1
 167              	.LVL11:
 168 0048 7B00     		lsl	r3, r7, #1
 169 004a A718     		add	r7, r4, r2
 170              	.LVL12:
 171 004c 7C00     		lsl	r4, r7, #1
 172              	.LVL13:
 173 004e F318     		add	r3, r6, r3
 174 0050 3419     		add	r4, r6, r4
 175              	.LVL14:
 176              	.L10:
 161:.\Generated_Source\PSoC4/cyfitter_cfg.c **** 			j++;
 177              		.loc 1 161 0
 178 0052 1A78     		ldrb	r2, [r3]
 179 0054 5978     		ldrb	r1, [r3, #1]
 180 0056 1218     		add	r2, r2, r0
 181 0058 0233     		add	r3, r3, #2
 182 005a 1170     		strb	r1, [r2]
 159:.\Generated_Source\PSoC4/cyfitter_cfg.c **** 		{
 183              		.loc 1 159 0
 184 005c A342     		cmp	r3, r4
 185 005e F8D1     		bne	.L10
 186              	.L9:
 187              	.LVL15:
 188 0060 0435     		add	r5, r5, #4
 189              	.LBE32:
 154:.\Generated_Source\PSoC4/cyfitter_cfg.c **** 	{
ARM GAS  C:\Users\g\AppData\Local\Temp\cc1rfPP8.s 			page 10


 190              		.loc 1 154 0
 191 0062 4545     		cmp	r5, r8
 192 0064 E7D1     		bne	.L11
 193              	.LBE33:
 194              	.LBE35:
 312:.\Generated_Source\PSoC4/cyfitter_cfg.c **** 	{
 313:.\Generated_Source\PSoC4/cyfitter_cfg.c **** 		static const uint32 CYCODE cy_cfg_addr_table[] = {
 314:.\Generated_Source\PSoC4/cyfitter_cfg.c **** 			0x400F0002u, /* Base address: 0x400F0000 Count: 2 */
 315:.\Generated_Source\PSoC4/cyfitter_cfg.c **** 			0x400F3060u, /* Base address: 0x400F3000 Count: 96 */
 316:.\Generated_Source\PSoC4/cyfitter_cfg.c **** 			0x400F313Bu, /* Base address: 0x400F3100 Count: 59 */
 317:.\Generated_Source\PSoC4/cyfitter_cfg.c **** 			0x400F3247u, /* Base address: 0x400F3200 Count: 71 */
 318:.\Generated_Source\PSoC4/cyfitter_cfg.c **** 			0x400F334Au, /* Base address: 0x400F3300 Count: 74 */
 319:.\Generated_Source\PSoC4/cyfitter_cfg.c **** 			0x400F4009u, /* Base address: 0x400F4000 Count: 9 */
 320:.\Generated_Source\PSoC4/cyfitter_cfg.c **** 			0x400F410Eu, /* Base address: 0x400F4100 Count: 14 */
 321:.\Generated_Source\PSoC4/cyfitter_cfg.c **** 			0x400F4202u, /* Base address: 0x400F4200 Count: 2 */
 322:.\Generated_Source\PSoC4/cyfitter_cfg.c **** 			0x400F4306u, /* Base address: 0x400F4300 Count: 6 */
 323:.\Generated_Source\PSoC4/cyfitter_cfg.c **** 			0x400F6002u, /* Base address: 0x400F6000 Count: 2 */
 324:.\Generated_Source\PSoC4/cyfitter_cfg.c **** 		};
 325:.\Generated_Source\PSoC4/cyfitter_cfg.c **** 
 326:.\Generated_Source\PSoC4/cyfitter_cfg.c **** 		static const cy_cfg_addrvalue_t CYCODE cy_cfg_data_table[] = {
 327:.\Generated_Source\PSoC4/cyfitter_cfg.c **** 			{0x80u, 0x0Fu},
 328:.\Generated_Source\PSoC4/cyfitter_cfg.c **** 			{0x82u, 0x6Fu},
 329:.\Generated_Source\PSoC4/cyfitter_cfg.c **** 			{0x00u, 0x08u},
 330:.\Generated_Source\PSoC4/cyfitter_cfg.c **** 			{0x05u, 0x08u},
 331:.\Generated_Source\PSoC4/cyfitter_cfg.c **** 			{0x07u, 0x04u},
 332:.\Generated_Source\PSoC4/cyfitter_cfg.c **** 			{0x15u, 0x02u},
 333:.\Generated_Source\PSoC4/cyfitter_cfg.c **** 			{0x18u, 0x01u},
 334:.\Generated_Source\PSoC4/cyfitter_cfg.c **** 			{0x1Bu, 0x03u},
 335:.\Generated_Source\PSoC4/cyfitter_cfg.c **** 			{0x1Du, 0x0Cu},
 336:.\Generated_Source\PSoC4/cyfitter_cfg.c **** 			{0x24u, 0x03u},
 337:.\Generated_Source\PSoC4/cyfitter_cfg.c **** 			{0x2Bu, 0x0Cu},
 338:.\Generated_Source\PSoC4/cyfitter_cfg.c **** 			{0x2Cu, 0x03u},
 339:.\Generated_Source\PSoC4/cyfitter_cfg.c **** 			{0x2Eu, 0x0Cu},
 340:.\Generated_Source\PSoC4/cyfitter_cfg.c **** 			{0x30u, 0x04u},
 341:.\Generated_Source\PSoC4/cyfitter_cfg.c **** 			{0x31u, 0x04u},
 342:.\Generated_Source\PSoC4/cyfitter_cfg.c **** 			{0x32u, 0x02u},
 343:.\Generated_Source\PSoC4/cyfitter_cfg.c **** 			{0x33u, 0x01u},
 344:.\Generated_Source\PSoC4/cyfitter_cfg.c **** 			{0x34u, 0x08u},
 345:.\Generated_Source\PSoC4/cyfitter_cfg.c **** 			{0x35u, 0x08u},
 346:.\Generated_Source\PSoC4/cyfitter_cfg.c **** 			{0x36u, 0x01u},
 347:.\Generated_Source\PSoC4/cyfitter_cfg.c **** 			{0x37u, 0x02u},
 348:.\Generated_Source\PSoC4/cyfitter_cfg.c **** 			{0x38u, 0x88u},
 349:.\Generated_Source\PSoC4/cyfitter_cfg.c **** 			{0x3Eu, 0x50u},
 350:.\Generated_Source\PSoC4/cyfitter_cfg.c **** 			{0x3Fu, 0x51u},
 351:.\Generated_Source\PSoC4/cyfitter_cfg.c **** 			{0x40u, 0x51u},
 352:.\Generated_Source\PSoC4/cyfitter_cfg.c **** 			{0x41u, 0x02u},
 353:.\Generated_Source\PSoC4/cyfitter_cfg.c **** 			{0x49u, 0xFFu},
 354:.\Generated_Source\PSoC4/cyfitter_cfg.c **** 			{0x4Au, 0xFFu},
 355:.\Generated_Source\PSoC4/cyfitter_cfg.c **** 			{0x4Bu, 0xFFu},
 356:.\Generated_Source\PSoC4/cyfitter_cfg.c **** 			{0x4Du, 0xA0u},
 357:.\Generated_Source\PSoC4/cyfitter_cfg.c **** 			{0x4Fu, 0x01u},
 358:.\Generated_Source\PSoC4/cyfitter_cfg.c **** 			{0x50u, 0x18u},
 359:.\Generated_Source\PSoC4/cyfitter_cfg.c **** 			{0x54u, 0x0Fu},
 360:.\Generated_Source\PSoC4/cyfitter_cfg.c **** 			{0x56u, 0x04u},
 361:.\Generated_Source\PSoC4/cyfitter_cfg.c **** 			{0x58u, 0x04u},
 362:.\Generated_Source\PSoC4/cyfitter_cfg.c **** 			{0x59u, 0x04u},
 363:.\Generated_Source\PSoC4/cyfitter_cfg.c **** 			{0x5Au, 0x04u},
ARM GAS  C:\Users\g\AppData\Local\Temp\cc1rfPP8.s 			page 11


 364:.\Generated_Source\PSoC4/cyfitter_cfg.c **** 			{0x5Bu, 0x04u},
 365:.\Generated_Source\PSoC4/cyfitter_cfg.c **** 			{0x5Fu, 0x01u},
 366:.\Generated_Source\PSoC4/cyfitter_cfg.c **** 			{0x60u, 0x40u},
 367:.\Generated_Source\PSoC4/cyfitter_cfg.c **** 			{0x62u, 0x80u},
 368:.\Generated_Source\PSoC4/cyfitter_cfg.c **** 			{0x64u, 0x40u},
 369:.\Generated_Source\PSoC4/cyfitter_cfg.c **** 			{0x65u, 0x40u},
 370:.\Generated_Source\PSoC4/cyfitter_cfg.c **** 			{0x66u, 0x80u},
 371:.\Generated_Source\PSoC4/cyfitter_cfg.c **** 			{0x68u, 0x40u},
 372:.\Generated_Source\PSoC4/cyfitter_cfg.c **** 			{0x6Au, 0x80u},
 373:.\Generated_Source\PSoC4/cyfitter_cfg.c **** 			{0x6Cu, 0x40u},
 374:.\Generated_Source\PSoC4/cyfitter_cfg.c **** 			{0x6Du, 0x20u},
 375:.\Generated_Source\PSoC4/cyfitter_cfg.c **** 			{0x6Eu, 0x80u},
 376:.\Generated_Source\PSoC4/cyfitter_cfg.c **** 			{0x80u, 0x5Bu},
 377:.\Generated_Source\PSoC4/cyfitter_cfg.c **** 			{0x82u, 0x04u},
 378:.\Generated_Source\PSoC4/cyfitter_cfg.c **** 			{0x83u, 0x03u},
 379:.\Generated_Source\PSoC4/cyfitter_cfg.c **** 			{0x84u, 0x6Cu},
 380:.\Generated_Source\PSoC4/cyfitter_cfg.c **** 			{0x86u, 0x01u},
 381:.\Generated_Source\PSoC4/cyfitter_cfg.c **** 			{0x8Au, 0x80u},
 382:.\Generated_Source\PSoC4/cyfitter_cfg.c **** 			{0x94u, 0x6Cu},
 383:.\Generated_Source\PSoC4/cyfitter_cfg.c **** 			{0x96u, 0x02u},
 384:.\Generated_Source\PSoC4/cyfitter_cfg.c **** 			{0x98u, 0x37u},
 385:.\Generated_Source\PSoC4/cyfitter_cfg.c **** 			{0x9Du, 0x01u},
 386:.\Generated_Source\PSoC4/cyfitter_cfg.c **** 			{0xA4u, 0x08u},
 387:.\Generated_Source\PSoC4/cyfitter_cfg.c **** 			{0xA6u, 0x01u},
 388:.\Generated_Source\PSoC4/cyfitter_cfg.c **** 			{0xABu, 0x04u},
 389:.\Generated_Source\PSoC4/cyfitter_cfg.c **** 			{0xAEu, 0x0Fu},
 390:.\Generated_Source\PSoC4/cyfitter_cfg.c **** 			{0xB2u, 0x0Fu},
 391:.\Generated_Source\PSoC4/cyfitter_cfg.c **** 			{0xB3u, 0x01u},
 392:.\Generated_Source\PSoC4/cyfitter_cfg.c **** 			{0xB4u, 0x70u},
 393:.\Generated_Source\PSoC4/cyfitter_cfg.c **** 			{0xB5u, 0x04u},
 394:.\Generated_Source\PSoC4/cyfitter_cfg.c **** 			{0xB6u, 0x80u},
 395:.\Generated_Source\PSoC4/cyfitter_cfg.c **** 			{0xB7u, 0x02u},
 396:.\Generated_Source\PSoC4/cyfitter_cfg.c **** 			{0xB8u, 0x20u},
 397:.\Generated_Source\PSoC4/cyfitter_cfg.c **** 			{0xBFu, 0x04u},
 398:.\Generated_Source\PSoC4/cyfitter_cfg.c **** 			{0xC0u, 0x15u},
 399:.\Generated_Source\PSoC4/cyfitter_cfg.c **** 			{0xC1u, 0x06u},
 400:.\Generated_Source\PSoC4/cyfitter_cfg.c **** 			{0xC5u, 0x0Cu},
 401:.\Generated_Source\PSoC4/cyfitter_cfg.c **** 			{0xC6u, 0x23u},
 402:.\Generated_Source\PSoC4/cyfitter_cfg.c **** 			{0xC7u, 0x4Eu},
 403:.\Generated_Source\PSoC4/cyfitter_cfg.c **** 			{0xC8u, 0x3Du},
 404:.\Generated_Source\PSoC4/cyfitter_cfg.c **** 			{0xC9u, 0xFFu},
 405:.\Generated_Source\PSoC4/cyfitter_cfg.c **** 			{0xCAu, 0xFFu},
 406:.\Generated_Source\PSoC4/cyfitter_cfg.c **** 			{0xCBu, 0xFFu},
 407:.\Generated_Source\PSoC4/cyfitter_cfg.c **** 			{0xCDu, 0xAFu},
 408:.\Generated_Source\PSoC4/cyfitter_cfg.c **** 			{0xCEu, 0x07u},
 409:.\Generated_Source\PSoC4/cyfitter_cfg.c **** 			{0xCFu, 0x01u},
 410:.\Generated_Source\PSoC4/cyfitter_cfg.c **** 			{0xD0u, 0x18u},
 411:.\Generated_Source\PSoC4/cyfitter_cfg.c **** 			{0xD8u, 0x04u},
 412:.\Generated_Source\PSoC4/cyfitter_cfg.c **** 			{0xD9u, 0x04u},
 413:.\Generated_Source\PSoC4/cyfitter_cfg.c **** 			{0xDAu, 0x04u},
 414:.\Generated_Source\PSoC4/cyfitter_cfg.c **** 			{0xDFu, 0x01u},
 415:.\Generated_Source\PSoC4/cyfitter_cfg.c **** 			{0xE0u, 0x40u},
 416:.\Generated_Source\PSoC4/cyfitter_cfg.c **** 			{0xE2u, 0x80u},
 417:.\Generated_Source\PSoC4/cyfitter_cfg.c **** 			{0xE4u, 0x40u},
 418:.\Generated_Source\PSoC4/cyfitter_cfg.c **** 			{0xE5u, 0x40u},
 419:.\Generated_Source\PSoC4/cyfitter_cfg.c **** 			{0xE6u, 0x80u},
 420:.\Generated_Source\PSoC4/cyfitter_cfg.c **** 			{0xE8u, 0x40u},
ARM GAS  C:\Users\g\AppData\Local\Temp\cc1rfPP8.s 			page 12


 421:.\Generated_Source\PSoC4/cyfitter_cfg.c **** 			{0xEAu, 0x80u},
 422:.\Generated_Source\PSoC4/cyfitter_cfg.c **** 			{0xECu, 0x40u},
 423:.\Generated_Source\PSoC4/cyfitter_cfg.c **** 			{0xEDu, 0x20u},
 424:.\Generated_Source\PSoC4/cyfitter_cfg.c **** 			{0xEEu, 0x80u},
 425:.\Generated_Source\PSoC4/cyfitter_cfg.c **** 			{0x01u, 0x02u},
 426:.\Generated_Source\PSoC4/cyfitter_cfg.c **** 			{0x04u, 0x10u},
 427:.\Generated_Source\PSoC4/cyfitter_cfg.c **** 			{0x05u, 0x01u},
 428:.\Generated_Source\PSoC4/cyfitter_cfg.c **** 			{0x06u, 0x10u},
 429:.\Generated_Source\PSoC4/cyfitter_cfg.c **** 			{0x09u, 0x20u},
 430:.\Generated_Source\PSoC4/cyfitter_cfg.c **** 			{0x0Au, 0x08u},
 431:.\Generated_Source\PSoC4/cyfitter_cfg.c **** 			{0x0Du, 0x20u},
 432:.\Generated_Source\PSoC4/cyfitter_cfg.c **** 			{0x0Eu, 0x20u},
 433:.\Generated_Source\PSoC4/cyfitter_cfg.c **** 			{0x10u, 0x20u},
 434:.\Generated_Source\PSoC4/cyfitter_cfg.c **** 			{0x11u, 0x80u},
 435:.\Generated_Source\PSoC4/cyfitter_cfg.c **** 			{0x15u, 0x40u},
 436:.\Generated_Source\PSoC4/cyfitter_cfg.c **** 			{0x17u, 0x04u},
 437:.\Generated_Source\PSoC4/cyfitter_cfg.c **** 			{0x18u, 0x01u},
 438:.\Generated_Source\PSoC4/cyfitter_cfg.c **** 			{0x19u, 0x02u},
 439:.\Generated_Source\PSoC4/cyfitter_cfg.c **** 			{0x1Au, 0x06u},
 440:.\Generated_Source\PSoC4/cyfitter_cfg.c **** 			{0x1Bu, 0x04u},
 441:.\Generated_Source\PSoC4/cyfitter_cfg.c **** 			{0x1Cu, 0x08u},
 442:.\Generated_Source\PSoC4/cyfitter_cfg.c **** 			{0x1Du, 0x20u},
 443:.\Generated_Source\PSoC4/cyfitter_cfg.c **** 			{0x1Eu, 0x22u},
 444:.\Generated_Source\PSoC4/cyfitter_cfg.c **** 			{0x1Fu, 0x28u},
 445:.\Generated_Source\PSoC4/cyfitter_cfg.c **** 			{0x21u, 0x08u},
 446:.\Generated_Source\PSoC4/cyfitter_cfg.c **** 			{0x22u, 0x10u},
 447:.\Generated_Source\PSoC4/cyfitter_cfg.c **** 			{0x23u, 0x81u},
 448:.\Generated_Source\PSoC4/cyfitter_cfg.c **** 			{0x26u, 0x88u},
 449:.\Generated_Source\PSoC4/cyfitter_cfg.c **** 			{0x27u, 0x04u},
 450:.\Generated_Source\PSoC4/cyfitter_cfg.c **** 			{0x2Bu, 0x04u},
 451:.\Generated_Source\PSoC4/cyfitter_cfg.c **** 			{0x2Fu, 0x04u},
 452:.\Generated_Source\PSoC4/cyfitter_cfg.c **** 			{0x30u, 0x20u},
 453:.\Generated_Source\PSoC4/cyfitter_cfg.c **** 			{0x31u, 0x08u},
 454:.\Generated_Source\PSoC4/cyfitter_cfg.c **** 			{0x32u, 0x80u},
 455:.\Generated_Source\PSoC4/cyfitter_cfg.c **** 			{0x36u, 0x80u},
 456:.\Generated_Source\PSoC4/cyfitter_cfg.c **** 			{0x38u, 0x04u},
 457:.\Generated_Source\PSoC4/cyfitter_cfg.c **** 			{0x3Au, 0x20u},
 458:.\Generated_Source\PSoC4/cyfitter_cfg.c **** 			{0x3Bu, 0x10u},
 459:.\Generated_Source\PSoC4/cyfitter_cfg.c **** 			{0x3Fu, 0x02u},
 460:.\Generated_Source\PSoC4/cyfitter_cfg.c **** 			{0x40u, 0x05u},
 461:.\Generated_Source\PSoC4/cyfitter_cfg.c **** 			{0x45u, 0x80u},
 462:.\Generated_Source\PSoC4/cyfitter_cfg.c **** 			{0x48u, 0x01u},
 463:.\Generated_Source\PSoC4/cyfitter_cfg.c **** 			{0x4Eu, 0x01u},
 464:.\Generated_Source\PSoC4/cyfitter_cfg.c **** 			{0x4Fu, 0x24u},
 465:.\Generated_Source\PSoC4/cyfitter_cfg.c **** 			{0x54u, 0x20u},
 466:.\Generated_Source\PSoC4/cyfitter_cfg.c **** 			{0x55u, 0x40u},
 467:.\Generated_Source\PSoC4/cyfitter_cfg.c **** 			{0x56u, 0x28u},
 468:.\Generated_Source\PSoC4/cyfitter_cfg.c **** 			{0x57u, 0x01u},
 469:.\Generated_Source\PSoC4/cyfitter_cfg.c **** 			{0x59u, 0x01u},
 470:.\Generated_Source\PSoC4/cyfitter_cfg.c **** 			{0x5Au, 0x28u},
 471:.\Generated_Source\PSoC4/cyfitter_cfg.c **** 			{0x5Bu, 0x80u},
 472:.\Generated_Source\PSoC4/cyfitter_cfg.c **** 			{0x63u, 0x40u},
 473:.\Generated_Source\PSoC4/cyfitter_cfg.c **** 			{0x87u, 0x40u},
 474:.\Generated_Source\PSoC4/cyfitter_cfg.c **** 			{0xC0u, 0x78u},
 475:.\Generated_Source\PSoC4/cyfitter_cfg.c **** 			{0xC2u, 0x62u},
 476:.\Generated_Source\PSoC4/cyfitter_cfg.c **** 			{0xC4u, 0xA5u},
 477:.\Generated_Source\PSoC4/cyfitter_cfg.c **** 			{0xCAu, 0x24u},
ARM GAS  C:\Users\g\AppData\Local\Temp\cc1rfPP8.s 			page 13


 478:.\Generated_Source\PSoC4/cyfitter_cfg.c **** 			{0xCCu, 0x1Eu},
 479:.\Generated_Source\PSoC4/cyfitter_cfg.c **** 			{0xCEu, 0x82u},
 480:.\Generated_Source\PSoC4/cyfitter_cfg.c **** 			{0xD0u, 0x1Cu},
 481:.\Generated_Source\PSoC4/cyfitter_cfg.c **** 			{0xD2u, 0x38u},
 482:.\Generated_Source\PSoC4/cyfitter_cfg.c **** 			{0xD6u, 0x0Fu},
 483:.\Generated_Source\PSoC4/cyfitter_cfg.c **** 			{0xD8u, 0x01u},
 484:.\Generated_Source\PSoC4/cyfitter_cfg.c **** 			{0x00u, 0x34u},
 485:.\Generated_Source\PSoC4/cyfitter_cfg.c **** 			{0x02u, 0x40u},
 486:.\Generated_Source\PSoC4/cyfitter_cfg.c **** 			{0x04u, 0x44u},
 487:.\Generated_Source\PSoC4/cyfitter_cfg.c **** 			{0x05u, 0x7Fu},
 488:.\Generated_Source\PSoC4/cyfitter_cfg.c **** 			{0x06u, 0x20u},
 489:.\Generated_Source\PSoC4/cyfitter_cfg.c **** 			{0x0Au, 0x01u},
 490:.\Generated_Source\PSoC4/cyfitter_cfg.c **** 			{0x0Bu, 0x01u},
 491:.\Generated_Source\PSoC4/cyfitter_cfg.c **** 			{0x0Cu, 0x04u},
 492:.\Generated_Source\PSoC4/cyfitter_cfg.c **** 			{0x0Eu, 0x10u},
 493:.\Generated_Source\PSoC4/cyfitter_cfg.c **** 			{0x11u, 0xFEu},
 494:.\Generated_Source\PSoC4/cyfitter_cfg.c **** 			{0x13u, 0x01u},
 495:.\Generated_Source\PSoC4/cyfitter_cfg.c **** 			{0x14u, 0x44u},
 496:.\Generated_Source\PSoC4/cyfitter_cfg.c **** 			{0x15u, 0x96u},
 497:.\Generated_Source\PSoC4/cyfitter_cfg.c **** 			{0x16u, 0x10u},
 498:.\Generated_Source\PSoC4/cyfitter_cfg.c **** 			{0x17u, 0x68u},
 499:.\Generated_Source\PSoC4/cyfitter_cfg.c **** 			{0x18u, 0x70u},
 500:.\Generated_Source\PSoC4/cyfitter_cfg.c **** 			{0x1Cu, 0x01u},
 501:.\Generated_Source\PSoC4/cyfitter_cfg.c **** 			{0x22u, 0x01u},
 502:.\Generated_Source\PSoC4/cyfitter_cfg.c **** 			{0x25u, 0xC5u},
 503:.\Generated_Source\PSoC4/cyfitter_cfg.c **** 			{0x26u, 0x74u},
 504:.\Generated_Source\PSoC4/cyfitter_cfg.c **** 			{0x27u, 0x3Au},
 505:.\Generated_Source\PSoC4/cyfitter_cfg.c **** 			{0x29u, 0xA3u},
 506:.\Generated_Source\PSoC4/cyfitter_cfg.c **** 			{0x2Au, 0x02u},
 507:.\Generated_Source\PSoC4/cyfitter_cfg.c **** 			{0x2Bu, 0x5Cu},
 508:.\Generated_Source\PSoC4/cyfitter_cfg.c **** 			{0x2Du, 0x0Eu},
 509:.\Generated_Source\PSoC4/cyfitter_cfg.c **** 			{0x2Eu, 0x08u},
 510:.\Generated_Source\PSoC4/cyfitter_cfg.c **** 			{0x2Fu, 0xF0u},
 511:.\Generated_Source\PSoC4/cyfitter_cfg.c **** 			{0x30u, 0x02u},
 512:.\Generated_Source\PSoC4/cyfitter_cfg.c **** 			{0x31u, 0xFFu},
 513:.\Generated_Source\PSoC4/cyfitter_cfg.c **** 			{0x32u, 0x0Cu},
 514:.\Generated_Source\PSoC4/cyfitter_cfg.c **** 			{0x34u, 0x74u},
 515:.\Generated_Source\PSoC4/cyfitter_cfg.c **** 			{0x36u, 0x01u},
 516:.\Generated_Source\PSoC4/cyfitter_cfg.c **** 			{0x3Eu, 0x40u},
 517:.\Generated_Source\PSoC4/cyfitter_cfg.c **** 			{0x3Fu, 0x01u},
 518:.\Generated_Source\PSoC4/cyfitter_cfg.c **** 			{0x52u, 0x80u},
 519:.\Generated_Source\PSoC4/cyfitter_cfg.c **** 			{0x54u, 0x0Fu},
 520:.\Generated_Source\PSoC4/cyfitter_cfg.c **** 			{0x58u, 0x04u},
 521:.\Generated_Source\PSoC4/cyfitter_cfg.c **** 			{0x59u, 0x04u},
 522:.\Generated_Source\PSoC4/cyfitter_cfg.c **** 			{0x5Bu, 0x04u},
 523:.\Generated_Source\PSoC4/cyfitter_cfg.c **** 			{0x5Fu, 0x05u},
 524:.\Generated_Source\PSoC4/cyfitter_cfg.c **** 			{0x80u, 0xF7u},
 525:.\Generated_Source\PSoC4/cyfitter_cfg.c **** 			{0x86u, 0x07u},
 526:.\Generated_Source\PSoC4/cyfitter_cfg.c **** 			{0x87u, 0x0Fu},
 527:.\Generated_Source\PSoC4/cyfitter_cfg.c **** 			{0x88u, 0x54u},
 528:.\Generated_Source\PSoC4/cyfitter_cfg.c **** 			{0x89u, 0x9Eu},
 529:.\Generated_Source\PSoC4/cyfitter_cfg.c **** 			{0x8Au, 0xA0u},
 530:.\Generated_Source\PSoC4/cyfitter_cfg.c **** 			{0x8Bu, 0x60u},
 531:.\Generated_Source\PSoC4/cyfitter_cfg.c **** 			{0x90u, 0x31u},
 532:.\Generated_Source\PSoC4/cyfitter_cfg.c **** 			{0x91u, 0x94u},
 533:.\Generated_Source\PSoC4/cyfitter_cfg.c **** 			{0x92u, 0xC2u},
 534:.\Generated_Source\PSoC4/cyfitter_cfg.c **** 			{0x93u, 0x60u},
ARM GAS  C:\Users\g\AppData\Local\Temp\cc1rfPP8.s 			page 14


 535:.\Generated_Source\PSoC4/cyfitter_cfg.c **** 			{0x94u, 0xA1u},
 536:.\Generated_Source\PSoC4/cyfitter_cfg.c **** 			{0x95u, 0x30u},
 537:.\Generated_Source\PSoC4/cyfitter_cfg.c **** 			{0x96u, 0x52u},
 538:.\Generated_Source\PSoC4/cyfitter_cfg.c **** 			{0x97u, 0xC9u},
 539:.\Generated_Source\PSoC4/cyfitter_cfg.c **** 			{0x99u, 0x73u},
 540:.\Generated_Source\PSoC4/cyfitter_cfg.c **** 			{0xA1u, 0xFDu},
 541:.\Generated_Source\PSoC4/cyfitter_cfg.c **** 			{0xA3u, 0x02u},
 542:.\Generated_Source\PSoC4/cyfitter_cfg.c **** 			{0xA4u, 0x77u},
 543:.\Generated_Source\PSoC4/cyfitter_cfg.c **** 			{0xA8u, 0xC0u},
 544:.\Generated_Source\PSoC4/cyfitter_cfg.c **** 			{0xA9u, 0xCFu},
 545:.\Generated_Source\PSoC4/cyfitter_cfg.c **** 			{0xAAu, 0x34u},
 546:.\Generated_Source\PSoC4/cyfitter_cfg.c **** 			{0xABu, 0x30u},
 547:.\Generated_Source\PSoC4/cyfitter_cfg.c **** 			{0xAEu, 0x08u},
 548:.\Generated_Source\PSoC4/cyfitter_cfg.c **** 			{0xB0u, 0xF0u},
 549:.\Generated_Source\PSoC4/cyfitter_cfg.c **** 			{0xB1u, 0xFFu},
 550:.\Generated_Source\PSoC4/cyfitter_cfg.c **** 			{0xB4u, 0x0Fu},
 551:.\Generated_Source\PSoC4/cyfitter_cfg.c **** 			{0xBFu, 0x01u},
 552:.\Generated_Source\PSoC4/cyfitter_cfg.c **** 			{0xD8u, 0x04u},
 553:.\Generated_Source\PSoC4/cyfitter_cfg.c **** 			{0xD9u, 0x04u},
 554:.\Generated_Source\PSoC4/cyfitter_cfg.c **** 			{0xDFu, 0x01u},
 555:.\Generated_Source\PSoC4/cyfitter_cfg.c **** 			{0x00u, 0x04u},
 556:.\Generated_Source\PSoC4/cyfitter_cfg.c **** 			{0x01u, 0x02u},
 557:.\Generated_Source\PSoC4/cyfitter_cfg.c **** 			{0x03u, 0x04u},
 558:.\Generated_Source\PSoC4/cyfitter_cfg.c **** 			{0x04u, 0x50u},
 559:.\Generated_Source\PSoC4/cyfitter_cfg.c **** 			{0x05u, 0x01u},
 560:.\Generated_Source\PSoC4/cyfitter_cfg.c **** 			{0x06u, 0x10u},
 561:.\Generated_Source\PSoC4/cyfitter_cfg.c **** 			{0x09u, 0x02u},
 562:.\Generated_Source\PSoC4/cyfitter_cfg.c **** 			{0x0Bu, 0x20u},
 563:.\Generated_Source\PSoC4/cyfitter_cfg.c **** 			{0x0Cu, 0x08u},
 564:.\Generated_Source\PSoC4/cyfitter_cfg.c **** 			{0x0Eu, 0x02u},
 565:.\Generated_Source\PSoC4/cyfitter_cfg.c **** 			{0x0Fu, 0x08u},
 566:.\Generated_Source\PSoC4/cyfitter_cfg.c **** 			{0x10u, 0x08u},
 567:.\Generated_Source\PSoC4/cyfitter_cfg.c **** 			{0x11u, 0x04u},
 568:.\Generated_Source\PSoC4/cyfitter_cfg.c **** 			{0x12u, 0x02u},
 569:.\Generated_Source\PSoC4/cyfitter_cfg.c **** 			{0x15u, 0x10u},
 570:.\Generated_Source\PSoC4/cyfitter_cfg.c **** 			{0x16u, 0x80u},
 571:.\Generated_Source\PSoC4/cyfitter_cfg.c **** 			{0x17u, 0x44u},
 572:.\Generated_Source\PSoC4/cyfitter_cfg.c **** 			{0x18u, 0x04u},
 573:.\Generated_Source\PSoC4/cyfitter_cfg.c **** 			{0x19u, 0x03u},
 574:.\Generated_Source\PSoC4/cyfitter_cfg.c **** 			{0x1Bu, 0x10u},
 575:.\Generated_Source\PSoC4/cyfitter_cfg.c **** 			{0x1Cu, 0x52u},
 576:.\Generated_Source\PSoC4/cyfitter_cfg.c **** 			{0x1Du, 0x82u},
 577:.\Generated_Source\PSoC4/cyfitter_cfg.c **** 			{0x1Fu, 0x12u},
 578:.\Generated_Source\PSoC4/cyfitter_cfg.c **** 			{0x22u, 0x02u},
 579:.\Generated_Source\PSoC4/cyfitter_cfg.c **** 			{0x27u, 0x40u},
 580:.\Generated_Source\PSoC4/cyfitter_cfg.c **** 			{0x29u, 0x01u},
 581:.\Generated_Source\PSoC4/cyfitter_cfg.c **** 			{0x2Bu, 0x08u},
 582:.\Generated_Source\PSoC4/cyfitter_cfg.c **** 			{0x2Cu, 0x08u},
 583:.\Generated_Source\PSoC4/cyfitter_cfg.c **** 			{0x2Du, 0x40u},
 584:.\Generated_Source\PSoC4/cyfitter_cfg.c **** 			{0x2Fu, 0x1Au},
 585:.\Generated_Source\PSoC4/cyfitter_cfg.c **** 			{0x31u, 0x02u},
 586:.\Generated_Source\PSoC4/cyfitter_cfg.c **** 			{0x33u, 0x24u},
 587:.\Generated_Source\PSoC4/cyfitter_cfg.c **** 			{0x35u, 0x01u},
 588:.\Generated_Source\PSoC4/cyfitter_cfg.c **** 			{0x37u, 0x04u},
 589:.\Generated_Source\PSoC4/cyfitter_cfg.c **** 			{0x38u, 0x04u},
 590:.\Generated_Source\PSoC4/cyfitter_cfg.c **** 			{0x3Au, 0x10u},
 591:.\Generated_Source\PSoC4/cyfitter_cfg.c **** 			{0x3Bu, 0x20u},
ARM GAS  C:\Users\g\AppData\Local\Temp\cc1rfPP8.s 			page 15


 592:.\Generated_Source\PSoC4/cyfitter_cfg.c **** 			{0x3Cu, 0x18u},
 593:.\Generated_Source\PSoC4/cyfitter_cfg.c **** 			{0x3Du, 0x04u},
 594:.\Generated_Source\PSoC4/cyfitter_cfg.c **** 			{0x3Fu, 0x08u},
 595:.\Generated_Source\PSoC4/cyfitter_cfg.c **** 			{0x5Eu, 0x44u},
 596:.\Generated_Source\PSoC4/cyfitter_cfg.c **** 			{0x5Fu, 0x11u},
 597:.\Generated_Source\PSoC4/cyfitter_cfg.c **** 			{0x66u, 0x08u},
 598:.\Generated_Source\PSoC4/cyfitter_cfg.c **** 			{0x67u, 0x04u},
 599:.\Generated_Source\PSoC4/cyfitter_cfg.c **** 			{0x76u, 0x80u},
 600:.\Generated_Source\PSoC4/cyfitter_cfg.c **** 			{0x7Fu, 0x20u},
 601:.\Generated_Source\PSoC4/cyfitter_cfg.c **** 			{0x89u, 0x10u},
 602:.\Generated_Source\PSoC4/cyfitter_cfg.c **** 			{0x92u, 0x44u},
 603:.\Generated_Source\PSoC4/cyfitter_cfg.c **** 			{0x93u, 0x15u},
 604:.\Generated_Source\PSoC4/cyfitter_cfg.c **** 			{0x94u, 0x14u},
 605:.\Generated_Source\PSoC4/cyfitter_cfg.c **** 			{0x95u, 0x40u},
 606:.\Generated_Source\PSoC4/cyfitter_cfg.c **** 			{0x9Au, 0x08u},
 607:.\Generated_Source\PSoC4/cyfitter_cfg.c **** 			{0x9Bu, 0x04u},
 608:.\Generated_Source\PSoC4/cyfitter_cfg.c **** 			{0x9Du, 0x01u},
 609:.\Generated_Source\PSoC4/cyfitter_cfg.c **** 			{0x9Eu, 0x10u},
 610:.\Generated_Source\PSoC4/cyfitter_cfg.c **** 			{0xA0u, 0x04u},
 611:.\Generated_Source\PSoC4/cyfitter_cfg.c **** 			{0xA2u, 0x01u},
 612:.\Generated_Source\PSoC4/cyfitter_cfg.c **** 			{0xA3u, 0x28u},
 613:.\Generated_Source\PSoC4/cyfitter_cfg.c **** 			{0xA4u, 0x01u},
 614:.\Generated_Source\PSoC4/cyfitter_cfg.c **** 			{0xA5u, 0x80u},
 615:.\Generated_Source\PSoC4/cyfitter_cfg.c **** 			{0xA7u, 0x10u},
 616:.\Generated_Source\PSoC4/cyfitter_cfg.c **** 			{0xAFu, 0x04u},
 617:.\Generated_Source\PSoC4/cyfitter_cfg.c **** 			{0xB6u, 0x48u},
 618:.\Generated_Source\PSoC4/cyfitter_cfg.c **** 			{0xC0u, 0xFEu},
 619:.\Generated_Source\PSoC4/cyfitter_cfg.c **** 			{0xC2u, 0xECu},
 620:.\Generated_Source\PSoC4/cyfitter_cfg.c **** 			{0xC4u, 0xF7u},
 621:.\Generated_Source\PSoC4/cyfitter_cfg.c **** 			{0xCAu, 0x75u},
 622:.\Generated_Source\PSoC4/cyfitter_cfg.c **** 			{0xCCu, 0xC7u},
 623:.\Generated_Source\PSoC4/cyfitter_cfg.c **** 			{0xCEu, 0x66u},
 624:.\Generated_Source\PSoC4/cyfitter_cfg.c **** 			{0xD6u, 0xF0u},
 625:.\Generated_Source\PSoC4/cyfitter_cfg.c **** 			{0xD8u, 0x60u},
 626:.\Generated_Source\PSoC4/cyfitter_cfg.c **** 			{0xDEu, 0x40u},
 627:.\Generated_Source\PSoC4/cyfitter_cfg.c **** 			{0xE0u, 0x84u},
 628:.\Generated_Source\PSoC4/cyfitter_cfg.c **** 			{0xE6u, 0x80u},
 629:.\Generated_Source\PSoC4/cyfitter_cfg.c **** 			{0x00u, 0x02u},
 630:.\Generated_Source\PSoC4/cyfitter_cfg.c **** 			{0x05u, 0x02u},
 631:.\Generated_Source\PSoC4/cyfitter_cfg.c **** 			{0x6Eu, 0x80u},
 632:.\Generated_Source\PSoC4/cyfitter_cfg.c **** 			{0x73u, 0x08u},
 633:.\Generated_Source\PSoC4/cyfitter_cfg.c **** 			{0x86u, 0x40u},
 634:.\Generated_Source\PSoC4/cyfitter_cfg.c **** 			{0xC0u, 0x30u},
 635:.\Generated_Source\PSoC4/cyfitter_cfg.c **** 			{0xDAu, 0x80u},
 636:.\Generated_Source\PSoC4/cyfitter_cfg.c **** 			{0xDCu, 0x20u},
 637:.\Generated_Source\PSoC4/cyfitter_cfg.c **** 			{0xE6u, 0x40u},
 638:.\Generated_Source\PSoC4/cyfitter_cfg.c **** 			{0x1Fu, 0x02u},
 639:.\Generated_Source\PSoC4/cyfitter_cfg.c **** 			{0x23u, 0x08u},
 640:.\Generated_Source\PSoC4/cyfitter_cfg.c **** 			{0x5Du, 0x80u},
 641:.\Generated_Source\PSoC4/cyfitter_cfg.c **** 			{0x83u, 0x02u},
 642:.\Generated_Source\PSoC4/cyfitter_cfg.c **** 			{0x88u, 0x01u},
 643:.\Generated_Source\PSoC4/cyfitter_cfg.c **** 			{0x89u, 0x80u},
 644:.\Generated_Source\PSoC4/cyfitter_cfg.c **** 			{0x9Fu, 0x08u},
 645:.\Generated_Source\PSoC4/cyfitter_cfg.c **** 			{0xA0u, 0x01u},
 646:.\Generated_Source\PSoC4/cyfitter_cfg.c **** 			{0xADu, 0x02u},
 647:.\Generated_Source\PSoC4/cyfitter_cfg.c **** 			{0xC6u, 0x20u},
 648:.\Generated_Source\PSoC4/cyfitter_cfg.c **** 			{0xC8u, 0x10u},
ARM GAS  C:\Users\g\AppData\Local\Temp\cc1rfPP8.s 			page 16


 649:.\Generated_Source\PSoC4/cyfitter_cfg.c **** 			{0xD6u, 0x20u},
 650:.\Generated_Source\PSoC4/cyfitter_cfg.c **** 			{0xE0u, 0x20u},
 651:.\Generated_Source\PSoC4/cyfitter_cfg.c **** 			{0xECu, 0x10u},
 652:.\Generated_Source\PSoC4/cyfitter_cfg.c **** 			{0x6Au, 0x40u},
 653:.\Generated_Source\PSoC4/cyfitter_cfg.c **** 			{0xDAu, 0x02u},
 654:.\Generated_Source\PSoC4/cyfitter_cfg.c **** 			{0x27u, 0x08u},
 655:.\Generated_Source\PSoC4/cyfitter_cfg.c **** 			{0x82u, 0x40u},
 656:.\Generated_Source\PSoC4/cyfitter_cfg.c **** 			{0x8Bu, 0x08u},
 657:.\Generated_Source\PSoC4/cyfitter_cfg.c **** 			{0x96u, 0x40u},
 658:.\Generated_Source\PSoC4/cyfitter_cfg.c **** 			{0xC8u, 0x04u},
 659:.\Generated_Source\PSoC4/cyfitter_cfg.c **** 			{0xE6u, 0x01u},
 660:.\Generated_Source\PSoC4/cyfitter_cfg.c **** 			{0x01u, 0x01u},
 661:.\Generated_Source\PSoC4/cyfitter_cfg.c **** 			{0x10u, 0x01u},
 662:.\Generated_Source\PSoC4/cyfitter_cfg.c **** 		};
 663:.\Generated_Source\PSoC4/cyfitter_cfg.c **** 
 664:.\Generated_Source\PSoC4/cyfitter_cfg.c **** 
 665:.\Generated_Source\PSoC4/cyfitter_cfg.c **** 
 666:.\Generated_Source\PSoC4/cyfitter_cfg.c **** 		CYPACKED typedef struct {
 667:.\Generated_Source\PSoC4/cyfitter_cfg.c **** 			void CYFAR *address;
 668:.\Generated_Source\PSoC4/cyfitter_cfg.c **** 			uint16 size;
 669:.\Generated_Source\PSoC4/cyfitter_cfg.c **** 		} CYPACKED_ATTR cfg_memset_t;
 670:.\Generated_Source\PSoC4/cyfitter_cfg.c **** 
 671:.\Generated_Source\PSoC4/cyfitter_cfg.c **** 		static const cfg_memset_t CYCODE cfg_memset_list [] = {
 672:.\Generated_Source\PSoC4/cyfitter_cfg.c **** 			/* address, size */
 673:.\Generated_Source\PSoC4/cyfitter_cfg.c **** 			{(void CYFAR *)(CYDEV_UDB_P0_U0_BASE), 1024u},
 674:.\Generated_Source\PSoC4/cyfitter_cfg.c **** 			{(void CYFAR *)(CYDEV_UDB_DSI0_BASE), 1024u},
 675:.\Generated_Source\PSoC4/cyfitter_cfg.c **** 		};
 676:.\Generated_Source\PSoC4/cyfitter_cfg.c **** 
 677:.\Generated_Source\PSoC4/cyfitter_cfg.c **** 		uint8 CYDATA i;
 678:.\Generated_Source\PSoC4/cyfitter_cfg.c **** 
 679:.\Generated_Source\PSoC4/cyfitter_cfg.c **** 		/* Zero out critical memory blocks before beginning configuration */
 680:.\Generated_Source\PSoC4/cyfitter_cfg.c **** 		for (i = 0u; i < (sizeof(cfg_memset_list)/sizeof(cfg_memset_list[0])); i++)
 681:.\Generated_Source\PSoC4/cyfitter_cfg.c **** 		{
 682:.\Generated_Source\PSoC4/cyfitter_cfg.c **** 			const cfg_memset_t CYCODE * CYDATA ms = &cfg_memset_list[i];
 683:.\Generated_Source\PSoC4/cyfitter_cfg.c **** 			CYMEMZERO(ms->address, (size_t)(uint32)(ms->size));
 684:.\Generated_Source\PSoC4/cyfitter_cfg.c **** 		}
 685:.\Generated_Source\PSoC4/cyfitter_cfg.c **** 
 686:.\Generated_Source\PSoC4/cyfitter_cfg.c **** 		cfg_write_bytes32(cy_cfg_addr_table, cy_cfg_data_table);
 687:.\Generated_Source\PSoC4/cyfitter_cfg.c **** 
 688:.\Generated_Source\PSoC4/cyfitter_cfg.c **** 		/* HSIOM Starting address: CYDEV_HSIOM_BASE */
 689:.\Generated_Source\PSoC4/cyfitter_cfg.c **** 		CY_SET_XTND_REG32((void CYFAR *)(CYREG_HSIOM_PORT_SEL1), 0x00000030u);
 195              		.loc 1 689 0
 196 0066 3026     		mov	r6, #48
 690:.\Generated_Source\PSoC4/cyfitter_cfg.c **** 		CY_SET_XTND_REG32((void CYFAR *)(CYREG_HSIOM_PORT_SEL3), 0x00000099u);
 197              		.loc 1 690 0
 198 0068 9922     		mov	r2, #153
 689:.\Generated_Source\PSoC4/cyfitter_cfg.c **** 		CY_SET_XTND_REG32((void CYFAR *)(CYREG_HSIOM_PORT_SEL3), 0x00000099u);
 199              		.loc 1 689 0
 200 006a 4B4B     		ldr	r3, .L17+16
 691:.\Generated_Source\PSoC4/cyfitter_cfg.c **** 
 692:.\Generated_Source\PSoC4/cyfitter_cfg.c **** 		/* UDB_PA_0 Starting address: CYDEV_UDB_PA0_BASE */
 693:.\Generated_Source\PSoC4/cyfitter_cfg.c **** 		CY_SET_XTND_REG32((void CYFAR *)(CYDEV_UDB_PA0_BASE), 0x00990000u);
 694:.\Generated_Source\PSoC4/cyfitter_cfg.c **** 
 695:.\Generated_Source\PSoC4/cyfitter_cfg.c **** 		/* UDB_PA_1 Starting address: CYDEV_UDB_PA1_BASE */
 696:.\Generated_Source\PSoC4/cyfitter_cfg.c **** 		CY_SET_XTND_REG32((void CYFAR *)(CYDEV_UDB_PA1_BASE), 0x00990000u);
 697:.\Generated_Source\PSoC4/cyfitter_cfg.c **** 		CY_SET_XTND_REG32((void CYFAR *)(CYREG_UDB_PA1_CFG8), 0x000C0000u);
 201              		.loc 1 697 0
ARM GAS  C:\Users\g\AppData\Local\Temp\cc1rfPP8.s 			page 17


 202 006c C021     		mov	r1, #192
 689:.\Generated_Source\PSoC4/cyfitter_cfg.c **** 		CY_SET_XTND_REG32((void CYFAR *)(CYREG_HSIOM_PORT_SEL3), 0x00000099u);
 203              		.loc 1 689 0
 204 006e 1E60     		str	r6, [r3]
 690:.\Generated_Source\PSoC4/cyfitter_cfg.c **** 
 205              		.loc 1 690 0
 206 0070 4A4B     		ldr	r3, .L17+20
 207              		.loc 1 697 0
 208 0072 0903     		lsl	r1, r1, #12
 690:.\Generated_Source\PSoC4/cyfitter_cfg.c **** 
 209              		.loc 1 690 0
 210 0074 1A60     		str	r2, [r3]
 693:.\Generated_Source\PSoC4/cyfitter_cfg.c **** 
 211              		.loc 1 693 0
 212 0076 9923     		mov	r3, #153
 213 0078 494A     		ldr	r2, .L17+24
 214 007a 1B04     		lsl	r3, r3, #16
 215 007c 1360     		str	r3, [r2]
 696:.\Generated_Source\PSoC4/cyfitter_cfg.c **** 		CY_SET_XTND_REG32((void CYFAR *)(CYREG_UDB_PA1_CFG8), 0x000C0000u);
 216              		.loc 1 696 0
 217 007e 494A     		ldr	r2, .L17+28
 698:.\Generated_Source\PSoC4/cyfitter_cfg.c **** 
 699:.\Generated_Source\PSoC4/cyfitter_cfg.c **** 		/* UDB_PA_2 Starting address: CYDEV_UDB_PA2_BASE */
 700:.\Generated_Source\PSoC4/cyfitter_cfg.c **** 		CY_SET_XTND_REG32((void CYFAR *)(CYDEV_UDB_PA2_BASE), 0x00990000u);
 701:.\Generated_Source\PSoC4/cyfitter_cfg.c **** 
 702:.\Generated_Source\PSoC4/cyfitter_cfg.c **** 		/* UDB_PA_3 Starting address: CYDEV_UDB_PA3_BASE */
 703:.\Generated_Source\PSoC4/cyfitter_cfg.c **** 		CY_SET_XTND_REG32((void CYFAR *)(CYDEV_UDB_PA3_BASE), 0x00990000u);
 704:.\Generated_Source\PSoC4/cyfitter_cfg.c **** 
 705:.\Generated_Source\PSoC4/cyfitter_cfg.c **** 		/* INT_SELECT Starting address: CYDEV_CPUSS_INTR_SELECT */
 706:.\Generated_Source\PSoC4/cyfitter_cfg.c **** 		CY_SET_XTND_REG32((void CYFAR *)(CYREG_CPUSS_INTR_SELECT), 0x00000005u);
 707:.\Generated_Source\PSoC4/cyfitter_cfg.c **** 
 708:.\Generated_Source\PSoC4/cyfitter_cfg.c **** 		/* INT_CONFIG Starting address: CYDEV_UDB_INT_CFG */
 709:.\Generated_Source\PSoC4/cyfitter_cfg.c **** 		CY_SET_XTND_REG32((void CYFAR *)(CYREG_UDB_INT_CFG), 0x00000002u);
 710:.\Generated_Source\PSoC4/cyfitter_cfg.c **** 
 711:.\Generated_Source\PSoC4/cyfitter_cfg.c **** 		/* Enable digital routing */
 712:.\Generated_Source\PSoC4/cyfitter_cfg.c **** 		CY_SET_XTND_REG8((void *)CYREG_UDB_UDBIF_BANK_CTL, CY_GET_XTND_REG8((void *)CYREG_UDB_UDBIF_BANK_
 713:.\Generated_Source\PSoC4/cyfitter_cfg.c **** 
 714:.\Generated_Source\PSoC4/cyfitter_cfg.c **** 		/* Enable UDB array */
 715:.\Generated_Source\PSoC4/cyfitter_cfg.c **** 		CY_SET_XTND_REG8((void *)CYREG_UDB_UDBIF_WAIT_CFG, (uint8)((CY_GET_XTND_REG8((void *)CYREG_UDB_UD
 218              		.loc 1 715 0
 219 0080 494C     		ldr	r4, .L17+32
 696:.\Generated_Source\PSoC4/cyfitter_cfg.c **** 		CY_SET_XTND_REG32((void CYFAR *)(CYREG_UDB_PA1_CFG8), 0x000C0000u);
 220              		.loc 1 696 0
 221 0082 1360     		str	r3, [r2]
 697:.\Generated_Source\PSoC4/cyfitter_cfg.c **** 
 222              		.loc 1 697 0
 223 0084 494A     		ldr	r2, .L17+36
 224              	.LBE36:
 716:.\Generated_Source\PSoC4/cyfitter_cfg.c **** 		CY_SET_XTND_REG8((void *)CYREG_UDB_UDBIF_BANK_CTL, (uint8)(CY_GET_XTND_REG8((void *)CYREG_UDB_UDB
 717:.\Generated_Source\PSoC4/cyfitter_cfg.c **** 	}
 718:.\Generated_Source\PSoC4/cyfitter_cfg.c **** 
 719:.\Generated_Source\PSoC4/cyfitter_cfg.c **** 
 720:.\Generated_Source\PSoC4/cyfitter_cfg.c **** 	/* Perform second pass device configuration. These items must be configured in specific order afte
 721:.\Generated_Source\PSoC4/cyfitter_cfg.c **** 	CY_SET_XTND_REG8((void CYFAR *)(CYREG_UDB_P1_U0_CFG27), 0x84u);
 722:.\Generated_Source\PSoC4/cyfitter_cfg.c **** 	/* IOPINS0_0 Starting address: CYDEV_PRT0_BASE */
 723:.\Generated_Source\PSoC4/cyfitter_cfg.c **** 	CY_SET_XTND_REG32((void CYFAR *)(CYDEV_PRT0_BASE), 0x00000003u);
 724:.\Generated_Source\PSoC4/cyfitter_cfg.c **** 	CY_SET_XTND_REG32((void CYFAR *)(CYREG_PRT0_PC), 0x00000012u);
ARM GAS  C:\Users\g\AppData\Local\Temp\cc1rfPP8.s 			page 18


 725:.\Generated_Source\PSoC4/cyfitter_cfg.c **** 
 726:.\Generated_Source\PSoC4/cyfitter_cfg.c **** 	/* IOPINS0_1 Starting address: CYDEV_PRT1_BASE */
 727:.\Generated_Source\PSoC4/cyfitter_cfg.c **** 	CY_SET_XTND_REG32((void CYFAR *)(CYDEV_PRT1_BASE), 0x00000002u);
 728:.\Generated_Source\PSoC4/cyfitter_cfg.c **** 	CY_SET_XTND_REG32((void CYFAR *)(CYREG_PRT1_PC), 0x000001B6u);
 729:.\Generated_Source\PSoC4/cyfitter_cfg.c **** 	CY_SET_XTND_REG32((void CYFAR *)(CYREG_PRT1_PC2), 0x00000080u);
 730:.\Generated_Source\PSoC4/cyfitter_cfg.c **** 
 731:.\Generated_Source\PSoC4/cyfitter_cfg.c **** 	/* IOPINS0_2 Starting address: CYDEV_PRT2_BASE */
 732:.\Generated_Source\PSoC4/cyfitter_cfg.c **** 	CY_SET_XTND_REG32((void CYFAR *)(CYDEV_PRT2_BASE), 0x0000001Cu);
 733:.\Generated_Source\PSoC4/cyfitter_cfg.c **** 	CY_SET_XTND_REG32((void CYFAR *)(CYREG_PRT2_PC), 0x00002400u);
 734:.\Generated_Source\PSoC4/cyfitter_cfg.c **** 	CY_SET_XTND_REG32((void CYFAR *)(CYREG_PRT2_PC2), 0x00000004u);
 225              		.loc 1 734 0
 226 0086 0427     		mov	r7, #4
 227              	.LVL16:
 228              	.LBB37:
 697:.\Generated_Source\PSoC4/cyfitter_cfg.c **** 
 229              		.loc 1 697 0
 230 0088 1160     		str	r1, [r2]
 700:.\Generated_Source\PSoC4/cyfitter_cfg.c **** 
 231              		.loc 1 700 0
 232 008a 494A     		ldr	r2, .L17+40
 712:.\Generated_Source\PSoC4/cyfitter_cfg.c **** 
 233              		.loc 1 712 0
 234 008c 0221     		mov	r1, #2
 700:.\Generated_Source\PSoC4/cyfitter_cfg.c **** 
 235              		.loc 1 700 0
 236 008e 1360     		str	r3, [r2]
 703:.\Generated_Source\PSoC4/cyfitter_cfg.c **** 
 237              		.loc 1 703 0
 238 0090 484A     		ldr	r2, .L17+44
 239              	.LBE37:
 735:.\Generated_Source\PSoC4/cyfitter_cfg.c **** 
 736:.\Generated_Source\PSoC4/cyfitter_cfg.c **** 	/* IOPINS0_3 Starting address: CYDEV_PRT3_BASE */
 737:.\Generated_Source\PSoC4/cyfitter_cfg.c **** 	CY_SET_XTND_REG32((void CYFAR *)(CYDEV_PRT3_BASE), 0x00000002u);
 738:.\Generated_Source\PSoC4/cyfitter_cfg.c **** 	CY_SET_XTND_REG32((void CYFAR *)(CYREG_PRT3_PC), 0x00000DB1u);
 739:.\Generated_Source\PSoC4/cyfitter_cfg.c **** 	CY_SET_XTND_REG32((void CYFAR *)(CYREG_PRT3_PC2), 0x00000002u);
 740:.\Generated_Source\PSoC4/cyfitter_cfg.c **** 
 741:.\Generated_Source\PSoC4/cyfitter_cfg.c **** 	/* IOPINS0_4 Starting address: CYDEV_PRT4_BASE */
 742:.\Generated_Source\PSoC4/cyfitter_cfg.c **** 	CY_SET_XTND_REG32((void CYFAR *)(CYDEV_PRT4_BASE), 0x0000000Eu);
 743:.\Generated_Source\PSoC4/cyfitter_cfg.c **** 	CY_SET_XTND_REG32((void CYFAR *)(CYREG_PRT4_PC), 0x00000494u);
 744:.\Generated_Source\PSoC4/cyfitter_cfg.c **** 	CY_SET_XTND_REG32((void CYFAR *)(CYREG_PRT4_INTCFG), 0x00000010u);
 240              		.loc 1 744 0
 241 0092 1025     		mov	r5, #16
 242              	.LBB38:
 703:.\Generated_Source\PSoC4/cyfitter_cfg.c **** 
 243              		.loc 1 703 0
 244 0094 1360     		str	r3, [r2]
 706:.\Generated_Source\PSoC4/cyfitter_cfg.c **** 
 245              		.loc 1 706 0
 246 0096 0522     		mov	r2, #5
 247 0098 474B     		ldr	r3, .L17+48
 248              	.LBE38:
 745:.\Generated_Source\PSoC4/cyfitter_cfg.c **** 
 746:.\Generated_Source\PSoC4/cyfitter_cfg.c **** 
 747:.\Generated_Source\PSoC4/cyfitter_cfg.c **** 	/* Setup clocks based on selections from Clock DWR */
 748:.\Generated_Source\PSoC4/cyfitter_cfg.c **** 	ClockSetup();
 749:.\Generated_Source\PSoC4/cyfitter_cfg.c **** 
 750:.\Generated_Source\PSoC4/cyfitter_cfg.c **** 	/* Perform basic analog initialization to defaults */
ARM GAS  C:\Users\g\AppData\Local\Temp\cc1rfPP8.s 			page 19


 751:.\Generated_Source\PSoC4/cyfitter_cfg.c **** 	AnalogSetDefault();
 752:.\Generated_Source\PSoC4/cyfitter_cfg.c **** 
 753:.\Generated_Source\PSoC4/cyfitter_cfg.c **** }
 249              		.loc 1 753 0
 250              		@ sp needed
 251              	.LBB39:
 706:.\Generated_Source\PSoC4/cyfitter_cfg.c **** 
 252              		.loc 1 706 0
 253 009a 1A60     		str	r2, [r3]
 709:.\Generated_Source\PSoC4/cyfitter_cfg.c **** 
 254              		.loc 1 709 0
 255 009c 0223     		mov	r3, #2
 256 009e 474A     		ldr	r2, .L17+52
 257 00a0 1360     		str	r3, [r2]
 712:.\Generated_Source\PSoC4/cyfitter_cfg.c **** 
 258              		.loc 1 712 0
 259 00a2 474A     		ldr	r2, .L17+56
 260 00a4 1078     		ldrb	r0, [r2]
 261              	.LVL17:
 262 00a6 0143     		orr	r1, r0
 715:.\Generated_Source\PSoC4/cyfitter_cfg.c **** 		CY_SET_XTND_REG8((void *)CYREG_UDB_UDBIF_BANK_CTL, (uint8)(CY_GET_XTND_REG8((void *)CYREG_UDB_UDB
 263              		.loc 1 715 0
 264 00a8 3C20     		mov	r0, #60
 712:.\Generated_Source\PSoC4/cyfitter_cfg.c **** 
 265              		.loc 1 712 0
 266 00aa 1170     		strb	r1, [r2]
 715:.\Generated_Source\PSoC4/cyfitter_cfg.c **** 		CY_SET_XTND_REG8((void *)CYREG_UDB_UDBIF_BANK_CTL, (uint8)(CY_GET_XTND_REG8((void *)CYREG_UDB_UDB
 267              		.loc 1 715 0
 268 00ac 2178     		ldrb	r1, [r4]
 269 00ae 8143     		bic	r1, r0
 270 00b0 2838     		sub	r0, r0, #40
 271 00b2 0143     		orr	r1, r0
 272 00b4 2170     		strb	r1, [r4]
 716:.\Generated_Source\PSoC4/cyfitter_cfg.c **** 	}
 273              		.loc 1 716 0
 274 00b6 1621     		mov	r1, #22
 275 00b8 1078     		ldrb	r0, [r2]
 276              	.LBE39:
 277              	.LBB40:
 278              	.LBB41:
 190:.\Generated_Source\PSoC4/cyfitter_cfg.c **** 
 279              		.loc 1 190 0
 280 00ba 424C     		ldr	r4, .L17+60
 281              	.LBE41:
 282              	.LBE40:
 283              	.LBB46:
 716:.\Generated_Source\PSoC4/cyfitter_cfg.c **** 	}
 284              		.loc 1 716 0
 285 00bc 0143     		orr	r1, r0
 286 00be 1170     		strb	r1, [r2]
 287              	.LBE46:
 721:.\Generated_Source\PSoC4/cyfitter_cfg.c **** 	/* IOPINS0_0 Starting address: CYDEV_PRT0_BASE */
 288              		.loc 1 721 0
 289 00c0 8421     		mov	r1, #132
 290 00c2 414A     		ldr	r2, .L17+64
 291              	.LBB47:
 292              	.LBB42:
ARM GAS  C:\Users\g\AppData\Local\Temp\cc1rfPP8.s 			page 20


 193:.\Generated_Source\PSoC4/cyfitter_cfg.c **** 	/* CYDEV_CLK_ILO_CONFIG Starting address: CYDEV_CLK_ILO_CONFIG */
 293              		.loc 1 193 0
 294 00c4 3020     		mov	r0, #48
 295              	.LBE42:
 296              	.LBE47:
 721:.\Generated_Source\PSoC4/cyfitter_cfg.c **** 	/* IOPINS0_0 Starting address: CYDEV_PRT0_BASE */
 297              		.loc 1 721 0
 298 00c6 1170     		strb	r1, [r2]
 723:.\Generated_Source\PSoC4/cyfitter_cfg.c **** 	CY_SET_XTND_REG32((void CYFAR *)(CYREG_PRT0_PC), 0x00000012u);
 299              		.loc 1 723 0
 300 00c8 404A     		ldr	r2, .L17+68
 301 00ca 8139     		sub	r1, r1, #129
 302 00cc 1160     		str	r1, [r2]
 724:.\Generated_Source\PSoC4/cyfitter_cfg.c **** 
 303              		.loc 1 724 0
 304 00ce 404A     		ldr	r2, .L17+72
 305 00d0 0F31     		add	r1, r1, #15
 306 00d2 1160     		str	r1, [r2]
 727:.\Generated_Source\PSoC4/cyfitter_cfg.c **** 	CY_SET_XTND_REG32((void CYFAR *)(CYREG_PRT1_PC), 0x000001B6u);
 307              		.loc 1 727 0
 308 00d4 3F4A     		ldr	r2, .L17+76
 728:.\Generated_Source\PSoC4/cyfitter_cfg.c **** 	CY_SET_XTND_REG32((void CYFAR *)(CYREG_PRT1_PC2), 0x00000080u);
 309              		.loc 1 728 0
 310 00d6 A531     		add	r1, r1, #165
 727:.\Generated_Source\PSoC4/cyfitter_cfg.c **** 	CY_SET_XTND_REG32((void CYFAR *)(CYREG_PRT1_PC), 0x000001B6u);
 311              		.loc 1 727 0
 312 00d8 1360     		str	r3, [r2]
 728:.\Generated_Source\PSoC4/cyfitter_cfg.c **** 	CY_SET_XTND_REG32((void CYFAR *)(CYREG_PRT1_PC2), 0x00000080u);
 313              		.loc 1 728 0
 314 00da 3F4A     		ldr	r2, .L17+80
 315 00dc FF31     		add	r1, r1, #255
 316 00de 1160     		str	r1, [r2]
 729:.\Generated_Source\PSoC4/cyfitter_cfg.c **** 
 317              		.loc 1 729 0
 318 00e0 3E4A     		ldr	r2, .L17+84
 319 00e2 3739     		sub	r1, r1, #55
 320 00e4 FF39     		sub	r1, r1, #255
 321 00e6 1160     		str	r1, [r2]
 732:.\Generated_Source\PSoC4/cyfitter_cfg.c **** 	CY_SET_XTND_REG32((void CYFAR *)(CYREG_PRT2_PC), 0x00002400u);
 322              		.loc 1 732 0
 323 00e8 3D4A     		ldr	r2, .L17+88
 324 00ea 6439     		sub	r1, r1, #100
 325 00ec 1160     		str	r1, [r2]
 733:.\Generated_Source\PSoC4/cyfitter_cfg.c **** 	CY_SET_XTND_REG32((void CYFAR *)(CYREG_PRT2_PC2), 0x00000004u);
 326              		.loc 1 733 0
 327 00ee 9021     		mov	r1, #144
 328 00f0 3C4A     		ldr	r2, .L17+92
 329 00f2 8901     		lsl	r1, r1, #6
 330 00f4 1160     		str	r1, [r2]
 734:.\Generated_Source\PSoC4/cyfitter_cfg.c **** 
 331              		.loc 1 734 0
 332 00f6 3C4A     		ldr	r2, .L17+96
 738:.\Generated_Source\PSoC4/cyfitter_cfg.c **** 	CY_SET_XTND_REG32((void CYFAR *)(CYREG_PRT3_PC2), 0x00000002u);
 333              		.loc 1 738 0
 334 00f8 3C49     		ldr	r1, .L17+100
 734:.\Generated_Source\PSoC4/cyfitter_cfg.c **** 
 335              		.loc 1 734 0
ARM GAS  C:\Users\g\AppData\Local\Temp\cc1rfPP8.s 			page 21


 336 00fa 1760     		str	r7, [r2]
 737:.\Generated_Source\PSoC4/cyfitter_cfg.c **** 	CY_SET_XTND_REG32((void CYFAR *)(CYREG_PRT3_PC), 0x00000DB1u);
 337              		.loc 1 737 0
 338 00fc 3C4A     		ldr	r2, .L17+104
 339 00fe 1360     		str	r3, [r2]
 738:.\Generated_Source\PSoC4/cyfitter_cfg.c **** 	CY_SET_XTND_REG32((void CYFAR *)(CYREG_PRT3_PC2), 0x00000002u);
 340              		.loc 1 738 0
 341 0100 3C4A     		ldr	r2, .L17+108
 342 0102 1160     		str	r1, [r2]
 739:.\Generated_Source\PSoC4/cyfitter_cfg.c **** 
 343              		.loc 1 739 0
 344 0104 3C4A     		ldr	r2, .L17+112
 345 0106 1360     		str	r3, [r2]
 742:.\Generated_Source\PSoC4/cyfitter_cfg.c **** 	CY_SET_XTND_REG32((void CYFAR *)(CYREG_PRT4_PC), 0x00000494u);
 346              		.loc 1 742 0
 347 0108 0E22     		mov	r2, #14
 348 010a 3C4B     		ldr	r3, .L17+116
 349 010c 1A60     		str	r2, [r3]
 743:.\Generated_Source\PSoC4/cyfitter_cfg.c **** 	CY_SET_XTND_REG32((void CYFAR *)(CYREG_PRT4_INTCFG), 0x00000010u);
 350              		.loc 1 743 0
 351 010e 3C4A     		ldr	r2, .L17+120
 352 0110 3C4B     		ldr	r3, .L17+124
 353 0112 1A60     		str	r2, [r3]
 354              	.LBB48:
 355              	.LBB43:
 190:.\Generated_Source\PSoC4/cyfitter_cfg.c **** 
 356              		.loc 1 190 0
 357 0114 8022     		mov	r2, #128
 358              	.LBE43:
 359              	.LBE48:
 744:.\Generated_Source\PSoC4/cyfitter_cfg.c **** 
 360              		.loc 1 744 0
 361 0116 3C4B     		ldr	r3, .L17+128
 362              	.LBB49:
 363              	.LBB44:
 190:.\Generated_Source\PSoC4/cyfitter_cfg.c **** 
 364              		.loc 1 190 0
 365 0118 D202     		lsl	r2, r2, #11
 366              	.LBE44:
 367              	.LBE49:
 744:.\Generated_Source\PSoC4/cyfitter_cfg.c **** 
 368              		.loc 1 744 0
 369 011a 1D60     		str	r5, [r3]
 370              	.LBB50:
 371              	.LBB45:
 190:.\Generated_Source\PSoC4/cyfitter_cfg.c **** 
 372              		.loc 1 190 0
 373 011c 2368     		ldr	r3, [r4]
 374 011e 9046     		mov	r8, r2
 375 0120 1343     		orr	r3, r2
 376 0122 2360     		str	r3, [r4]
 193:.\Generated_Source\PSoC4/cyfitter_cfg.c **** 	/* CYDEV_CLK_ILO_CONFIG Starting address: CYDEV_CLK_ILO_CONFIG */
 377              		.loc 1 193 0
 378 0124 FFF7FEFF 		bl	CySysClkWriteImoFreq
 379              	.LVL18:
 195:.\Generated_Source\PSoC4/cyfitter_cfg.c **** 
 380              		.loc 1 195 0
ARM GAS  C:\Users\g\AppData\Local\Temp\cc1rfPP8.s 			page 22


 381 0128 384A     		ldr	r2, .L17+132
 382 012a 394B     		ldr	r3, .L17+136
 215:.\Generated_Source\PSoC4/cyfitter_cfg.c **** 
 383              		.loc 1 215 0
 384 012c 8021     		mov	r1, #128
 195:.\Generated_Source\PSoC4/cyfitter_cfg.c **** 
 385              		.loc 1 195 0
 386 012e 1A60     		str	r2, [r3]
 199:.\Generated_Source\PSoC4/cyfitter_cfg.c **** 	CY_SET_XTND_REG32((void CYFAR *)(CYREG_CLK_SELECT07), 0x00000030u);
 387              		.loc 1 199 0
 388 0130 1122     		mov	r2, #17
 389 0132 384B     		ldr	r3, .L17+140
 215:.\Generated_Source\PSoC4/cyfitter_cfg.c **** 
 390              		.loc 1 215 0
 391 0134 0906     		lsl	r1, r1, #24
 199:.\Generated_Source\PSoC4/cyfitter_cfg.c **** 	CY_SET_XTND_REG32((void CYFAR *)(CYREG_CLK_SELECT07), 0x00000030u);
 392              		.loc 1 199 0
 393 0136 1A60     		str	r2, [r3]
 200:.\Generated_Source\PSoC4/cyfitter_cfg.c **** 	CY_SET_XTND_REG32((void CYFAR *)(CYREG_CLK_SELECT08), 0x00000010u);
 394              		.loc 1 200 0
 395 0138 374B     		ldr	r3, .L17+144
 202:.\Generated_Source\PSoC4/cyfitter_cfg.c **** 	CY_SET_XTND_REG32((void CYFAR *)(CYREG_CLK_SELECT12), 0x00000010u);
 396              		.loc 1 202 0
 397 013a 0F32     		add	r2, r2, #15
 200:.\Generated_Source\PSoC4/cyfitter_cfg.c **** 	CY_SET_XTND_REG32((void CYFAR *)(CYREG_CLK_SELECT08), 0x00000010u);
 398              		.loc 1 200 0
 399 013c 1E60     		str	r6, [r3]
 201:.\Generated_Source\PSoC4/cyfitter_cfg.c **** 	CY_SET_XTND_REG32((void CYFAR *)(CYREG_CLK_SELECT09), 0x00000020u);
 400              		.loc 1 201 0
 401 013e 374B     		ldr	r3, .L17+148
 223:.\Generated_Source\PSoC4/cyfitter_cfg.c **** 	CyIntEnable(9u);
 402              		.loc 1 223 0
 403 0140 0920     		mov	r0, #9
 201:.\Generated_Source\PSoC4/cyfitter_cfg.c **** 	CY_SET_XTND_REG32((void CYFAR *)(CYREG_CLK_SELECT09), 0x00000020u);
 404              		.loc 1 201 0
 405 0142 1D60     		str	r5, [r3]
 202:.\Generated_Source\PSoC4/cyfitter_cfg.c **** 	CY_SET_XTND_REG32((void CYFAR *)(CYREG_CLK_SELECT12), 0x00000010u);
 406              		.loc 1 202 0
 407 0144 364B     		ldr	r3, .L17+152
 408 0146 1A60     		str	r2, [r3]
 206:.\Generated_Source\PSoC4/cyfitter_cfg.c **** 
 409              		.loc 1 206 0
 410 0148 8222     		mov	r2, #130
 203:.\Generated_Source\PSoC4/cyfitter_cfg.c **** 
 411              		.loc 1 203 0
 412 014a 364B     		ldr	r3, .L17+156
 206:.\Generated_Source\PSoC4/cyfitter_cfg.c **** 
 413              		.loc 1 206 0
 414 014c 1206     		lsl	r2, r2, #24
 203:.\Generated_Source\PSoC4/cyfitter_cfg.c **** 
 415              		.loc 1 203 0
 416 014e 1D60     		str	r5, [r3]
 206:.\Generated_Source\PSoC4/cyfitter_cfg.c **** 
 417              		.loc 1 206 0
 418 0150 354B     		ldr	r3, .L17+160
 419 0152 1A60     		str	r2, [r3]
 209:.\Generated_Source\PSoC4/cyfitter_cfg.c **** 
ARM GAS  C:\Users\g\AppData\Local\Temp\cc1rfPP8.s 			page 23


 420              		.loc 1 209 0
 421 0154 4346     		mov	r3, r8
 212:.\Generated_Source\PSoC4/cyfitter_cfg.c **** 
 422              		.loc 1 212 0
 423 0156 354A     		ldr	r2, .L17+164
 209:.\Generated_Source\PSoC4/cyfitter_cfg.c **** 
 424              		.loc 1 209 0
 425 0158 2360     		str	r3, [r4]
 212:.\Generated_Source\PSoC4/cyfitter_cfg.c **** 
 426              		.loc 1 212 0
 427 015a 354B     		ldr	r3, .L17+168
 428 015c 1360     		str	r3, [r2]
 215:.\Generated_Source\PSoC4/cyfitter_cfg.c **** 
 429              		.loc 1 215 0
 430 015e 354A     		ldr	r2, .L17+172
 431 0160 1160     		str	r1, [r2]
 218:.\Generated_Source\PSoC4/cyfitter_cfg.c **** 
 432              		.loc 1 218 0
 433 0162 354A     		ldr	r2, .L17+176
 223:.\Generated_Source\PSoC4/cyfitter_cfg.c **** 	CyIntEnable(9u);
 434              		.loc 1 223 0
 435 0164 3549     		ldr	r1, .L17+180
 218:.\Generated_Source\PSoC4/cyfitter_cfg.c **** 
 436              		.loc 1 218 0
 437 0166 1360     		str	r3, [r2]
 221:.\Generated_Source\PSoC4/cyfitter_cfg.c **** 
 438              		.loc 1 221 0
 439 0168 354A     		ldr	r2, .L17+184
 440 016a 364B     		ldr	r3, .L17+188
 441 016c 1A60     		str	r2, [r3]
 223:.\Generated_Source\PSoC4/cyfitter_cfg.c **** 	CyIntEnable(9u);
 442              		.loc 1 223 0
 443 016e FFF7FEFF 		bl	CyIntSetVector
 444              	.LVL19:
 224:.\Generated_Source\PSoC4/cyfitter_cfg.c **** 	CY_SET_XTND_REG32((void CYFAR *)(CYREG_WDT_CONFIG), 0x00000000u);
 445              		.loc 1 224 0
 446 0172 0920     		mov	r0, #9
 447 0174 FFF7FEFF 		bl	CyIntEnable
 448              	.LVL20:
 225:.\Generated_Source\PSoC4/cyfitter_cfg.c **** }
 449              		.loc 1 225 0
 450 0178 0022     		mov	r2, #0
 451 017a 334B     		ldr	r3, .L17+192
 452 017c 1A60     		str	r2, [r3]
 453              	.LBE45:
 454              	.LBE50:
 455              	.LBB51:
 456              	.LBB52:
 250:.\Generated_Source\PSoC4/cyfitter_cfg.c **** 	/* Variable VDDA is selected; no pumps are enabled by default */
 457              		.loc 1 250 0
 458 017e 334B     		ldr	r3, .L17+196
 459 0180 1F60     		str	r7, [r3]
 460              	.LBE52:
 461              	.LBE51:
 462              		.loc 1 753 0
 463 0182 04BC     		pop	{r2}
 464 0184 9046     		mov	r8, r2
ARM GAS  C:\Users\g\AppData\Local\Temp\cc1rfPP8.s 			page 24


 465 0186 F0BD     		pop	{r4, r5, r6, r7, pc}
 466              	.L18:
 467              		.align	2
 468              	.L17:
 469 0188 1C700F40 		.word	1074753564
 470 018c 00300F40 		.word	1074737152
 471 0190 00400F40 		.word	1074741248
 472 0194 00000000 		.word	.LANCHOR0
 473 0198 04000140 		.word	1073807364
 474 019c 0C000140 		.word	1073807372
 475 01a0 00500F40 		.word	1074745344
 476 01a4 10500F40 		.word	1074745360
 477 01a8 01700F40 		.word	1074753537
 478 01ac 18500F40 		.word	1074745368
 479 01b0 20500F40 		.word	1074745376
 480 01b4 30500F40 		.word	1074745392
 481 01b8 20000040 		.word	1073741856
 482 01bc 00800F40 		.word	1074757632
 483 01c0 00700F40 		.word	1074753536
 484 01c4 00010B40 		.word	1074462976
 485 01c8 5B320F40 		.word	1074737755
 486 01cc 00000440 		.word	1074003968
 487 01d0 08000440 		.word	1074003976
 488 01d4 00010440 		.word	1074004224
 489 01d8 08010440 		.word	1074004232
 490 01dc 18010440 		.word	1074004248
 491 01e0 00020440 		.word	1074004480
 492 01e4 08020440 		.word	1074004488
 493 01e8 18020440 		.word	1074004504
 494 01ec B10D0000 		.word	3505
 495 01f0 00030440 		.word	1074004736
 496 01f4 08030440 		.word	1074004744
 497 01f8 18030440 		.word	1074004760
 498 01fc 00040440 		.word	1074004992
 499 0200 94040000 		.word	1172
 500 0204 08040440 		.word	1074005000
 501 0208 0C040440 		.word	1074005004
 502 020c 06000080 		.word	-2147483642
 503 0210 04010B40 		.word	1074462980
 504 0214 0C020240 		.word	1073873420
 505 0218 1C020240 		.word	1073873436
 506 021c 20020240 		.word	1073873440
 507 0220 24020240 		.word	1073873444
 508 0224 30020240 		.word	1073873456
 509 0228 08010B40 		.word	1074462984
 510 022c 00000240 		.word	1073872896
 511 0230 03000080 		.word	-2147483645
 512 0234 40000240 		.word	1073872960
 513 0238 80000240 		.word	1073873024
 514 023c 00000000 		.word	CySysWdtIsr
 515 0240 CF000080 		.word	-2147483441
 516 0244 04000240 		.word	1073872900
 517 0248 0C020B40 		.word	1074463244
 518 024c 00031A40 		.word	1075446528
 519              		.cfi_endproc
 520              	.LFE7:
 521              		.size	cyfitter_cfg, .-cyfitter_cfg
ARM GAS  C:\Users\g\AppData\Local\Temp\cc1rfPP8.s 			page 25


 522              		.section	.rodata
 523              		.align	2
 524              		.set	.LANCHOR0,. + 0
 525              		.type	cy_cfg_addr_table.4600, %object
 526              		.size	cy_cfg_addr_table.4600, 40
 527              	cy_cfg_addr_table.4600:
 528 0000 02000F40 		.word	1074724866
 529 0004 60300F40 		.word	1074737248
 530 0008 3B310F40 		.word	1074737467
 531 000c 47320F40 		.word	1074737735
 532 0010 4A330F40 		.word	1074737994
 533 0014 09400F40 		.word	1074741257
 534 0018 0E410F40 		.word	1074741518
 535 001c 02420F40 		.word	1074741762
 536 0020 06430F40 		.word	1074742022
 537 0024 02600F40 		.word	1074749442
 538              		.type	cy_cfg_data_table.4601, %object
 539              		.size	cy_cfg_data_table.4601, 670
 540              	cy_cfg_data_table.4601:
 541 0028 80       		.byte	-128
 542 0029 0F       		.byte	15
 543 002a 82       		.byte	-126
 544 002b 6F       		.byte	111
 545 002c 00       		.byte	0
 546 002d 08       		.byte	8
 547 002e 05       		.byte	5
 548 002f 08       		.byte	8
 549 0030 07       		.byte	7
 550 0031 04       		.byte	4
 551 0032 15       		.byte	21
 552 0033 02       		.byte	2
 553 0034 18       		.byte	24
 554 0035 01       		.byte	1
 555 0036 1B       		.byte	27
 556 0037 03       		.byte	3
 557 0038 1D       		.byte	29
 558 0039 0C       		.byte	12
 559 003a 24       		.byte	36
 560 003b 03       		.byte	3
 561 003c 2B       		.byte	43
 562 003d 0C       		.byte	12
 563 003e 2C       		.byte	44
 564 003f 03       		.byte	3
 565 0040 2E       		.byte	46
 566 0041 0C       		.byte	12
 567 0042 30       		.byte	48
 568 0043 04       		.byte	4
 569 0044 31       		.byte	49
 570 0045 04       		.byte	4
 571 0046 32       		.byte	50
 572 0047 02       		.byte	2
 573 0048 33       		.byte	51
 574 0049 01       		.byte	1
 575 004a 34       		.byte	52
 576 004b 08       		.byte	8
 577 004c 35       		.byte	53
 578 004d 08       		.byte	8
ARM GAS  C:\Users\g\AppData\Local\Temp\cc1rfPP8.s 			page 26


 579 004e 36       		.byte	54
 580 004f 01       		.byte	1
 581 0050 37       		.byte	55
 582 0051 02       		.byte	2
 583 0052 38       		.byte	56
 584 0053 88       		.byte	-120
 585 0054 3E       		.byte	62
 586 0055 50       		.byte	80
 587 0056 3F       		.byte	63
 588 0057 51       		.byte	81
 589 0058 40       		.byte	64
 590 0059 51       		.byte	81
 591 005a 41       		.byte	65
 592 005b 02       		.byte	2
 593 005c 49       		.byte	73
 594 005d FF       		.byte	-1
 595 005e 4A       		.byte	74
 596 005f FF       		.byte	-1
 597 0060 4B       		.byte	75
 598 0061 FF       		.byte	-1
 599 0062 4D       		.byte	77
 600 0063 A0       		.byte	-96
 601 0064 4F       		.byte	79
 602 0065 01       		.byte	1
 603 0066 50       		.byte	80
 604 0067 18       		.byte	24
 605 0068 54       		.byte	84
 606 0069 0F       		.byte	15
 607 006a 56       		.byte	86
 608 006b 04       		.byte	4
 609 006c 58       		.byte	88
 610 006d 04       		.byte	4
 611 006e 59       		.byte	89
 612 006f 04       		.byte	4
 613 0070 5A       		.byte	90
 614 0071 04       		.byte	4
 615 0072 5B       		.byte	91
 616 0073 04       		.byte	4
 617 0074 5F       		.byte	95
 618 0075 01       		.byte	1
 619 0076 60       		.byte	96
 620 0077 40       		.byte	64
 621 0078 62       		.byte	98
 622 0079 80       		.byte	-128
 623 007a 64       		.byte	100
 624 007b 40       		.byte	64
 625 007c 65       		.byte	101
 626 007d 40       		.byte	64
 627 007e 66       		.byte	102
 628 007f 80       		.byte	-128
 629 0080 68       		.byte	104
 630 0081 40       		.byte	64
 631 0082 6A       		.byte	106
 632 0083 80       		.byte	-128
 633 0084 6C       		.byte	108
 634 0085 40       		.byte	64
 635 0086 6D       		.byte	109
ARM GAS  C:\Users\g\AppData\Local\Temp\cc1rfPP8.s 			page 27


 636 0087 20       		.byte	32
 637 0088 6E       		.byte	110
 638 0089 80       		.byte	-128
 639 008a 80       		.byte	-128
 640 008b 5B       		.byte	91
 641 008c 82       		.byte	-126
 642 008d 04       		.byte	4
 643 008e 83       		.byte	-125
 644 008f 03       		.byte	3
 645 0090 84       		.byte	-124
 646 0091 6C       		.byte	108
 647 0092 86       		.byte	-122
 648 0093 01       		.byte	1
 649 0094 8A       		.byte	-118
 650 0095 80       		.byte	-128
 651 0096 94       		.byte	-108
 652 0097 6C       		.byte	108
 653 0098 96       		.byte	-106
 654 0099 02       		.byte	2
 655 009a 98       		.byte	-104
 656 009b 37       		.byte	55
 657 009c 9D       		.byte	-99
 658 009d 01       		.byte	1
 659 009e A4       		.byte	-92
 660 009f 08       		.byte	8
 661 00a0 A6       		.byte	-90
 662 00a1 01       		.byte	1
 663 00a2 AB       		.byte	-85
 664 00a3 04       		.byte	4
 665 00a4 AE       		.byte	-82
 666 00a5 0F       		.byte	15
 667 00a6 B2       		.byte	-78
 668 00a7 0F       		.byte	15
 669 00a8 B3       		.byte	-77
 670 00a9 01       		.byte	1
 671 00aa B4       		.byte	-76
 672 00ab 70       		.byte	112
 673 00ac B5       		.byte	-75
 674 00ad 04       		.byte	4
 675 00ae B6       		.byte	-74
 676 00af 80       		.byte	-128
 677 00b0 B7       		.byte	-73
 678 00b1 02       		.byte	2
 679 00b2 B8       		.byte	-72
 680 00b3 20       		.byte	32
 681 00b4 BF       		.byte	-65
 682 00b5 04       		.byte	4
 683 00b6 C0       		.byte	-64
 684 00b7 15       		.byte	21
 685 00b8 C1       		.byte	-63
 686 00b9 06       		.byte	6
 687 00ba C5       		.byte	-59
 688 00bb 0C       		.byte	12
 689 00bc C6       		.byte	-58
 690 00bd 23       		.byte	35
 691 00be C7       		.byte	-57
 692 00bf 4E       		.byte	78
ARM GAS  C:\Users\g\AppData\Local\Temp\cc1rfPP8.s 			page 28


 693 00c0 C8       		.byte	-56
 694 00c1 3D       		.byte	61
 695 00c2 C9       		.byte	-55
 696 00c3 FF       		.byte	-1
 697 00c4 CA       		.byte	-54
 698 00c5 FF       		.byte	-1
 699 00c6 CB       		.byte	-53
 700 00c7 FF       		.byte	-1
 701 00c8 CD       		.byte	-51
 702 00c9 AF       		.byte	-81
 703 00ca CE       		.byte	-50
 704 00cb 07       		.byte	7
 705 00cc CF       		.byte	-49
 706 00cd 01       		.byte	1
 707 00ce D0       		.byte	-48
 708 00cf 18       		.byte	24
 709 00d0 D8       		.byte	-40
 710 00d1 04       		.byte	4
 711 00d2 D9       		.byte	-39
 712 00d3 04       		.byte	4
 713 00d4 DA       		.byte	-38
 714 00d5 04       		.byte	4
 715 00d6 DF       		.byte	-33
 716 00d7 01       		.byte	1
 717 00d8 E0       		.byte	-32
 718 00d9 40       		.byte	64
 719 00da E2       		.byte	-30
 720 00db 80       		.byte	-128
 721 00dc E4       		.byte	-28
 722 00dd 40       		.byte	64
 723 00de E5       		.byte	-27
 724 00df 40       		.byte	64
 725 00e0 E6       		.byte	-26
 726 00e1 80       		.byte	-128
 727 00e2 E8       		.byte	-24
 728 00e3 40       		.byte	64
 729 00e4 EA       		.byte	-22
 730 00e5 80       		.byte	-128
 731 00e6 EC       		.byte	-20
 732 00e7 40       		.byte	64
 733 00e8 ED       		.byte	-19
 734 00e9 20       		.byte	32
 735 00ea EE       		.byte	-18
 736 00eb 80       		.byte	-128
 737 00ec 01       		.byte	1
 738 00ed 02       		.byte	2
 739 00ee 04       		.byte	4
 740 00ef 10       		.byte	16
 741 00f0 05       		.byte	5
 742 00f1 01       		.byte	1
 743 00f2 06       		.byte	6
 744 00f3 10       		.byte	16
 745 00f4 09       		.byte	9
 746 00f5 20       		.byte	32
 747 00f6 0A       		.byte	10
 748 00f7 08       		.byte	8
 749 00f8 0D       		.byte	13
ARM GAS  C:\Users\g\AppData\Local\Temp\cc1rfPP8.s 			page 29


 750 00f9 20       		.byte	32
 751 00fa 0E       		.byte	14
 752 00fb 20       		.byte	32
 753 00fc 10       		.byte	16
 754 00fd 20       		.byte	32
 755 00fe 11       		.byte	17
 756 00ff 80       		.byte	-128
 757 0100 15       		.byte	21
 758 0101 40       		.byte	64
 759 0102 17       		.byte	23
 760 0103 04       		.byte	4
 761 0104 18       		.byte	24
 762 0105 01       		.byte	1
 763 0106 19       		.byte	25
 764 0107 02       		.byte	2
 765 0108 1A       		.byte	26
 766 0109 06       		.byte	6
 767 010a 1B       		.byte	27
 768 010b 04       		.byte	4
 769 010c 1C       		.byte	28
 770 010d 08       		.byte	8
 771 010e 1D       		.byte	29
 772 010f 20       		.byte	32
 773 0110 1E       		.byte	30
 774 0111 22       		.byte	34
 775 0112 1F       		.byte	31
 776 0113 28       		.byte	40
 777 0114 21       		.byte	33
 778 0115 08       		.byte	8
 779 0116 22       		.byte	34
 780 0117 10       		.byte	16
 781 0118 23       		.byte	35
 782 0119 81       		.byte	-127
 783 011a 26       		.byte	38
 784 011b 88       		.byte	-120
 785 011c 27       		.byte	39
 786 011d 04       		.byte	4
 787 011e 2B       		.byte	43
 788 011f 04       		.byte	4
 789 0120 2F       		.byte	47
 790 0121 04       		.byte	4
 791 0122 30       		.byte	48
 792 0123 20       		.byte	32
 793 0124 31       		.byte	49
 794 0125 08       		.byte	8
 795 0126 32       		.byte	50
 796 0127 80       		.byte	-128
 797 0128 36       		.byte	54
 798 0129 80       		.byte	-128
 799 012a 38       		.byte	56
 800 012b 04       		.byte	4
 801 012c 3A       		.byte	58
 802 012d 20       		.byte	32
 803 012e 3B       		.byte	59
 804 012f 10       		.byte	16
 805 0130 3F       		.byte	63
 806 0131 02       		.byte	2
ARM GAS  C:\Users\g\AppData\Local\Temp\cc1rfPP8.s 			page 30


 807 0132 40       		.byte	64
 808 0133 05       		.byte	5
 809 0134 45       		.byte	69
 810 0135 80       		.byte	-128
 811 0136 48       		.byte	72
 812 0137 01       		.byte	1
 813 0138 4E       		.byte	78
 814 0139 01       		.byte	1
 815 013a 4F       		.byte	79
 816 013b 24       		.byte	36
 817 013c 54       		.byte	84
 818 013d 20       		.byte	32
 819 013e 55       		.byte	85
 820 013f 40       		.byte	64
 821 0140 56       		.byte	86
 822 0141 28       		.byte	40
 823 0142 57       		.byte	87
 824 0143 01       		.byte	1
 825 0144 59       		.byte	89
 826 0145 01       		.byte	1
 827 0146 5A       		.byte	90
 828 0147 28       		.byte	40
 829 0148 5B       		.byte	91
 830 0149 80       		.byte	-128
 831 014a 63       		.byte	99
 832 014b 40       		.byte	64
 833 014c 87       		.byte	-121
 834 014d 40       		.byte	64
 835 014e C0       		.byte	-64
 836 014f 78       		.byte	120
 837 0150 C2       		.byte	-62
 838 0151 62       		.byte	98
 839 0152 C4       		.byte	-60
 840 0153 A5       		.byte	-91
 841 0154 CA       		.byte	-54
 842 0155 24       		.byte	36
 843 0156 CC       		.byte	-52
 844 0157 1E       		.byte	30
 845 0158 CE       		.byte	-50
 846 0159 82       		.byte	-126
 847 015a D0       		.byte	-48
 848 015b 1C       		.byte	28
 849 015c D2       		.byte	-46
 850 015d 38       		.byte	56
 851 015e D6       		.byte	-42
 852 015f 0F       		.byte	15
 853 0160 D8       		.byte	-40
 854 0161 01       		.byte	1
 855 0162 00       		.byte	0
 856 0163 34       		.byte	52
 857 0164 02       		.byte	2
 858 0165 40       		.byte	64
 859 0166 04       		.byte	4
 860 0167 44       		.byte	68
 861 0168 05       		.byte	5
 862 0169 7F       		.byte	127
 863 016a 06       		.byte	6
ARM GAS  C:\Users\g\AppData\Local\Temp\cc1rfPP8.s 			page 31


 864 016b 20       		.byte	32
 865 016c 0A       		.byte	10
 866 016d 01       		.byte	1
 867 016e 0B       		.byte	11
 868 016f 01       		.byte	1
 869 0170 0C       		.byte	12
 870 0171 04       		.byte	4
 871 0172 0E       		.byte	14
 872 0173 10       		.byte	16
 873 0174 11       		.byte	17
 874 0175 FE       		.byte	-2
 875 0176 13       		.byte	19
 876 0177 01       		.byte	1
 877 0178 14       		.byte	20
 878 0179 44       		.byte	68
 879 017a 15       		.byte	21
 880 017b 96       		.byte	-106
 881 017c 16       		.byte	22
 882 017d 10       		.byte	16
 883 017e 17       		.byte	23
 884 017f 68       		.byte	104
 885 0180 18       		.byte	24
 886 0181 70       		.byte	112
 887 0182 1C       		.byte	28
 888 0183 01       		.byte	1
 889 0184 22       		.byte	34
 890 0185 01       		.byte	1
 891 0186 25       		.byte	37
 892 0187 C5       		.byte	-59
 893 0188 26       		.byte	38
 894 0189 74       		.byte	116
 895 018a 27       		.byte	39
 896 018b 3A       		.byte	58
 897 018c 29       		.byte	41
 898 018d A3       		.byte	-93
 899 018e 2A       		.byte	42
 900 018f 02       		.byte	2
 901 0190 2B       		.byte	43
 902 0191 5C       		.byte	92
 903 0192 2D       		.byte	45
 904 0193 0E       		.byte	14
 905 0194 2E       		.byte	46
 906 0195 08       		.byte	8
 907 0196 2F       		.byte	47
 908 0197 F0       		.byte	-16
 909 0198 30       		.byte	48
 910 0199 02       		.byte	2
 911 019a 31       		.byte	49
 912 019b FF       		.byte	-1
 913 019c 32       		.byte	50
 914 019d 0C       		.byte	12
 915 019e 34       		.byte	52
 916 019f 74       		.byte	116
 917 01a0 36       		.byte	54
 918 01a1 01       		.byte	1
 919 01a2 3E       		.byte	62
 920 01a3 40       		.byte	64
ARM GAS  C:\Users\g\AppData\Local\Temp\cc1rfPP8.s 			page 32


 921 01a4 3F       		.byte	63
 922 01a5 01       		.byte	1
 923 01a6 52       		.byte	82
 924 01a7 80       		.byte	-128
 925 01a8 54       		.byte	84
 926 01a9 0F       		.byte	15
 927 01aa 58       		.byte	88
 928 01ab 04       		.byte	4
 929 01ac 59       		.byte	89
 930 01ad 04       		.byte	4
 931 01ae 5B       		.byte	91
 932 01af 04       		.byte	4
 933 01b0 5F       		.byte	95
 934 01b1 05       		.byte	5
 935 01b2 80       		.byte	-128
 936 01b3 F7       		.byte	-9
 937 01b4 86       		.byte	-122
 938 01b5 07       		.byte	7
 939 01b6 87       		.byte	-121
 940 01b7 0F       		.byte	15
 941 01b8 88       		.byte	-120
 942 01b9 54       		.byte	84
 943 01ba 89       		.byte	-119
 944 01bb 9E       		.byte	-98
 945 01bc 8A       		.byte	-118
 946 01bd A0       		.byte	-96
 947 01be 8B       		.byte	-117
 948 01bf 60       		.byte	96
 949 01c0 90       		.byte	-112
 950 01c1 31       		.byte	49
 951 01c2 91       		.byte	-111
 952 01c3 94       		.byte	-108
 953 01c4 92       		.byte	-110
 954 01c5 C2       		.byte	-62
 955 01c6 93       		.byte	-109
 956 01c7 60       		.byte	96
 957 01c8 94       		.byte	-108
 958 01c9 A1       		.byte	-95
 959 01ca 95       		.byte	-107
 960 01cb 30       		.byte	48
 961 01cc 96       		.byte	-106
 962 01cd 52       		.byte	82
 963 01ce 97       		.byte	-105
 964 01cf C9       		.byte	-55
 965 01d0 99       		.byte	-103
 966 01d1 73       		.byte	115
 967 01d2 A1       		.byte	-95
 968 01d3 FD       		.byte	-3
 969 01d4 A3       		.byte	-93
 970 01d5 02       		.byte	2
 971 01d6 A4       		.byte	-92
 972 01d7 77       		.byte	119
 973 01d8 A8       		.byte	-88
 974 01d9 C0       		.byte	-64
 975 01da A9       		.byte	-87
 976 01db CF       		.byte	-49
 977 01dc AA       		.byte	-86
ARM GAS  C:\Users\g\AppData\Local\Temp\cc1rfPP8.s 			page 33


 978 01dd 34       		.byte	52
 979 01de AB       		.byte	-85
 980 01df 30       		.byte	48
 981 01e0 AE       		.byte	-82
 982 01e1 08       		.byte	8
 983 01e2 B0       		.byte	-80
 984 01e3 F0       		.byte	-16
 985 01e4 B1       		.byte	-79
 986 01e5 FF       		.byte	-1
 987 01e6 B4       		.byte	-76
 988 01e7 0F       		.byte	15
 989 01e8 BF       		.byte	-65
 990 01e9 01       		.byte	1
 991 01ea D8       		.byte	-40
 992 01eb 04       		.byte	4
 993 01ec D9       		.byte	-39
 994 01ed 04       		.byte	4
 995 01ee DF       		.byte	-33
 996 01ef 01       		.byte	1
 997 01f0 00       		.byte	0
 998 01f1 04       		.byte	4
 999 01f2 01       		.byte	1
 1000 01f3 02       		.byte	2
 1001 01f4 03       		.byte	3
 1002 01f5 04       		.byte	4
 1003 01f6 04       		.byte	4
 1004 01f7 50       		.byte	80
 1005 01f8 05       		.byte	5
 1006 01f9 01       		.byte	1
 1007 01fa 06       		.byte	6
 1008 01fb 10       		.byte	16
 1009 01fc 09       		.byte	9
 1010 01fd 02       		.byte	2
 1011 01fe 0B       		.byte	11
 1012 01ff 20       		.byte	32
 1013 0200 0C       		.byte	12
 1014 0201 08       		.byte	8
 1015 0202 0E       		.byte	14
 1016 0203 02       		.byte	2
 1017 0204 0F       		.byte	15
 1018 0205 08       		.byte	8
 1019 0206 10       		.byte	16
 1020 0207 08       		.byte	8
 1021 0208 11       		.byte	17
 1022 0209 04       		.byte	4
 1023 020a 12       		.byte	18
 1024 020b 02       		.byte	2
 1025 020c 15       		.byte	21
 1026 020d 10       		.byte	16
 1027 020e 16       		.byte	22
 1028 020f 80       		.byte	-128
 1029 0210 17       		.byte	23
 1030 0211 44       		.byte	68
 1031 0212 18       		.byte	24
 1032 0213 04       		.byte	4
 1033 0214 19       		.byte	25
 1034 0215 03       		.byte	3
ARM GAS  C:\Users\g\AppData\Local\Temp\cc1rfPP8.s 			page 34


 1035 0216 1B       		.byte	27
 1036 0217 10       		.byte	16
 1037 0218 1C       		.byte	28
 1038 0219 52       		.byte	82
 1039 021a 1D       		.byte	29
 1040 021b 82       		.byte	-126
 1041 021c 1F       		.byte	31
 1042 021d 12       		.byte	18
 1043 021e 22       		.byte	34
 1044 021f 02       		.byte	2
 1045 0220 27       		.byte	39
 1046 0221 40       		.byte	64
 1047 0222 29       		.byte	41
 1048 0223 01       		.byte	1
 1049 0224 2B       		.byte	43
 1050 0225 08       		.byte	8
 1051 0226 2C       		.byte	44
 1052 0227 08       		.byte	8
 1053 0228 2D       		.byte	45
 1054 0229 40       		.byte	64
 1055 022a 2F       		.byte	47
 1056 022b 1A       		.byte	26
 1057 022c 31       		.byte	49
 1058 022d 02       		.byte	2
 1059 022e 33       		.byte	51
 1060 022f 24       		.byte	36
 1061 0230 35       		.byte	53
 1062 0231 01       		.byte	1
 1063 0232 37       		.byte	55
 1064 0233 04       		.byte	4
 1065 0234 38       		.byte	56
 1066 0235 04       		.byte	4
 1067 0236 3A       		.byte	58
 1068 0237 10       		.byte	16
 1069 0238 3B       		.byte	59
 1070 0239 20       		.byte	32
 1071 023a 3C       		.byte	60
 1072 023b 18       		.byte	24
 1073 023c 3D       		.byte	61
 1074 023d 04       		.byte	4
 1075 023e 3F       		.byte	63
 1076 023f 08       		.byte	8
 1077 0240 5E       		.byte	94
 1078 0241 44       		.byte	68
 1079 0242 5F       		.byte	95
 1080 0243 11       		.byte	17
 1081 0244 66       		.byte	102
 1082 0245 08       		.byte	8
 1083 0246 67       		.byte	103
 1084 0247 04       		.byte	4
 1085 0248 76       		.byte	118
 1086 0249 80       		.byte	-128
 1087 024a 7F       		.byte	127
 1088 024b 20       		.byte	32
 1089 024c 89       		.byte	-119
 1090 024d 10       		.byte	16
 1091 024e 92       		.byte	-110
ARM GAS  C:\Users\g\AppData\Local\Temp\cc1rfPP8.s 			page 35


 1092 024f 44       		.byte	68
 1093 0250 93       		.byte	-109
 1094 0251 15       		.byte	21
 1095 0252 94       		.byte	-108
 1096 0253 14       		.byte	20
 1097 0254 95       		.byte	-107
 1098 0255 40       		.byte	64
 1099 0256 9A       		.byte	-102
 1100 0257 08       		.byte	8
 1101 0258 9B       		.byte	-101
 1102 0259 04       		.byte	4
 1103 025a 9D       		.byte	-99
 1104 025b 01       		.byte	1
 1105 025c 9E       		.byte	-98
 1106 025d 10       		.byte	16
 1107 025e A0       		.byte	-96
 1108 025f 04       		.byte	4
 1109 0260 A2       		.byte	-94
 1110 0261 01       		.byte	1
 1111 0262 A3       		.byte	-93
 1112 0263 28       		.byte	40
 1113 0264 A4       		.byte	-92
 1114 0265 01       		.byte	1
 1115 0266 A5       		.byte	-91
 1116 0267 80       		.byte	-128
 1117 0268 A7       		.byte	-89
 1118 0269 10       		.byte	16
 1119 026a AF       		.byte	-81
 1120 026b 04       		.byte	4
 1121 026c B6       		.byte	-74
 1122 026d 48       		.byte	72
 1123 026e C0       		.byte	-64
 1124 026f FE       		.byte	-2
 1125 0270 C2       		.byte	-62
 1126 0271 EC       		.byte	-20
 1127 0272 C4       		.byte	-60
 1128 0273 F7       		.byte	-9
 1129 0274 CA       		.byte	-54
 1130 0275 75       		.byte	117
 1131 0276 CC       		.byte	-52
 1132 0277 C7       		.byte	-57
 1133 0278 CE       		.byte	-50
 1134 0279 66       		.byte	102
 1135 027a D6       		.byte	-42
 1136 027b F0       		.byte	-16
 1137 027c D8       		.byte	-40
 1138 027d 60       		.byte	96
 1139 027e DE       		.byte	-34
 1140 027f 40       		.byte	64
 1141 0280 E0       		.byte	-32
 1142 0281 84       		.byte	-124
 1143 0282 E6       		.byte	-26
 1144 0283 80       		.byte	-128
 1145 0284 00       		.byte	0
 1146 0285 02       		.byte	2
 1147 0286 05       		.byte	5
 1148 0287 02       		.byte	2
ARM GAS  C:\Users\g\AppData\Local\Temp\cc1rfPP8.s 			page 36


 1149 0288 6E       		.byte	110
 1150 0289 80       		.byte	-128
 1151 028a 73       		.byte	115
 1152 028b 08       		.byte	8
 1153 028c 86       		.byte	-122
 1154 028d 40       		.byte	64
 1155 028e C0       		.byte	-64
 1156 028f 30       		.byte	48
 1157 0290 DA       		.byte	-38
 1158 0291 80       		.byte	-128
 1159 0292 DC       		.byte	-36
 1160 0293 20       		.byte	32
 1161 0294 E6       		.byte	-26
 1162 0295 40       		.byte	64
 1163 0296 1F       		.byte	31
 1164 0297 02       		.byte	2
 1165 0298 23       		.byte	35
 1166 0299 08       		.byte	8
 1167 029a 5D       		.byte	93
 1168 029b 80       		.byte	-128
 1169 029c 83       		.byte	-125
 1170 029d 02       		.byte	2
 1171 029e 88       		.byte	-120
 1172 029f 01       		.byte	1
 1173 02a0 89       		.byte	-119
 1174 02a1 80       		.byte	-128
 1175 02a2 9F       		.byte	-97
 1176 02a3 08       		.byte	8
 1177 02a4 A0       		.byte	-96
 1178 02a5 01       		.byte	1
 1179 02a6 AD       		.byte	-83
 1180 02a7 02       		.byte	2
 1181 02a8 C6       		.byte	-58
 1182 02a9 20       		.byte	32
 1183 02aa C8       		.byte	-56
 1184 02ab 10       		.byte	16
 1185 02ac D6       		.byte	-42
 1186 02ad 20       		.byte	32
 1187 02ae E0       		.byte	-32
 1188 02af 20       		.byte	32
 1189 02b0 EC       		.byte	-20
 1190 02b1 10       		.byte	16
 1191 02b2 6A       		.byte	106
 1192 02b3 40       		.byte	64
 1193 02b4 DA       		.byte	-38
 1194 02b5 02       		.byte	2
 1195 02b6 27       		.byte	39
 1196 02b7 08       		.byte	8
 1197 02b8 82       		.byte	-126
 1198 02b9 40       		.byte	64
 1199 02ba 8B       		.byte	-117
 1200 02bb 08       		.byte	8
 1201 02bc 96       		.byte	-106
 1202 02bd 40       		.byte	64
 1203 02be C8       		.byte	-56
 1204 02bf 04       		.byte	4
 1205 02c0 E6       		.byte	-26
ARM GAS  C:\Users\g\AppData\Local\Temp\cc1rfPP8.s 			page 37


 1206 02c1 01       		.byte	1
 1207 02c2 01       		.byte	1
 1208 02c3 01       		.byte	1
 1209 02c4 10       		.byte	16
 1210 02c5 01       		.byte	1
 1211 02c6 0000     		.text
 1212              	.Letext0:
 1213              		.file 2 "c:\\program files (x86)\\cypress\\psoc creator\\3.3\\psoc creator\\import\\gnu\\arm\\4.9.
 1214              		.file 3 ".\\Generated_Source\\PSoC4\\cytypes.h"
 1215              		.file 4 ".\\Generated_Source\\PSoC4\\CyLib.h"