ARM GAS  C:\Users\g\AppData\Local\Temp\cccbWjAy.s 			page 1


   1              		.cpu cortex-m0
   2              		.fpu softvfp
   3              		.eabi_attribute 20, 1
   4              		.eabi_attribute 21, 1
   5              		.eabi_attribute 23, 3
   6              		.eabi_attribute 24, 1
   7              		.eabi_attribute 25, 1
   8              		.eabi_attribute 26, 1
   9              		.eabi_attribute 30, 2
  10              		.eabi_attribute 34, 0
  11              		.eabi_attribute 18, 4
  12              		.code	16
  13              		.file	"EEPROM.c"
  14              		.text
  15              	.Ltext0:
  16              		.cfi_sections	.debug_frame
  17              		.section	.text.EEPROM_Start,"ax",%progbits
  18              		.align	2
  19              		.global	EEPROM_Start
  20              		.code	16
  21              		.thumb_func
  22              		.type	EEPROM_Start, %function
  23              	EEPROM_Start:
  24              	.LFB0:
  25              		.file 1 "Generated_Source\\PSoC4\\EEPROM.c"
   1:Generated_Source\PSoC4/EEPROM.c **** /*******************************************************************************
   2:Generated_Source\PSoC4/EEPROM.c **** * File Name: EEPROM.c
   3:Generated_Source\PSoC4/EEPROM.c **** * Version 1.10
   4:Generated_Source\PSoC4/EEPROM.c **** *
   5:Generated_Source\PSoC4/EEPROM.c **** * Description:
   6:Generated_Source\PSoC4/EEPROM.c **** *  This file provides the source code to API for the Emulated EEPROM Component.
   7:Generated_Source\PSoC4/EEPROM.c **** *
   8:Generated_Source\PSoC4/EEPROM.c **** ********************************************************************************
   9:Generated_Source\PSoC4/EEPROM.c **** * Copyright 2013, Cypress Semiconductor Corporation.  All rights reserved.
  10:Generated_Source\PSoC4/EEPROM.c **** * You may use this file only in accordance with the license, terms, conditions,
  11:Generated_Source\PSoC4/EEPROM.c **** * disclaimers, and limitations in the end user license agreement accompanying
  12:Generated_Source\PSoC4/EEPROM.c **** * the software package with which this file was provided.
  13:Generated_Source\PSoC4/EEPROM.c **** *******************************************************************************/
  14:Generated_Source\PSoC4/EEPROM.c **** 
  15:Generated_Source\PSoC4/EEPROM.c **** #include "EEPROM.h"
  16:Generated_Source\PSoC4/EEPROM.c **** 
  17:Generated_Source\PSoC4/EEPROM.c **** 
  18:Generated_Source\PSoC4/EEPROM.c **** /*******************************************************************************
  19:Generated_Source\PSoC4/EEPROM.c **** * Function Name: EEPROM_Start
  20:Generated_Source\PSoC4/EEPROM.c **** ********************************************************************************
  21:Generated_Source\PSoC4/EEPROM.c **** *
  22:Generated_Source\PSoC4/EEPROM.c **** * Summary:
  23:Generated_Source\PSoC4/EEPROM.c **** *  Empty function. Included for consistency with other
  24:Generated_Source\PSoC4/EEPROM.c **** *  components.
  25:Generated_Source\PSoC4/EEPROM.c **** *
  26:Generated_Source\PSoC4/EEPROM.c **** * Parameters:
  27:Generated_Source\PSoC4/EEPROM.c **** *  None
  28:Generated_Source\PSoC4/EEPROM.c **** *
  29:Generated_Source\PSoC4/EEPROM.c **** * Return:
  30:Generated_Source\PSoC4/EEPROM.c **** *  None
  31:Generated_Source\PSoC4/EEPROM.c **** *
  32:Generated_Source\PSoC4/EEPROM.c **** *******************************************************************************/
ARM GAS  C:\Users\g\AppData\Local\Temp\cccbWjAy.s 			page 2


  33:Generated_Source\PSoC4/EEPROM.c **** void EEPROM_Start(void) 
  34:Generated_Source\PSoC4/EEPROM.c **** {
  26              		.loc 1 34 0
  27              		.cfi_startproc
  35:Generated_Source\PSoC4/EEPROM.c **** 
  36:Generated_Source\PSoC4/EEPROM.c **** }
  28              		.loc 1 36 0
  29              		@ sp needed
  30 0000 7047     		bx	lr
  31              		.cfi_endproc
  32              	.LFE0:
  33              		.size	EEPROM_Start, .-EEPROM_Start
  34 0002 C046     		.section	.text.EEPROM_Stop,"ax",%progbits
  35              		.align	2
  36              		.global	EEPROM_Stop
  37              		.code	16
  38              		.thumb_func
  39              		.type	EEPROM_Stop, %function
  40              	EEPROM_Stop:
  41              	.LFB1:
  37:Generated_Source\PSoC4/EEPROM.c **** 
  38:Generated_Source\PSoC4/EEPROM.c **** 
  39:Generated_Source\PSoC4/EEPROM.c **** /*******************************************************************************
  40:Generated_Source\PSoC4/EEPROM.c **** * Function Name: EEPROM_Stop
  41:Generated_Source\PSoC4/EEPROM.c **** ********************************************************************************
  42:Generated_Source\PSoC4/EEPROM.c **** *
  43:Generated_Source\PSoC4/EEPROM.c **** * Summary:
  44:Generated_Source\PSoC4/EEPROM.c **** *  Empty function. Included for consistency with other
  45:Generated_Source\PSoC4/EEPROM.c **** *  components.
  46:Generated_Source\PSoC4/EEPROM.c **** *
  47:Generated_Source\PSoC4/EEPROM.c **** * Parameters:
  48:Generated_Source\PSoC4/EEPROM.c **** *  None
  49:Generated_Source\PSoC4/EEPROM.c **** *
  50:Generated_Source\PSoC4/EEPROM.c **** * Return:
  51:Generated_Source\PSoC4/EEPROM.c **** *  None
  52:Generated_Source\PSoC4/EEPROM.c **** *
  53:Generated_Source\PSoC4/EEPROM.c **** *******************************************************************************/
  54:Generated_Source\PSoC4/EEPROM.c **** void EEPROM_Stop(void) 
  55:Generated_Source\PSoC4/EEPROM.c **** {
  42              		.loc 1 55 0
  43              		.cfi_startproc
  56:Generated_Source\PSoC4/EEPROM.c **** 
  57:Generated_Source\PSoC4/EEPROM.c **** }
  44              		.loc 1 57 0
  45              		@ sp needed
  46 0000 7047     		bx	lr
  47              		.cfi_endproc
  48              	.LFE1:
  49              		.size	EEPROM_Stop, .-EEPROM_Stop
  50 0002 C046     		.section	.text.EEPROM_Write,"ax",%progbits
  51              		.align	2
  52              		.global	EEPROM_Write
  53              		.code	16
  54              		.thumb_func
  55              		.type	EEPROM_Write, %function
  56              	EEPROM_Write:
  57              	.LFB2:
ARM GAS  C:\Users\g\AppData\Local\Temp\cccbWjAy.s 			page 3


  58:Generated_Source\PSoC4/EEPROM.c **** 
  59:Generated_Source\PSoC4/EEPROM.c **** 
  60:Generated_Source\PSoC4/EEPROM.c **** /*******************************************************************************
  61:Generated_Source\PSoC4/EEPROM.c **** * Function Name: EEPROM_Write
  62:Generated_Source\PSoC4/EEPROM.c **** ********************************************************************************
  63:Generated_Source\PSoC4/EEPROM.c **** *
  64:Generated_Source\PSoC4/EEPROM.c **** * Summary:
  65:Generated_Source\PSoC4/EEPROM.c **** *  Writes the specified number of bytes from the source buffer in SRAM to the
  66:Generated_Source\PSoC4/EEPROM.c **** *  emulated EEPROM array in flash, without modifying other data in flash.
  67:Generated_Source\PSoC4/EEPROM.c **** *
  68:Generated_Source\PSoC4/EEPROM.c **** * Parameters:
  69:Generated_Source\PSoC4/EEPROM.c **** *  srcBuf:    Pointer to the SRAM buffer holding the data to write.
  70:Generated_Source\PSoC4/EEPROM.c **** *  eepromPtr: Pointer to the array or variable in flash representing
  71:Generated_Source\PSoC4/EEPROM.c **** *             the emulated EEPROM.
  72:Generated_Source\PSoC4/EEPROM.c **** *  byteCount: Number of bytes to write from srcBuf to eepromPtr.
  73:Generated_Source\PSoC4/EEPROM.c **** *
  74:Generated_Source\PSoC4/EEPROM.c **** * Return:
  75:Generated_Source\PSoC4/EEPROM.c **** *    CYRET_SUCCESS     Successful write.
  76:Generated_Source\PSoC4/EEPROM.c **** *    CYRET_BAD_PARAM   eepromPtr is out of range of flash memory.
  77:Generated_Source\PSoC4/EEPROM.c **** *    CYRET_UNKNOWN     Other error in writing flash.
  78:Generated_Source\PSoC4/EEPROM.c **** *
  79:Generated_Source\PSoC4/EEPROM.c **** *******************************************************************************/
  80:Generated_Source\PSoC4/EEPROM.c **** #if (CY_PSOC3)
  81:Generated_Source\PSoC4/EEPROM.c ****     cystatus EEPROM_Write(const uint8 srcBuf[], const uint8 eepromPtr[], uint16 byteCount)
  82:Generated_Source\PSoC4/EEPROM.c ****                                                                             
  83:Generated_Source\PSoC4/EEPROM.c **** #else
  84:Generated_Source\PSoC4/EEPROM.c ****     cystatus EEPROM_Write(const uint8 srcBuf[], const uint8 eepromPtr[], uint32 byteCount)
  85:Generated_Source\PSoC4/EEPROM.c **** #endif /* (!CY_PSOC3) */
  86:Generated_Source\PSoC4/EEPROM.c **** {
  58              		.loc 1 86 0
  59              		.cfi_startproc
  60              	.LVL0:
  61 0000 F0B5     		push	{r4, r5, r6, r7, lr}
  62              		.cfi_def_cfa_offset 20
  63              		.cfi_offset 4, -20
  64              		.cfi_offset 5, -16
  65              		.cfi_offset 6, -12
  66              		.cfi_offset 7, -8
  67              		.cfi_offset 14, -4
  68 0002 4D46     		mov	r5, r9
  69 0004 4446     		mov	r4, r8
  70 0006 5F46     		mov	r7, fp
  71 0008 5646     		mov	r6, r10
  72 000a F0B4     		push	{r4, r5, r6, r7}
  73              		.cfi_def_cfa_offset 36
  74              		.cfi_offset 8, -36
  75              		.cfi_offset 9, -32
  76              		.cfi_offset 10, -28
  77              		.cfi_offset 11, -24
  87:Generated_Source\PSoC4/EEPROM.c ****     uint8 writeBuffer[CY_FLASH_SIZEOF_ROW];
  88:Generated_Source\PSoC4/EEPROM.c ****     uint32 arrayId;
  89:Generated_Source\PSoC4/EEPROM.c ****     uint32 rowId;
  90:Generated_Source\PSoC4/EEPROM.c ****     uint32 dstIndex;
  91:Generated_Source\PSoC4/EEPROM.c ****     uint32 srcIndex;
  92:Generated_Source\PSoC4/EEPROM.c ****     cystatus rc;
  93:Generated_Source\PSoC4/EEPROM.c ****     uint32 eeOffset;
  94:Generated_Source\PSoC4/EEPROM.c ****     uint32 byteOffset;
ARM GAS  C:\Users\g\AppData\Local\Temp\cccbWjAy.s 			page 4


  95:Generated_Source\PSoC4/EEPROM.c ****     
  96:Generated_Source\PSoC4/EEPROM.c ****     #if (!CY_PSOC4)
  97:Generated_Source\PSoC4/EEPROM.c ****         #if (CYDEV_ECC_ENABLE == 0)
  98:Generated_Source\PSoC4/EEPROM.c ****             uint8 rowBuffer[CY_FLASH_SIZEOF_ROW + CY_FLASH_SIZEOF_ECC_ROW];
  99:Generated_Source\PSoC4/EEPROM.c ****         #endif /* CYDEV_ECC_ENABLE == 0) */
 100:Generated_Source\PSoC4/EEPROM.c ****     #endif /* (!CY_PSOC4) */
 101:Generated_Source\PSoC4/EEPROM.c **** 
 102:Generated_Source\PSoC4/EEPROM.c ****     eeOffset = (uint32)eepromPtr;
 103:Generated_Source\PSoC4/EEPROM.c ****     #if (CY_PSOC3)
 104:Generated_Source\PSoC4/EEPROM.c ****         eeOffset &= EEPROM_CODE_ADDR_MASK;
 105:Generated_Source\PSoC4/EEPROM.c ****     #endif /* (CY_PSOC3) */
 106:Generated_Source\PSoC4/EEPROM.c **** 
 107:Generated_Source\PSoC4/EEPROM.c ****     /* Make sure, that eepromPtr[] points to ROM */
 108:Generated_Source\PSoC4/EEPROM.c ****     #if (CY_PSOC3)
 109:Generated_Source\PSoC4/EEPROM.c ****         if (((uint32)eepromPtr >= EEPROM_CODE_ADDR_OFFSET) &&
 110:Generated_Source\PSoC4/EEPROM.c ****             (((uint32)eepromPtr + byteCount) <= EEPROM_CODE_ADDR_END))
 111:Generated_Source\PSoC4/EEPROM.c ****     #else
 112:Generated_Source\PSoC4/EEPROM.c ****         if (((uint32)eepromPtr + byteCount) < EEPROM_FLASH_END_ADDR)
  78              		.loc 1 112 0
  79 000c 214C     		ldr	r4, .L20
  80 000e 8D18     		add	r5, r1, r2
  86:Generated_Source\PSoC4/EEPROM.c ****     uint8 writeBuffer[CY_FLASH_SIZEOF_ROW];
  81              		.loc 1 86 0
  82 0010 031C     		mov	r3, r0
  83 0012 A1B0     		sub	sp, sp, #132
  84              		.cfi_def_cfa_offset 168
 113:Generated_Source\PSoC4/EEPROM.c ****     #endif /* (CY_PSOC3) */
 114:Generated_Source\PSoC4/EEPROM.c ****     {
 115:Generated_Source\PSoC4/EEPROM.c ****         #if (!CY_PSOC4)
 116:Generated_Source\PSoC4/EEPROM.c ****             (void)CySetTemp();
 117:Generated_Source\PSoC4/EEPROM.c **** 
 118:Generated_Source\PSoC4/EEPROM.c ****             #if(CYDEV_ECC_ENABLE == 0)
 119:Generated_Source\PSoC4/EEPROM.c ****                 (void)CySetFlashEEBuffer(rowBuffer);
 120:Generated_Source\PSoC4/EEPROM.c ****             #endif
 121:Generated_Source\PSoC4/EEPROM.c ****         #endif /* (!CY_PSOC4) */
 122:Generated_Source\PSoC4/EEPROM.c **** 
 123:Generated_Source\PSoC4/EEPROM.c ****         arrayId = eeOffset / CY_FLASH_SIZEOF_ARRAY;
 124:Generated_Source\PSoC4/EEPROM.c ****         rowId = (eeOffset / CY_FLASH_SIZEOF_ROW) % EEPROM_ROWS_IN_ARRAY;
 125:Generated_Source\PSoC4/EEPROM.c ****         byteOffset = (CY_FLASH_SIZEOF_ARRAY * arrayId) + (CY_FLASH_SIZEOF_ROW * rowId);
 126:Generated_Source\PSoC4/EEPROM.c ****         srcIndex = 0u;
 127:Generated_Source\PSoC4/EEPROM.c **** 
 128:Generated_Source\PSoC4/EEPROM.c ****         rc = CYRET_SUCCESS;
 129:Generated_Source\PSoC4/EEPROM.c **** 
 130:Generated_Source\PSoC4/EEPROM.c ****         while ((srcIndex < byteCount) && (CYRET_SUCCESS == rc))
 131:Generated_Source\PSoC4/EEPROM.c ****         {
 132:Generated_Source\PSoC4/EEPROM.c ****             /* Copy data to the write buffer either from the source buffer or from the flash */
 133:Generated_Source\PSoC4/EEPROM.c ****             for (dstIndex = 0u; dstIndex < CY_FLASH_SIZEOF_ROW; dstIndex++)
 134:Generated_Source\PSoC4/EEPROM.c ****             {
 135:Generated_Source\PSoC4/EEPROM.c ****                 if ((byteOffset >= eeOffset) && (srcIndex < byteCount))
 136:Generated_Source\PSoC4/EEPROM.c ****                 {
 137:Generated_Source\PSoC4/EEPROM.c ****                     writeBuffer[dstIndex] = srcBuf[srcIndex];
 138:Generated_Source\PSoC4/EEPROM.c ****                     srcIndex++;
 139:Generated_Source\PSoC4/EEPROM.c ****                 }
 140:Generated_Source\PSoC4/EEPROM.c ****                 else
 141:Generated_Source\PSoC4/EEPROM.c ****                 {
 142:Generated_Source\PSoC4/EEPROM.c ****                     writeBuffer[dstIndex] = CY_GET_XTND_REG8(CYDEV_FLASH_BASE + byteOffset);
 143:Generated_Source\PSoC4/EEPROM.c ****                 }
ARM GAS  C:\Users\g\AppData\Local\Temp\cccbWjAy.s 			page 5


 144:Generated_Source\PSoC4/EEPROM.c ****                 byteOffset++;
 145:Generated_Source\PSoC4/EEPROM.c ****             }
 146:Generated_Source\PSoC4/EEPROM.c **** 
 147:Generated_Source\PSoC4/EEPROM.c ****             /* Write flash row */
 148:Generated_Source\PSoC4/EEPROM.c ****             #if (CY_PSOC4)
 149:Generated_Source\PSoC4/EEPROM.c ****                 rc = CySysFlashWriteRow(rowId, writeBuffer);
 150:Generated_Source\PSoC4/EEPROM.c ****             #else
 151:Generated_Source\PSoC4/EEPROM.c ****                 rc = CyWriteRowData((uint8)arrayId, (uint16)rowId, writeBuffer);
 152:Generated_Source\PSoC4/EEPROM.c ****             #endif /* (CY_PSOC4) */
 153:Generated_Source\PSoC4/EEPROM.c **** 
 154:Generated_Source\PSoC4/EEPROM.c ****             /* Go to the next row */
 155:Generated_Source\PSoC4/EEPROM.c ****             rowId++;
 156:Generated_Source\PSoC4/EEPROM.c ****             #if (CY_FLASH_NUMBER_ARRAYS > 1)
 157:Generated_Source\PSoC4/EEPROM.c ****                 if (rowId >= EEPROM_ROWS_IN_ARRAY)
 158:Generated_Source\PSoC4/EEPROM.c ****                 {
 159:Generated_Source\PSoC4/EEPROM.c ****                     arrayId++;
 160:Generated_Source\PSoC4/EEPROM.c ****                     rowId = 0u;
 161:Generated_Source\PSoC4/EEPROM.c ****                 }
 162:Generated_Source\PSoC4/EEPROM.c ****             #endif /* (CY_FLASH_NUMBER_ARRAYS > 1) */
 163:Generated_Source\PSoC4/EEPROM.c ****         }
 164:Generated_Source\PSoC4/EEPROM.c **** 
 165:Generated_Source\PSoC4/EEPROM.c ****         /* Flush both Cache and PHUB prefetch buffer */
 166:Generated_Source\PSoC4/EEPROM.c ****         #if (CY_PSOC5)
 167:Generated_Source\PSoC4/EEPROM.c ****             CyFlushCache();
 168:Generated_Source\PSoC4/EEPROM.c ****         #elif (CY_PSOC3)
 169:Generated_Source\PSoC4/EEPROM.c ****             CY_FLASH_CONTROL_REG |= 6u;
 170:Generated_Source\PSoC4/EEPROM.c ****         #endif /* (CY_PSOC5) */
 171:Generated_Source\PSoC4/EEPROM.c ****     }
 172:Generated_Source\PSoC4/EEPROM.c ****     else
 173:Generated_Source\PSoC4/EEPROM.c ****     {
 174:Generated_Source\PSoC4/EEPROM.c ****         rc = CYRET_BAD_PARAM;
  85              		.loc 1 174 0
  86 0014 0120     		mov	r0, #1
  87              	.LVL1:
 112:Generated_Source\PSoC4/EEPROM.c ****     #endif /* (CY_PSOC3) */
  88              		.loc 1 112 0
  89 0016 A542     		cmp	r5, r4
  90 0018 32D8     		bhi	.L10
  91              	.LVL2:
 124:Generated_Source\PSoC4/EEPROM.c ****         byteOffset = (CY_FLASH_SIZEOF_ARRAY * arrayId) + (CY_FLASH_SIZEOF_ROW * rowId);
  92              		.loc 1 124 0
  93 001a 4804     		lsl	r0, r1, #17
  94 001c 000E     		lsr	r0, r0, #24
  95 001e 8246     		mov	r10, r0
  96              	.LVL3:
 123:Generated_Source\PSoC4/EEPROM.c ****         rowId = (eeOffset / CY_FLASH_SIZEOF_ROW) % EEPROM_ROWS_IN_ARRAY;
  97              		.loc 1 123 0
  98 0020 CC0B     		lsr	r4, r1, #15
  99              	.LVL4:
 125:Generated_Source\PSoC4/EEPROM.c ****         srcIndex = 0u;
 100              		.loc 1 125 0
 101 0022 2402     		lsl	r4, r4, #8
 102              	.LVL5:
 103 0024 5444     		add	r4, r4, r10
 104 0026 E401     		lsl	r4, r4, #7
 105              	.LVL6:
 130:Generated_Source\PSoC4/EEPROM.c ****         {
ARM GAS  C:\Users\g\AppData\Local\Temp\cccbWjAy.s 			page 6


 106              		.loc 1 130 0
 107 0028 002A     		cmp	r2, #0
 108 002a 30D0     		beq	.L12
 109 002c 9946     		mov	r9, r3
 110 002e 6B46     		mov	r3, sp
 111              	.LVL7:
 112 0030 9046     		mov	r8, r2
 113 0032 0F1C     		mov	r7, r1
 114 0034 EB46     		mov	fp, sp
 115 0036 0025     		mov	r5, #0
 116 0038 1E1B     		sub	r6, r3, r4
 117              	.LVL8:
 118              	.L5:
 119 003a 221C     		mov	r2, r4
 120 003c 8032     		add	r2, r2, #128
 121 003e 08E0     		b	.L8
 122              	.L19:
 135:Generated_Source\PSoC4/EEPROM.c ****                 {
 123              		.loc 1 135 0 discriminator 1
 124 0040 A845     		cmp	r8, r5
 125 0042 08D9     		bls	.L6
 137:Generated_Source\PSoC4/EEPROM.c ****                     srcIndex++;
 126              		.loc 1 137 0
 127 0044 4B46     		mov	r3, r9
 128 0046 5B5D     		ldrb	r3, [r3, r5]
 138:Generated_Source\PSoC4/EEPROM.c ****                 }
 129              		.loc 1 138 0
 130 0048 0135     		add	r5, r5, #1
 131              	.LVL9:
 137:Generated_Source\PSoC4/EEPROM.c ****                     srcIndex++;
 132              		.loc 1 137 0
 133 004a 3355     		strb	r3, [r6, r4]
 144:Generated_Source\PSoC4/EEPROM.c ****             }
 134              		.loc 1 144 0
 135 004c 0134     		add	r4, r4, #1
 136              	.LVL10:
 133:Generated_Source\PSoC4/EEPROM.c ****             {
 137              		.loc 1 133 0
 138 004e 9442     		cmp	r4, r2
 139 0050 06D0     		beq	.L18
 140              	.LVL11:
 141              	.L8:
 135:Generated_Source\PSoC4/EEPROM.c ****                 {
 142              		.loc 1 135 0
 143 0052 A742     		cmp	r7, r4
 144 0054 F4D9     		bls	.L19
 145              	.L6:
 142:Generated_Source\PSoC4/EEPROM.c ****                 }
 146              		.loc 1 142 0
 147 0056 2378     		ldrb	r3, [r4]
 148 0058 3355     		strb	r3, [r6, r4]
 144:Generated_Source\PSoC4/EEPROM.c ****             }
 149              		.loc 1 144 0
 150 005a 0134     		add	r4, r4, #1
 151              	.LVL12:
 133:Generated_Source\PSoC4/EEPROM.c ****             {
 152              		.loc 1 133 0
ARM GAS  C:\Users\g\AppData\Local\Temp\cccbWjAy.s 			page 7


 153 005c 9442     		cmp	r4, r2
 154 005e F8D1     		bne	.L8
 155              	.L18:
 149:Generated_Source\PSoC4/EEPROM.c ****             #else
 156              		.loc 1 149 0
 157 0060 5046     		mov	r0, r10
 158 0062 5946     		mov	r1, fp
 159 0064 FFF7FEFF 		bl	CySysFlashWriteRow
 160              	.LVL13:
 155:Generated_Source\PSoC4/EEPROM.c ****             #if (CY_FLASH_NUMBER_ARRAYS > 1)
 161              		.loc 1 155 0
 162 0068 0123     		mov	r3, #1
 163 006a 9C46     		mov	ip, r3
 164 006c E244     		add	r10, r10, ip
 165              	.LVL14:
 130:Generated_Source\PSoC4/EEPROM.c ****         {
 166              		.loc 1 130 0
 167 006e 4545     		cmp	r5, r8
 168 0070 02D2     		bcs	.L9
 169 0072 803E     		sub	r6, r6, #128
 130:Generated_Source\PSoC4/EEPROM.c ****         {
 170              		.loc 1 130 0 is_stmt 0 discriminator 1
 171 0074 0028     		cmp	r0, #0
 172 0076 E0D0     		beq	.L5
 173              	.L9:
 175:Generated_Source\PSoC4/EEPROM.c ****     }
 176:Generated_Source\PSoC4/EEPROM.c **** 
 177:Generated_Source\PSoC4/EEPROM.c ****     /* Mask return codes from flash, if they are not supported */
 178:Generated_Source\PSoC4/EEPROM.c ****     if ((CYRET_SUCCESS != rc) && (CYRET_BAD_PARAM != rc))
 174              		.loc 1 178 0 is_stmt 1
 175 0078 0128     		cmp	r0, #1
 176 007a 01D9     		bls	.L10
 179:Generated_Source\PSoC4/EEPROM.c ****     {
 180:Generated_Source\PSoC4/EEPROM.c ****         rc = CYRET_UNKNOWN;
 177              		.loc 1 180 0
 178 007c 0120     		mov	r0, #1
 179              	.LVL15:
 180 007e 4042     		neg	r0, r0
 181              	.LVL16:
 182              	.L10:
 181:Generated_Source\PSoC4/EEPROM.c ****     }
 182:Generated_Source\PSoC4/EEPROM.c ****     
 183:Generated_Source\PSoC4/EEPROM.c ****     return (rc);
 184:Generated_Source\PSoC4/EEPROM.c **** }
 183              		.loc 1 184 0
 184 0080 21B0     		add	sp, sp, #132
 185              		@ sp needed
 186 0082 3CBC     		pop	{r2, r3, r4, r5}
 187 0084 9046     		mov	r8, r2
 188 0086 9946     		mov	r9, r3
 189 0088 A246     		mov	r10, r4
 190 008a AB46     		mov	fp, r5
 191 008c F0BD     		pop	{r4, r5, r6, r7, pc}
 192              	.LVL17:
 193              	.L12:
 128:Generated_Source\PSoC4/EEPROM.c **** 
 194              		.loc 1 128 0
ARM GAS  C:\Users\g\AppData\Local\Temp\cccbWjAy.s 			page 8


 195 008e 0020     		mov	r0, #0
 196              	.LVL18:
 197 0090 F6E7     		b	.L10
 198              	.L21:
 199 0092 C046     		.align	2
 200              	.L20:
 201 0094 FF7F0000 		.word	32767
 202              		.cfi_endproc
 203              	.LFE2:
 204              		.size	EEPROM_Write, .-EEPROM_Write
 205              		.text
 206              	.Letext0:
 207              		.file 2 "Generated_Source\\PSoC4\\cytypes.h"
 208              		.file 3 "Generated_Source\\PSoC4\\CyFlash.h"