ARM GAS  C:\Users\g\AppData\Local\Temp\cczq2svs.s 			page 1


   1              		.cpu cortex-m0
   2              		.fpu softvfp
   3              		.eabi_attribute 20, 1
   4              		.eabi_attribute 21, 1
   5              		.eabi_attribute 23, 3
   6              		.eabi_attribute 24, 1
   7              		.eabi_attribute 25, 1
   8              		.eabi_attribute 26, 1
   9              		.eabi_attribute 30, 1
  10              		.eabi_attribute 34, 0
  11              		.eabi_attribute 18, 4
  12              		.code	16
  13              		.file	"ERRORCOUNT.c"
  14              		.text
  15              	.Ltext0:
  16              		.cfi_sections	.debug_frame
  17              		.section	.text.ERRORCOUNT_Enable,"ax",%progbits
  18              		.align	2
  19              		.global	ERRORCOUNT_Enable
  20              		.code	16
  21              		.thumb_func
  22              		.type	ERRORCOUNT_Enable, %function
  23              	ERRORCOUNT_Enable:
  24              	.LFB1:
  25              		.file 1 ".\\Generated_Source\\PSoC4\\ERRORCOUNT.c"
   1:.\Generated_Source\PSoC4/ERRORCOUNT.c **** /*******************************************************************************
   2:.\Generated_Source\PSoC4/ERRORCOUNT.c **** * File Name: ERRORCOUNT.c  
   3:.\Generated_Source\PSoC4/ERRORCOUNT.c **** * Version 3.0
   4:.\Generated_Source\PSoC4/ERRORCOUNT.c **** *
   5:.\Generated_Source\PSoC4/ERRORCOUNT.c **** *  Description:
   6:.\Generated_Source\PSoC4/ERRORCOUNT.c **** *     The Counter component consists of a 8, 16, 24 or 32-bit counter with
   7:.\Generated_Source\PSoC4/ERRORCOUNT.c **** *     a selectable period between 2 and 2^Width - 1.  
   8:.\Generated_Source\PSoC4/ERRORCOUNT.c **** *
   9:.\Generated_Source\PSoC4/ERRORCOUNT.c **** *   Note:
  10:.\Generated_Source\PSoC4/ERRORCOUNT.c **** *     None
  11:.\Generated_Source\PSoC4/ERRORCOUNT.c **** *
  12:.\Generated_Source\PSoC4/ERRORCOUNT.c **** ********************************************************************************
  13:.\Generated_Source\PSoC4/ERRORCOUNT.c **** * Copyright 2008-2012, Cypress Semiconductor Corporation.  All rights reserved.
  14:.\Generated_Source\PSoC4/ERRORCOUNT.c **** * You may use this file only in accordance with the license, terms, conditions, 
  15:.\Generated_Source\PSoC4/ERRORCOUNT.c **** * disclaimers, and limitations in the end user license agreement accompanying 
  16:.\Generated_Source\PSoC4/ERRORCOUNT.c **** * the software package with which this file was provided.
  17:.\Generated_Source\PSoC4/ERRORCOUNT.c **** *******************************************************************************/
  18:.\Generated_Source\PSoC4/ERRORCOUNT.c **** 
  19:.\Generated_Source\PSoC4/ERRORCOUNT.c **** #include "ERRORCOUNT.h"
  20:.\Generated_Source\PSoC4/ERRORCOUNT.c **** 
  21:.\Generated_Source\PSoC4/ERRORCOUNT.c **** uint8 ERRORCOUNT_initVar = 0u;
  22:.\Generated_Source\PSoC4/ERRORCOUNT.c **** 
  23:.\Generated_Source\PSoC4/ERRORCOUNT.c **** 
  24:.\Generated_Source\PSoC4/ERRORCOUNT.c **** /*******************************************************************************
  25:.\Generated_Source\PSoC4/ERRORCOUNT.c **** * Function Name: ERRORCOUNT_Init
  26:.\Generated_Source\PSoC4/ERRORCOUNT.c **** ********************************************************************************
  27:.\Generated_Source\PSoC4/ERRORCOUNT.c **** * Summary:
  28:.\Generated_Source\PSoC4/ERRORCOUNT.c **** *     Initialize to the schematic state
  29:.\Generated_Source\PSoC4/ERRORCOUNT.c **** * 
  30:.\Generated_Source\PSoC4/ERRORCOUNT.c **** * Parameters:  
  31:.\Generated_Source\PSoC4/ERRORCOUNT.c **** *  void  
  32:.\Generated_Source\PSoC4/ERRORCOUNT.c **** *
ARM GAS  C:\Users\g\AppData\Local\Temp\cczq2svs.s 			page 2


  33:.\Generated_Source\PSoC4/ERRORCOUNT.c **** * Return: 
  34:.\Generated_Source\PSoC4/ERRORCOUNT.c **** *  void
  35:.\Generated_Source\PSoC4/ERRORCOUNT.c **** *
  36:.\Generated_Source\PSoC4/ERRORCOUNT.c **** *******************************************************************************/
  37:.\Generated_Source\PSoC4/ERRORCOUNT.c **** void ERRORCOUNT_Init(void) 
  38:.\Generated_Source\PSoC4/ERRORCOUNT.c **** {
  39:.\Generated_Source\PSoC4/ERRORCOUNT.c ****         #if (!ERRORCOUNT_UsingFixedFunction && !ERRORCOUNT_ControlRegRemoved)
  40:.\Generated_Source\PSoC4/ERRORCOUNT.c ****             uint8 ctrl;
  41:.\Generated_Source\PSoC4/ERRORCOUNT.c ****         #endif /* (!ERRORCOUNT_UsingFixedFunction && !ERRORCOUNT_ControlRegRemoved) */
  42:.\Generated_Source\PSoC4/ERRORCOUNT.c ****         
  43:.\Generated_Source\PSoC4/ERRORCOUNT.c ****         #if(!ERRORCOUNT_UsingFixedFunction) 
  44:.\Generated_Source\PSoC4/ERRORCOUNT.c ****             /* Interrupt State Backup for Critical Region*/
  45:.\Generated_Source\PSoC4/ERRORCOUNT.c ****             uint8 ERRORCOUNT_interruptState;
  46:.\Generated_Source\PSoC4/ERRORCOUNT.c ****         #endif /* (!ERRORCOUNT_UsingFixedFunction) */
  47:.\Generated_Source\PSoC4/ERRORCOUNT.c ****         
  48:.\Generated_Source\PSoC4/ERRORCOUNT.c ****         #if (ERRORCOUNT_UsingFixedFunction)
  49:.\Generated_Source\PSoC4/ERRORCOUNT.c ****             /* Clear all bits but the enable bit (if it's already set for Timer operation */
  50:.\Generated_Source\PSoC4/ERRORCOUNT.c ****             ERRORCOUNT_CONTROL &= ERRORCOUNT_CTRL_ENABLE;
  51:.\Generated_Source\PSoC4/ERRORCOUNT.c ****             
  52:.\Generated_Source\PSoC4/ERRORCOUNT.c ****             /* Clear the mode bits for continuous run mode */
  53:.\Generated_Source\PSoC4/ERRORCOUNT.c ****             #if (CY_PSOC5A)
  54:.\Generated_Source\PSoC4/ERRORCOUNT.c ****                 ERRORCOUNT_CONTROL2 &= ((uint8)(~ERRORCOUNT_CTRL_MODE_MASK));
  55:.\Generated_Source\PSoC4/ERRORCOUNT.c ****             #endif /* (CY_PSOC5A) */
  56:.\Generated_Source\PSoC4/ERRORCOUNT.c ****             #if (CY_PSOC3 || CY_PSOC5LP)
  57:.\Generated_Source\PSoC4/ERRORCOUNT.c ****                 ERRORCOUNT_CONTROL3 &= ((uint8)(~ERRORCOUNT_CTRL_MODE_MASK));                
  58:.\Generated_Source\PSoC4/ERRORCOUNT.c ****             #endif /* (CY_PSOC3 || CY_PSOC5LP) */
  59:.\Generated_Source\PSoC4/ERRORCOUNT.c ****             /* Check if One Shot mode is enabled i.e. RunMode !=0*/
  60:.\Generated_Source\PSoC4/ERRORCOUNT.c ****             #if (ERRORCOUNT_RunModeUsed != 0x0u)
  61:.\Generated_Source\PSoC4/ERRORCOUNT.c ****                 /* Set 3rd bit of Control register to enable one shot mode */
  62:.\Generated_Source\PSoC4/ERRORCOUNT.c ****                 ERRORCOUNT_CONTROL |= ERRORCOUNT_ONESHOT;
  63:.\Generated_Source\PSoC4/ERRORCOUNT.c ****             #endif /* (ERRORCOUNT_RunModeUsed != 0x0u) */
  64:.\Generated_Source\PSoC4/ERRORCOUNT.c ****             
  65:.\Generated_Source\PSoC4/ERRORCOUNT.c ****             /* Set the IRQ to use the status register interrupts */
  66:.\Generated_Source\PSoC4/ERRORCOUNT.c ****             ERRORCOUNT_CONTROL2 |= ERRORCOUNT_CTRL2_IRQ_SEL;
  67:.\Generated_Source\PSoC4/ERRORCOUNT.c ****             
  68:.\Generated_Source\PSoC4/ERRORCOUNT.c ****             /* Clear and Set SYNCTC and SYNCCMP bits of RT1 register */
  69:.\Generated_Source\PSoC4/ERRORCOUNT.c ****             ERRORCOUNT_RT1 &= ((uint8)(~ERRORCOUNT_RT1_MASK));
  70:.\Generated_Source\PSoC4/ERRORCOUNT.c ****             ERRORCOUNT_RT1 |= ERRORCOUNT_SYNC;     
  71:.\Generated_Source\PSoC4/ERRORCOUNT.c ****                     
  72:.\Generated_Source\PSoC4/ERRORCOUNT.c ****             /*Enable DSI Sync all all inputs of the Timer*/
  73:.\Generated_Source\PSoC4/ERRORCOUNT.c ****             ERRORCOUNT_RT1 &= ((uint8)(~ERRORCOUNT_SYNCDSI_MASK));
  74:.\Generated_Source\PSoC4/ERRORCOUNT.c ****             ERRORCOUNT_RT1 |= ERRORCOUNT_SYNCDSI_EN;
  75:.\Generated_Source\PSoC4/ERRORCOUNT.c **** 
  76:.\Generated_Source\PSoC4/ERRORCOUNT.c ****         #else
  77:.\Generated_Source\PSoC4/ERRORCOUNT.c ****             #if(!ERRORCOUNT_ControlRegRemoved)
  78:.\Generated_Source\PSoC4/ERRORCOUNT.c ****             /* Set the default compare mode defined in the parameter */
  79:.\Generated_Source\PSoC4/ERRORCOUNT.c ****             ctrl = ERRORCOUNT_CONTROL & ((uint8)(~ERRORCOUNT_CTRL_CMPMODE_MASK));
  80:.\Generated_Source\PSoC4/ERRORCOUNT.c ****             ERRORCOUNT_CONTROL = ctrl | ERRORCOUNT_DEFAULT_COMPARE_MODE;
  81:.\Generated_Source\PSoC4/ERRORCOUNT.c ****             
  82:.\Generated_Source\PSoC4/ERRORCOUNT.c ****             /* Set the default capture mode defined in the parameter */
  83:.\Generated_Source\PSoC4/ERRORCOUNT.c ****             ctrl = ERRORCOUNT_CONTROL & ((uint8)(~ERRORCOUNT_CTRL_CAPMODE_MASK));
  84:.\Generated_Source\PSoC4/ERRORCOUNT.c ****             
  85:.\Generated_Source\PSoC4/ERRORCOUNT.c ****             #if( 0 != ERRORCOUNT_CAPTURE_MODE_CONF)
  86:.\Generated_Source\PSoC4/ERRORCOUNT.c ****                 ERRORCOUNT_CONTROL = ctrl | ERRORCOUNT_DEFAULT_CAPTURE_MODE;
  87:.\Generated_Source\PSoC4/ERRORCOUNT.c ****             #else
  88:.\Generated_Source\PSoC4/ERRORCOUNT.c ****                 ERRORCOUNT_CONTROL = ctrl;
  89:.\Generated_Source\PSoC4/ERRORCOUNT.c ****             #endif /* 0 != ERRORCOUNT_CAPTURE_MODE */ 
ARM GAS  C:\Users\g\AppData\Local\Temp\cczq2svs.s 			page 3


  90:.\Generated_Source\PSoC4/ERRORCOUNT.c ****             
  91:.\Generated_Source\PSoC4/ERRORCOUNT.c ****             #endif /* (!ERRORCOUNT_ControlRegRemoved) */
  92:.\Generated_Source\PSoC4/ERRORCOUNT.c ****         #endif /* (ERRORCOUNT_UsingFixedFunction) */
  93:.\Generated_Source\PSoC4/ERRORCOUNT.c ****         
  94:.\Generated_Source\PSoC4/ERRORCOUNT.c ****         /* Clear all data in the FIFO's */
  95:.\Generated_Source\PSoC4/ERRORCOUNT.c ****         #if (!ERRORCOUNT_UsingFixedFunction)
  96:.\Generated_Source\PSoC4/ERRORCOUNT.c ****             ERRORCOUNT_ClearFIFO();
  97:.\Generated_Source\PSoC4/ERRORCOUNT.c ****         #endif /* (!ERRORCOUNT_UsingFixedFunction) */
  98:.\Generated_Source\PSoC4/ERRORCOUNT.c ****         
  99:.\Generated_Source\PSoC4/ERRORCOUNT.c ****         /* Set Initial values from Configuration */
 100:.\Generated_Source\PSoC4/ERRORCOUNT.c ****         ERRORCOUNT_WritePeriod(ERRORCOUNT_INIT_PERIOD_VALUE);
 101:.\Generated_Source\PSoC4/ERRORCOUNT.c ****         #if (!(ERRORCOUNT_UsingFixedFunction && (CY_PSOC5A)))
 102:.\Generated_Source\PSoC4/ERRORCOUNT.c ****             ERRORCOUNT_WriteCounter(ERRORCOUNT_INIT_COUNTER_VALUE);
 103:.\Generated_Source\PSoC4/ERRORCOUNT.c ****         #endif /* (!(ERRORCOUNT_UsingFixedFunction && (CY_PSOC5A))) */
 104:.\Generated_Source\PSoC4/ERRORCOUNT.c ****         ERRORCOUNT_SetInterruptMode(ERRORCOUNT_INIT_INTERRUPTS_MASK);
 105:.\Generated_Source\PSoC4/ERRORCOUNT.c ****         
 106:.\Generated_Source\PSoC4/ERRORCOUNT.c ****         #if (!ERRORCOUNT_UsingFixedFunction)
 107:.\Generated_Source\PSoC4/ERRORCOUNT.c ****             /* Read the status register to clear the unwanted interrupts */
 108:.\Generated_Source\PSoC4/ERRORCOUNT.c ****             (void)ERRORCOUNT_ReadStatusRegister();
 109:.\Generated_Source\PSoC4/ERRORCOUNT.c ****             /* Set the compare value (only available to non-fixed function implementation */
 110:.\Generated_Source\PSoC4/ERRORCOUNT.c ****             ERRORCOUNT_WriteCompare(ERRORCOUNT_INIT_COMPARE_VALUE);
 111:.\Generated_Source\PSoC4/ERRORCOUNT.c ****             /* Use the interrupt output of the status register for IRQ output */
 112:.\Generated_Source\PSoC4/ERRORCOUNT.c ****             
 113:.\Generated_Source\PSoC4/ERRORCOUNT.c ****             /* CyEnterCriticalRegion and CyExitCriticalRegion are used to mark following region cri
 114:.\Generated_Source\PSoC4/ERRORCOUNT.c ****             /* Enter Critical Region*/
 115:.\Generated_Source\PSoC4/ERRORCOUNT.c ****             ERRORCOUNT_interruptState = CyEnterCriticalSection();
 116:.\Generated_Source\PSoC4/ERRORCOUNT.c ****             
 117:.\Generated_Source\PSoC4/ERRORCOUNT.c ****             ERRORCOUNT_STATUS_AUX_CTRL |= ERRORCOUNT_STATUS_ACTL_INT_EN_MASK;
 118:.\Generated_Source\PSoC4/ERRORCOUNT.c ****             
 119:.\Generated_Source\PSoC4/ERRORCOUNT.c ****             /* Exit Critical Region*/
 120:.\Generated_Source\PSoC4/ERRORCOUNT.c ****             CyExitCriticalSection(ERRORCOUNT_interruptState);
 121:.\Generated_Source\PSoC4/ERRORCOUNT.c ****             
 122:.\Generated_Source\PSoC4/ERRORCOUNT.c ****         #endif /* (!ERRORCOUNT_UsingFixedFunction) */
 123:.\Generated_Source\PSoC4/ERRORCOUNT.c **** }
 124:.\Generated_Source\PSoC4/ERRORCOUNT.c **** 
 125:.\Generated_Source\PSoC4/ERRORCOUNT.c **** 
 126:.\Generated_Source\PSoC4/ERRORCOUNT.c **** /*******************************************************************************
 127:.\Generated_Source\PSoC4/ERRORCOUNT.c **** * Function Name: ERRORCOUNT_Enable
 128:.\Generated_Source\PSoC4/ERRORCOUNT.c **** ********************************************************************************
 129:.\Generated_Source\PSoC4/ERRORCOUNT.c **** * Summary:
 130:.\Generated_Source\PSoC4/ERRORCOUNT.c **** *     Enable the Counter
 131:.\Generated_Source\PSoC4/ERRORCOUNT.c **** * 
 132:.\Generated_Source\PSoC4/ERRORCOUNT.c **** * Parameters:  
 133:.\Generated_Source\PSoC4/ERRORCOUNT.c **** *  void  
 134:.\Generated_Source\PSoC4/ERRORCOUNT.c **** *
 135:.\Generated_Source\PSoC4/ERRORCOUNT.c **** * Return: 
 136:.\Generated_Source\PSoC4/ERRORCOUNT.c **** *  void
 137:.\Generated_Source\PSoC4/ERRORCOUNT.c **** *
 138:.\Generated_Source\PSoC4/ERRORCOUNT.c **** * Side Effects: 
 139:.\Generated_Source\PSoC4/ERRORCOUNT.c **** *   If the Enable mode is set to Hardware only then this function has no effect 
 140:.\Generated_Source\PSoC4/ERRORCOUNT.c **** *   on the operation of the counter.
 141:.\Generated_Source\PSoC4/ERRORCOUNT.c **** *
 142:.\Generated_Source\PSoC4/ERRORCOUNT.c **** *******************************************************************************/
 143:.\Generated_Source\PSoC4/ERRORCOUNT.c **** void ERRORCOUNT_Enable(void) 
 144:.\Generated_Source\PSoC4/ERRORCOUNT.c **** {
  26              		.loc 1 144 0
  27              		.cfi_startproc
ARM GAS  C:\Users\g\AppData\Local\Temp\cczq2svs.s 			page 4


 145:.\Generated_Source\PSoC4/ERRORCOUNT.c ****     /* Globally Enable the Fixed Function Block chosen */
 146:.\Generated_Source\PSoC4/ERRORCOUNT.c ****     #if (ERRORCOUNT_UsingFixedFunction)
 147:.\Generated_Source\PSoC4/ERRORCOUNT.c ****         ERRORCOUNT_GLOBAL_ENABLE |= ERRORCOUNT_BLOCK_EN_MASK;
 148:.\Generated_Source\PSoC4/ERRORCOUNT.c ****         ERRORCOUNT_GLOBAL_STBY_ENABLE |= ERRORCOUNT_BLOCK_STBY_EN_MASK;
 149:.\Generated_Source\PSoC4/ERRORCOUNT.c ****     #endif /* (ERRORCOUNT_UsingFixedFunction) */  
 150:.\Generated_Source\PSoC4/ERRORCOUNT.c ****         
 151:.\Generated_Source\PSoC4/ERRORCOUNT.c ****     /* Enable the counter from the control register  */
 152:.\Generated_Source\PSoC4/ERRORCOUNT.c ****     /* If Fixed Function then make sure Mode is set correctly */
 153:.\Generated_Source\PSoC4/ERRORCOUNT.c ****     /* else make sure reset is clear */
 154:.\Generated_Source\PSoC4/ERRORCOUNT.c ****     #if(!ERRORCOUNT_ControlRegRemoved || ERRORCOUNT_UsingFixedFunction)
 155:.\Generated_Source\PSoC4/ERRORCOUNT.c ****         ERRORCOUNT_CONTROL |= ERRORCOUNT_CTRL_ENABLE;                
  28              		.loc 1 155 0
  29 0000 024A     		ldr	r2, .L2
  30 0002 1178     		ldrb	r1, [r2]
  31 0004 8023     		mov	r3, #128
  32 0006 0B43     		orr	r3, r1
  33 0008 1370     		strb	r3, [r2]
 156:.\Generated_Source\PSoC4/ERRORCOUNT.c ****     #endif /* (!ERRORCOUNT_ControlRegRemoved || ERRORCOUNT_UsingFixedFunction) */
 157:.\Generated_Source\PSoC4/ERRORCOUNT.c ****     
 158:.\Generated_Source\PSoC4/ERRORCOUNT.c **** }
  34              		.loc 1 158 0
  35              		@ sp needed
  36 000a 7047     		bx	lr
  37              	.L3:
  38              		.align	2
  39              	.L2:
  40 000c 70000F40 		.word	1074724976
  41              		.cfi_endproc
  42              	.LFE1:
  43              		.size	ERRORCOUNT_Enable, .-ERRORCOUNT_Enable
  44              		.section	.text.ERRORCOUNT_Stop,"ax",%progbits
  45              		.align	2
  46              		.global	ERRORCOUNT_Stop
  47              		.code	16
  48              		.thumb_func
  49              		.type	ERRORCOUNT_Stop, %function
  50              	ERRORCOUNT_Stop:
  51              	.LFB3:
 159:.\Generated_Source\PSoC4/ERRORCOUNT.c **** 
 160:.\Generated_Source\PSoC4/ERRORCOUNT.c **** 
 161:.\Generated_Source\PSoC4/ERRORCOUNT.c **** /*******************************************************************************
 162:.\Generated_Source\PSoC4/ERRORCOUNT.c **** * Function Name: ERRORCOUNT_Start
 163:.\Generated_Source\PSoC4/ERRORCOUNT.c **** ********************************************************************************
 164:.\Generated_Source\PSoC4/ERRORCOUNT.c **** * Summary:
 165:.\Generated_Source\PSoC4/ERRORCOUNT.c **** *  Enables the counter for operation 
 166:.\Generated_Source\PSoC4/ERRORCOUNT.c **** *
 167:.\Generated_Source\PSoC4/ERRORCOUNT.c **** * Parameters:  
 168:.\Generated_Source\PSoC4/ERRORCOUNT.c **** *  void  
 169:.\Generated_Source\PSoC4/ERRORCOUNT.c **** *
 170:.\Generated_Source\PSoC4/ERRORCOUNT.c **** * Return: 
 171:.\Generated_Source\PSoC4/ERRORCOUNT.c **** *  void
 172:.\Generated_Source\PSoC4/ERRORCOUNT.c **** *
 173:.\Generated_Source\PSoC4/ERRORCOUNT.c **** * Global variables:
 174:.\Generated_Source\PSoC4/ERRORCOUNT.c **** *  ERRORCOUNT_initVar: Is modified when this function is called for the  
 175:.\Generated_Source\PSoC4/ERRORCOUNT.c **** *   first time. Is used to ensure that initialization happens only once.
 176:.\Generated_Source\PSoC4/ERRORCOUNT.c **** *
 177:.\Generated_Source\PSoC4/ERRORCOUNT.c **** *******************************************************************************/
ARM GAS  C:\Users\g\AppData\Local\Temp\cczq2svs.s 			page 5


 178:.\Generated_Source\PSoC4/ERRORCOUNT.c **** void ERRORCOUNT_Start(void) 
 179:.\Generated_Source\PSoC4/ERRORCOUNT.c **** {
 180:.\Generated_Source\PSoC4/ERRORCOUNT.c ****     if(ERRORCOUNT_initVar == 0u)
 181:.\Generated_Source\PSoC4/ERRORCOUNT.c ****     {
 182:.\Generated_Source\PSoC4/ERRORCOUNT.c ****         ERRORCOUNT_Init();
 183:.\Generated_Source\PSoC4/ERRORCOUNT.c ****         
 184:.\Generated_Source\PSoC4/ERRORCOUNT.c ****         ERRORCOUNT_initVar = 1u; /* Clear this bit for Initialization */        
 185:.\Generated_Source\PSoC4/ERRORCOUNT.c ****     }
 186:.\Generated_Source\PSoC4/ERRORCOUNT.c ****     
 187:.\Generated_Source\PSoC4/ERRORCOUNT.c ****     /* Enable the Counter */
 188:.\Generated_Source\PSoC4/ERRORCOUNT.c ****     ERRORCOUNT_Enable();        
 189:.\Generated_Source\PSoC4/ERRORCOUNT.c **** }
 190:.\Generated_Source\PSoC4/ERRORCOUNT.c **** 
 191:.\Generated_Source\PSoC4/ERRORCOUNT.c **** 
 192:.\Generated_Source\PSoC4/ERRORCOUNT.c **** /*******************************************************************************
 193:.\Generated_Source\PSoC4/ERRORCOUNT.c **** * Function Name: ERRORCOUNT_Stop
 194:.\Generated_Source\PSoC4/ERRORCOUNT.c **** ********************************************************************************
 195:.\Generated_Source\PSoC4/ERRORCOUNT.c **** * Summary:
 196:.\Generated_Source\PSoC4/ERRORCOUNT.c **** * Halts the counter, but does not change any modes or disable interrupts.
 197:.\Generated_Source\PSoC4/ERRORCOUNT.c **** *
 198:.\Generated_Source\PSoC4/ERRORCOUNT.c **** * Parameters:  
 199:.\Generated_Source\PSoC4/ERRORCOUNT.c **** *  void  
 200:.\Generated_Source\PSoC4/ERRORCOUNT.c **** *
 201:.\Generated_Source\PSoC4/ERRORCOUNT.c **** * Return: 
 202:.\Generated_Source\PSoC4/ERRORCOUNT.c **** *  void
 203:.\Generated_Source\PSoC4/ERRORCOUNT.c **** *
 204:.\Generated_Source\PSoC4/ERRORCOUNT.c **** * Side Effects: If the Enable mode is set to Hardware only then this function
 205:.\Generated_Source\PSoC4/ERRORCOUNT.c **** *               has no effect on the operation of the counter.
 206:.\Generated_Source\PSoC4/ERRORCOUNT.c **** *
 207:.\Generated_Source\PSoC4/ERRORCOUNT.c **** *******************************************************************************/
 208:.\Generated_Source\PSoC4/ERRORCOUNT.c **** void ERRORCOUNT_Stop(void) 
 209:.\Generated_Source\PSoC4/ERRORCOUNT.c **** {
  52              		.loc 1 209 0
  53              		.cfi_startproc
 210:.\Generated_Source\PSoC4/ERRORCOUNT.c ****     /* Disable Counter */
 211:.\Generated_Source\PSoC4/ERRORCOUNT.c ****     #if(!ERRORCOUNT_ControlRegRemoved || ERRORCOUNT_UsingFixedFunction)
 212:.\Generated_Source\PSoC4/ERRORCOUNT.c ****         ERRORCOUNT_CONTROL &= ((uint8)(~ERRORCOUNT_CTRL_ENABLE));        
  54              		.loc 1 212 0
  55 0000 024A     		ldr	r2, .L5
  56 0002 1178     		ldrb	r1, [r2]
  57 0004 7F23     		mov	r3, #127
  58 0006 0B40     		and	r3, r1
  59 0008 1370     		strb	r3, [r2]
 213:.\Generated_Source\PSoC4/ERRORCOUNT.c ****     #endif /* (!ERRORCOUNT_ControlRegRemoved || ERRORCOUNT_UsingFixedFunction) */
 214:.\Generated_Source\PSoC4/ERRORCOUNT.c ****     
 215:.\Generated_Source\PSoC4/ERRORCOUNT.c ****     /* Globally disable the Fixed Function Block chosen */
 216:.\Generated_Source\PSoC4/ERRORCOUNT.c ****     #if (ERRORCOUNT_UsingFixedFunction)
 217:.\Generated_Source\PSoC4/ERRORCOUNT.c ****         ERRORCOUNT_GLOBAL_ENABLE &= ((uint8)(~ERRORCOUNT_BLOCK_EN_MASK));
 218:.\Generated_Source\PSoC4/ERRORCOUNT.c ****         ERRORCOUNT_GLOBAL_STBY_ENABLE &= ((uint8)(~ERRORCOUNT_BLOCK_STBY_EN_MASK));
 219:.\Generated_Source\PSoC4/ERRORCOUNT.c ****     #endif /* (ERRORCOUNT_UsingFixedFunction) */
 220:.\Generated_Source\PSoC4/ERRORCOUNT.c **** }
  60              		.loc 1 220 0
  61              		@ sp needed
  62 000a 7047     		bx	lr
  63              	.L6:
  64              		.align	2
  65              	.L5:
ARM GAS  C:\Users\g\AppData\Local\Temp\cczq2svs.s 			page 6


  66 000c 70000F40 		.word	1074724976
  67              		.cfi_endproc
  68              	.LFE3:
  69              		.size	ERRORCOUNT_Stop, .-ERRORCOUNT_Stop
  70              		.section	.text.ERRORCOUNT_SetInterruptMode,"ax",%progbits
  71              		.align	2
  72              		.global	ERRORCOUNT_SetInterruptMode
  73              		.code	16
  74              		.thumb_func
  75              		.type	ERRORCOUNT_SetInterruptMode, %function
  76              	ERRORCOUNT_SetInterruptMode:
  77              	.LFB4:
 221:.\Generated_Source\PSoC4/ERRORCOUNT.c **** 
 222:.\Generated_Source\PSoC4/ERRORCOUNT.c **** 
 223:.\Generated_Source\PSoC4/ERRORCOUNT.c **** /*******************************************************************************
 224:.\Generated_Source\PSoC4/ERRORCOUNT.c **** * Function Name: ERRORCOUNT_SetInterruptMode
 225:.\Generated_Source\PSoC4/ERRORCOUNT.c **** ********************************************************************************
 226:.\Generated_Source\PSoC4/ERRORCOUNT.c **** * Summary:
 227:.\Generated_Source\PSoC4/ERRORCOUNT.c **** * Configures which interrupt sources are enabled to generate the final interrupt
 228:.\Generated_Source\PSoC4/ERRORCOUNT.c **** *
 229:.\Generated_Source\PSoC4/ERRORCOUNT.c **** * Parameters:  
 230:.\Generated_Source\PSoC4/ERRORCOUNT.c **** *  InterruptsMask: This parameter is an or'd collection of the status bits
 231:.\Generated_Source\PSoC4/ERRORCOUNT.c **** *                   which will be allowed to generate the counters interrupt.   
 232:.\Generated_Source\PSoC4/ERRORCOUNT.c **** *
 233:.\Generated_Source\PSoC4/ERRORCOUNT.c **** * Return: 
 234:.\Generated_Source\PSoC4/ERRORCOUNT.c **** *  void
 235:.\Generated_Source\PSoC4/ERRORCOUNT.c **** *
 236:.\Generated_Source\PSoC4/ERRORCOUNT.c **** *******************************************************************************/
 237:.\Generated_Source\PSoC4/ERRORCOUNT.c **** void ERRORCOUNT_SetInterruptMode(uint8 interruptsMask) 
 238:.\Generated_Source\PSoC4/ERRORCOUNT.c **** {
  78              		.loc 1 238 0
  79              		.cfi_startproc
  80              	.LVL0:
 239:.\Generated_Source\PSoC4/ERRORCOUNT.c ****     ERRORCOUNT_STATUS_MASK = interruptsMask;
  81              		.loc 1 239 0
  82 0000 014B     		ldr	r3, .L8
  83 0002 1870     		strb	r0, [r3]
 240:.\Generated_Source\PSoC4/ERRORCOUNT.c **** }
  84              		.loc 1 240 0
  85              		@ sp needed
  86 0004 7047     		bx	lr
  87              	.L9:
  88 0006 C046     		.align	2
  89              	.L8:
  90 0008 82000F40 		.word	1074724994
  91              		.cfi_endproc
  92              	.LFE4:
  93              		.size	ERRORCOUNT_SetInterruptMode, .-ERRORCOUNT_SetInterruptMode
  94              		.section	.text.ERRORCOUNT_ReadStatusRegister,"ax",%progbits
  95              		.align	2
  96              		.global	ERRORCOUNT_ReadStatusRegister
  97              		.code	16
  98              		.thumb_func
  99              		.type	ERRORCOUNT_ReadStatusRegister, %function
 100              	ERRORCOUNT_ReadStatusRegister:
 101              	.LFB5:
 241:.\Generated_Source\PSoC4/ERRORCOUNT.c **** 
ARM GAS  C:\Users\g\AppData\Local\Temp\cczq2svs.s 			page 7


 242:.\Generated_Source\PSoC4/ERRORCOUNT.c **** 
 243:.\Generated_Source\PSoC4/ERRORCOUNT.c **** /*******************************************************************************
 244:.\Generated_Source\PSoC4/ERRORCOUNT.c **** * Function Name: ERRORCOUNT_ReadStatusRegister
 245:.\Generated_Source\PSoC4/ERRORCOUNT.c **** ********************************************************************************
 246:.\Generated_Source\PSoC4/ERRORCOUNT.c **** * Summary:
 247:.\Generated_Source\PSoC4/ERRORCOUNT.c **** *   Reads the status register and returns it's state. This function should use
 248:.\Generated_Source\PSoC4/ERRORCOUNT.c **** *       defined types for the bit-field information as the bits in this
 249:.\Generated_Source\PSoC4/ERRORCOUNT.c **** *       register may be permuteable.
 250:.\Generated_Source\PSoC4/ERRORCOUNT.c **** *
 251:.\Generated_Source\PSoC4/ERRORCOUNT.c **** * Parameters:  
 252:.\Generated_Source\PSoC4/ERRORCOUNT.c **** *  void
 253:.\Generated_Source\PSoC4/ERRORCOUNT.c **** *
 254:.\Generated_Source\PSoC4/ERRORCOUNT.c **** * Return: 
 255:.\Generated_Source\PSoC4/ERRORCOUNT.c **** *  (uint8) The contents of the status register
 256:.\Generated_Source\PSoC4/ERRORCOUNT.c **** *
 257:.\Generated_Source\PSoC4/ERRORCOUNT.c **** * Side Effects:
 258:.\Generated_Source\PSoC4/ERRORCOUNT.c **** *   Status register bits may be clear on read. 
 259:.\Generated_Source\PSoC4/ERRORCOUNT.c **** *
 260:.\Generated_Source\PSoC4/ERRORCOUNT.c **** *******************************************************************************/
 261:.\Generated_Source\PSoC4/ERRORCOUNT.c **** uint8   ERRORCOUNT_ReadStatusRegister(void) 
 262:.\Generated_Source\PSoC4/ERRORCOUNT.c **** {
 102              		.loc 1 262 0
 103              		.cfi_startproc
 263:.\Generated_Source\PSoC4/ERRORCOUNT.c ****     return ERRORCOUNT_STATUS;
 104              		.loc 1 263 0
 105 0000 014B     		ldr	r3, .L11
 106 0002 1878     		ldrb	r0, [r3]
 107 0004 C0B2     		uxtb	r0, r0
 264:.\Generated_Source\PSoC4/ERRORCOUNT.c **** }
 108              		.loc 1 264 0
 109              		@ sp needed
 110 0006 7047     		bx	lr
 111              	.L12:
 112              		.align	2
 113              	.L11:
 114 0008 62000F40 		.word	1074724962
 115              		.cfi_endproc
 116              	.LFE5:
 117              		.size	ERRORCOUNT_ReadStatusRegister, .-ERRORCOUNT_ReadStatusRegister
 118              		.section	.text.ERRORCOUNT_ReadControlRegister,"ax",%progbits
 119              		.align	2
 120              		.global	ERRORCOUNT_ReadControlRegister
 121              		.code	16
 122              		.thumb_func
 123              		.type	ERRORCOUNT_ReadControlRegister, %function
 124              	ERRORCOUNT_ReadControlRegister:
 125              	.LFB6:
 265:.\Generated_Source\PSoC4/ERRORCOUNT.c **** 
 266:.\Generated_Source\PSoC4/ERRORCOUNT.c **** 
 267:.\Generated_Source\PSoC4/ERRORCOUNT.c **** #if(!ERRORCOUNT_ControlRegRemoved)
 268:.\Generated_Source\PSoC4/ERRORCOUNT.c **** /*******************************************************************************
 269:.\Generated_Source\PSoC4/ERRORCOUNT.c **** * Function Name: ERRORCOUNT_ReadControlRegister
 270:.\Generated_Source\PSoC4/ERRORCOUNT.c **** ********************************************************************************
 271:.\Generated_Source\PSoC4/ERRORCOUNT.c **** * Summary:
 272:.\Generated_Source\PSoC4/ERRORCOUNT.c **** *   Reads the control register and returns it's state. This function should use
 273:.\Generated_Source\PSoC4/ERRORCOUNT.c **** *       defined types for the bit-field information as the bits in this
 274:.\Generated_Source\PSoC4/ERRORCOUNT.c **** *       register may be permuteable.
ARM GAS  C:\Users\g\AppData\Local\Temp\cczq2svs.s 			page 8


 275:.\Generated_Source\PSoC4/ERRORCOUNT.c **** *
 276:.\Generated_Source\PSoC4/ERRORCOUNT.c **** * Parameters:  
 277:.\Generated_Source\PSoC4/ERRORCOUNT.c **** *  void
 278:.\Generated_Source\PSoC4/ERRORCOUNT.c **** *
 279:.\Generated_Source\PSoC4/ERRORCOUNT.c **** * Return: 
 280:.\Generated_Source\PSoC4/ERRORCOUNT.c **** *  (uint8) The contents of the control register
 281:.\Generated_Source\PSoC4/ERRORCOUNT.c **** *
 282:.\Generated_Source\PSoC4/ERRORCOUNT.c **** *******************************************************************************/
 283:.\Generated_Source\PSoC4/ERRORCOUNT.c **** uint8   ERRORCOUNT_ReadControlRegister(void) 
 284:.\Generated_Source\PSoC4/ERRORCOUNT.c **** {
 126              		.loc 1 284 0
 127              		.cfi_startproc
 285:.\Generated_Source\PSoC4/ERRORCOUNT.c ****     return ERRORCOUNT_CONTROL;
 128              		.loc 1 285 0
 129 0000 014B     		ldr	r3, .L14
 130 0002 1878     		ldrb	r0, [r3]
 131 0004 C0B2     		uxtb	r0, r0
 286:.\Generated_Source\PSoC4/ERRORCOUNT.c **** }
 132              		.loc 1 286 0
 133              		@ sp needed
 134 0006 7047     		bx	lr
 135              	.L15:
 136              		.align	2
 137              	.L14:
 138 0008 70000F40 		.word	1074724976
 139              		.cfi_endproc
 140              	.LFE6:
 141              		.size	ERRORCOUNT_ReadControlRegister, .-ERRORCOUNT_ReadControlRegister
 142              		.section	.text.ERRORCOUNT_WriteControlRegister,"ax",%progbits
 143              		.align	2
 144              		.global	ERRORCOUNT_WriteControlRegister
 145              		.code	16
 146              		.thumb_func
 147              		.type	ERRORCOUNT_WriteControlRegister, %function
 148              	ERRORCOUNT_WriteControlRegister:
 149              	.LFB7:
 287:.\Generated_Source\PSoC4/ERRORCOUNT.c **** 
 288:.\Generated_Source\PSoC4/ERRORCOUNT.c **** 
 289:.\Generated_Source\PSoC4/ERRORCOUNT.c **** /*******************************************************************************
 290:.\Generated_Source\PSoC4/ERRORCOUNT.c **** * Function Name: ERRORCOUNT_WriteControlRegister
 291:.\Generated_Source\PSoC4/ERRORCOUNT.c **** ********************************************************************************
 292:.\Generated_Source\PSoC4/ERRORCOUNT.c **** * Summary:
 293:.\Generated_Source\PSoC4/ERRORCOUNT.c **** *   Sets the bit-field of the control register.  This function should use
 294:.\Generated_Source\PSoC4/ERRORCOUNT.c **** *       defined types for the bit-field information as the bits in this
 295:.\Generated_Source\PSoC4/ERRORCOUNT.c **** *       register may be permuteable.
 296:.\Generated_Source\PSoC4/ERRORCOUNT.c **** *
 297:.\Generated_Source\PSoC4/ERRORCOUNT.c **** * Parameters:  
 298:.\Generated_Source\PSoC4/ERRORCOUNT.c **** *  void
 299:.\Generated_Source\PSoC4/ERRORCOUNT.c **** *
 300:.\Generated_Source\PSoC4/ERRORCOUNT.c **** * Return: 
 301:.\Generated_Source\PSoC4/ERRORCOUNT.c **** *  (uint8) The contents of the control register
 302:.\Generated_Source\PSoC4/ERRORCOUNT.c **** *
 303:.\Generated_Source\PSoC4/ERRORCOUNT.c **** *******************************************************************************/
 304:.\Generated_Source\PSoC4/ERRORCOUNT.c **** void    ERRORCOUNT_WriteControlRegister(uint8 control) 
 305:.\Generated_Source\PSoC4/ERRORCOUNT.c **** {
 150              		.loc 1 305 0
 151              		.cfi_startproc
ARM GAS  C:\Users\g\AppData\Local\Temp\cczq2svs.s 			page 9


 152              	.LVL1:
 306:.\Generated_Source\PSoC4/ERRORCOUNT.c ****     ERRORCOUNT_CONTROL = control;
 153              		.loc 1 306 0
 154 0000 014B     		ldr	r3, .L17
 155 0002 1870     		strb	r0, [r3]
 307:.\Generated_Source\PSoC4/ERRORCOUNT.c **** }
 156              		.loc 1 307 0
 157              		@ sp needed
 158 0004 7047     		bx	lr
 159              	.L18:
 160 0006 C046     		.align	2
 161              	.L17:
 162 0008 70000F40 		.word	1074724976
 163              		.cfi_endproc
 164              	.LFE7:
 165              		.size	ERRORCOUNT_WriteControlRegister, .-ERRORCOUNT_WriteControlRegister
 166              		.section	.text.ERRORCOUNT_WriteCounter,"ax",%progbits
 167              		.align	2
 168              		.global	ERRORCOUNT_WriteCounter
 169              		.code	16
 170              		.thumb_func
 171              		.type	ERRORCOUNT_WriteCounter, %function
 172              	ERRORCOUNT_WriteCounter:
 173              	.LFB8:
 308:.\Generated_Source\PSoC4/ERRORCOUNT.c **** 
 309:.\Generated_Source\PSoC4/ERRORCOUNT.c **** #endif  /* (!ERRORCOUNT_ControlRegRemoved) */
 310:.\Generated_Source\PSoC4/ERRORCOUNT.c **** 
 311:.\Generated_Source\PSoC4/ERRORCOUNT.c **** 
 312:.\Generated_Source\PSoC4/ERRORCOUNT.c **** #if (!(ERRORCOUNT_UsingFixedFunction && (CY_PSOC5A)))
 313:.\Generated_Source\PSoC4/ERRORCOUNT.c **** /*******************************************************************************
 314:.\Generated_Source\PSoC4/ERRORCOUNT.c **** * Function Name: ERRORCOUNT_WriteCounter
 315:.\Generated_Source\PSoC4/ERRORCOUNT.c **** ********************************************************************************
 316:.\Generated_Source\PSoC4/ERRORCOUNT.c **** * Summary:
 317:.\Generated_Source\PSoC4/ERRORCOUNT.c **** *   This funtion is used to set the counter to a specific value
 318:.\Generated_Source\PSoC4/ERRORCOUNT.c **** *
 319:.\Generated_Source\PSoC4/ERRORCOUNT.c **** * Parameters:  
 320:.\Generated_Source\PSoC4/ERRORCOUNT.c **** *  counter:  New counter value. 
 321:.\Generated_Source\PSoC4/ERRORCOUNT.c **** *
 322:.\Generated_Source\PSoC4/ERRORCOUNT.c **** * Return: 
 323:.\Generated_Source\PSoC4/ERRORCOUNT.c **** *  void 
 324:.\Generated_Source\PSoC4/ERRORCOUNT.c **** *
 325:.\Generated_Source\PSoC4/ERRORCOUNT.c **** *******************************************************************************/
 326:.\Generated_Source\PSoC4/ERRORCOUNT.c **** void ERRORCOUNT_WriteCounter(uint16 counter) \
 327:.\Generated_Source\PSoC4/ERRORCOUNT.c ****                                    
 328:.\Generated_Source\PSoC4/ERRORCOUNT.c **** {
 174              		.loc 1 328 0
 175              		.cfi_startproc
 176              	.LVL2:
 329:.\Generated_Source\PSoC4/ERRORCOUNT.c ****     #if(ERRORCOUNT_UsingFixedFunction)
 330:.\Generated_Source\PSoC4/ERRORCOUNT.c ****         /* assert if block is already enabled */
 331:.\Generated_Source\PSoC4/ERRORCOUNT.c ****         CYASSERT (0u == (ERRORCOUNT_GLOBAL_ENABLE & ERRORCOUNT_BLOCK_EN_MASK));
 332:.\Generated_Source\PSoC4/ERRORCOUNT.c ****         /* If block is disabled, enable it and then write the counter */
 333:.\Generated_Source\PSoC4/ERRORCOUNT.c ****         ERRORCOUNT_GLOBAL_ENABLE |= ERRORCOUNT_BLOCK_EN_MASK;
 334:.\Generated_Source\PSoC4/ERRORCOUNT.c ****         CY_SET_REG16(ERRORCOUNT_COUNTER_LSB_PTR, (uint16)counter);
 335:.\Generated_Source\PSoC4/ERRORCOUNT.c ****         ERRORCOUNT_GLOBAL_ENABLE &= ((uint8)(~ERRORCOUNT_BLOCK_EN_MASK));
 336:.\Generated_Source\PSoC4/ERRORCOUNT.c ****     #else
 337:.\Generated_Source\PSoC4/ERRORCOUNT.c ****         CY_SET_REG16(ERRORCOUNT_COUNTER_LSB_PTR, counter);
ARM GAS  C:\Users\g\AppData\Local\Temp\cczq2svs.s 			page 10


 177              		.loc 1 337 0
 178 0000 014B     		ldr	r3, .L20
 179 0002 1880     		strh	r0, [r3]
 338:.\Generated_Source\PSoC4/ERRORCOUNT.c ****     #endif /* (ERRORCOUNT_UsingFixedFunction) */
 339:.\Generated_Source\PSoC4/ERRORCOUNT.c **** }
 180              		.loc 1 339 0
 181              		@ sp needed
 182 0004 7047     		bx	lr
 183              	.L21:
 184 0006 C046     		.align	2
 185              	.L20:
 186 0008 00100F40 		.word	1074728960
 187              		.cfi_endproc
 188              	.LFE8:
 189              		.size	ERRORCOUNT_WriteCounter, .-ERRORCOUNT_WriteCounter
 190              		.section	.text.ERRORCOUNT_ReadCounter,"ax",%progbits
 191              		.align	2
 192              		.global	ERRORCOUNT_ReadCounter
 193              		.code	16
 194              		.thumb_func
 195              		.type	ERRORCOUNT_ReadCounter, %function
 196              	ERRORCOUNT_ReadCounter:
 197              	.LFB9:
 340:.\Generated_Source\PSoC4/ERRORCOUNT.c **** #endif /* (!(ERRORCOUNT_UsingFixedFunction && (CY_PSOC5A))) */
 341:.\Generated_Source\PSoC4/ERRORCOUNT.c **** 
 342:.\Generated_Source\PSoC4/ERRORCOUNT.c **** 
 343:.\Generated_Source\PSoC4/ERRORCOUNT.c **** /*******************************************************************************
 344:.\Generated_Source\PSoC4/ERRORCOUNT.c **** * Function Name: ERRORCOUNT_ReadCounter
 345:.\Generated_Source\PSoC4/ERRORCOUNT.c **** ********************************************************************************
 346:.\Generated_Source\PSoC4/ERRORCOUNT.c **** * Summary:
 347:.\Generated_Source\PSoC4/ERRORCOUNT.c **** * Returns the current value of the counter.  It doesn't matter
 348:.\Generated_Source\PSoC4/ERRORCOUNT.c **** * if the counter is enabled or running.
 349:.\Generated_Source\PSoC4/ERRORCOUNT.c **** *
 350:.\Generated_Source\PSoC4/ERRORCOUNT.c **** * Parameters:  
 351:.\Generated_Source\PSoC4/ERRORCOUNT.c **** *  void:  
 352:.\Generated_Source\PSoC4/ERRORCOUNT.c **** *
 353:.\Generated_Source\PSoC4/ERRORCOUNT.c **** * Return: 
 354:.\Generated_Source\PSoC4/ERRORCOUNT.c **** *  (uint16) The present value of the counter.
 355:.\Generated_Source\PSoC4/ERRORCOUNT.c **** *
 356:.\Generated_Source\PSoC4/ERRORCOUNT.c **** *******************************************************************************/
 357:.\Generated_Source\PSoC4/ERRORCOUNT.c **** uint16 ERRORCOUNT_ReadCounter(void) 
 358:.\Generated_Source\PSoC4/ERRORCOUNT.c **** {
 198              		.loc 1 358 0
 199              		.cfi_startproc
 359:.\Generated_Source\PSoC4/ERRORCOUNT.c ****     /* Force capture by reading Accumulator */
 360:.\Generated_Source\PSoC4/ERRORCOUNT.c ****     /* Must first do a software capture to be able to read the counter */
 361:.\Generated_Source\PSoC4/ERRORCOUNT.c ****     /* It is up to the user code to make sure there isn't already captured data in the FIFO */
 362:.\Generated_Source\PSoC4/ERRORCOUNT.c ****     #if(ERRORCOUNT_UsingFixedFunction)
 363:.\Generated_Source\PSoC4/ERRORCOUNT.c **** 		(void)CY_GET_REG16(ERRORCOUNT_COUNTER_LSB_PTR);
 364:.\Generated_Source\PSoC4/ERRORCOUNT.c **** 	#else
 365:.\Generated_Source\PSoC4/ERRORCOUNT.c **** 		(void)CY_GET_REG8(ERRORCOUNT_COUNTER_LSB_PTR_8BIT);
 200              		.loc 1 365 0
 201 0000 024B     		ldr	r3, .L23
 202 0002 1B78     		ldrb	r3, [r3]
 366:.\Generated_Source\PSoC4/ERRORCOUNT.c **** 	#endif/* (ERRORCOUNT_UsingFixedFunction) */
 367:.\Generated_Source\PSoC4/ERRORCOUNT.c ****     
 368:.\Generated_Source\PSoC4/ERRORCOUNT.c ****     /* Read the data from the FIFO (or capture register for Fixed Function)*/
ARM GAS  C:\Users\g\AppData\Local\Temp\cczq2svs.s 			page 11


 369:.\Generated_Source\PSoC4/ERRORCOUNT.c ****     #if(ERRORCOUNT_UsingFixedFunction)
 370:.\Generated_Source\PSoC4/ERRORCOUNT.c ****         return ((uint16)CY_GET_REG16(ERRORCOUNT_STATICCOUNT_LSB_PTR));
 371:.\Generated_Source\PSoC4/ERRORCOUNT.c ****     #else
 372:.\Generated_Source\PSoC4/ERRORCOUNT.c ****         return (CY_GET_REG16(ERRORCOUNT_STATICCOUNT_LSB_PTR));
 203              		.loc 1 372 0
 204 0004 024B     		ldr	r3, .L23+4
 205 0006 1888     		ldrh	r0, [r3]
 206 0008 80B2     		uxth	r0, r0
 373:.\Generated_Source\PSoC4/ERRORCOUNT.c ****     #endif /* (ERRORCOUNT_UsingFixedFunction) */
 374:.\Generated_Source\PSoC4/ERRORCOUNT.c **** }
 207              		.loc 1 374 0
 208              		@ sp needed
 209 000a 7047     		bx	lr
 210              	.L24:
 211              		.align	2
 212              	.L23:
 213 000c 00000F40 		.word	1074724864
 214 0010 80100F40 		.word	1074729088
 215              		.cfi_endproc
 216              	.LFE9:
 217              		.size	ERRORCOUNT_ReadCounter, .-ERRORCOUNT_ReadCounter
 218              		.section	.text.ERRORCOUNT_ReadCapture,"ax",%progbits
 219              		.align	2
 220              		.global	ERRORCOUNT_ReadCapture
 221              		.code	16
 222              		.thumb_func
 223              		.type	ERRORCOUNT_ReadCapture, %function
 224              	ERRORCOUNT_ReadCapture:
 225              	.LFB10:
 375:.\Generated_Source\PSoC4/ERRORCOUNT.c **** 
 376:.\Generated_Source\PSoC4/ERRORCOUNT.c **** 
 377:.\Generated_Source\PSoC4/ERRORCOUNT.c **** /*******************************************************************************
 378:.\Generated_Source\PSoC4/ERRORCOUNT.c **** * Function Name: ERRORCOUNT_ReadCapture
 379:.\Generated_Source\PSoC4/ERRORCOUNT.c **** ********************************************************************************
 380:.\Generated_Source\PSoC4/ERRORCOUNT.c **** * Summary:
 381:.\Generated_Source\PSoC4/ERRORCOUNT.c **** *   This function returns the last value captured.
 382:.\Generated_Source\PSoC4/ERRORCOUNT.c **** *
 383:.\Generated_Source\PSoC4/ERRORCOUNT.c **** * Parameters:  
 384:.\Generated_Source\PSoC4/ERRORCOUNT.c **** *  void
 385:.\Generated_Source\PSoC4/ERRORCOUNT.c **** *
 386:.\Generated_Source\PSoC4/ERRORCOUNT.c **** * Return: 
 387:.\Generated_Source\PSoC4/ERRORCOUNT.c **** *  (uint16) Present Capture value.
 388:.\Generated_Source\PSoC4/ERRORCOUNT.c **** *
 389:.\Generated_Source\PSoC4/ERRORCOUNT.c **** *******************************************************************************/
 390:.\Generated_Source\PSoC4/ERRORCOUNT.c **** uint16 ERRORCOUNT_ReadCapture(void) 
 391:.\Generated_Source\PSoC4/ERRORCOUNT.c **** {
 226              		.loc 1 391 0
 227              		.cfi_startproc
 392:.\Generated_Source\PSoC4/ERRORCOUNT.c ****     #if(ERRORCOUNT_UsingFixedFunction)
 393:.\Generated_Source\PSoC4/ERRORCOUNT.c ****         return ((uint16)CY_GET_REG16(ERRORCOUNT_STATICCOUNT_LSB_PTR));
 394:.\Generated_Source\PSoC4/ERRORCOUNT.c ****     #else
 395:.\Generated_Source\PSoC4/ERRORCOUNT.c ****         return (CY_GET_REG16(ERRORCOUNT_STATICCOUNT_LSB_PTR));
 228              		.loc 1 395 0
 229 0000 014B     		ldr	r3, .L26
 230 0002 1888     		ldrh	r0, [r3]
 231 0004 80B2     		uxth	r0, r0
 396:.\Generated_Source\PSoC4/ERRORCOUNT.c ****     #endif /* (ERRORCOUNT_UsingFixedFunction) */
ARM GAS  C:\Users\g\AppData\Local\Temp\cczq2svs.s 			page 12


 397:.\Generated_Source\PSoC4/ERRORCOUNT.c **** }
 232              		.loc 1 397 0
 233              		@ sp needed
 234 0006 7047     		bx	lr
 235              	.L27:
 236              		.align	2
 237              	.L26:
 238 0008 80100F40 		.word	1074729088
 239              		.cfi_endproc
 240              	.LFE10:
 241              		.size	ERRORCOUNT_ReadCapture, .-ERRORCOUNT_ReadCapture
 242              		.section	.text.ERRORCOUNT_WritePeriod,"ax",%progbits
 243              		.align	2
 244              		.global	ERRORCOUNT_WritePeriod
 245              		.code	16
 246              		.thumb_func
 247              		.type	ERRORCOUNT_WritePeriod, %function
 248              	ERRORCOUNT_WritePeriod:
 249              	.LFB11:
 398:.\Generated_Source\PSoC4/ERRORCOUNT.c **** 
 399:.\Generated_Source\PSoC4/ERRORCOUNT.c **** 
 400:.\Generated_Source\PSoC4/ERRORCOUNT.c **** /*******************************************************************************
 401:.\Generated_Source\PSoC4/ERRORCOUNT.c **** * Function Name: ERRORCOUNT_WritePeriod
 402:.\Generated_Source\PSoC4/ERRORCOUNT.c **** ********************************************************************************
 403:.\Generated_Source\PSoC4/ERRORCOUNT.c **** * Summary:
 404:.\Generated_Source\PSoC4/ERRORCOUNT.c **** * Changes the period of the counter.  The new period 
 405:.\Generated_Source\PSoC4/ERRORCOUNT.c **** * will be loaded the next time terminal count is detected.
 406:.\Generated_Source\PSoC4/ERRORCOUNT.c **** *
 407:.\Generated_Source\PSoC4/ERRORCOUNT.c **** * Parameters:  
 408:.\Generated_Source\PSoC4/ERRORCOUNT.c **** *  period: (uint16) A value of 0 will result in
 409:.\Generated_Source\PSoC4/ERRORCOUNT.c **** *         the counter remaining at zero.  
 410:.\Generated_Source\PSoC4/ERRORCOUNT.c **** *
 411:.\Generated_Source\PSoC4/ERRORCOUNT.c **** * Return: 
 412:.\Generated_Source\PSoC4/ERRORCOUNT.c **** *  void
 413:.\Generated_Source\PSoC4/ERRORCOUNT.c **** *
 414:.\Generated_Source\PSoC4/ERRORCOUNT.c **** *******************************************************************************/
 415:.\Generated_Source\PSoC4/ERRORCOUNT.c **** void ERRORCOUNT_WritePeriod(uint16 period) 
 416:.\Generated_Source\PSoC4/ERRORCOUNT.c **** {
 250              		.loc 1 416 0
 251              		.cfi_startproc
 252              	.LVL3:
 417:.\Generated_Source\PSoC4/ERRORCOUNT.c ****     #if(ERRORCOUNT_UsingFixedFunction)
 418:.\Generated_Source\PSoC4/ERRORCOUNT.c ****         CY_SET_REG16(ERRORCOUNT_PERIOD_LSB_PTR,(uint16)period);
 419:.\Generated_Source\PSoC4/ERRORCOUNT.c ****     #else
 420:.\Generated_Source\PSoC4/ERRORCOUNT.c ****         CY_SET_REG16(ERRORCOUNT_PERIOD_LSB_PTR, period);
 253              		.loc 1 420 0
 254 0000 014B     		ldr	r3, .L29
 255 0002 1880     		strh	r0, [r3]
 421:.\Generated_Source\PSoC4/ERRORCOUNT.c ****     #endif /* (ERRORCOUNT_UsingFixedFunction) */
 422:.\Generated_Source\PSoC4/ERRORCOUNT.c **** }
 256              		.loc 1 422 0
 257              		@ sp needed
 258 0004 7047     		bx	lr
 259              	.L30:
 260 0006 C046     		.align	2
 261              	.L29:
 262 0008 40100F40 		.word	1074729024
ARM GAS  C:\Users\g\AppData\Local\Temp\cczq2svs.s 			page 13


 263              		.cfi_endproc
 264              	.LFE11:
 265              		.size	ERRORCOUNT_WritePeriod, .-ERRORCOUNT_WritePeriod
 266              		.section	.text.ERRORCOUNT_ReadPeriod,"ax",%progbits
 267              		.align	2
 268              		.global	ERRORCOUNT_ReadPeriod
 269              		.code	16
 270              		.thumb_func
 271              		.type	ERRORCOUNT_ReadPeriod, %function
 272              	ERRORCOUNT_ReadPeriod:
 273              	.LFB12:
 423:.\Generated_Source\PSoC4/ERRORCOUNT.c **** 
 424:.\Generated_Source\PSoC4/ERRORCOUNT.c **** 
 425:.\Generated_Source\PSoC4/ERRORCOUNT.c **** /*******************************************************************************
 426:.\Generated_Source\PSoC4/ERRORCOUNT.c **** * Function Name: ERRORCOUNT_ReadPeriod
 427:.\Generated_Source\PSoC4/ERRORCOUNT.c **** ********************************************************************************
 428:.\Generated_Source\PSoC4/ERRORCOUNT.c **** * Summary:
 429:.\Generated_Source\PSoC4/ERRORCOUNT.c **** * Reads the current period value without affecting counter operation.
 430:.\Generated_Source\PSoC4/ERRORCOUNT.c **** *
 431:.\Generated_Source\PSoC4/ERRORCOUNT.c **** * Parameters:  
 432:.\Generated_Source\PSoC4/ERRORCOUNT.c **** *  void:  
 433:.\Generated_Source\PSoC4/ERRORCOUNT.c **** *
 434:.\Generated_Source\PSoC4/ERRORCOUNT.c **** * Return: 
 435:.\Generated_Source\PSoC4/ERRORCOUNT.c **** *  (uint16) Present period value.
 436:.\Generated_Source\PSoC4/ERRORCOUNT.c **** *
 437:.\Generated_Source\PSoC4/ERRORCOUNT.c **** *******************************************************************************/
 438:.\Generated_Source\PSoC4/ERRORCOUNT.c **** uint16 ERRORCOUNT_ReadPeriod(void) 
 439:.\Generated_Source\PSoC4/ERRORCOUNT.c **** {
 274              		.loc 1 439 0
 275              		.cfi_startproc
 440:.\Generated_Source\PSoC4/ERRORCOUNT.c ****     #if(ERRORCOUNT_UsingFixedFunction)
 441:.\Generated_Source\PSoC4/ERRORCOUNT.c ****         return ((uint16)CY_GET_REG16(ERRORCOUNT_PERIOD_LSB_PTR));
 442:.\Generated_Source\PSoC4/ERRORCOUNT.c ****     #else
 443:.\Generated_Source\PSoC4/ERRORCOUNT.c ****         return (CY_GET_REG16(ERRORCOUNT_PERIOD_LSB_PTR));
 276              		.loc 1 443 0
 277 0000 014B     		ldr	r3, .L32
 278 0002 1888     		ldrh	r0, [r3]
 279 0004 80B2     		uxth	r0, r0
 444:.\Generated_Source\PSoC4/ERRORCOUNT.c ****     #endif /* (ERRORCOUNT_UsingFixedFunction) */
 445:.\Generated_Source\PSoC4/ERRORCOUNT.c **** }
 280              		.loc 1 445 0
 281              		@ sp needed
 282 0006 7047     		bx	lr
 283              	.L33:
 284              		.align	2
 285              	.L32:
 286 0008 40100F40 		.word	1074729024
 287              		.cfi_endproc
 288              	.LFE12:
 289              		.size	ERRORCOUNT_ReadPeriod, .-ERRORCOUNT_ReadPeriod
 290              		.section	.text.ERRORCOUNT_WriteCompare,"ax",%progbits
 291              		.align	2
 292              		.global	ERRORCOUNT_WriteCompare
 293              		.code	16
 294              		.thumb_func
 295              		.type	ERRORCOUNT_WriteCompare, %function
 296              	ERRORCOUNT_WriteCompare:
ARM GAS  C:\Users\g\AppData\Local\Temp\cczq2svs.s 			page 14


 297              	.LFB13:
 446:.\Generated_Source\PSoC4/ERRORCOUNT.c **** 
 447:.\Generated_Source\PSoC4/ERRORCOUNT.c **** 
 448:.\Generated_Source\PSoC4/ERRORCOUNT.c **** #if (!ERRORCOUNT_UsingFixedFunction)
 449:.\Generated_Source\PSoC4/ERRORCOUNT.c **** /*******************************************************************************
 450:.\Generated_Source\PSoC4/ERRORCOUNT.c **** * Function Name: ERRORCOUNT_WriteCompare
 451:.\Generated_Source\PSoC4/ERRORCOUNT.c **** ********************************************************************************
 452:.\Generated_Source\PSoC4/ERRORCOUNT.c **** * Summary:
 453:.\Generated_Source\PSoC4/ERRORCOUNT.c **** * Changes the compare value.  The compare output will 
 454:.\Generated_Source\PSoC4/ERRORCOUNT.c **** * reflect the new value on the next UDB clock.  The compare output will be 
 455:.\Generated_Source\PSoC4/ERRORCOUNT.c **** * driven high when the present counter value compares true based on the 
 456:.\Generated_Source\PSoC4/ERRORCOUNT.c **** * configured compare mode setting. 
 457:.\Generated_Source\PSoC4/ERRORCOUNT.c **** *
 458:.\Generated_Source\PSoC4/ERRORCOUNT.c **** * Parameters:  
 459:.\Generated_Source\PSoC4/ERRORCOUNT.c **** *  Compare:  New compare value. 
 460:.\Generated_Source\PSoC4/ERRORCOUNT.c **** *
 461:.\Generated_Source\PSoC4/ERRORCOUNT.c **** * Return: 
 462:.\Generated_Source\PSoC4/ERRORCOUNT.c **** *  void
 463:.\Generated_Source\PSoC4/ERRORCOUNT.c **** *
 464:.\Generated_Source\PSoC4/ERRORCOUNT.c **** *******************************************************************************/
 465:.\Generated_Source\PSoC4/ERRORCOUNT.c **** void ERRORCOUNT_WriteCompare(uint16 compare) \
 466:.\Generated_Source\PSoC4/ERRORCOUNT.c ****                                    
 467:.\Generated_Source\PSoC4/ERRORCOUNT.c **** {
 298              		.loc 1 467 0
 299              		.cfi_startproc
 300              	.LVL4:
 468:.\Generated_Source\PSoC4/ERRORCOUNT.c ****     #if(ERRORCOUNT_UsingFixedFunction)
 469:.\Generated_Source\PSoC4/ERRORCOUNT.c ****         CY_SET_REG16(ERRORCOUNT_COMPARE_LSB_PTR, (uint16)compare);
 470:.\Generated_Source\PSoC4/ERRORCOUNT.c ****     #else
 471:.\Generated_Source\PSoC4/ERRORCOUNT.c ****         CY_SET_REG16(ERRORCOUNT_COMPARE_LSB_PTR, compare);
 301              		.loc 1 471 0
 302 0000 014B     		ldr	r3, .L35
 303 0002 1880     		strh	r0, [r3]
 472:.\Generated_Source\PSoC4/ERRORCOUNT.c ****     #endif /* (ERRORCOUNT_UsingFixedFunction) */
 473:.\Generated_Source\PSoC4/ERRORCOUNT.c **** }
 304              		.loc 1 473 0
 305              		@ sp needed
 306 0004 7047     		bx	lr
 307              	.L36:
 308 0006 C046     		.align	2
 309              	.L35:
 310 0008 60100F40 		.word	1074729056
 311              		.cfi_endproc
 312              	.LFE13:
 313              		.size	ERRORCOUNT_WriteCompare, .-ERRORCOUNT_WriteCompare
 314              		.section	.text.ERRORCOUNT_ReadCompare,"ax",%progbits
 315              		.align	2
 316              		.global	ERRORCOUNT_ReadCompare
 317              		.code	16
 318              		.thumb_func
 319              		.type	ERRORCOUNT_ReadCompare, %function
 320              	ERRORCOUNT_ReadCompare:
 321              	.LFB14:
 474:.\Generated_Source\PSoC4/ERRORCOUNT.c **** 
 475:.\Generated_Source\PSoC4/ERRORCOUNT.c **** 
 476:.\Generated_Source\PSoC4/ERRORCOUNT.c **** /*******************************************************************************
 477:.\Generated_Source\PSoC4/ERRORCOUNT.c **** * Function Name: ERRORCOUNT_ReadCompare
ARM GAS  C:\Users\g\AppData\Local\Temp\cczq2svs.s 			page 15


 478:.\Generated_Source\PSoC4/ERRORCOUNT.c **** ********************************************************************************
 479:.\Generated_Source\PSoC4/ERRORCOUNT.c **** * Summary:
 480:.\Generated_Source\PSoC4/ERRORCOUNT.c **** * Returns the compare value.
 481:.\Generated_Source\PSoC4/ERRORCOUNT.c **** *
 482:.\Generated_Source\PSoC4/ERRORCOUNT.c **** * Parameters:  
 483:.\Generated_Source\PSoC4/ERRORCOUNT.c **** *  void:
 484:.\Generated_Source\PSoC4/ERRORCOUNT.c **** *
 485:.\Generated_Source\PSoC4/ERRORCOUNT.c **** * Return: 
 486:.\Generated_Source\PSoC4/ERRORCOUNT.c **** *  (uint16) Present compare value.
 487:.\Generated_Source\PSoC4/ERRORCOUNT.c **** *
 488:.\Generated_Source\PSoC4/ERRORCOUNT.c **** *******************************************************************************/
 489:.\Generated_Source\PSoC4/ERRORCOUNT.c **** uint16 ERRORCOUNT_ReadCompare(void) 
 490:.\Generated_Source\PSoC4/ERRORCOUNT.c **** {
 322              		.loc 1 490 0
 323              		.cfi_startproc
 491:.\Generated_Source\PSoC4/ERRORCOUNT.c ****     return (CY_GET_REG16(ERRORCOUNT_COMPARE_LSB_PTR));
 324              		.loc 1 491 0
 325 0000 014B     		ldr	r3, .L38
 326 0002 1888     		ldrh	r0, [r3]
 327 0004 80B2     		uxth	r0, r0
 492:.\Generated_Source\PSoC4/ERRORCOUNT.c **** }
 328              		.loc 1 492 0
 329              		@ sp needed
 330 0006 7047     		bx	lr
 331              	.L39:
 332              		.align	2
 333              	.L38:
 334 0008 60100F40 		.word	1074729056
 335              		.cfi_endproc
 336              	.LFE14:
 337              		.size	ERRORCOUNT_ReadCompare, .-ERRORCOUNT_ReadCompare
 338              		.section	.text.ERRORCOUNT_ClearFIFO,"ax",%progbits
 339              		.align	2
 340              		.global	ERRORCOUNT_ClearFIFO
 341              		.code	16
 342              		.thumb_func
 343              		.type	ERRORCOUNT_ClearFIFO, %function
 344              	ERRORCOUNT_ClearFIFO:
 345              	.LFB15:
 493:.\Generated_Source\PSoC4/ERRORCOUNT.c **** 
 494:.\Generated_Source\PSoC4/ERRORCOUNT.c **** 
 495:.\Generated_Source\PSoC4/ERRORCOUNT.c **** #if (ERRORCOUNT_COMPARE_MODE_SOFTWARE)
 496:.\Generated_Source\PSoC4/ERRORCOUNT.c **** /*******************************************************************************
 497:.\Generated_Source\PSoC4/ERRORCOUNT.c **** * Function Name: ERRORCOUNT_SetCompareMode
 498:.\Generated_Source\PSoC4/ERRORCOUNT.c **** ********************************************************************************
 499:.\Generated_Source\PSoC4/ERRORCOUNT.c **** * Summary:
 500:.\Generated_Source\PSoC4/ERRORCOUNT.c **** *  Sets the software controlled Compare Mode.
 501:.\Generated_Source\PSoC4/ERRORCOUNT.c **** *
 502:.\Generated_Source\PSoC4/ERRORCOUNT.c **** * Parameters:
 503:.\Generated_Source\PSoC4/ERRORCOUNT.c **** *  compareMode:  Compare Mode Enumerated Type.
 504:.\Generated_Source\PSoC4/ERRORCOUNT.c **** *
 505:.\Generated_Source\PSoC4/ERRORCOUNT.c **** * Return:
 506:.\Generated_Source\PSoC4/ERRORCOUNT.c **** *  void
 507:.\Generated_Source\PSoC4/ERRORCOUNT.c **** *
 508:.\Generated_Source\PSoC4/ERRORCOUNT.c **** *******************************************************************************/
 509:.\Generated_Source\PSoC4/ERRORCOUNT.c **** void ERRORCOUNT_SetCompareMode(uint8 compareMode) 
 510:.\Generated_Source\PSoC4/ERRORCOUNT.c **** {
ARM GAS  C:\Users\g\AppData\Local\Temp\cczq2svs.s 			page 16


 511:.\Generated_Source\PSoC4/ERRORCOUNT.c ****     /* Clear the compare mode bits in the control register */
 512:.\Generated_Source\PSoC4/ERRORCOUNT.c ****     ERRORCOUNT_CONTROL &= ((uint8)(~ERRORCOUNT_CTRL_CMPMODE_MASK));
 513:.\Generated_Source\PSoC4/ERRORCOUNT.c ****     
 514:.\Generated_Source\PSoC4/ERRORCOUNT.c ****     /* Write the new setting */
 515:.\Generated_Source\PSoC4/ERRORCOUNT.c ****     ERRORCOUNT_CONTROL |= compareMode;
 516:.\Generated_Source\PSoC4/ERRORCOUNT.c **** }
 517:.\Generated_Source\PSoC4/ERRORCOUNT.c **** #endif  /* (ERRORCOUNT_COMPARE_MODE_SOFTWARE) */
 518:.\Generated_Source\PSoC4/ERRORCOUNT.c **** 
 519:.\Generated_Source\PSoC4/ERRORCOUNT.c **** 
 520:.\Generated_Source\PSoC4/ERRORCOUNT.c **** #if (ERRORCOUNT_CAPTURE_MODE_SOFTWARE)
 521:.\Generated_Source\PSoC4/ERRORCOUNT.c **** /*******************************************************************************
 522:.\Generated_Source\PSoC4/ERRORCOUNT.c **** * Function Name: ERRORCOUNT_SetCaptureMode
 523:.\Generated_Source\PSoC4/ERRORCOUNT.c **** ********************************************************************************
 524:.\Generated_Source\PSoC4/ERRORCOUNT.c **** * Summary:
 525:.\Generated_Source\PSoC4/ERRORCOUNT.c **** *  Sets the software controlled Capture Mode.
 526:.\Generated_Source\PSoC4/ERRORCOUNT.c **** *
 527:.\Generated_Source\PSoC4/ERRORCOUNT.c **** * Parameters:
 528:.\Generated_Source\PSoC4/ERRORCOUNT.c **** *  captureMode:  Capture Mode Enumerated Type.
 529:.\Generated_Source\PSoC4/ERRORCOUNT.c **** *
 530:.\Generated_Source\PSoC4/ERRORCOUNT.c **** * Return:
 531:.\Generated_Source\PSoC4/ERRORCOUNT.c **** *  void
 532:.\Generated_Source\PSoC4/ERRORCOUNT.c **** *
 533:.\Generated_Source\PSoC4/ERRORCOUNT.c **** *******************************************************************************/
 534:.\Generated_Source\PSoC4/ERRORCOUNT.c **** void ERRORCOUNT_SetCaptureMode(uint8 captureMode) 
 535:.\Generated_Source\PSoC4/ERRORCOUNT.c **** {
 536:.\Generated_Source\PSoC4/ERRORCOUNT.c ****     /* Clear the capture mode bits in the control register */
 537:.\Generated_Source\PSoC4/ERRORCOUNT.c ****     ERRORCOUNT_CONTROL &= ((uint8)(~ERRORCOUNT_CTRL_CAPMODE_MASK));
 538:.\Generated_Source\PSoC4/ERRORCOUNT.c ****     
 539:.\Generated_Source\PSoC4/ERRORCOUNT.c ****     /* Write the new setting */
 540:.\Generated_Source\PSoC4/ERRORCOUNT.c ****     ERRORCOUNT_CONTROL |= ((uint8)((uint8)captureMode << ERRORCOUNT_CTRL_CAPMODE0_SHIFT));
 541:.\Generated_Source\PSoC4/ERRORCOUNT.c **** }
 542:.\Generated_Source\PSoC4/ERRORCOUNT.c **** #endif  /* (ERRORCOUNT_CAPTURE_MODE_SOFTWARE) */
 543:.\Generated_Source\PSoC4/ERRORCOUNT.c **** 
 544:.\Generated_Source\PSoC4/ERRORCOUNT.c **** 
 545:.\Generated_Source\PSoC4/ERRORCOUNT.c **** /*******************************************************************************
 546:.\Generated_Source\PSoC4/ERRORCOUNT.c **** * Function Name: ERRORCOUNT_ClearFIFO
 547:.\Generated_Source\PSoC4/ERRORCOUNT.c **** ********************************************************************************
 548:.\Generated_Source\PSoC4/ERRORCOUNT.c **** * Summary:
 549:.\Generated_Source\PSoC4/ERRORCOUNT.c **** *   This function clears all capture data from the capture FIFO
 550:.\Generated_Source\PSoC4/ERRORCOUNT.c **** *
 551:.\Generated_Source\PSoC4/ERRORCOUNT.c **** * Parameters:  
 552:.\Generated_Source\PSoC4/ERRORCOUNT.c **** *  void:
 553:.\Generated_Source\PSoC4/ERRORCOUNT.c **** *
 554:.\Generated_Source\PSoC4/ERRORCOUNT.c **** * Return: 
 555:.\Generated_Source\PSoC4/ERRORCOUNT.c **** *  None
 556:.\Generated_Source\PSoC4/ERRORCOUNT.c **** *
 557:.\Generated_Source\PSoC4/ERRORCOUNT.c **** *******************************************************************************/
 558:.\Generated_Source\PSoC4/ERRORCOUNT.c **** void ERRORCOUNT_ClearFIFO(void) 
 559:.\Generated_Source\PSoC4/ERRORCOUNT.c **** {
 346              		.loc 1 559 0
 347              		.cfi_startproc
 348 0000 08B5     		push	{r3, lr}
 349              		.cfi_def_cfa_offset 8
 350              		.cfi_offset 3, -8
 351              		.cfi_offset 14, -4
 560:.\Generated_Source\PSoC4/ERRORCOUNT.c **** 
 561:.\Generated_Source\PSoC4/ERRORCOUNT.c ****     while(0u != (ERRORCOUNT_ReadStatusRegister() & ERRORCOUNT_STATUS_FIFONEMP))
ARM GAS  C:\Users\g\AppData\Local\Temp\cczq2svs.s 			page 17


 352              		.loc 1 561 0
 353 0002 01E0     		b	.L41
 354              	.L42:
 562:.\Generated_Source\PSoC4/ERRORCOUNT.c ****     {
 563:.\Generated_Source\PSoC4/ERRORCOUNT.c ****         (void)ERRORCOUNT_ReadCapture();
 355              		.loc 1 563 0
 356 0004 FFF7FEFF 		bl	ERRORCOUNT_ReadCapture
 357              	.LVL5:
 358              	.L41:
 561:.\Generated_Source\PSoC4/ERRORCOUNT.c ****     {
 359              		.loc 1 561 0
 360 0008 FFF7FEFF 		bl	ERRORCOUNT_ReadStatusRegister
 361              	.LVL6:
 362 000c 4306     		lsl	r3, r0, #25
 363 000e F9D4     		bmi	.L42
 564:.\Generated_Source\PSoC4/ERRORCOUNT.c ****     }
 565:.\Generated_Source\PSoC4/ERRORCOUNT.c **** 
 566:.\Generated_Source\PSoC4/ERRORCOUNT.c **** }
 364              		.loc 1 566 0
 365              		@ sp needed
 366 0010 08BD     		pop	{r3, pc}
 367              		.cfi_endproc
 368              	.LFE15:
 369              		.size	ERRORCOUNT_ClearFIFO, .-ERRORCOUNT_ClearFIFO
 370 0012 C046     		.section	.text.ERRORCOUNT_Init,"ax",%progbits
 371              		.align	2
 372              		.global	ERRORCOUNT_Init
 373              		.code	16
 374              		.thumb_func
 375              		.type	ERRORCOUNT_Init, %function
 376              	ERRORCOUNT_Init:
 377              	.LFB0:
  38:.\Generated_Source\PSoC4/ERRORCOUNT.c ****         #if (!ERRORCOUNT_UsingFixedFunction && !ERRORCOUNT_ControlRegRemoved)
 378              		.loc 1 38 0
 379              		.cfi_startproc
 380 0000 10B5     		push	{r4, lr}
 381              		.cfi_def_cfa_offset 8
 382              		.cfi_offset 4, -8
 383              		.cfi_offset 14, -4
  79:.\Generated_Source\PSoC4/ERRORCOUNT.c ****             ERRORCOUNT_CONTROL = ctrl | ERRORCOUNT_DEFAULT_COMPARE_MODE;
 384              		.loc 1 79 0
 385 0002 134B     		ldr	r3, .L44
 386 0004 1A78     		ldrb	r2, [r3]
 387 0006 0721     		mov	r1, #7
 388 0008 8A43     		bic	r2, r1
 389              	.LVL7:
  80:.\Generated_Source\PSoC4/ERRORCOUNT.c ****             
 390              		.loc 1 80 0
 391 000a 0639     		sub	r1, r1, #6
 392 000c 0A43     		orr	r2, r1
 393              	.LVL8:
 394 000e 1A70     		strb	r2, [r3]
  83:.\Generated_Source\PSoC4/ERRORCOUNT.c ****             
 395              		.loc 1 83 0
 396 0010 1A78     		ldrb	r2, [r3]
 397 0012 0231     		add	r1, r1, #2
 398 0014 8A43     		bic	r2, r1
ARM GAS  C:\Users\g\AppData\Local\Temp\cczq2svs.s 			page 18


 399              	.LVL9:
  88:.\Generated_Source\PSoC4/ERRORCOUNT.c ****             #endif /* 0 != ERRORCOUNT_CAPTURE_MODE */ 
 400              		.loc 1 88 0
 401 0016 1A70     		strb	r2, [r3]
  96:.\Generated_Source\PSoC4/ERRORCOUNT.c ****         #endif /* (!ERRORCOUNT_UsingFixedFunction) */
 402              		.loc 1 96 0
 403 0018 FFF7FEFF 		bl	ERRORCOUNT_ClearFIFO
 404              	.LVL10:
 100:.\Generated_Source\PSoC4/ERRORCOUNT.c ****         #if (!(ERRORCOUNT_UsingFixedFunction && (CY_PSOC5A)))
 405              		.loc 1 100 0
 406 001c 0D4C     		ldr	r4, .L44+4
 407 001e 201C     		mov	r0, r4
 408 0020 FFF7FEFF 		bl	ERRORCOUNT_WritePeriod
 409              	.LVL11:
 102:.\Generated_Source\PSoC4/ERRORCOUNT.c ****         #endif /* (!(ERRORCOUNT_UsingFixedFunction && (CY_PSOC5A))) */
 410              		.loc 1 102 0
 411 0024 201C     		mov	r0, r4
 412 0026 FFF7FEFF 		bl	ERRORCOUNT_WriteCounter
 413              	.LVL12:
 104:.\Generated_Source\PSoC4/ERRORCOUNT.c ****         
 414              		.loc 1 104 0
 415 002a 0020     		mov	r0, #0
 416 002c FFF7FEFF 		bl	ERRORCOUNT_SetInterruptMode
 417              	.LVL13:
 108:.\Generated_Source\PSoC4/ERRORCOUNT.c ****             /* Set the compare value (only available to non-fixed function implementation */
 418              		.loc 1 108 0
 419 0030 FFF7FEFF 		bl	ERRORCOUNT_ReadStatusRegister
 420              	.LVL14:
 110:.\Generated_Source\PSoC4/ERRORCOUNT.c ****             /* Use the interrupt output of the status register for IRQ output */
 421              		.loc 1 110 0
 422 0034 8020     		mov	r0, #128
 423 0036 FFF7FEFF 		bl	ERRORCOUNT_WriteCompare
 424              	.LVL15:
 115:.\Generated_Source\PSoC4/ERRORCOUNT.c ****             
 425              		.loc 1 115 0
 426 003a FFF7FEFF 		bl	CyEnterCriticalSection
 427              	.LVL16:
 117:.\Generated_Source\PSoC4/ERRORCOUNT.c ****             
 428              		.loc 1 117 0
 429 003e 064A     		ldr	r2, .L44+8
 430 0040 1178     		ldrb	r1, [r2]
 431 0042 1023     		mov	r3, #16
 432 0044 0B43     		orr	r3, r1
 433 0046 1370     		strb	r3, [r2]
 120:.\Generated_Source\PSoC4/ERRORCOUNT.c ****             
 434              		.loc 1 120 0
 435 0048 FFF7FEFF 		bl	CyExitCriticalSection
 436              	.LVL17:
 123:.\Generated_Source\PSoC4/ERRORCOUNT.c **** 
 437              		.loc 1 123 0
 438              		@ sp needed
 439 004c 10BD     		pop	{r4, pc}
 440              	.L45:
 441 004e C046     		.align	2
 442              	.L44:
 443 0050 70000F40 		.word	1074724976
 444 0054 88130000 		.word	5000
ARM GAS  C:\Users\g\AppData\Local\Temp\cczq2svs.s 			page 19


 445 0058 92000F40 		.word	1074725010
 446              		.cfi_endproc
 447              	.LFE0:
 448              		.size	ERRORCOUNT_Init, .-ERRORCOUNT_Init
 449              		.section	.text.ERRORCOUNT_Start,"ax",%progbits
 450              		.align	2
 451              		.global	ERRORCOUNT_Start
 452              		.code	16
 453              		.thumb_func
 454              		.type	ERRORCOUNT_Start, %function
 455              	ERRORCOUNT_Start:
 456              	.LFB2:
 179:.\Generated_Source\PSoC4/ERRORCOUNT.c ****     if(ERRORCOUNT_initVar == 0u)
 457              		.loc 1 179 0
 458              		.cfi_startproc
 459 0000 08B5     		push	{r3, lr}
 460              		.cfi_def_cfa_offset 8
 461              		.cfi_offset 3, -8
 462              		.cfi_offset 14, -4
 180:.\Generated_Source\PSoC4/ERRORCOUNT.c ****     {
 463              		.loc 1 180 0
 464 0002 064B     		ldr	r3, .L48
 465 0004 1B78     		ldrb	r3, [r3]
 466 0006 002B     		cmp	r3, #0
 467 0008 04D1     		bne	.L47
 182:.\Generated_Source\PSoC4/ERRORCOUNT.c ****         
 468              		.loc 1 182 0
 469 000a FFF7FEFF 		bl	ERRORCOUNT_Init
 470              	.LVL18:
 184:.\Generated_Source\PSoC4/ERRORCOUNT.c ****     }
 471              		.loc 1 184 0
 472 000e 0122     		mov	r2, #1
 473 0010 024B     		ldr	r3, .L48
 474 0012 1A70     		strb	r2, [r3]
 475              	.L47:
 188:.\Generated_Source\PSoC4/ERRORCOUNT.c **** }
 476              		.loc 1 188 0
 477 0014 FFF7FEFF 		bl	ERRORCOUNT_Enable
 478              	.LVL19:
 189:.\Generated_Source\PSoC4/ERRORCOUNT.c **** 
 479              		.loc 1 189 0
 480              		@ sp needed
 481 0018 08BD     		pop	{r3, pc}
 482              	.L49:
 483 001a C046     		.align	2
 484              	.L48:
 485 001c 00000000 		.word	.LANCHOR0
 486              		.cfi_endproc
 487              	.LFE2:
 488              		.size	ERRORCOUNT_Start, .-ERRORCOUNT_Start
 489              		.global	ERRORCOUNT_initVar
 490              		.bss
 491              		.set	.LANCHOR0,. + 0
 492              		.type	ERRORCOUNT_initVar, %object
 493              		.size	ERRORCOUNT_initVar, 1
 494              	ERRORCOUNT_initVar:
 495 0000 00       		.space	1
ARM GAS  C:\Users\g\AppData\Local\Temp\cczq2svs.s 			page 20


 496              		.text
 497              	.Letext0:
 498              		.file 2 ".\\Generated_Source\\PSoC4\\cytypes.h"
 499              		.file 3 ".\\Generated_Source\\PSoC4\\CyLib.h"