ARM GAS  C:\Users\g\AppData\Local\Temp\cc93WOE4.s 			page 1


   1              		.cpu cortex-m0
   2              		.fpu softvfp
   3              		.eabi_attribute 20, 1
   4              		.eabi_attribute 21, 1
   5              		.eabi_attribute 23, 3
   6              		.eabi_attribute 24, 1
   7              		.eabi_attribute 25, 1
   8              		.eabi_attribute 26, 1
   9              		.eabi_attribute 30, 2
  10              		.eabi_attribute 34, 0
  11              		.eabi_attribute 18, 4
  12              		.code	16
  13              		.file	"main.c"
  14              		.text
  15              	.Ltext0:
  16              		.cfi_sections	.debug_frame
  17              		.section	.text.transmitUpdate,"ax",%progbits
  18              		.align	2
  19              		.global	transmitUpdate
  20              		.code	16
  21              		.thumb_func
  22              		.type	transmitUpdate, %function
  23              	transmitUpdate:
  24              	.LFB38:
  25              		.file 1 ".\\main.c"
   1:.\main.c      **** /* ========================================
   2:.\main.c      **** 
   3:.\main.c      ****     current[mA]=1000*millivolts/(20*Rsense[ohm])=5*millivolts
   4:.\main.c      ****     current_limit[mA]=40*current_setting
   5:.\main.c      ****     
   6:.\main.c      ****    ======================================== */
   7:.\main.c      ****     
   8:.\main.c      **** #include <project.h>
   9:.\main.c      **** #include <stdlib.h>
  10:.\main.c      **** 
  11:.\main.c      **** //the maximum amount that the integral error is allowed to grow
  12:.\main.c      **** //change to reduce or increase the integral term effect on the system
  13:.\main.c      **** #define ERROR_INTEGRAL_MAX      10000
  14:.\main.c      **** //maximum output value for current limiting PI control loop
  15:.\main.c      **** //do not change this one
  16:.\main.c      **** #define DUTY_REDUCE_MAX         4094
  17:.\main.c      **** //how many encoder counts per step pulse
  18:.\main.c      **** #define SET_POINT_MULTIPLIER    1
  19:.\main.c      **** //number of cpu cycles the motor has to reach the desired position afeter each step pulse
  20:.\main.c      **** #define TIMEOUT                 20000
  21:.\main.c      **** 
  22:.\main.c      **** int fast_itoa(char a_string[7], int16_t a_number) {
  23:.\main.c      ****     if(a_number<0) {
  24:.\main.c      ****         a_string[0]='-';
  25:.\main.c      ****         a_number=-a_number;
  26:.\main.c      ****     }
  27:.\main.c      ****     else a_string[0]='0';
  28:.\main.c      ****     a_string[1]=0;
  29:.\main.c      ****     while(a_number>=10000) {
  30:.\main.c      ****         a_number-=10000;
  31:.\main.c      ****         a_string[1]++;
  32:.\main.c      ****     }
ARM GAS  C:\Users\g\AppData\Local\Temp\cc93WOE4.s 			page 2


  33:.\main.c      ****     a_string[2]=0;
  34:.\main.c      ****     while(a_number>=1000) {
  35:.\main.c      ****         a_number-=1000;
  36:.\main.c      ****         a_string[2]++;
  37:.\main.c      ****     }
  38:.\main.c      ****     a_string[3]=0;
  39:.\main.c      ****     while(a_number>=100) {
  40:.\main.c      ****         a_number-=100;
  41:.\main.c      ****         a_string[3]++;
  42:.\main.c      ****     }
  43:.\main.c      ****     a_string[4]=0;
  44:.\main.c      ****     while(a_number>=10) {
  45:.\main.c      ****         a_number-=10;
  46:.\main.c      ****         a_string[4]++;
  47:.\main.c      ****     }
  48:.\main.c      ****     a_string[5]=a_number;
  49:.\main.c      ****     a_string[6]='\0';
  50:.\main.c      ****     
  51:.\main.c      ****     for(int i=1; i<6; i++) a_string[i]+=48;
  52:.\main.c      ****     
  53:.\main.c      ****     return 1;
  54:.\main.c      **** }
  55:.\main.c      **** 
  56:.\main.c      **** CY_ISR_PROTO(stepCount);
  57:.\main.c      **** CY_ISR_PROTO(uartReceive);
  58:.\main.c      **** CY_ISR_PROTO(transmitUpdate);
  59:.\main.c      **** 
  60:.\main.c      **** //error counter
  61:.\main.c      **** volatile int32_t set_point;
  62:.\main.c      **** //cycle counter for motor power timeout
  63:.\main.c      **** volatile uint16_t timeout_counter;
  64:.\main.c      **** //uart buffer
  65:.\main.c      **** volatile uint8_t command_ready, command_index, transmit_ready;
  66:.\main.c      **** volatile char command_parser[6];
  67:.\main.c      **** 
  68:.\main.c      **** 
  69:.\main.c      **** 
  70:.\main.c      **** int main() {
  71:.\main.c      **** 
  72:.\main.c      ****     int16_t error=0, error_integral=0, error_derivative=0, error_at_timeout=0, millivolts=0, duty_r
  73:.\main.c      ****     int32_t output=0, process_variable=0, process_variable_prev=0;
  74:.\main.c      ****     uint8_t motor_shutdown=0, timeout_flag=0;
  75:.\main.c      ****     
  76:.\main.c      ****     //emulated EEPROM 
  77:.\main.c      ****     static const CYCODE uint8_t kp=50, ki=10, kd=00, current_setting=60, invert_motor=0, ferror=50,
  78:.\main.c      ****     //pointers to respective EEPROM addresses
  79:.\main.c      ****     volatile const uint8_t *eeprom_kp, *eeprom_ki, *eeprom_kd, *eeprom_current_setting, *eeprom_inv
  80:.\main.c      **** 
  81:.\main.c      ****     //UART data
  82:.\main.c      ****     uint8_t command_value=0;
  83:.\main.c      ****     char command_type='z';
  84:.\main.c      ****     char command_local[5], current_tx[7], error_tx[7];
  85:.\main.c      ****     
  86:.\main.c      ****     //"board powered" signal
  87:.\main.c      ****     vin_Write(1);
  88:.\main.c      ****     //
  89:.\main.c      ****     QDEC_Start();
ARM GAS  C:\Users\g\AppData\Local\Temp\cc93WOE4.s 			page 3


  90:.\main.c      ****     //192008N1
  91:.\main.c      ****     UART_Start();
  92:.\main.c      ****     //12-bit resolution. In phase with PWM_MOT
  93:.\main.c      ****     ADC_Start();
  94:.\main.c      ****     //UART transmit period timer (curently 100 transmissions per second)
  95:.\main.c      ****     TX_SEND_Start();
  96:.\main.c      ****     //Just the EEPROM...
  97:.\main.c      ****     EEPROM_Start();
  98:.\main.c      ****     //prepare gate driver for operation.  12-bit 6 kHz PWM
  99:.\main.c      ****     sleep_Write(1);
 100:.\main.c      ****     PWM_MOT_Start();
 101:.\main.c      ****     
 102:.\main.c      ****     //ISRs go here
 103:.\main.c      ****     rxISR_StartEx(uartReceive);
 104:.\main.c      ****     txISR_StartEx(transmitUpdate);
 105:.\main.c      ****     stepISR_StartEx(stepCount);
 106:.\main.c      ****     
 107:.\main.c      ****     //store respective EEPROM addresses for future read operations
 108:.\main.c      ****     eeprom_kp=&kp;
 109:.\main.c      ****     eeprom_ki=&ki;
 110:.\main.c      ****     eeprom_kd=&kd;
 111:.\main.c      ****     eeprom_current_setting=&current_setting;
 112:.\main.c      ****     eeprom_invert_motor=&invert_motor;
 113:.\main.c      ****     eeprom_ferror=&ferror;
 114:.\main.c      ****     eeprom_uart_data=&uart_data;
 115:.\main.c      ****     
 116:.\main.c      ****     // Enable global interrupts
 117:.\main.c      ****     CyGlobalIntEnable;
 118:.\main.c      ****     
 119:.\main.c      ****     for(;;) {
 120:.\main.c      ****         
 121:.\main.c      ****         //follwing error exceeded
 122:.\main.c      ****         //prevents motor runaway when encoder count direction is backwards and rises an alarm when 
 123:.\main.c      ****         if(error>*eeprom_ferror || error<-*eeprom_ferror) {
 124:.\main.c      ****             error_Write(0);
 125:.\main.c      ****             err_Write(1);
 126:.\main.c      ****         }
 127:.\main.c      ****         //if no new step pulse is received for a number of cycles, shut down the motor, until a new
 128:.\main.c      ****         else {
 129:.\main.c      ****             if(timeout_counter<TIMEOUT) {
 130:.\main.c      ****                 timeout_counter++;
 131:.\main.c      ****                 timeout_flag=0;
 132:.\main.c      ****                 motor_shutdown=0;
 133:.\main.c      ****             }
 134:.\main.c      ****             else {
 135:.\main.c      ****                 if(timeout_flag==0) {
 136:.\main.c      ****                     error_at_timeout=error;
 137:.\main.c      ****                     timeout_flag=1;
 138:.\main.c      ****                     motor_shutdown=1;
 139:.\main.c      ****                 }
 140:.\main.c      ****                 if(error_at_timeout-error>2 || error_at_timeout-error<-2) timeout_counter=0;
 141:.\main.c      ****             }
 142:.\main.c      ****         }
 143:.\main.c      ****         
 144:.\main.c      ****         //gate driver error
 145:.\main.c      ****         //undervoltage, undercurrent or overtemperature
 146:.\main.c      ****         if(fault_Read()==0) {}
ARM GAS  C:\Users\g\AppData\Local\Temp\cc93WOE4.s 			page 4


 147:.\main.c      ****         if(ovc_Read()==0) {}
 148:.\main.c      ****         
 149:.\main.c      ****         //reset pin
 150:.\main.c      ****         if(reset_Read()==0) {
 151:.\main.c      ****             motor_shutdown=1;
 152:.\main.c      ****         }
 153:.\main.c      ****         
 154:.\main.c      ****          //current limiting PI control loop
 155:.\main.c      ****         millivolts=(ADC_GetResult16(0)>>1);
 156:.\main.c      ****         duty_reduce+=((millivolts-(*eeprom_current_setting<<3))>>3);
 157:.\main.c      ****         if(duty_reduce>DUTY_REDUCE_MAX) duty_reduce=DUTY_REDUCE_MAX;
 158:.\main.c      ****         else if(duty_reduce<0) duty_reduce=0;
 159:.\main.c      ****         
 160:.\main.c      ****         //calculate error
 161:.\main.c      ****         process_variable=QDEC_GetCounter();
 162:.\main.c      ****         error=set_point-process_variable;
 163:.\main.c      ****         //calculate change in process variable to prevent derivative kickback
 164:.\main.c      ****         error_derivative=process_variable-process_variable_prev;
 165:.\main.c      ****         process_variable_prev=process_variable;
 166:.\main.c      ****         //sum of errors over time
 167:.\main.c      ****         error_integral+=error;
 168:.\main.c      ****         //limit integral error
 169:.\main.c      ****         if(error_integral>ERROR_INTEGRAL_MAX) error_integral=ERROR_INTEGRAL_MAX;
 170:.\main.c      ****         else if(error_integral<-ERROR_INTEGRAL_MAX) error_integral=-ERROR_INTEGRAL_MAX;
 171:.\main.c      ****         
 172:.\main.c      ****         //output value calculation and constraining
 173:.\main.c      ****         output=(*eeprom_kp*error)+((*eeprom_ki*error_integral)>>10)-(*eeprom_kd*error_derivative);
 174:.\main.c      ****         if(*eeprom_invert_motor) {
 175:.\main.c      ****             if(output>=0) phase_Write(1);
 176:.\main.c      ****             else {
 177:.\main.c      ****                 output=-output;
 178:.\main.c      ****                 phase_Write(0);
 179:.\main.c      ****             }
 180:.\main.c      ****         }
 181:.\main.c      ****         else {
 182:.\main.c      ****             if(output>=0) phase_Write(0);
 183:.\main.c      ****             else {
 184:.\main.c      ****                 output=-output;
 185:.\main.c      ****                 phase_Write(1);
 186:.\main.c      ****             }
 187:.\main.c      ****         }
 188:.\main.c      ****         if(output>4095) output=4095;
 189:.\main.c      ****         output-=duty_reduce;
 190:.\main.c      ****         if(output<1) output=1;
 191:.\main.c      ****         if(motor_shutdown) PWM_MOT_WriteCompare(1);
 192:.\main.c      ****         else PWM_MOT_WriteCompare(output);
 193:.\main.c      ****         
 194:.\main.c      ****         
 195:.\main.c      ****         //parse UART data. Do not use numbers as condition for the switch
 196:.\main.c      ****         if(command_ready==1) {
 197:.\main.c      ****             command_type=command_parser[0];
 198:.\main.c      ****             for(int i=0; i<5; i++) command_local[i]=command_parser[i+1];
 199:.\main.c      ****             command_value=atoi(command_local);
 200:.\main.c      ****             switch(command_type) {
 201:.\main.c      ****                 //PID coefficients
 202:.\main.c      ****                 case 'p':
 203:.\main.c      ****                     EEPROM_Write(&command_value, &kp, 1);
ARM GAS  C:\Users\g\AppData\Local\Temp\cc93WOE4.s 			page 5


 204:.\main.c      ****                 break;
 205:.\main.c      ****                 case 'i':
 206:.\main.c      ****                     EEPROM_Write(&command_value, &ki, 1);
 207:.\main.c      ****                 break;
 208:.\main.c      ****                 case 'd':
 209:.\main.c      ****                     EEPROM_Write(&command_value, &kd, 1);
 210:.\main.c      ****                 break;
 211:.\main.c      ****                 //currernt limit value
 212:.\main.c      ****                 case 'c':
 213:.\main.c      ****                     EEPROM_Write(&command_value, &current_setting, 1);
 214:.\main.c      ****                 break;
 215:.\main.c      ****                 //motor direction of rotation flag
 216:.\main.c      ****                 case 'r':
 217:.\main.c      ****                     EEPROM_Write(&command_value, &invert_motor, 1);
 218:.\main.c      ****                 break;
 219:.\main.c      ****                 //maximum allowable following error
 220:.\main.c      ****                 case 'f':
 221:.\main.c      ****                     EEPROM_Write(&command_value, &ferror, 1);
 222:.\main.c      ****                 break;
 223:.\main.c      ****                 //transmit diagnostic data flag
 224:.\main.c      ****                 case 'u':
 225:.\main.c      ****                     EEPROM_Write(&command_value, &uart_data, 1);
 226:.\main.c      ****                 break;
 227:.\main.c      ****                 //move motor
 228:.\main.c      ****                 case '+':
 229:.\main.c      ****                     error+=command_value;
 230:.\main.c      ****                 break;
 231:.\main.c      ****                 case '-':
 232:.\main.c      ****                     error-=command_value;
 233:.\main.c      ****                 break;
 234:.\main.c      ****             }
 235:.\main.c      ****             command_ready=0;
 236:.\main.c      ****         }
 237:.\main.c      ****         
 238:.\main.c      ****         //prepare UART strings
 239:.\main.c      ****         //fast_itoa(current_tx, 5*millivolts);
 240:.\main.c      ****         fast_itoa(error_tx, error+4000);
 241:.\main.c      ****         
 242:.\main.c      ****         //string transmission begins with '$' and ends with ';'
 243:.\main.c      ****         //insert a ' ' between each string
 244:.\main.c      ****         if(transmit_ready) {
 245:.\main.c      ****             if(*eeprom_uart_data) {
 246:.\main.c      ****                 UART_UartPutChar('$');
 247:.\main.c      ****                 //transmit error value
 248:.\main.c      ****                 UART_UartPutString(error_tx);
 249:.\main.c      ****                 UART_UartPutChar(' ');
 250:.\main.c      ****                 //transmit current value
 251:.\main.c      ****                 UART_UartPutString(current_tx);
 252:.\main.c      ****                 UART_UartPutChar(';');
 253:.\main.c      ****                 transmit_ready=0;
 254:.\main.c      ****             }
 255:.\main.c      ****         }
 256:.\main.c      ****                 
 257:.\main.c      ****     }
 258:.\main.c      **** }
 259:.\main.c      **** 
 260:.\main.c      **** //read step/dir input
ARM GAS  C:\Users\g\AppData\Local\Temp\cc93WOE4.s 			page 6


 261:.\main.c      **** CY_ISR(stepCount) {
 262:.\main.c      ****     timeout_counter=0;
 263:.\main.c      ****     if (direction_Read()) {
 264:.\main.c      ****         set_point+=SET_POINT_MULTIPLIER;
 265:.\main.c      ****     }
 266:.\main.c      ****     else {
 267:.\main.c      ****         set_point-=SET_POINT_MULTIPLIER;
 268:.\main.c      ****     }
 269:.\main.c      ****     step_ClearInterrupt();
 270:.\main.c      **** }
 271:.\main.c      **** 
 272:.\main.c      **** //write to uart buffer
 273:.\main.c      **** CY_ISR(uartReceive) {
 274:.\main.c      ****     command_parser[command_index]=UART_UartGetChar();
 275:.\main.c      ****     if(command_parser[command_index]!=';') {
 276:.\main.c      ****         command_index++;
 277:.\main.c      ****         command_ready=0;
 278:.\main.c      ****     }
 279:.\main.c      ****     else {
 280:.\main.c      ****         command_index=0;
 281:.\main.c      ****         command_ready=1;
 282:.\main.c      ****     }
 283:.\main.c      ****     UART_ClearRxInterruptSource(UART_INTR_RX_NOT_EMPTY);
 284:.\main.c      **** }
 285:.\main.c      **** 
 286:.\main.c      **** //set UART transmission allowed flag
 287:.\main.c      **** CY_ISR(transmitUpdate) {
  26              		.loc 1 287 0
  27              		.cfi_startproc
 288:.\main.c      ****     transmit_ready=1;
  28              		.loc 1 288 0
  29 0000 0122     		mov	r2, #1
  30 0002 014B     		ldr	r3, .L2
 289:.\main.c      **** }
  31              		.loc 1 289 0
  32              		@ sp needed
 288:.\main.c      ****     transmit_ready=1;
  33              		.loc 1 288 0
  34 0004 1A70     		strb	r2, [r3]
  35              		.loc 1 289 0
  36 0006 7047     		bx	lr
  37              	.L3:
  38              		.align	2
  39              	.L2:
  40 0008 00000000 		.word	transmit_ready
  41              		.cfi_endproc
  42              	.LFE38:
  43              		.size	transmitUpdate, .-transmitUpdate
  44              		.section	.text.stepCount,"ax",%progbits
  45              		.align	2
  46              		.global	stepCount
  47              		.code	16
  48              		.thumb_func
  49              		.type	stepCount, %function
  50              	stepCount:
  51              	.LFB36:
 261:.\main.c      ****     timeout_counter=0;
ARM GAS  C:\Users\g\AppData\Local\Temp\cc93WOE4.s 			page 7


  52              		.loc 1 261 0
  53              		.cfi_startproc
 262:.\main.c      ****     if (direction_Read()) {
  54              		.loc 1 262 0
  55 0000 0022     		mov	r2, #0
 261:.\main.c      ****     timeout_counter=0;
  56              		.loc 1 261 0
  57 0002 08B5     		push	{r3, lr}
  58              		.cfi_def_cfa_offset 8
  59              		.cfi_offset 3, -8
  60              		.cfi_offset 14, -4
 262:.\main.c      ****     if (direction_Read()) {
  61              		.loc 1 262 0
  62 0004 074B     		ldr	r3, .L9
  63 0006 1A80     		strh	r2, [r3]
 263:.\main.c      ****         set_point+=SET_POINT_MULTIPLIER;
  64              		.loc 1 263 0
  65 0008 FFF7FEFF 		bl	direction_Read
  66              	.LVL0:
 264:.\main.c      ****     }
  67              		.loc 1 264 0
  68 000c 064A     		ldr	r2, .L9+4
  69 000e 1368     		ldr	r3, [r2]
 263:.\main.c      ****         set_point+=SET_POINT_MULTIPLIER;
  70              		.loc 1 263 0
  71 0010 0028     		cmp	r0, #0
  72 0012 04D1     		bne	.L8
 267:.\main.c      ****     }
  73              		.loc 1 267 0
  74 0014 013B     		sub	r3, r3, #1
  75 0016 1360     		str	r3, [r2]
  76              	.L6:
 269:.\main.c      **** }
  77              		.loc 1 269 0
  78 0018 FFF7FEFF 		bl	step_ClearInterrupt
  79              	.LVL1:
 270:.\main.c      **** 
  80              		.loc 1 270 0
  81              		@ sp needed
  82 001c 08BD     		pop	{r3, pc}
  83              	.L8:
 264:.\main.c      ****     }
  84              		.loc 1 264 0
  85 001e 0133     		add	r3, r3, #1
  86 0020 1360     		str	r3, [r2]
  87 0022 F9E7     		b	.L6
  88              	.L10:
  89              		.align	2
  90              	.L9:
  91 0024 00000000 		.word	timeout_counter
  92 0028 00000000 		.word	set_point
  93              		.cfi_endproc
  94              	.LFE36:
  95              		.size	stepCount, .-stepCount
  96              		.section	.text.uartReceive,"ax",%progbits
  97              		.align	2
  98              		.global	uartReceive
ARM GAS  C:\Users\g\AppData\Local\Temp\cc93WOE4.s 			page 8


  99              		.code	16
 100              		.thumb_func
 101              		.type	uartReceive, %function
 102              	uartReceive:
 103              	.LFB37:
 273:.\main.c      ****     command_parser[command_index]=UART_UartGetChar();
 104              		.loc 1 273 0
 105              		.cfi_startproc
 106 0000 38B5     		push	{r3, r4, r5, lr}
 107              		.cfi_def_cfa_offset 16
 108              		.cfi_offset 3, -16
 109              		.cfi_offset 4, -12
 110              		.cfi_offset 5, -8
 111              		.cfi_offset 14, -4
 274:.\main.c      ****     if(command_parser[command_index]!=';') {
 112              		.loc 1 274 0
 113 0002 0F4C     		ldr	r4, .L14
 114 0004 2578     		ldrb	r5, [r4]
 115 0006 FFF7FEFF 		bl	UART_UartGetChar
 116              	.LVL2:
 117 000a 0E4A     		ldr	r2, .L14+4
 118 000c EDB2     		uxtb	r5, r5
 119 000e C0B2     		uxtb	r0, r0
 120 0010 5055     		strb	r0, [r2, r5]
 275:.\main.c      ****         command_index++;
 121              		.loc 1 275 0
 122 0012 2378     		ldrb	r3, [r4]
 123 0014 DBB2     		uxtb	r3, r3
 124 0016 D35C     		ldrb	r3, [r2, r3]
 125 0018 3B2B     		cmp	r3, #59
 126 001a 0AD0     		beq	.L12
 277:.\main.c      ****     }
 127              		.loc 1 277 0
 128 001c 0022     		mov	r2, #0
 276:.\main.c      ****         command_ready=0;
 129              		.loc 1 276 0
 130 001e 2378     		ldrb	r3, [r4]
 131 0020 0133     		add	r3, r3, #1
 132 0022 DBB2     		uxtb	r3, r3
 133 0024 2370     		strb	r3, [r4]
 277:.\main.c      ****     }
 134              		.loc 1 277 0
 135 0026 084B     		ldr	r3, .L14+8
 136 0028 1A70     		strb	r2, [r3]
 137              	.L13:
 283:.\main.c      **** }
 138              		.loc 1 283 0
 139 002a 0422     		mov	r2, #4
 140 002c 074B     		ldr	r3, .L14+12
 284:.\main.c      **** 
 141              		.loc 1 284 0
 142              		@ sp needed
 283:.\main.c      **** }
 143              		.loc 1 283 0
 144 002e 1A60     		str	r2, [r3]
 284:.\main.c      **** 
 145              		.loc 1 284 0
ARM GAS  C:\Users\g\AppData\Local\Temp\cc93WOE4.s 			page 9


 146 0030 38BD     		pop	{r3, r4, r5, pc}
 147              	.L12:
 280:.\main.c      ****         command_ready=1;
 148              		.loc 1 280 0
 149 0032 0023     		mov	r3, #0
 281:.\main.c      ****     }
 150              		.loc 1 281 0
 151 0034 0122     		mov	r2, #1
 280:.\main.c      ****         command_ready=1;
 152              		.loc 1 280 0
 153 0036 2370     		strb	r3, [r4]
 281:.\main.c      ****     }
 154              		.loc 1 281 0
 155 0038 034B     		ldr	r3, .L14+8
 156 003a 1A70     		strb	r2, [r3]
 157 003c F5E7     		b	.L13
 158              	.L15:
 159 003e C046     		.align	2
 160              	.L14:
 161 0040 00000000 		.word	command_index
 162 0044 00000000 		.word	command_parser
 163 0048 00000000 		.word	command_ready
 164 004c C00F0740 		.word	1074204608
 165              		.cfi_endproc
 166              	.LFE37:
 167              		.size	uartReceive, .-uartReceive
 168              		.section	.text.fast_itoa,"ax",%progbits
 169              		.align	2
 170              		.global	fast_itoa
 171              		.code	16
 172              		.thumb_func
 173              		.type	fast_itoa, %function
 174              	fast_itoa:
 175              	.LFB34:
  22:.\main.c      ****     if(a_number<0) {
 176              		.loc 1 22 0
 177              		.cfi_startproc
 178              	.LVL3:
 179 0000 30B5     		push	{r4, r5, lr}
 180              		.cfi_def_cfa_offset 12
 181              		.cfi_offset 4, -12
 182              		.cfi_offset 5, -8
 183              		.cfi_offset 14, -4
  23:.\main.c      ****         a_string[0]='-';
 184              		.loc 1 23 0
 185 0002 0029     		cmp	r1, #0
 186 0004 50DB     		blt	.L33
  27:.\main.c      ****     a_string[1]=0;
 187              		.loc 1 27 0
 188 0006 3023     		mov	r3, #48
 189 0008 0370     		strb	r3, [r0]
 190              	.L18:
  28:.\main.c      ****     while(a_number>=10000) {
 191              		.loc 1 28 0
 192 000a 0023     		mov	r3, #0
  29:.\main.c      ****         a_number-=10000;
 193              		.loc 1 29 0
ARM GAS  C:\Users\g\AppData\Local\Temp\cc93WOE4.s 			page 10


 194 000c 294D     		ldr	r5, .L34
  28:.\main.c      ****     while(a_number>=10000) {
 195              		.loc 1 28 0
 196 000e 4370     		strb	r3, [r0, #1]
  29:.\main.c      ****         a_number-=10000;
 197              		.loc 1 29 0
 198 0010 A942     		cmp	r1, r5
 199 0012 0CDD     		ble	.L19
 200 0014 0124     		mov	r4, #1
 201 0016 00E0     		b	.L20
 202              	.L28:
 203 0018 141C     		mov	r4, r2
 204              	.L20:
 205 001a 274B     		ldr	r3, .L34+4
 206 001c 621C     		add	r2, r4, #1
 207 001e 9C46     		mov	ip, r3
 208 0020 6144     		add	r1, r1, ip
 209              	.LVL4:
 210 0022 8BB2     		uxth	r3, r1
 211 0024 19B2     		sxth	r1, r3
 212              	.LVL5:
 213 0026 D2B2     		uxtb	r2, r2
 214 0028 AB42     		cmp	r3, r5
 215 002a F5D8     		bhi	.L28
 216 002c 4470     		strb	r4, [r0, #1]
 217              	.L19:
  33:.\main.c      ****     while(a_number>=1000) {
 218              		.loc 1 33 0
 219 002e 0023     		mov	r3, #0
  34:.\main.c      ****         a_number-=1000;
 220              		.loc 1 34 0
 221 0030 224D     		ldr	r5, .L34+8
  33:.\main.c      ****     while(a_number>=1000) {
 222              		.loc 1 33 0
 223 0032 8370     		strb	r3, [r0, #2]
  34:.\main.c      ****         a_number-=1000;
 224              		.loc 1 34 0
 225 0034 A942     		cmp	r1, r5
 226 0036 0CDD     		ble	.L21
 227 0038 0124     		mov	r4, #1
 228 003a 00E0     		b	.L22
 229              	.L29:
 230 003c 141C     		mov	r4, r2
 231              	.L22:
 232 003e 204B     		ldr	r3, .L34+12
 233 0040 621C     		add	r2, r4, #1
 234 0042 9C46     		mov	ip, r3
 235 0044 6144     		add	r1, r1, ip
 236              	.LVL6:
 237 0046 8BB2     		uxth	r3, r1
 238 0048 19B2     		sxth	r1, r3
 239              	.LVL7:
 240 004a D2B2     		uxtb	r2, r2
 241 004c AB42     		cmp	r3, r5
 242 004e F5D8     		bhi	.L29
 243 0050 8470     		strb	r4, [r0, #2]
 244              	.L21:
ARM GAS  C:\Users\g\AppData\Local\Temp\cc93WOE4.s 			page 11


  38:.\main.c      ****     while(a_number>=100) {
 245              		.loc 1 38 0
 246 0052 0023     		mov	r3, #0
 247 0054 C370     		strb	r3, [r0, #3]
  39:.\main.c      ****         a_number-=100;
 248              		.loc 1 39 0
 249 0056 6329     		cmp	r1, #99
 250 0058 0ADD     		ble	.L23
 251 005a 0124     		mov	r4, #1
 252 005c 00E0     		b	.L24
 253              	.L30:
 254 005e 141C     		mov	r4, r2
 255              	.L24:
 256 0060 6439     		sub	r1, r1, #100
 257              	.LVL8:
 258 0062 8BB2     		uxth	r3, r1
 259 0064 621C     		add	r2, r4, #1
 260 0066 19B2     		sxth	r1, r3
 261              	.LVL9:
 262 0068 D2B2     		uxtb	r2, r2
 263 006a 632B     		cmp	r3, #99
 264 006c F7D8     		bhi	.L30
 265 006e C470     		strb	r4, [r0, #3]
 266              	.L23:
  43:.\main.c      ****     while(a_number>=10) {
 267              		.loc 1 43 0
 268 0070 0023     		mov	r3, #0
 269 0072 0371     		strb	r3, [r0, #4]
  44:.\main.c      ****         a_number-=10;
 270              		.loc 1 44 0
 271 0074 0929     		cmp	r1, #9
 272 0076 0ADD     		ble	.L25
 273 0078 0124     		mov	r4, #1
 274 007a 00E0     		b	.L26
 275              	.L31:
 276 007c 141C     		mov	r4, r2
 277              	.L26:
 278 007e 0A39     		sub	r1, r1, #10
 279              	.LVL10:
 280 0080 8BB2     		uxth	r3, r1
 281 0082 621C     		add	r2, r4, #1
 282 0084 19B2     		sxth	r1, r3
 283              	.LVL11:
 284 0086 D2B2     		uxtb	r2, r2
 285 0088 092B     		cmp	r3, #9
 286 008a F7D8     		bhi	.L31
 287 008c 0471     		strb	r4, [r0, #4]
 288              	.L25:
  49:.\main.c      ****     
 289              		.loc 1 49 0
 290 008e 0023     		mov	r3, #0
  48:.\main.c      ****     a_string[6]='\0';
 291              		.loc 1 48 0
 292 0090 4171     		strb	r1, [r0, #5]
  49:.\main.c      ****     
 293              		.loc 1 49 0
 294 0092 8371     		strb	r3, [r0, #6]
ARM GAS  C:\Users\g\AppData\Local\Temp\cc93WOE4.s 			page 12


 295              	.LVL12:
 296 0094 431C     		add	r3, r0, #1
 297 0096 0630     		add	r0, r0, #6
 298              	.LVL13:
 299              	.L27:
 300              	.LBB2:
  51:.\main.c      ****     
 301              		.loc 1 51 0 discriminator 3
 302 0098 1A78     		ldrb	r2, [r3]
 303 009a 3032     		add	r2, r2, #48
 304 009c 1A70     		strb	r2, [r3]
 305              	.LVL14:
 306 009e 0133     		add	r3, r3, #1
 307              	.LVL15:
 308 00a0 8342     		cmp	r3, r0
 309 00a2 F9D1     		bne	.L27
 310              	.LBE2:
  54:.\main.c      **** 
 311              		.loc 1 54 0
 312 00a4 0120     		mov	r0, #1
 313              	.LVL16:
 314              		@ sp needed
 315 00a6 30BD     		pop	{r4, r5, pc}
 316              	.LVL17:
 317              	.L33:
  24:.\main.c      ****         a_number=-a_number;
 318              		.loc 1 24 0
 319 00a8 2D23     		mov	r3, #45
  25:.\main.c      ****     }
 320              		.loc 1 25 0
 321 00aa 4942     		neg	r1, r1
 322              	.LVL18:
  24:.\main.c      ****         a_number=-a_number;
 323              		.loc 1 24 0
 324 00ac 0370     		strb	r3, [r0]
  25:.\main.c      ****     }
 325              		.loc 1 25 0
 326 00ae 09B2     		sxth	r1, r1
 327              	.LVL19:
 328 00b0 ABE7     		b	.L18
 329              	.L35:
 330 00b2 C046     		.align	2
 331              	.L34:
 332 00b4 0F270000 		.word	9999
 333 00b8 F0D8FFFF 		.word	-10000
 334 00bc E7030000 		.word	999
 335 00c0 18FCFFFF 		.word	-1000
 336              		.cfi_endproc
 337              	.LFE34:
 338              		.size	fast_itoa, .-fast_itoa
 339              		.section	.rodata.cst2,"aM",%progbits,2
 340              		.align	1
 341              	.LC24:
 342 0000 FE0F     		.short	4094
 343              		.section	.text.startup.main,"ax",%progbits
 344              		.align	2
 345              		.global	main
ARM GAS  C:\Users\g\AppData\Local\Temp\cc93WOE4.s 			page 13


 346              		.code	16
 347              		.thumb_func
 348              		.type	main, %function
 349              	main:
 350              	.LFB35:
  70:.\main.c      **** 
 351              		.loc 1 70 0
 352              		.cfi_startproc
 353              	.LVL20:
 354 0000 F0B5     		push	{r4, r5, r6, r7, lr}
 355              		.cfi_def_cfa_offset 20
 356              		.cfi_offset 4, -20
 357              		.cfi_offset 5, -16
 358              		.cfi_offset 6, -12
 359              		.cfi_offset 7, -8
 360              		.cfi_offset 14, -4
 361 0002 5F46     		mov	r7, fp
 362 0004 5646     		mov	r6, r10
 363 0006 4D46     		mov	r5, r9
 364 0008 4446     		mov	r4, r8
  82:.\main.c      ****     char command_type='z';
 365              		.loc 1 82 0
 366 000a 0023     		mov	r3, #0
  70:.\main.c      **** 
 367              		.loc 1 70 0
 368 000c F0B4     		push	{r4, r5, r6, r7}
 369              		.cfi_def_cfa_offset 36
 370              		.cfi_offset 8, -36
 371              		.cfi_offset 9, -32
 372              		.cfi_offset 10, -28
 373              		.cfi_offset 11, -24
 374 000e 8FB0     		sub	sp, sp, #60
 375              		.cfi_def_cfa_offset 96
  82:.\main.c      ****     char command_type='z';
 376              		.loc 1 82 0
 377 0010 06AA     		add	r2, sp, #24
  87:.\main.c      ****     //
 378              		.loc 1 87 0
 379 0012 0120     		mov	r0, #1
  82:.\main.c      ****     char command_type='z';
 380              		.loc 1 82 0
 381 0014 D371     		strb	r3, [r2, #7]
 382              	.LVL21:
  87:.\main.c      ****     //
 383              		.loc 1 87 0
 384 0016 FFF7FEFF 		bl	vin_Write
 385              	.LVL22:
  89:.\main.c      ****     //192008N1
 386              		.loc 1 89 0
 387 001a FFF7FEFF 		bl	QDEC_Start
 388              	.LVL23:
  91:.\main.c      ****     //12-bit resolution. In phase with PWM_MOT
 389              		.loc 1 91 0
 390 001e FFF7FEFF 		bl	UART_Start
 391              	.LVL24:
  93:.\main.c      ****     //UART transmit period timer (curently 100 transmissions per second)
 392              		.loc 1 93 0
ARM GAS  C:\Users\g\AppData\Local\Temp\cc93WOE4.s 			page 14


 393 0022 FFF7FEFF 		bl	ADC_Start
 394              	.LVL25:
  95:.\main.c      ****     //Just the EEPROM...
 395              		.loc 1 95 0
 396 0026 FFF7FEFF 		bl	TX_SEND_Start
 397              	.LVL26:
  97:.\main.c      ****     //prepare gate driver for operation.  12-bit 6 kHz PWM
 398              		.loc 1 97 0
 399 002a FFF7FEFF 		bl	EEPROM_Start
 400              	.LVL27:
  99:.\main.c      ****     PWM_MOT_Start();
 401              		.loc 1 99 0
 402 002e 0120     		mov	r0, #1
 403 0030 FFF7FEFF 		bl	sleep_Write
 404              	.LVL28:
 100:.\main.c      ****     
 405              		.loc 1 100 0
 406 0034 FFF7FEFF 		bl	PWM_MOT_Start
 407              	.LVL29:
 103:.\main.c      ****     txISR_StartEx(transmitUpdate);
 408              		.loc 1 103 0
 409 0038 A648     		ldr	r0, .L84
 410 003a FFF7FEFF 		bl	rxISR_StartEx
 411              	.LVL30:
 104:.\main.c      ****     stepISR_StartEx(stepCount);
 412              		.loc 1 104 0
 413 003e A648     		ldr	r0, .L84+4
 414 0040 FFF7FEFF 		bl	txISR_StartEx
 415              	.LVL31:
 105:.\main.c      ****     
 416              		.loc 1 105 0
 417 0044 A548     		ldr	r0, .L84+8
 418 0046 FFF7FEFF 		bl	stepISR_StartEx
 419              	.LVL32:
 117:.\main.c      ****     
 420              		.loc 1 117 0
 421              	@ 117 ".\main.c" 1
 422 004a 62B6     		CPSIE   i
 423              	@ 0 "" 2
  74:.\main.c      ****     
 424              		.loc 1 74 0
 425              		.code	16
 426 004c 0023     		mov	r3, #0
  72:.\main.c      ****     int32_t output=0, process_variable=0, process_variable_prev=0;
 427              		.loc 1 72 0
 428 004e 0025     		mov	r5, #0
 429 0050 0026     		mov	r6, #0
  74:.\main.c      ****     
 430              		.loc 1 74 0
 431 0052 0493     		str	r3, [sp, #16]
 432 0054 0393     		str	r3, [sp, #12]
  72:.\main.c      ****     int32_t output=0, process_variable=0, process_variable_prev=0;
 433              		.loc 1 72 0
 434 0056 0593     		str	r3, [sp, #20]
 435 0058 0193     		str	r3, [sp, #4]
 436 005a A14F     		ldr	r7, .L84+12
 437 005c A14B     		ldr	r3, .L84+16
ARM GAS  C:\Users\g\AppData\Local\Temp\cc93WOE4.s 			page 15


  73:.\main.c      ****     uint8_t motor_shutdown=0, timeout_flag=0;
 438              		.loc 1 73 0
 439 005e 0024     		mov	r4, #0
 440 0060 9B46     		mov	fp, r3
 123:.\main.c      ****             error_Write(0);
 441              		.loc 1 123 0
 442 0062 3B78     		ldrb	r3, [r7]
 443 0064 B046     		mov	r8, r6
 444 0066 A946     		mov	r9, r5
 445              	.LVL33:
 446 0068 9E42     		cmp	r6, r3
 447 006a 00DD     		ble	.LCB427
 448 006c B9E0     		b	.L38	@long jump
 449              	.LCB427:
 450              	.LVL34:
 451              	.L82:
 123:.\main.c      ****             error_Write(0);
 452              		.loc 1 123 0 is_stmt 0 discriminator 1
 453 006e 3B78     		ldrb	r3, [r7]
 454 0070 5B42     		neg	r3, r3
 455 0072 9E42     		cmp	r6, r3
 456 0074 00DA     		bge	.LCB452
 457 0076 B4E0     		b	.L38	@long jump
 458              	.LCB452:
 129:.\main.c      ****                 timeout_counter++;
 459              		.loc 1 129 0 is_stmt 1
 460 0078 9B4B     		ldr	r3, .L84+20
 461 007a 9C4A     		ldr	r2, .L84+24
 462 007c 1B88     		ldrh	r3, [r3]
 463 007e 9342     		cmp	r3, r2
 464 0080 00D9     		bls	.LCB461
 465 0082 08E1     		b	.L41	@long jump
 466              	.LCB461:
 130:.\main.c      ****                 timeout_flag=0;
 467              		.loc 1 130 0
 468 0084 984B     		ldr	r3, .L84+20
 469 0086 984A     		ldr	r2, .L84+20
 470 0088 1B88     		ldrh	r3, [r3]
 471 008a 0133     		add	r3, r3, #1
 472 008c 9BB2     		uxth	r3, r3
 473 008e 1380     		strh	r3, [r2]
 474              	.LVL35:
 131:.\main.c      ****                 motor_shutdown=0;
 475              		.loc 1 131 0
 476 0090 0023     		mov	r3, #0
 477 0092 0493     		str	r3, [sp, #16]
 132:.\main.c      ****             }
 478              		.loc 1 132 0
 479 0094 0393     		str	r3, [sp, #12]
 480              	.LVL36:
 481              	.L40:
 146:.\main.c      ****         if(ovc_Read()==0) {}
 482              		.loc 1 146 0
 483 0096 FFF7FEFF 		bl	fault_Read
 484              	.LVL37:
 147:.\main.c      ****         
 485              		.loc 1 147 0
ARM GAS  C:\Users\g\AppData\Local\Temp\cc93WOE4.s 			page 16


 486 009a FFF7FEFF 		bl	ovc_Read
 487              	.LVL38:
 150:.\main.c      ****             motor_shutdown=1;
 488              		.loc 1 150 0
 489 009e FFF7FEFF 		bl	reset_Read
 490              	.LVL39:
 491 00a2 0028     		cmp	r0, #0
 492 00a4 01D1     		bne	.L42
 151:.\main.c      ****         }
 493              		.loc 1 151 0
 494 00a6 0123     		mov	r3, #1
 495 00a8 0393     		str	r3, [sp, #12]
 496              	.LVL40:
 497              	.L42:
 155:.\main.c      ****         duty_reduce+=((millivolts-(*eeprom_current_setting<<3))>>3);
 498              		.loc 1 155 0
 499 00aa 0020     		mov	r0, #0
 500 00ac FFF7FEFF 		bl	ADC_GetResult16
 501              	.LVL41:
 156:.\main.c      ****         if(duty_reduce>DUTY_REDUCE_MAX) duty_reduce=DUTY_REDUCE_MAX;
 502              		.loc 1 156 0
 503 00b0 7B78     		ldrb	r3, [r7, #1]
 155:.\main.c      ****         duty_reduce+=((millivolts-(*eeprom_current_setting<<3))>>3);
 504              		.loc 1 155 0
 505 00b2 4010     		asr	r0, r0, #1
 506              	.LVL42:
 156:.\main.c      ****         if(duty_reduce>DUTY_REDUCE_MAX) duty_reduce=DUTY_REDUCE_MAX;
 507              		.loc 1 156 0
 508 00b4 00B2     		sxth	r0, r0
 509 00b6 DB00     		lsl	r3, r3, #3
 510 00b8 C31A     		sub	r3, r0, r3
 511 00ba DB10     		asr	r3, r3, #3
 512 00bc 4B44     		add	r3, r3, r9
 513 00be 9AB2     		uxth	r2, r3
 514              	.LVL43:
 515 00c0 13B2     		sxth	r3, r2
 516 00c2 DB43     		mvn	r3, r3
 517 00c4 DB17     		asr	r3, r3, #31
 518 00c6 1340     		and	r3, r2
 519 00c8 8949     		ldr	r1, .L84+28
 520 00ca 1AB2     		sxth	r2, r3
 521              	.LVL44:
 522 00cc 8A42     		cmp	r2, r1
 523 00ce 01DD     		ble	.L44
 524 00d0 884B     		ldr	r3, .L84+32
 525 00d2 1B88     		ldrh	r3, [r3]
 526              	.L44:
 527 00d4 9BB2     		uxth	r3, r3
 528 00d6 9946     		mov	r9, r3
 161:.\main.c      ****         error=set_point-process_variable;
 529              		.loc 1 161 0
 530 00d8 FFF7FEFF 		bl	QDEC_GetCounter
 531              	.LVL45:
 162:.\main.c      ****         //calculate change in process variable to prevent derivative kickback
 532              		.loc 1 162 0
 533 00dc 6A46     		mov	r2, sp
 534 00de 5B46     		mov	r3, fp
ARM GAS  C:\Users\g\AppData\Local\Temp\cc93WOE4.s 			page 17


 535 00e0 5081     		strh	r0, [r2, #10]
 536 00e2 1D68     		ldr	r5, [r3]
 537 00e4 5389     		ldrh	r3, [r2, #10]
 538 00e6 8449     		ldr	r1, .L84+36
 539 00e8 ED1A     		sub	r5, r5, r3
 540 00ea ADB2     		uxth	r5, r5
 541 00ec 9C46     		mov	ip, r3
 542 00ee ABB2     		uxth	r3, r5
 543 00f0 9846     		mov	r8, r3
 544              	.LVL46:
 167:.\main.c      ****         //limit integral error
 545              		.loc 1 167 0
 546 00f2 019B     		ldr	r3, [sp, #4]
 161:.\main.c      ****         error=set_point-process_variable;
 547              		.loc 1 161 0
 548 00f4 8246     		mov	r10, r0
 549              	.LVL47:
 167:.\main.c      ****         //limit integral error
 550              		.loc 1 167 0
 551 00f6 EA18     		add	r2, r5, r3
 552 00f8 92B2     		uxth	r2, r2
 553              	.LVL48:
 554 00fa 131C     		add	r3, r2, #0
 555 00fc 12B2     		sxth	r2, r2
 556              	.LVL49:
 557 00fe 8A42     		cmp	r2, r1
 558 0100 00DA     		bge	.L45
 559 0102 0B1C     		add	r3, r1, #0
 560              	.LVL50:
 561              	.L45:
 562 0104 7D4A     		ldr	r2, .L84+40
 563              	.LVL51:
 564 0106 19B2     		sxth	r1, r3
 565 0108 9142     		cmp	r1, r2
 566 010a 00DD     		ble	.L46
 567 010c 131C     		add	r3, r2, #0
 568              	.L46:
 569 010e 9AB2     		uxth	r2, r3
 570 0110 0192     		str	r2, [sp, #4]
 571              	.LVL52:
 173:.\main.c      ****         if(*eeprom_invert_motor) {
 572              		.loc 1 173 0
 573 0112 BA78     		ldrb	r2, [r7, #2]
 574 0114 F878     		ldrb	r0, [r7, #3]
 575              	.LVL53:
 576 0116 1BB2     		sxth	r3, r3
 577 0118 5843     		mul	r0, r3
 578 011a 4646     		mov	r6, r8
 164:.\main.c      ****         process_variable_prev=process_variable;
 579              		.loc 1 164 0
 580 011c 6346     		mov	r3, ip
 581              	.LVL54:
 173:.\main.c      ****         if(*eeprom_invert_motor) {
 582              		.loc 1 173 0
 583 011e 3979     		ldrb	r1, [r7, #4]
 164:.\main.c      ****         process_variable_prev=process_variable;
 584              		.loc 1 164 0
ARM GAS  C:\Users\g\AppData\Local\Temp\cc93WOE4.s 			page 18


 585 0120 1C1B     		sub	r4, r3, r4
 586              	.LVL55:
 173:.\main.c      ****         if(*eeprom_invert_motor) {
 587              		.loc 1 173 0
 588 0122 36B2     		sxth	r6, r6
 589 0124 23B2     		sxth	r3, r4
 590 0126 7243     		mul	r2, r6
 591 0128 5943     		mul	r1, r3
 592 012a 8012     		asr	r0, r0, #10
 174:.\main.c      ****             if(output>=0) phase_Write(1);
 593              		.loc 1 174 0
 594 012c 7B79     		ldrb	r3, [r7, #5]
 173:.\main.c      ****         if(*eeprom_invert_motor) {
 595              		.loc 1 173 0
 596 012e 1218     		add	r2, r2, r0
 597 0130 541A     		sub	r4, r2, r1
 598              	.LVL56:
 174:.\main.c      ****             if(output>=0) phase_Write(1);
 599              		.loc 1 174 0
 600 0132 002B     		cmp	r3, #0
 601 0134 00D1     		bne	.LCB608
 602 0136 A6E0     		b	.L47	@long jump
 603              	.LCB608:
 175:.\main.c      ****             else {
 604              		.loc 1 175 0
 605 0138 002C     		cmp	r4, #0
 606 013a 00DA     		bge	.LCB610
 607 013c BCE0     		b	.L79	@long jump
 608              	.LCB610:
 609              	.LVL57:
 610              	.L78:
 185:.\main.c      ****             }
 611              		.loc 1 185 0
 612 013e 0120     		mov	r0, #1
 613 0140 FFF7FEFF 		bl	phase_Write
 614              	.LVL58:
 615              	.L49:
 616 0144 6E4B     		ldr	r3, .L84+44
 617 0146 9C42     		cmp	r4, r3
 618 0148 00DD     		ble	.L51
 619 014a 1C1C     		mov	r4, r3
 620              	.LVL59:
 621              	.L51:
 189:.\main.c      ****         if(output<1) output=1;
 622              		.loc 1 189 0
 623 014c 4B46     		mov	r3, r9
 624 014e 18B2     		sxth	r0, r3
 625 0150 201A     		sub	r0, r4, r0
 626              	.LVL60:
 190:.\main.c      ****         if(motor_shutdown) PWM_MOT_WriteCompare(1);
 627              		.loc 1 190 0
 628 0152 0028     		cmp	r0, #0
 629 0154 00DC     		bgt	.LCB636
 630 0156 9CE0     		b	.L80	@long jump
 631              	.LCB636:
 632              	.LVL61:
 633              	.L52:
ARM GAS  C:\Users\g\AppData\Local\Temp\cc93WOE4.s 			page 19


 191:.\main.c      ****         else PWM_MOT_WriteCompare(output);
 634              		.loc 1 191 0
 635 0158 039B     		ldr	r3, [sp, #12]
 636 015a 002B     		cmp	r3, #0
 637 015c 00D1     		bne	.LCB642
 638 015e 8FE0     		b	.L53	@long jump
 639              	.LCB642:
 191:.\main.c      ****         else PWM_MOT_WriteCompare(output);
 640              		.loc 1 191 0 is_stmt 0 discriminator 1
 641 0160 0120     		mov	r0, #1
 642              	.LVL62:
 643 0162 FFF7FEFF 		bl	PWM_MOT_WriteCompare
 644              	.LVL63:
 645              	.L54:
 196:.\main.c      ****             command_type=command_parser[0];
 646              		.loc 1 196 0 is_stmt 1
 647 0166 674B     		ldr	r3, .L84+48
 648 0168 1B78     		ldrb	r3, [r3]
 649 016a 012B     		cmp	r3, #1
 650 016c 26D1     		bne	.L55
 197:.\main.c      ****             for(int i=0; i<5; i++) command_local[i]=command_parser[i+1];
 651              		.loc 1 197 0
 652 016e 664B     		ldr	r3, .L84+52
 653 0170 1C78     		ldrb	r4, [r3]
 654              	.LBB3:
 198:.\main.c      ****             command_value=atoi(command_local);
 655              		.loc 1 198 0
 656 0172 0023     		mov	r3, #0
 657              	.LBE3:
 197:.\main.c      ****             for(int i=0; i<5; i++) command_local[i]=command_parser[i+1];
 658              		.loc 1 197 0
 659 0174 E4B2     		uxtb	r4, r4
 660              	.LVL64:
 661              	.LBB4:
 198:.\main.c      ****             command_value=atoi(command_local);
 662              		.loc 1 198 0
 663 0176 A446     		mov	ip, r4
 664              	.LVL65:
 665              	.L56:
 198:.\main.c      ****             command_value=atoi(command_local);
 666              		.loc 1 198 0 is_stmt 0 discriminator 3
 667 0178 0824     		mov	r4, #8
 668 017a 634A     		ldr	r2, .L84+52
 669 017c 0133     		add	r3, r3, #1
 670              	.LVL66:
 671 017e D15C     		ldrb	r1, [r2, r3]
 672 0180 06A8     		add	r0, sp, #24
 673 0182 5A1E     		sub	r2, r3, #1
 674 0184 0019     		add	r0, r0, r4
 675 0186 8154     		strb	r1, [r0, r2]
 676              	.LVL67:
 677 0188 052B     		cmp	r3, #5
 678 018a F5D1     		bne	.L56
 679 018c 6446     		mov	r4, ip
 680              	.LBE4:
 199:.\main.c      ****             switch(command_type) {
 681              		.loc 1 199 0 is_stmt 1
ARM GAS  C:\Users\g\AppData\Local\Temp\cc93WOE4.s 			page 20


 682 018e 08A8     		add	r0, sp, #32
 683 0190 FFF7FEFF 		bl	atoi
 684              	.LVL68:
 200:.\main.c      ****                 //PID coefficients
 685              		.loc 1 200 0
 686 0194 2B3C     		sub	r4, r4, #43
 687              	.LVL69:
 199:.\main.c      ****             switch(command_type) {
 688              		.loc 1 199 0
 689 0196 C0B2     		uxtb	r0, r0
 690 0198 06AB     		add	r3, sp, #24
 200:.\main.c      ****                 //PID coefficients
 691              		.loc 1 200 0
 692 019a E4B2     		uxtb	r4, r4
 693              	.LVL70:
 199:.\main.c      ****             switch(command_type) {
 694              		.loc 1 199 0
 695 019c D871     		strb	r0, [r3, #7]
 200:.\main.c      ****                 //PID coefficients
 696              		.loc 1 200 0
 697 019e 4A2C     		cmp	r4, #74
 698 01a0 09D8     		bhi	.L57
 699 01a2 5A4B     		ldr	r3, .L84+56
 700 01a4 A400     		lsl	r4, r4, #2
 701 01a6 1B59     		ldr	r3, [r3, r4]
 702 01a8 9F46     		mov	pc, r3
 703              		.section	.rodata
 704              		.align	2
 705              	.L59:
 706 0000 76020000 		.word	.L58
 707 0004 B6010000 		.word	.L57
 708 0008 6C020000 		.word	.L60
 709 000c B6010000 		.word	.L57
 710 0010 B6010000 		.word	.L57
 711 0014 B6010000 		.word	.L57
 712 0018 B6010000 		.word	.L57
 713 001c B6010000 		.word	.L57
 714 0020 B6010000 		.word	.L57
 715 0024 B6010000 		.word	.L57
 716 0028 B6010000 		.word	.L57
 717 002c B6010000 		.word	.L57
 718 0030 B6010000 		.word	.L57
 719 0034 B6010000 		.word	.L57
 720 0038 B6010000 		.word	.L57
 721 003c B6010000 		.word	.L57
 722 0040 B6010000 		.word	.L57
 723 0044 B6010000 		.word	.L57
 724 0048 B6010000 		.word	.L57
 725 004c B6010000 		.word	.L57
 726 0050 B6010000 		.word	.L57
 727 0054 B6010000 		.word	.L57
 728 0058 B6010000 		.word	.L57
 729 005c B6010000 		.word	.L57
 730 0060 B6010000 		.word	.L57
 731 0064 B6010000 		.word	.L57
 732 0068 B6010000 		.word	.L57
 733 006c B6010000 		.word	.L57
ARM GAS  C:\Users\g\AppData\Local\Temp\cc93WOE4.s 			page 21


 734 0070 B6010000 		.word	.L57
 735 0074 B6010000 		.word	.L57
 736 0078 B6010000 		.word	.L57
 737 007c B6010000 		.word	.L57
 738 0080 B6010000 		.word	.L57
 739 0084 B6010000 		.word	.L57
 740 0088 B6010000 		.word	.L57
 741 008c B6010000 		.word	.L57
 742 0090 B6010000 		.word	.L57
 743 0094 B6010000 		.word	.L57
 744 0098 B6010000 		.word	.L57
 745 009c B6010000 		.word	.L57
 746 00a0 B6010000 		.word	.L57
 747 00a4 B6010000 		.word	.L57
 748 00a8 B6010000 		.word	.L57
 749 00ac B6010000 		.word	.L57
 750 00b0 B6010000 		.word	.L57
 751 00b4 B6010000 		.word	.L57
 752 00b8 B6010000 		.word	.L57
 753 00bc B6010000 		.word	.L57
 754 00c0 B6010000 		.word	.L57
 755 00c4 B6010000 		.word	.L57
 756 00c8 B6010000 		.word	.L57
 757 00cc B6010000 		.word	.L57
 758 00d0 B6010000 		.word	.L57
 759 00d4 B6010000 		.word	.L57
 760 00d8 B6010000 		.word	.L57
 761 00dc B6010000 		.word	.L57
 762 00e0 5E020000 		.word	.L61
 763 00e4 50020000 		.word	.L62
 764 00e8 B6010000 		.word	.L57
 765 00ec 42020000 		.word	.L63
 766 00f0 B6010000 		.word	.L57
 767 00f4 B6010000 		.word	.L57
 768 00f8 34020000 		.word	.L64
 769 00fc B6010000 		.word	.L57
 770 0100 B6010000 		.word	.L57
 771 0104 B6010000 		.word	.L57
 772 0108 B6010000 		.word	.L57
 773 010c B6010000 		.word	.L57
 774 0110 B6010000 		.word	.L57
 775 0114 26020000 		.word	.L65
 776 0118 B6010000 		.word	.L57
 777 011c 18020000 		.word	.L66
 778 0120 B6010000 		.word	.L57
 779 0124 B6010000 		.word	.L57
 780 0128 AA010000 		.word	.L67
 781              		.section	.text.startup.main
 782              	.L67:
 225:.\main.c      ****                 break;
 783              		.loc 1 225 0
 784 01aa 06AB     		add	r3, sp, #24
 785 01ac B91D     		add	r1, r7, #6
 786 01ae D81D     		add	r0, r3, #7
 787 01b0 0122     		mov	r2, #1
 788 01b2 FFF7FEFF 		bl	EEPROM_Write
 789              	.LVL71:
ARM GAS  C:\Users\g\AppData\Local\Temp\cc93WOE4.s 			page 22


 790              	.L57:
 235:.\main.c      ****         }
 791              		.loc 1 235 0
 792 01b6 0023     		mov	r3, #0
 793 01b8 524A     		ldr	r2, .L84+48
 794 01ba 1370     		strb	r3, [r2]
 795              	.L55:
 240:.\main.c      ****         
 796              		.loc 1 240 0
 797 01bc FA21     		mov	r1, #250
 798 01be 0901     		lsl	r1, r1, #4
 799 01c0 4144     		add	r1, r1, r8
 800 01c2 09B2     		sxth	r1, r1
 801 01c4 0CA8     		add	r0, sp, #48
 802 01c6 FFF7FEFF 		bl	fast_itoa
 803              	.LVL72:
 244:.\main.c      ****             if(*eeprom_uart_data) {
 804              		.loc 1 244 0
 805 01ca 514B     		ldr	r3, .L84+60
 806 01cc 1B78     		ldrb	r3, [r3]
 807 01ce 002B     		cmp	r3, #0
 808 01d0 02D0     		beq	.L68
 245:.\main.c      ****                 UART_UartPutChar('$');
 809              		.loc 1 245 0
 810 01d2 BB79     		ldrb	r3, [r7, #6]
 811 01d4 002B     		cmp	r3, #0
 812 01d6 0BD1     		bne	.L81
 813              	.L68:
  70:.\main.c      **** 
 814              		.loc 1 70 0
 815 01d8 5446     		mov	r4, r10
 816              	.LVL73:
 817              	.L83:
 123:.\main.c      ****             error_Write(0);
 818              		.loc 1 123 0
 819 01da 3B78     		ldrb	r3, [r7]
 820 01dc 9E42     		cmp	r6, r3
 821 01de 00DC     		bgt	.LCB761
 822 01e0 45E7     		b	.L82	@long jump
 823              	.LCB761:
 824              	.LVL74:
 825              	.L38:
 124:.\main.c      ****             err_Write(1);
 826              		.loc 1 124 0
 827 01e2 0020     		mov	r0, #0
 828 01e4 FFF7FEFF 		bl	error_Write
 829              	.LVL75:
 125:.\main.c      ****         }
 830              		.loc 1 125 0
 831 01e8 0120     		mov	r0, #1
 832 01ea FFF7FEFF 		bl	err_Write
 833              	.LVL76:
 834 01ee 52E7     		b	.L40
 835              	.LVL77:
 836              	.L81:
 246:.\main.c      ****                 //transmit error value
 837              		.loc 1 246 0
ARM GAS  C:\Users\g\AppData\Local\Temp\cc93WOE4.s 			page 23


 838 01f0 2420     		mov	r0, #36
 839 01f2 FFF7FEFF 		bl	UART_SpiUartWriteTxData
 840              	.LVL78:
 248:.\main.c      ****                 UART_UartPutChar(' ');
 841              		.loc 1 248 0
 842 01f6 0CA8     		add	r0, sp, #48
 843 01f8 FFF7FEFF 		bl	UART_UartPutString
 844              	.LVL79:
 249:.\main.c      ****                 //transmit current value
 845              		.loc 1 249 0
 846 01fc 2020     		mov	r0, #32
 847 01fe FFF7FEFF 		bl	UART_SpiUartWriteTxData
 848              	.LVL80:
 251:.\main.c      ****                 UART_UartPutChar(';');
 849              		.loc 1 251 0
 850 0202 0AA8     		add	r0, sp, #40
 851 0204 FFF7FEFF 		bl	UART_UartPutString
 852              	.LVL81:
 252:.\main.c      ****                 transmit_ready=0;
 853              		.loc 1 252 0
 854 0208 3B20     		mov	r0, #59
 855 020a FFF7FEFF 		bl	UART_SpiUartWriteTxData
 856              	.LVL82:
 253:.\main.c      ****             }
 857              		.loc 1 253 0
 858 020e 0023     		mov	r3, #0
 859 0210 3F4A     		ldr	r2, .L84+60
  70:.\main.c      **** 
 860              		.loc 1 70 0
 861 0212 5446     		mov	r4, r10
 253:.\main.c      ****             }
 862              		.loc 1 253 0
 863 0214 1370     		strb	r3, [r2]
 864 0216 E0E7     		b	.L83
 865              	.L66:
 217:.\main.c      ****                 break;
 866              		.loc 1 217 0
 867 0218 06AB     		add	r3, sp, #24
 868 021a 791D     		add	r1, r7, #5
 869 021c D81D     		add	r0, r3, #7
 870 021e 0122     		mov	r2, #1
 871 0220 FFF7FEFF 		bl	EEPROM_Write
 872              	.LVL83:
 218:.\main.c      ****                 //maximum allowable following error
 873              		.loc 1 218 0
 874 0224 C7E7     		b	.L57
 875              	.L65:
 203:.\main.c      ****                 break;
 876              		.loc 1 203 0
 877 0226 06AB     		add	r3, sp, #24
 878 0228 B91C     		add	r1, r7, #2
 879 022a D81D     		add	r0, r3, #7
 880 022c 0122     		mov	r2, #1
 881 022e FFF7FEFF 		bl	EEPROM_Write
 882              	.LVL84:
 204:.\main.c      ****                 case 'i':
 883              		.loc 1 204 0
ARM GAS  C:\Users\g\AppData\Local\Temp\cc93WOE4.s 			page 24


 884 0232 C0E7     		b	.L57
 885              	.L64:
 206:.\main.c      ****                 break;
 886              		.loc 1 206 0
 887 0234 06AB     		add	r3, sp, #24
 888 0236 F91C     		add	r1, r7, #3
 889 0238 D81D     		add	r0, r3, #7
 890 023a 0122     		mov	r2, #1
 891 023c FFF7FEFF 		bl	EEPROM_Write
 892              	.LVL85:
 207:.\main.c      ****                 case 'd':
 893              		.loc 1 207 0
 894 0240 B9E7     		b	.L57
 895              	.L63:
 221:.\main.c      ****                 break;
 896              		.loc 1 221 0
 897 0242 06AB     		add	r3, sp, #24
 898 0244 D81D     		add	r0, r3, #7
 899 0246 391C     		mov	r1, r7
 900 0248 0122     		mov	r2, #1
 901 024a FFF7FEFF 		bl	EEPROM_Write
 902              	.LVL86:
 222:.\main.c      ****                 //transmit diagnostic data flag
 903              		.loc 1 222 0
 904 024e B2E7     		b	.L57
 905              	.L62:
 209:.\main.c      ****                 break;
 906              		.loc 1 209 0
 907 0250 06AB     		add	r3, sp, #24
 908 0252 391D     		add	r1, r7, #4
 909 0254 D81D     		add	r0, r3, #7
 910 0256 0122     		mov	r2, #1
 911 0258 FFF7FEFF 		bl	EEPROM_Write
 912              	.LVL87:
 210:.\main.c      ****                 //currernt limit value
 913              		.loc 1 210 0
 914 025c ABE7     		b	.L57
 915              	.L61:
 213:.\main.c      ****                 break;
 916              		.loc 1 213 0
 917 025e 06AB     		add	r3, sp, #24
 918 0260 791C     		add	r1, r7, #1
 919 0262 D81D     		add	r0, r3, #7
 920 0264 0122     		mov	r2, #1
 921 0266 FFF7FEFF 		bl	EEPROM_Write
 922              	.LVL88:
 214:.\main.c      ****                 //motor direction of rotation flag
 923              		.loc 1 214 0
 924 026a A4E7     		b	.L57
 925              	.L60:
 232:.\main.c      ****                 break;
 926              		.loc 1 232 0
 927 026c 2D1A     		sub	r5, r5, r0
 928 026e ABB2     		uxth	r3, r5
 929 0270 9846     		mov	r8, r3
 930              	.LVL89:
 931 0272 1EB2     		sxth	r6, r3
ARM GAS  C:\Users\g\AppData\Local\Temp\cc93WOE4.s 			page 25


 233:.\main.c      ****             }
 932              		.loc 1 233 0
 933 0274 9FE7     		b	.L57
 934              	.LVL90:
 935              	.L58:
 229:.\main.c      ****                 break;
 936              		.loc 1 229 0
 937 0276 2D18     		add	r5, r5, r0
 938 0278 ABB2     		uxth	r3, r5
 939 027a 9846     		mov	r8, r3
 940              	.LVL91:
 941 027c 1EB2     		sxth	r6, r3
 230:.\main.c      ****                 case '-':
 942              		.loc 1 230 0
 943 027e 9AE7     		b	.L57
 944              	.LVL92:
 945              	.L53:
 192:.\main.c      ****         
 946              		.loc 1 192 0
 947 0280 FFF7FEFF 		bl	PWM_MOT_WriteCompare
 948              	.LVL93:
 949 0284 6FE7     		b	.L54
 950              	.LVL94:
 951              	.L47:
 182:.\main.c      ****             else {
 952              		.loc 1 182 0
 953 0286 002C     		cmp	r4, #0
 954 0288 1BDB     		blt	.L50
 182:.\main.c      ****             else {
 955              		.loc 1 182 0 is_stmt 0 discriminator 1
 956 028a 0020     		mov	r0, #0
 957 028c FFF7FEFF 		bl	phase_Write
 958              	.LVL95:
 959 0290 58E7     		b	.L49
 960              	.LVL96:
 961              	.L80:
 190:.\main.c      ****         if(motor_shutdown) PWM_MOT_WriteCompare(1);
 962              		.loc 1 190 0 is_stmt 1
 963 0292 0120     		mov	r0, #1
 964              	.LVL97:
 965 0294 60E7     		b	.L52
 966              	.LVL98:
 967              	.L41:
 135:.\main.c      ****                     error_at_timeout=error;
 968              		.loc 1 135 0
 969 0296 049B     		ldr	r3, [sp, #16]
 970 0298 002B     		cmp	r3, #0
 971 029a 14D0     		beq	.L69
 972              	.LVL99:
 140:.\main.c      ****             }
 973              		.loc 1 140 0
 974 029c 6B46     		mov	r3, sp
 975 029e 1422     		mov	r2, #20
 976 02a0 9B5E     		ldrsh	r3, [r3, r2]
 977 02a2 9E1B     		sub	r6, r3, r6
 978 02a4 0123     		mov	r3, #1
 979 02a6 0236     		add	r6, r6, #2
ARM GAS  C:\Users\g\AppData\Local\Temp\cc93WOE4.s 			page 26


 980 02a8 0493     		str	r3, [sp, #16]
 981 02aa 042E     		cmp	r6, #4
 982 02ac 00D8     		bhi	.LCB958
 983 02ae F2E6     		b	.L40	@long jump
 984              	.LCB958:
 140:.\main.c      ****             }
 985              		.loc 1 140 0 is_stmt 0 discriminator 1
 986 02b0 0023     		mov	r3, #0
 987 02b2 0D4A     		ldr	r2, .L84+20
 988 02b4 1380     		strh	r3, [r2]
 989 02b6 EEE6     		b	.L40
 990              	.LVL100:
 991              	.L79:
 178:.\main.c      ****             }
 992              		.loc 1 178 0 is_stmt 1
 993 02b8 0020     		mov	r0, #0
 177:.\main.c      ****                 phase_Write(0);
 994              		.loc 1 177 0
 995 02ba 6442     		neg	r4, r4
 996              	.LVL101:
 178:.\main.c      ****             }
 997              		.loc 1 178 0
 998 02bc FFF7FEFF 		bl	phase_Write
 999              	.LVL102:
 1000 02c0 40E7     		b	.L49
 1001              	.L50:
 184:.\main.c      ****                 phase_Write(1);
 1002              		.loc 1 184 0
 1003 02c2 6442     		neg	r4, r4
 1004              	.LVL103:
 1005 02c4 3BE7     		b	.L78
 1006              	.LVL104:
 1007              	.L69:
 136:.\main.c      ****                     timeout_flag=1;
 1008              		.loc 1 136 0
 1009 02c6 4346     		mov	r3, r8
 1010 02c8 0593     		str	r3, [sp, #20]
 1011              	.LVL105:
 1012 02ca 0123     		mov	r3, #1
 1013 02cc 0493     		str	r3, [sp, #16]
 1014              	.LVL106:
 138:.\main.c      ****                 }
 1015              		.loc 1 138 0
 1016 02ce 0393     		str	r3, [sp, #12]
 1017              	.LVL107:
 1018 02d0 E1E6     		b	.L40
 1019              	.L85:
 1020 02d2 C046     		.align	2
 1021              	.L84:
 1022 02d4 00000000 		.word	uartReceive
 1023 02d8 00000000 		.word	transmitUpdate
 1024 02dc 00000000 		.word	stepCount
 1025 02e0 2C010000 		.word	.LANCHOR0
 1026 02e4 00000000 		.word	set_point
 1027 02e8 00000000 		.word	timeout_counter
 1028 02ec 1F4E0000 		.word	19999
 1029 02f0 FE0F0000 		.word	4094
ARM GAS  C:\Users\g\AppData\Local\Temp\cc93WOE4.s 			page 27


 1030 02f4 00000000 		.word	.LC24
 1031 02f8 F0D8FFFF 		.word	-10000
 1032 02fc 10270000 		.word	10000
 1033 0300 FF0F0000 		.word	4095
 1034 0304 00000000 		.word	command_ready
 1035 0308 00000000 		.word	command_parser
 1036 030c 00000000 		.word	.L59
 1037 0310 00000000 		.word	transmit_ready
 1038              		.cfi_endproc
 1039              	.LFE35:
 1040              		.size	main, .-main
 1041              		.comm	command_parser,6,4
 1042              		.comm	transmit_ready,1,1
 1043              		.comm	command_index,1,1
 1044              		.comm	command_ready,1,1
 1045              		.comm	timeout_counter,2,2
 1046              		.comm	set_point,4,4
 1047              		.section	.rodata
 1048              		.set	.LANCHOR0,. + 0
 1049              		.type	ferror.6015, %object
 1050              		.size	ferror.6015, 1
 1051              	ferror.6015:
 1052 012c 32       		.byte	50
 1053              		.type	current_setting.6013, %object
 1054              		.size	current_setting.6013, 1
 1055              	current_setting.6013:
 1056 012d 3C       		.byte	60
 1057              		.type	kp.6010, %object
 1058              		.size	kp.6010, 1
 1059              	kp.6010:
 1060 012e 32       		.byte	50
 1061              		.type	ki.6011, %object
 1062              		.size	ki.6011, 1
 1063              	ki.6011:
 1064 012f 0A       		.byte	10
 1065              		.type	kd.6012, %object
 1066              		.size	kd.6012, 1
 1067              	kd.6012:
 1068 0130 00       		.space	1
 1069              		.type	invert_motor.6014, %object
 1070              		.size	invert_motor.6014, 1
 1071              	invert_motor.6014:
 1072 0131 00       		.space	1
 1073              		.type	uart_data.6016, %object
 1074              		.size	uart_data.6016, 1
 1075              	uart_data.6016:
 1076 0132 00       		.space	1
 1077 0133 00       		.text
 1078              	.Letext0:
 1079              		.file 2 "c:\\program files (x86)\\cypress\\psoc creator\\3.3\\psoc creator\\import\\gnu\\arm\\4.9.
 1080              		.file 3 "c:\\program files (x86)\\cypress\\psoc creator\\3.3\\psoc creator\\import\\gnu\\arm\\4.9.
 1081              		.file 4 "Generated_Source\\PSoC4/cytypes.h"
 1082              		.file 5 "Generated_Source\\PSoC4/direction.h"
 1083              		.file 6 "Generated_Source\\PSoC4/step.h"
 1084              		.file 7 "Generated_Source\\PSoC4/UART_SPI_UART.h"
 1085              		.file 8 "Generated_Source\\PSoC4/QDEC.h"
 1086              		.file 9 "Generated_Source\\PSoC4/UART.h"
ARM GAS  C:\Users\g\AppData\Local\Temp\cc93WOE4.s 			page 28


 1087              		.file 10 "Generated_Source\\PSoC4/ADC.h"
 1088              		.file 11 "Generated_Source\\PSoC4/TX_SEND.h"
 1089              		.file 12 "Generated_Source\\PSoC4/EEPROM.h"
 1090              		.file 13 "Generated_Source\\PSoC4/vin.h"
 1091              		.file 14 "Generated_Source\\PSoC4/sleep.h"
 1092              		.file 15 "Generated_Source\\PSoC4/PWM_MOT.h"
 1093              		.file 16 "Generated_Source\\PSoC4/rxISR.h"
 1094              		.file 17 "Generated_Source\\PSoC4/txISR.h"
 1095              		.file 18 "Generated_Source\\PSoC4/stepISR.h"
 1096              		.file 19 "Generated_Source\\PSoC4/fault.h"
 1097              		.file 20 "Generated_Source\\PSoC4/ovc.h"
 1098              		.file 21 "Generated_Source\\PSoC4/reset.h"
 1099              		.file 22 "Generated_Source\\PSoC4/phase.h"
 1100              		.file 23 "c:\\program files (x86)\\cypress\\psoc creator\\3.3\\psoc creator\\import\\gnu\\arm\\4.9
 1101              		.file 24 "Generated_Source\\PSoC4/error.h"
 1102              		.file 25 "Generated_Source\\PSoC4/err.h"