ARM GAS  C:\Users\g\AppData\Local\Temp\cc7dUDHz.s 			page 1


   1              		.cpu cortex-m0
   2              		.fpu softvfp
   3              		.eabi_attribute 20, 1
   4              		.eabi_attribute 21, 1
   5              		.eabi_attribute 23, 3
   6              		.eabi_attribute 24, 1
   7              		.eabi_attribute 25, 1
   8              		.eabi_attribute 26, 1
   9              		.eabi_attribute 30, 2
  10              		.eabi_attribute 34, 0
  11              		.eabi_attribute 18, 4
  12              		.code	16
  13              		.file	"QDEC_Cnt16.c"
  14              		.text
  15              	.Ltext0:
  16              		.cfi_sections	.debug_frame
  17              		.section	.text.QDEC_Cnt16_Init,"ax",%progbits
  18              		.align	2
  19              		.global	QDEC_Cnt16_Init
  20              		.code	16
  21              		.thumb_func
  22              		.type	QDEC_Cnt16_Init, %function
  23              	QDEC_Cnt16_Init:
  24              	.LFB0:
  25              		.file 1 "Generated_Source\\PSoC4\\QDEC_Cnt16.c"
   1:Generated_Source\PSoC4/QDEC_Cnt16.c **** /*******************************************************************************
   2:Generated_Source\PSoC4/QDEC_Cnt16.c **** * File Name: QDEC_Cnt16.c  
   3:Generated_Source\PSoC4/QDEC_Cnt16.c **** * Version 3.0
   4:Generated_Source\PSoC4/QDEC_Cnt16.c **** *
   5:Generated_Source\PSoC4/QDEC_Cnt16.c **** *  Description:
   6:Generated_Source\PSoC4/QDEC_Cnt16.c **** *     The Counter component consists of a 8, 16, 24 or 32-bit counter with
   7:Generated_Source\PSoC4/QDEC_Cnt16.c **** *     a selectable period between 2 and 2^Width - 1.  
   8:Generated_Source\PSoC4/QDEC_Cnt16.c **** *
   9:Generated_Source\PSoC4/QDEC_Cnt16.c **** *   Note:
  10:Generated_Source\PSoC4/QDEC_Cnt16.c **** *     None
  11:Generated_Source\PSoC4/QDEC_Cnt16.c **** *
  12:Generated_Source\PSoC4/QDEC_Cnt16.c **** ********************************************************************************
  13:Generated_Source\PSoC4/QDEC_Cnt16.c **** * Copyright 2008-2012, Cypress Semiconductor Corporation.  All rights reserved.
  14:Generated_Source\PSoC4/QDEC_Cnt16.c **** * You may use this file only in accordance with the license, terms, conditions, 
  15:Generated_Source\PSoC4/QDEC_Cnt16.c **** * disclaimers, and limitations in the end user license agreement accompanying 
  16:Generated_Source\PSoC4/QDEC_Cnt16.c **** * the software package with which this file was provided.
  17:Generated_Source\PSoC4/QDEC_Cnt16.c **** *******************************************************************************/
  18:Generated_Source\PSoC4/QDEC_Cnt16.c **** 
  19:Generated_Source\PSoC4/QDEC_Cnt16.c **** #include "QDEC_Cnt16.h"
  20:Generated_Source\PSoC4/QDEC_Cnt16.c **** 
  21:Generated_Source\PSoC4/QDEC_Cnt16.c **** uint8 QDEC_Cnt16_initVar = 0u;
  22:Generated_Source\PSoC4/QDEC_Cnt16.c **** 
  23:Generated_Source\PSoC4/QDEC_Cnt16.c **** 
  24:Generated_Source\PSoC4/QDEC_Cnt16.c **** /*******************************************************************************
  25:Generated_Source\PSoC4/QDEC_Cnt16.c **** * Function Name: QDEC_Cnt16_Init
  26:Generated_Source\PSoC4/QDEC_Cnt16.c **** ********************************************************************************
  27:Generated_Source\PSoC4/QDEC_Cnt16.c **** * Summary:
  28:Generated_Source\PSoC4/QDEC_Cnt16.c **** *     Initialize to the schematic state
  29:Generated_Source\PSoC4/QDEC_Cnt16.c **** * 
  30:Generated_Source\PSoC4/QDEC_Cnt16.c **** * Parameters:  
  31:Generated_Source\PSoC4/QDEC_Cnt16.c **** *  void  
  32:Generated_Source\PSoC4/QDEC_Cnt16.c **** *
ARM GAS  C:\Users\g\AppData\Local\Temp\cc7dUDHz.s 			page 2


  33:Generated_Source\PSoC4/QDEC_Cnt16.c **** * Return: 
  34:Generated_Source\PSoC4/QDEC_Cnt16.c **** *  void
  35:Generated_Source\PSoC4/QDEC_Cnt16.c **** *
  36:Generated_Source\PSoC4/QDEC_Cnt16.c **** *******************************************************************************/
  37:Generated_Source\PSoC4/QDEC_Cnt16.c **** void QDEC_Cnt16_Init(void) 
  38:Generated_Source\PSoC4/QDEC_Cnt16.c **** {
  26              		.loc 1 38 0
  27              		.cfi_startproc
  39:Generated_Source\PSoC4/QDEC_Cnt16.c ****         #if (!QDEC_Cnt16_UsingFixedFunction && !QDEC_Cnt16_ControlRegRemoved)
  40:Generated_Source\PSoC4/QDEC_Cnt16.c ****             uint8 ctrl;
  41:Generated_Source\PSoC4/QDEC_Cnt16.c ****         #endif /* (!QDEC_Cnt16_UsingFixedFunction && !QDEC_Cnt16_ControlRegRemoved) */
  42:Generated_Source\PSoC4/QDEC_Cnt16.c ****         
  43:Generated_Source\PSoC4/QDEC_Cnt16.c ****         #if(!QDEC_Cnt16_UsingFixedFunction) 
  44:Generated_Source\PSoC4/QDEC_Cnt16.c ****             /* Interrupt State Backup for Critical Region*/
  45:Generated_Source\PSoC4/QDEC_Cnt16.c ****             uint8 QDEC_Cnt16_interruptState;
  46:Generated_Source\PSoC4/QDEC_Cnt16.c ****         #endif /* (!QDEC_Cnt16_UsingFixedFunction) */
  47:Generated_Source\PSoC4/QDEC_Cnt16.c ****         
  48:Generated_Source\PSoC4/QDEC_Cnt16.c ****         #if (QDEC_Cnt16_UsingFixedFunction)
  49:Generated_Source\PSoC4/QDEC_Cnt16.c ****             /* Clear all bits but the enable bit (if it's already set for Timer operation */
  50:Generated_Source\PSoC4/QDEC_Cnt16.c ****             QDEC_Cnt16_CONTROL &= QDEC_Cnt16_CTRL_ENABLE;
  51:Generated_Source\PSoC4/QDEC_Cnt16.c ****             
  52:Generated_Source\PSoC4/QDEC_Cnt16.c ****             /* Clear the mode bits for continuous run mode */
  53:Generated_Source\PSoC4/QDEC_Cnt16.c ****             #if (CY_PSOC5A)
  54:Generated_Source\PSoC4/QDEC_Cnt16.c ****                 QDEC_Cnt16_CONTROL2 &= ((uint8)(~QDEC_Cnt16_CTRL_MODE_MASK));
  55:Generated_Source\PSoC4/QDEC_Cnt16.c ****             #endif /* (CY_PSOC5A) */
  56:Generated_Source\PSoC4/QDEC_Cnt16.c ****             #if (CY_PSOC3 || CY_PSOC5LP)
  57:Generated_Source\PSoC4/QDEC_Cnt16.c ****                 QDEC_Cnt16_CONTROL3 &= ((uint8)(~QDEC_Cnt16_CTRL_MODE_MASK));                
  58:Generated_Source\PSoC4/QDEC_Cnt16.c ****             #endif /* (CY_PSOC3 || CY_PSOC5LP) */
  59:Generated_Source\PSoC4/QDEC_Cnt16.c ****             /* Check if One Shot mode is enabled i.e. RunMode !=0*/
  60:Generated_Source\PSoC4/QDEC_Cnt16.c ****             #if (QDEC_Cnt16_RunModeUsed != 0x0u)
  61:Generated_Source\PSoC4/QDEC_Cnt16.c ****                 /* Set 3rd bit of Control register to enable one shot mode */
  62:Generated_Source\PSoC4/QDEC_Cnt16.c ****                 QDEC_Cnt16_CONTROL |= QDEC_Cnt16_ONESHOT;
  63:Generated_Source\PSoC4/QDEC_Cnt16.c ****             #endif /* (QDEC_Cnt16_RunModeUsed != 0x0u) */
  64:Generated_Source\PSoC4/QDEC_Cnt16.c ****             
  65:Generated_Source\PSoC4/QDEC_Cnt16.c ****             /* Set the IRQ to use the status register interrupts */
  66:Generated_Source\PSoC4/QDEC_Cnt16.c ****             QDEC_Cnt16_CONTROL2 |= QDEC_Cnt16_CTRL2_IRQ_SEL;
  67:Generated_Source\PSoC4/QDEC_Cnt16.c ****             
  68:Generated_Source\PSoC4/QDEC_Cnt16.c ****             /* Clear and Set SYNCTC and SYNCCMP bits of RT1 register */
  69:Generated_Source\PSoC4/QDEC_Cnt16.c ****             QDEC_Cnt16_RT1 &= ((uint8)(~QDEC_Cnt16_RT1_MASK));
  70:Generated_Source\PSoC4/QDEC_Cnt16.c ****             QDEC_Cnt16_RT1 |= QDEC_Cnt16_SYNC;     
  71:Generated_Source\PSoC4/QDEC_Cnt16.c ****                     
  72:Generated_Source\PSoC4/QDEC_Cnt16.c ****             /*Enable DSI Sync all all inputs of the Timer*/
  73:Generated_Source\PSoC4/QDEC_Cnt16.c ****             QDEC_Cnt16_RT1 &= ((uint8)(~QDEC_Cnt16_SYNCDSI_MASK));
  74:Generated_Source\PSoC4/QDEC_Cnt16.c ****             QDEC_Cnt16_RT1 |= QDEC_Cnt16_SYNCDSI_EN;
  75:Generated_Source\PSoC4/QDEC_Cnt16.c **** 
  76:Generated_Source\PSoC4/QDEC_Cnt16.c ****         #else
  77:Generated_Source\PSoC4/QDEC_Cnt16.c ****             #if(!QDEC_Cnt16_ControlRegRemoved)
  78:Generated_Source\PSoC4/QDEC_Cnt16.c ****             /* Set the default compare mode defined in the parameter */
  79:Generated_Source\PSoC4/QDEC_Cnt16.c ****             ctrl = QDEC_Cnt16_CONTROL & ((uint8)(~QDEC_Cnt16_CTRL_CMPMODE_MASK));
  28              		.loc 1 79 0
  29 0000 0721     		mov	r1, #7
  38:Generated_Source\PSoC4/QDEC_Cnt16.c ****         #if (!QDEC_Cnt16_UsingFixedFunction && !QDEC_Cnt16_ControlRegRemoved)
  30              		.loc 1 38 0
  31 0002 08B5     		push	{r3, lr}
  32              		.cfi_def_cfa_offset 8
  33              		.cfi_offset 3, -8
  34              		.cfi_offset 14, -4
ARM GAS  C:\Users\g\AppData\Local\Temp\cc7dUDHz.s 			page 3


  35              		.loc 1 79 0
  36 0004 134B     		ldr	r3, .L10
  37 0006 1A78     		ldrb	r2, [r3]
  38 0008 8A43     		bic	r2, r1
  39              	.LVL0:
  80:Generated_Source\PSoC4/QDEC_Cnt16.c ****             QDEC_Cnt16_CONTROL = ctrl | QDEC_Cnt16_DEFAULT_COMPARE_MODE;
  40              		.loc 1 80 0
  41 000a 1A70     		strb	r2, [r3]
  81:Generated_Source\PSoC4/QDEC_Cnt16.c ****             
  82:Generated_Source\PSoC4/QDEC_Cnt16.c ****             /* Set the default capture mode defined in the parameter */
  83:Generated_Source\PSoC4/QDEC_Cnt16.c ****             ctrl = QDEC_Cnt16_CONTROL & ((uint8)(~QDEC_Cnt16_CTRL_CAPMODE_MASK));
  42              		.loc 1 83 0
  43 000c 1A78     		ldrb	r2, [r3]
  44              	.LVL1:
  45 000e 0439     		sub	r1, r1, #4
  46 0010 8A43     		bic	r2, r1
  47              	.LVL2:
  84:Generated_Source\PSoC4/QDEC_Cnt16.c ****             
  85:Generated_Source\PSoC4/QDEC_Cnt16.c ****             #if( 0 != QDEC_Cnt16_CAPTURE_MODE_CONF)
  86:Generated_Source\PSoC4/QDEC_Cnt16.c ****                 QDEC_Cnt16_CONTROL = ctrl | QDEC_Cnt16_DEFAULT_CAPTURE_MODE;
  87:Generated_Source\PSoC4/QDEC_Cnt16.c ****             #else
  88:Generated_Source\PSoC4/QDEC_Cnt16.c ****                 QDEC_Cnt16_CONTROL = ctrl;
  48              		.loc 1 88 0
  49 0012 1A70     		strb	r2, [r3]
  50              	.LBB24:
  51              	.LBB25:
  52              	.LBB26:
  53              	.LBB27:
  89:Generated_Source\PSoC4/QDEC_Cnt16.c ****             #endif /* 0 != QDEC_Cnt16_CAPTURE_MODE */ 
  90:Generated_Source\PSoC4/QDEC_Cnt16.c ****             
  91:Generated_Source\PSoC4/QDEC_Cnt16.c ****             #endif /* (!QDEC_Cnt16_ControlRegRemoved) */
  92:Generated_Source\PSoC4/QDEC_Cnt16.c ****         #endif /* (QDEC_Cnt16_UsingFixedFunction) */
  93:Generated_Source\PSoC4/QDEC_Cnt16.c ****         
  94:Generated_Source\PSoC4/QDEC_Cnt16.c ****         /* Clear all data in the FIFO's */
  95:Generated_Source\PSoC4/QDEC_Cnt16.c ****         #if (!QDEC_Cnt16_UsingFixedFunction)
  96:Generated_Source\PSoC4/QDEC_Cnt16.c ****             QDEC_Cnt16_ClearFIFO();
  97:Generated_Source\PSoC4/QDEC_Cnt16.c ****         #endif /* (!QDEC_Cnt16_UsingFixedFunction) */
  98:Generated_Source\PSoC4/QDEC_Cnt16.c ****         
  99:Generated_Source\PSoC4/QDEC_Cnt16.c ****         /* Set Initial values from Configuration */
 100:Generated_Source\PSoC4/QDEC_Cnt16.c ****         QDEC_Cnt16_WritePeriod(QDEC_Cnt16_INIT_PERIOD_VALUE);
 101:Generated_Source\PSoC4/QDEC_Cnt16.c ****         #if (!(QDEC_Cnt16_UsingFixedFunction && (CY_PSOC5A)))
 102:Generated_Source\PSoC4/QDEC_Cnt16.c ****             QDEC_Cnt16_WriteCounter(QDEC_Cnt16_INIT_COUNTER_VALUE);
 103:Generated_Source\PSoC4/QDEC_Cnt16.c ****         #endif /* (!(QDEC_Cnt16_UsingFixedFunction && (CY_PSOC5A))) */
 104:Generated_Source\PSoC4/QDEC_Cnt16.c ****         QDEC_Cnt16_SetInterruptMode(QDEC_Cnt16_INIT_INTERRUPTS_MASK);
 105:Generated_Source\PSoC4/QDEC_Cnt16.c ****         
 106:Generated_Source\PSoC4/QDEC_Cnt16.c ****         #if (!QDEC_Cnt16_UsingFixedFunction)
 107:Generated_Source\PSoC4/QDEC_Cnt16.c ****             /* Read the status register to clear the unwanted interrupts */
 108:Generated_Source\PSoC4/QDEC_Cnt16.c ****             (void)QDEC_Cnt16_ReadStatusRegister();
 109:Generated_Source\PSoC4/QDEC_Cnt16.c ****             /* Set the compare value (only available to non-fixed function implementation */
 110:Generated_Source\PSoC4/QDEC_Cnt16.c ****             QDEC_Cnt16_WriteCompare(QDEC_Cnt16_INIT_COMPARE_VALUE);
 111:Generated_Source\PSoC4/QDEC_Cnt16.c ****             /* Use the interrupt output of the status register for IRQ output */
 112:Generated_Source\PSoC4/QDEC_Cnt16.c ****             
 113:Generated_Source\PSoC4/QDEC_Cnt16.c ****             /* CyEnterCriticalRegion and CyExitCriticalRegion are used to mark following region cri
 114:Generated_Source\PSoC4/QDEC_Cnt16.c ****             /* Enter Critical Region*/
 115:Generated_Source\PSoC4/QDEC_Cnt16.c ****             QDEC_Cnt16_interruptState = CyEnterCriticalSection();
 116:Generated_Source\PSoC4/QDEC_Cnt16.c ****             
 117:Generated_Source\PSoC4/QDEC_Cnt16.c ****             QDEC_Cnt16_STATUS_AUX_CTRL |= QDEC_Cnt16_STATUS_ACTL_INT_EN_MASK;
ARM GAS  C:\Users\g\AppData\Local\Temp\cc7dUDHz.s 			page 4


 118:Generated_Source\PSoC4/QDEC_Cnt16.c ****             
 119:Generated_Source\PSoC4/QDEC_Cnt16.c ****             /* Exit Critical Region*/
 120:Generated_Source\PSoC4/QDEC_Cnt16.c ****             CyExitCriticalSection(QDEC_Cnt16_interruptState);
 121:Generated_Source\PSoC4/QDEC_Cnt16.c ****             
 122:Generated_Source\PSoC4/QDEC_Cnt16.c ****         #endif /* (!QDEC_Cnt16_UsingFixedFunction) */
 123:Generated_Source\PSoC4/QDEC_Cnt16.c **** }
 124:Generated_Source\PSoC4/QDEC_Cnt16.c **** 
 125:Generated_Source\PSoC4/QDEC_Cnt16.c **** 
 126:Generated_Source\PSoC4/QDEC_Cnt16.c **** /*******************************************************************************
 127:Generated_Source\PSoC4/QDEC_Cnt16.c **** * Function Name: QDEC_Cnt16_Enable
 128:Generated_Source\PSoC4/QDEC_Cnt16.c **** ********************************************************************************
 129:Generated_Source\PSoC4/QDEC_Cnt16.c **** * Summary:
 130:Generated_Source\PSoC4/QDEC_Cnt16.c **** *     Enable the Counter
 131:Generated_Source\PSoC4/QDEC_Cnt16.c **** * 
 132:Generated_Source\PSoC4/QDEC_Cnt16.c **** * Parameters:  
 133:Generated_Source\PSoC4/QDEC_Cnt16.c **** *  void  
 134:Generated_Source\PSoC4/QDEC_Cnt16.c **** *
 135:Generated_Source\PSoC4/QDEC_Cnt16.c **** * Return: 
 136:Generated_Source\PSoC4/QDEC_Cnt16.c **** *  void
 137:Generated_Source\PSoC4/QDEC_Cnt16.c **** *
 138:Generated_Source\PSoC4/QDEC_Cnt16.c **** * Side Effects: 
 139:Generated_Source\PSoC4/QDEC_Cnt16.c **** *   If the Enable mode is set to Hardware only then this function has no effect 
 140:Generated_Source\PSoC4/QDEC_Cnt16.c **** *   on the operation of the counter.
 141:Generated_Source\PSoC4/QDEC_Cnt16.c **** *
 142:Generated_Source\PSoC4/QDEC_Cnt16.c **** *******************************************************************************/
 143:Generated_Source\PSoC4/QDEC_Cnt16.c **** void QDEC_Cnt16_Enable(void) 
 144:Generated_Source\PSoC4/QDEC_Cnt16.c **** {
 145:Generated_Source\PSoC4/QDEC_Cnt16.c ****     /* Globally Enable the Fixed Function Block chosen */
 146:Generated_Source\PSoC4/QDEC_Cnt16.c ****     #if (QDEC_Cnt16_UsingFixedFunction)
 147:Generated_Source\PSoC4/QDEC_Cnt16.c ****         QDEC_Cnt16_GLOBAL_ENABLE |= QDEC_Cnt16_BLOCK_EN_MASK;
 148:Generated_Source\PSoC4/QDEC_Cnt16.c ****         QDEC_Cnt16_GLOBAL_STBY_ENABLE |= QDEC_Cnt16_BLOCK_STBY_EN_MASK;
 149:Generated_Source\PSoC4/QDEC_Cnt16.c ****     #endif /* (QDEC_Cnt16_UsingFixedFunction) */  
 150:Generated_Source\PSoC4/QDEC_Cnt16.c ****         
 151:Generated_Source\PSoC4/QDEC_Cnt16.c ****     /* Enable the counter from the control register  */
 152:Generated_Source\PSoC4/QDEC_Cnt16.c ****     /* If Fixed Function then make sure Mode is set correctly */
 153:Generated_Source\PSoC4/QDEC_Cnt16.c ****     /* else make sure reset is clear */
 154:Generated_Source\PSoC4/QDEC_Cnt16.c ****     #if(!QDEC_Cnt16_ControlRegRemoved || QDEC_Cnt16_UsingFixedFunction)
 155:Generated_Source\PSoC4/QDEC_Cnt16.c ****         QDEC_Cnt16_CONTROL |= QDEC_Cnt16_CTRL_ENABLE;                
 156:Generated_Source\PSoC4/QDEC_Cnt16.c ****     #endif /* (!QDEC_Cnt16_ControlRegRemoved || QDEC_Cnt16_UsingFixedFunction) */
 157:Generated_Source\PSoC4/QDEC_Cnt16.c ****     
 158:Generated_Source\PSoC4/QDEC_Cnt16.c **** }
 159:Generated_Source\PSoC4/QDEC_Cnt16.c **** 
 160:Generated_Source\PSoC4/QDEC_Cnt16.c **** 
 161:Generated_Source\PSoC4/QDEC_Cnt16.c **** /*******************************************************************************
 162:Generated_Source\PSoC4/QDEC_Cnt16.c **** * Function Name: QDEC_Cnt16_Start
 163:Generated_Source\PSoC4/QDEC_Cnt16.c **** ********************************************************************************
 164:Generated_Source\PSoC4/QDEC_Cnt16.c **** * Summary:
 165:Generated_Source\PSoC4/QDEC_Cnt16.c **** *  Enables the counter for operation 
 166:Generated_Source\PSoC4/QDEC_Cnt16.c **** *
 167:Generated_Source\PSoC4/QDEC_Cnt16.c **** * Parameters:  
 168:Generated_Source\PSoC4/QDEC_Cnt16.c **** *  void  
 169:Generated_Source\PSoC4/QDEC_Cnt16.c **** *
 170:Generated_Source\PSoC4/QDEC_Cnt16.c **** * Return: 
 171:Generated_Source\PSoC4/QDEC_Cnt16.c **** *  void
 172:Generated_Source\PSoC4/QDEC_Cnt16.c **** *
 173:Generated_Source\PSoC4/QDEC_Cnt16.c **** * Global variables:
 174:Generated_Source\PSoC4/QDEC_Cnt16.c **** *  QDEC_Cnt16_initVar: Is modified when this function is called for the  
ARM GAS  C:\Users\g\AppData\Local\Temp\cc7dUDHz.s 			page 5


 175:Generated_Source\PSoC4/QDEC_Cnt16.c **** *   first time. Is used to ensure that initialization happens only once.
 176:Generated_Source\PSoC4/QDEC_Cnt16.c **** *
 177:Generated_Source\PSoC4/QDEC_Cnt16.c **** *******************************************************************************/
 178:Generated_Source\PSoC4/QDEC_Cnt16.c **** void QDEC_Cnt16_Start(void) 
 179:Generated_Source\PSoC4/QDEC_Cnt16.c **** {
 180:Generated_Source\PSoC4/QDEC_Cnt16.c ****     if(QDEC_Cnt16_initVar == 0u)
 181:Generated_Source\PSoC4/QDEC_Cnt16.c ****     {
 182:Generated_Source\PSoC4/QDEC_Cnt16.c ****         QDEC_Cnt16_Init();
 183:Generated_Source\PSoC4/QDEC_Cnt16.c ****         
 184:Generated_Source\PSoC4/QDEC_Cnt16.c ****         QDEC_Cnt16_initVar = 1u; /* Clear this bit for Initialization */        
 185:Generated_Source\PSoC4/QDEC_Cnt16.c ****     }
 186:Generated_Source\PSoC4/QDEC_Cnt16.c ****     
 187:Generated_Source\PSoC4/QDEC_Cnt16.c ****     /* Enable the Counter */
 188:Generated_Source\PSoC4/QDEC_Cnt16.c ****     QDEC_Cnt16_Enable();        
 189:Generated_Source\PSoC4/QDEC_Cnt16.c **** }
 190:Generated_Source\PSoC4/QDEC_Cnt16.c **** 
 191:Generated_Source\PSoC4/QDEC_Cnt16.c **** 
 192:Generated_Source\PSoC4/QDEC_Cnt16.c **** /*******************************************************************************
 193:Generated_Source\PSoC4/QDEC_Cnt16.c **** * Function Name: QDEC_Cnt16_Stop
 194:Generated_Source\PSoC4/QDEC_Cnt16.c **** ********************************************************************************
 195:Generated_Source\PSoC4/QDEC_Cnt16.c **** * Summary:
 196:Generated_Source\PSoC4/QDEC_Cnt16.c **** * Halts the counter, but does not change any modes or disable interrupts.
 197:Generated_Source\PSoC4/QDEC_Cnt16.c **** *
 198:Generated_Source\PSoC4/QDEC_Cnt16.c **** * Parameters:  
 199:Generated_Source\PSoC4/QDEC_Cnt16.c **** *  void  
 200:Generated_Source\PSoC4/QDEC_Cnt16.c **** *
 201:Generated_Source\PSoC4/QDEC_Cnt16.c **** * Return: 
 202:Generated_Source\PSoC4/QDEC_Cnt16.c **** *  void
 203:Generated_Source\PSoC4/QDEC_Cnt16.c **** *
 204:Generated_Source\PSoC4/QDEC_Cnt16.c **** * Side Effects: If the Enable mode is set to Hardware only then this function
 205:Generated_Source\PSoC4/QDEC_Cnt16.c **** *               has no effect on the operation of the counter.
 206:Generated_Source\PSoC4/QDEC_Cnt16.c **** *
 207:Generated_Source\PSoC4/QDEC_Cnt16.c **** *******************************************************************************/
 208:Generated_Source\PSoC4/QDEC_Cnt16.c **** void QDEC_Cnt16_Stop(void) 
 209:Generated_Source\PSoC4/QDEC_Cnt16.c **** {
 210:Generated_Source\PSoC4/QDEC_Cnt16.c ****     /* Disable Counter */
 211:Generated_Source\PSoC4/QDEC_Cnt16.c ****     #if(!QDEC_Cnt16_ControlRegRemoved || QDEC_Cnt16_UsingFixedFunction)
 212:Generated_Source\PSoC4/QDEC_Cnt16.c ****         QDEC_Cnt16_CONTROL &= ((uint8)(~QDEC_Cnt16_CTRL_ENABLE));        
 213:Generated_Source\PSoC4/QDEC_Cnt16.c ****     #endif /* (!QDEC_Cnt16_ControlRegRemoved || QDEC_Cnt16_UsingFixedFunction) */
 214:Generated_Source\PSoC4/QDEC_Cnt16.c ****     
 215:Generated_Source\PSoC4/QDEC_Cnt16.c ****     /* Globally disable the Fixed Function Block chosen */
 216:Generated_Source\PSoC4/QDEC_Cnt16.c ****     #if (QDEC_Cnt16_UsingFixedFunction)
 217:Generated_Source\PSoC4/QDEC_Cnt16.c ****         QDEC_Cnt16_GLOBAL_ENABLE &= ((uint8)(~QDEC_Cnt16_BLOCK_EN_MASK));
 218:Generated_Source\PSoC4/QDEC_Cnt16.c ****         QDEC_Cnt16_GLOBAL_STBY_ENABLE &= ((uint8)(~QDEC_Cnt16_BLOCK_STBY_EN_MASK));
 219:Generated_Source\PSoC4/QDEC_Cnt16.c ****     #endif /* (QDEC_Cnt16_UsingFixedFunction) */
 220:Generated_Source\PSoC4/QDEC_Cnt16.c **** }
 221:Generated_Source\PSoC4/QDEC_Cnt16.c **** 
 222:Generated_Source\PSoC4/QDEC_Cnt16.c **** 
 223:Generated_Source\PSoC4/QDEC_Cnt16.c **** /*******************************************************************************
 224:Generated_Source\PSoC4/QDEC_Cnt16.c **** * Function Name: QDEC_Cnt16_SetInterruptMode
 225:Generated_Source\PSoC4/QDEC_Cnt16.c **** ********************************************************************************
 226:Generated_Source\PSoC4/QDEC_Cnt16.c **** * Summary:
 227:Generated_Source\PSoC4/QDEC_Cnt16.c **** * Configures which interrupt sources are enabled to generate the final interrupt
 228:Generated_Source\PSoC4/QDEC_Cnt16.c **** *
 229:Generated_Source\PSoC4/QDEC_Cnt16.c **** * Parameters:  
 230:Generated_Source\PSoC4/QDEC_Cnt16.c **** *  InterruptsMask: This parameter is an or'd collection of the status bits
 231:Generated_Source\PSoC4/QDEC_Cnt16.c **** *                   which will be allowed to generate the counters interrupt.   
ARM GAS  C:\Users\g\AppData\Local\Temp\cc7dUDHz.s 			page 6


 232:Generated_Source\PSoC4/QDEC_Cnt16.c **** *
 233:Generated_Source\PSoC4/QDEC_Cnt16.c **** * Return: 
 234:Generated_Source\PSoC4/QDEC_Cnt16.c **** *  void
 235:Generated_Source\PSoC4/QDEC_Cnt16.c **** *
 236:Generated_Source\PSoC4/QDEC_Cnt16.c **** *******************************************************************************/
 237:Generated_Source\PSoC4/QDEC_Cnt16.c **** void QDEC_Cnt16_SetInterruptMode(uint8 interruptsMask) 
 238:Generated_Source\PSoC4/QDEC_Cnt16.c **** {
 239:Generated_Source\PSoC4/QDEC_Cnt16.c ****     QDEC_Cnt16_STATUS_MASK = interruptsMask;
 240:Generated_Source\PSoC4/QDEC_Cnt16.c **** }
 241:Generated_Source\PSoC4/QDEC_Cnt16.c **** 
 242:Generated_Source\PSoC4/QDEC_Cnt16.c **** 
 243:Generated_Source\PSoC4/QDEC_Cnt16.c **** /*******************************************************************************
 244:Generated_Source\PSoC4/QDEC_Cnt16.c **** * Function Name: QDEC_Cnt16_ReadStatusRegister
 245:Generated_Source\PSoC4/QDEC_Cnt16.c **** ********************************************************************************
 246:Generated_Source\PSoC4/QDEC_Cnt16.c **** * Summary:
 247:Generated_Source\PSoC4/QDEC_Cnt16.c **** *   Reads the status register and returns it's state. This function should use
 248:Generated_Source\PSoC4/QDEC_Cnt16.c **** *       defined types for the bit-field information as the bits in this
 249:Generated_Source\PSoC4/QDEC_Cnt16.c **** *       register may be permuteable.
 250:Generated_Source\PSoC4/QDEC_Cnt16.c **** *
 251:Generated_Source\PSoC4/QDEC_Cnt16.c **** * Parameters:  
 252:Generated_Source\PSoC4/QDEC_Cnt16.c **** *  void
 253:Generated_Source\PSoC4/QDEC_Cnt16.c **** *
 254:Generated_Source\PSoC4/QDEC_Cnt16.c **** * Return: 
 255:Generated_Source\PSoC4/QDEC_Cnt16.c **** *  (uint8) The contents of the status register
 256:Generated_Source\PSoC4/QDEC_Cnt16.c **** *
 257:Generated_Source\PSoC4/QDEC_Cnt16.c **** * Side Effects:
 258:Generated_Source\PSoC4/QDEC_Cnt16.c **** *   Status register bits may be clear on read. 
 259:Generated_Source\PSoC4/QDEC_Cnt16.c **** *
 260:Generated_Source\PSoC4/QDEC_Cnt16.c **** *******************************************************************************/
 261:Generated_Source\PSoC4/QDEC_Cnt16.c **** uint8   QDEC_Cnt16_ReadStatusRegister(void) 
 262:Generated_Source\PSoC4/QDEC_Cnt16.c **** {
 263:Generated_Source\PSoC4/QDEC_Cnt16.c ****     return QDEC_Cnt16_STATUS;
  54              		.loc 1 263 0
  55 0014 104A     		ldr	r2, .L10+4
  56              	.LVL3:
  57 0016 1378     		ldrb	r3, [r2]
  58              	.LVL4:
  59              	.LBE27:
  60              	.LBE26:
 264:Generated_Source\PSoC4/QDEC_Cnt16.c **** }
 265:Generated_Source\PSoC4/QDEC_Cnt16.c **** 
 266:Generated_Source\PSoC4/QDEC_Cnt16.c **** 
 267:Generated_Source\PSoC4/QDEC_Cnt16.c **** #if(!QDEC_Cnt16_ControlRegRemoved)
 268:Generated_Source\PSoC4/QDEC_Cnt16.c **** /*******************************************************************************
 269:Generated_Source\PSoC4/QDEC_Cnt16.c **** * Function Name: QDEC_Cnt16_ReadControlRegister
 270:Generated_Source\PSoC4/QDEC_Cnt16.c **** ********************************************************************************
 271:Generated_Source\PSoC4/QDEC_Cnt16.c **** * Summary:
 272:Generated_Source\PSoC4/QDEC_Cnt16.c **** *   Reads the control register and returns it's state. This function should use
 273:Generated_Source\PSoC4/QDEC_Cnt16.c **** *       defined types for the bit-field information as the bits in this
 274:Generated_Source\PSoC4/QDEC_Cnt16.c **** *       register may be permuteable.
 275:Generated_Source\PSoC4/QDEC_Cnt16.c **** *
 276:Generated_Source\PSoC4/QDEC_Cnt16.c **** * Parameters:  
 277:Generated_Source\PSoC4/QDEC_Cnt16.c **** *  void
 278:Generated_Source\PSoC4/QDEC_Cnt16.c **** *
 279:Generated_Source\PSoC4/QDEC_Cnt16.c **** * Return: 
 280:Generated_Source\PSoC4/QDEC_Cnt16.c **** *  (uint8) The contents of the control register
 281:Generated_Source\PSoC4/QDEC_Cnt16.c **** *
ARM GAS  C:\Users\g\AppData\Local\Temp\cc7dUDHz.s 			page 7


 282:Generated_Source\PSoC4/QDEC_Cnt16.c **** *******************************************************************************/
 283:Generated_Source\PSoC4/QDEC_Cnt16.c **** uint8   QDEC_Cnt16_ReadControlRegister(void) 
 284:Generated_Source\PSoC4/QDEC_Cnt16.c **** {
 285:Generated_Source\PSoC4/QDEC_Cnt16.c ****     return QDEC_Cnt16_CONTROL;
 286:Generated_Source\PSoC4/QDEC_Cnt16.c **** }
 287:Generated_Source\PSoC4/QDEC_Cnt16.c **** 
 288:Generated_Source\PSoC4/QDEC_Cnt16.c **** 
 289:Generated_Source\PSoC4/QDEC_Cnt16.c **** /*******************************************************************************
 290:Generated_Source\PSoC4/QDEC_Cnt16.c **** * Function Name: QDEC_Cnt16_WriteControlRegister
 291:Generated_Source\PSoC4/QDEC_Cnt16.c **** ********************************************************************************
 292:Generated_Source\PSoC4/QDEC_Cnt16.c **** * Summary:
 293:Generated_Source\PSoC4/QDEC_Cnt16.c **** *   Sets the bit-field of the control register.  This function should use
 294:Generated_Source\PSoC4/QDEC_Cnt16.c **** *       defined types for the bit-field information as the bits in this
 295:Generated_Source\PSoC4/QDEC_Cnt16.c **** *       register may be permuteable.
 296:Generated_Source\PSoC4/QDEC_Cnt16.c **** *
 297:Generated_Source\PSoC4/QDEC_Cnt16.c **** * Parameters:  
 298:Generated_Source\PSoC4/QDEC_Cnt16.c **** *  void
 299:Generated_Source\PSoC4/QDEC_Cnt16.c **** *
 300:Generated_Source\PSoC4/QDEC_Cnt16.c **** * Return: 
 301:Generated_Source\PSoC4/QDEC_Cnt16.c **** *  (uint8) The contents of the control register
 302:Generated_Source\PSoC4/QDEC_Cnt16.c **** *
 303:Generated_Source\PSoC4/QDEC_Cnt16.c **** *******************************************************************************/
 304:Generated_Source\PSoC4/QDEC_Cnt16.c **** void    QDEC_Cnt16_WriteControlRegister(uint8 control) 
 305:Generated_Source\PSoC4/QDEC_Cnt16.c **** {
 306:Generated_Source\PSoC4/QDEC_Cnt16.c ****     QDEC_Cnt16_CONTROL = control;
 307:Generated_Source\PSoC4/QDEC_Cnt16.c **** }
 308:Generated_Source\PSoC4/QDEC_Cnt16.c **** 
 309:Generated_Source\PSoC4/QDEC_Cnt16.c **** #endif  /* (!QDEC_Cnt16_ControlRegRemoved) */
 310:Generated_Source\PSoC4/QDEC_Cnt16.c **** 
 311:Generated_Source\PSoC4/QDEC_Cnt16.c **** 
 312:Generated_Source\PSoC4/QDEC_Cnt16.c **** #if (!(QDEC_Cnt16_UsingFixedFunction && (CY_PSOC5A)))
 313:Generated_Source\PSoC4/QDEC_Cnt16.c **** /*******************************************************************************
 314:Generated_Source\PSoC4/QDEC_Cnt16.c **** * Function Name: QDEC_Cnt16_WriteCounter
 315:Generated_Source\PSoC4/QDEC_Cnt16.c **** ********************************************************************************
 316:Generated_Source\PSoC4/QDEC_Cnt16.c **** * Summary:
 317:Generated_Source\PSoC4/QDEC_Cnt16.c **** *   This funtion is used to set the counter to a specific value
 318:Generated_Source\PSoC4/QDEC_Cnt16.c **** *
 319:Generated_Source\PSoC4/QDEC_Cnt16.c **** * Parameters:  
 320:Generated_Source\PSoC4/QDEC_Cnt16.c **** *  counter:  New counter value. 
 321:Generated_Source\PSoC4/QDEC_Cnt16.c **** *
 322:Generated_Source\PSoC4/QDEC_Cnt16.c **** * Return: 
 323:Generated_Source\PSoC4/QDEC_Cnt16.c **** *  void 
 324:Generated_Source\PSoC4/QDEC_Cnt16.c **** *
 325:Generated_Source\PSoC4/QDEC_Cnt16.c **** *******************************************************************************/
 326:Generated_Source\PSoC4/QDEC_Cnt16.c **** void QDEC_Cnt16_WriteCounter(uint16 counter) \
 327:Generated_Source\PSoC4/QDEC_Cnt16.c ****                                    
 328:Generated_Source\PSoC4/QDEC_Cnt16.c **** {
 329:Generated_Source\PSoC4/QDEC_Cnt16.c ****     #if(QDEC_Cnt16_UsingFixedFunction)
 330:Generated_Source\PSoC4/QDEC_Cnt16.c ****         /* assert if block is already enabled */
 331:Generated_Source\PSoC4/QDEC_Cnt16.c ****         CYASSERT (0u == (QDEC_Cnt16_GLOBAL_ENABLE & QDEC_Cnt16_BLOCK_EN_MASK));
 332:Generated_Source\PSoC4/QDEC_Cnt16.c ****         /* If block is disabled, enable it and then write the counter */
 333:Generated_Source\PSoC4/QDEC_Cnt16.c ****         QDEC_Cnt16_GLOBAL_ENABLE |= QDEC_Cnt16_BLOCK_EN_MASK;
 334:Generated_Source\PSoC4/QDEC_Cnt16.c ****         CY_SET_REG16(QDEC_Cnt16_COUNTER_LSB_PTR, (uint16)counter);
 335:Generated_Source\PSoC4/QDEC_Cnt16.c ****         QDEC_Cnt16_GLOBAL_ENABLE &= ((uint8)(~QDEC_Cnt16_BLOCK_EN_MASK));
 336:Generated_Source\PSoC4/QDEC_Cnt16.c ****     #else
 337:Generated_Source\PSoC4/QDEC_Cnt16.c ****         CY_SET_REG16(QDEC_Cnt16_COUNTER_LSB_PTR, counter);
 338:Generated_Source\PSoC4/QDEC_Cnt16.c ****     #endif /* (QDEC_Cnt16_UsingFixedFunction) */
ARM GAS  C:\Users\g\AppData\Local\Temp\cc7dUDHz.s 			page 8


 339:Generated_Source\PSoC4/QDEC_Cnt16.c **** }
 340:Generated_Source\PSoC4/QDEC_Cnt16.c **** #endif /* (!(QDEC_Cnt16_UsingFixedFunction && (CY_PSOC5A))) */
 341:Generated_Source\PSoC4/QDEC_Cnt16.c **** 
 342:Generated_Source\PSoC4/QDEC_Cnt16.c **** 
 343:Generated_Source\PSoC4/QDEC_Cnt16.c **** /*******************************************************************************
 344:Generated_Source\PSoC4/QDEC_Cnt16.c **** * Function Name: QDEC_Cnt16_ReadCounter
 345:Generated_Source\PSoC4/QDEC_Cnt16.c **** ********************************************************************************
 346:Generated_Source\PSoC4/QDEC_Cnt16.c **** * Summary:
 347:Generated_Source\PSoC4/QDEC_Cnt16.c **** * Returns the current value of the counter.  It doesn't matter
 348:Generated_Source\PSoC4/QDEC_Cnt16.c **** * if the counter is enabled or running.
 349:Generated_Source\PSoC4/QDEC_Cnt16.c **** *
 350:Generated_Source\PSoC4/QDEC_Cnt16.c **** * Parameters:  
 351:Generated_Source\PSoC4/QDEC_Cnt16.c **** *  void:  
 352:Generated_Source\PSoC4/QDEC_Cnt16.c **** *
 353:Generated_Source\PSoC4/QDEC_Cnt16.c **** * Return: 
 354:Generated_Source\PSoC4/QDEC_Cnt16.c **** *  (uint16) The present value of the counter.
 355:Generated_Source\PSoC4/QDEC_Cnt16.c **** *
 356:Generated_Source\PSoC4/QDEC_Cnt16.c **** *******************************************************************************/
 357:Generated_Source\PSoC4/QDEC_Cnt16.c **** uint16 QDEC_Cnt16_ReadCounter(void) 
 358:Generated_Source\PSoC4/QDEC_Cnt16.c **** {
 359:Generated_Source\PSoC4/QDEC_Cnt16.c ****     /* Force capture by reading Accumulator */
 360:Generated_Source\PSoC4/QDEC_Cnt16.c ****     /* Must first do a software capture to be able to read the counter */
 361:Generated_Source\PSoC4/QDEC_Cnt16.c ****     /* It is up to the user code to make sure there isn't already captured data in the FIFO */
 362:Generated_Source\PSoC4/QDEC_Cnt16.c ****     #if(QDEC_Cnt16_UsingFixedFunction)
 363:Generated_Source\PSoC4/QDEC_Cnt16.c **** 		(void)CY_GET_REG16(QDEC_Cnt16_COUNTER_LSB_PTR);
 364:Generated_Source\PSoC4/QDEC_Cnt16.c **** 	#else
 365:Generated_Source\PSoC4/QDEC_Cnt16.c **** 		(void)CY_GET_REG8(QDEC_Cnt16_COUNTER_LSB_PTR_8BIT);
 366:Generated_Source\PSoC4/QDEC_Cnt16.c **** 	#endif/* (QDEC_Cnt16_UsingFixedFunction) */
 367:Generated_Source\PSoC4/QDEC_Cnt16.c ****     
 368:Generated_Source\PSoC4/QDEC_Cnt16.c ****     /* Read the data from the FIFO (or capture register for Fixed Function)*/
 369:Generated_Source\PSoC4/QDEC_Cnt16.c ****     #if(QDEC_Cnt16_UsingFixedFunction)
 370:Generated_Source\PSoC4/QDEC_Cnt16.c ****         return ((uint16)CY_GET_REG16(QDEC_Cnt16_STATICCOUNT_LSB_PTR));
 371:Generated_Source\PSoC4/QDEC_Cnt16.c ****     #else
 372:Generated_Source\PSoC4/QDEC_Cnt16.c ****         return (CY_GET_REG16(QDEC_Cnt16_STATICCOUNT_LSB_PTR));
 373:Generated_Source\PSoC4/QDEC_Cnt16.c ****     #endif /* (QDEC_Cnt16_UsingFixedFunction) */
 374:Generated_Source\PSoC4/QDEC_Cnt16.c **** }
 375:Generated_Source\PSoC4/QDEC_Cnt16.c **** 
 376:Generated_Source\PSoC4/QDEC_Cnt16.c **** 
 377:Generated_Source\PSoC4/QDEC_Cnt16.c **** /*******************************************************************************
 378:Generated_Source\PSoC4/QDEC_Cnt16.c **** * Function Name: QDEC_Cnt16_ReadCapture
 379:Generated_Source\PSoC4/QDEC_Cnt16.c **** ********************************************************************************
 380:Generated_Source\PSoC4/QDEC_Cnt16.c **** * Summary:
 381:Generated_Source\PSoC4/QDEC_Cnt16.c **** *   This function returns the last value captured.
 382:Generated_Source\PSoC4/QDEC_Cnt16.c **** *
 383:Generated_Source\PSoC4/QDEC_Cnt16.c **** * Parameters:  
 384:Generated_Source\PSoC4/QDEC_Cnt16.c **** *  void
 385:Generated_Source\PSoC4/QDEC_Cnt16.c **** *
 386:Generated_Source\PSoC4/QDEC_Cnt16.c **** * Return: 
 387:Generated_Source\PSoC4/QDEC_Cnt16.c **** *  (uint16) Present Capture value.
 388:Generated_Source\PSoC4/QDEC_Cnt16.c **** *
 389:Generated_Source\PSoC4/QDEC_Cnt16.c **** *******************************************************************************/
 390:Generated_Source\PSoC4/QDEC_Cnt16.c **** uint16 QDEC_Cnt16_ReadCapture(void) 
 391:Generated_Source\PSoC4/QDEC_Cnt16.c **** {
 392:Generated_Source\PSoC4/QDEC_Cnt16.c ****     #if(QDEC_Cnt16_UsingFixedFunction)
 393:Generated_Source\PSoC4/QDEC_Cnt16.c ****         return ((uint16)CY_GET_REG16(QDEC_Cnt16_STATICCOUNT_LSB_PTR));
 394:Generated_Source\PSoC4/QDEC_Cnt16.c ****     #else
 395:Generated_Source\PSoC4/QDEC_Cnt16.c ****         return (CY_GET_REG16(QDEC_Cnt16_STATICCOUNT_LSB_PTR));
ARM GAS  C:\Users\g\AppData\Local\Temp\cc7dUDHz.s 			page 9


 396:Generated_Source\PSoC4/QDEC_Cnt16.c ****     #endif /* (QDEC_Cnt16_UsingFixedFunction) */
 397:Generated_Source\PSoC4/QDEC_Cnt16.c **** }
 398:Generated_Source\PSoC4/QDEC_Cnt16.c **** 
 399:Generated_Source\PSoC4/QDEC_Cnt16.c **** 
 400:Generated_Source\PSoC4/QDEC_Cnt16.c **** /*******************************************************************************
 401:Generated_Source\PSoC4/QDEC_Cnt16.c **** * Function Name: QDEC_Cnt16_WritePeriod
 402:Generated_Source\PSoC4/QDEC_Cnt16.c **** ********************************************************************************
 403:Generated_Source\PSoC4/QDEC_Cnt16.c **** * Summary:
 404:Generated_Source\PSoC4/QDEC_Cnt16.c **** * Changes the period of the counter.  The new period 
 405:Generated_Source\PSoC4/QDEC_Cnt16.c **** * will be loaded the next time terminal count is detected.
 406:Generated_Source\PSoC4/QDEC_Cnt16.c **** *
 407:Generated_Source\PSoC4/QDEC_Cnt16.c **** * Parameters:  
 408:Generated_Source\PSoC4/QDEC_Cnt16.c **** *  period: (uint16) A value of 0 will result in
 409:Generated_Source\PSoC4/QDEC_Cnt16.c **** *         the counter remaining at zero.  
 410:Generated_Source\PSoC4/QDEC_Cnt16.c **** *
 411:Generated_Source\PSoC4/QDEC_Cnt16.c **** * Return: 
 412:Generated_Source\PSoC4/QDEC_Cnt16.c **** *  void
 413:Generated_Source\PSoC4/QDEC_Cnt16.c **** *
 414:Generated_Source\PSoC4/QDEC_Cnt16.c **** *******************************************************************************/
 415:Generated_Source\PSoC4/QDEC_Cnt16.c **** void QDEC_Cnt16_WritePeriod(uint16 period) 
 416:Generated_Source\PSoC4/QDEC_Cnt16.c **** {
 417:Generated_Source\PSoC4/QDEC_Cnt16.c ****     #if(QDEC_Cnt16_UsingFixedFunction)
 418:Generated_Source\PSoC4/QDEC_Cnt16.c ****         CY_SET_REG16(QDEC_Cnt16_PERIOD_LSB_PTR,(uint16)period);
 419:Generated_Source\PSoC4/QDEC_Cnt16.c ****     #else
 420:Generated_Source\PSoC4/QDEC_Cnt16.c ****         CY_SET_REG16(QDEC_Cnt16_PERIOD_LSB_PTR, period);
 421:Generated_Source\PSoC4/QDEC_Cnt16.c ****     #endif /* (QDEC_Cnt16_UsingFixedFunction) */
 422:Generated_Source\PSoC4/QDEC_Cnt16.c **** }
 423:Generated_Source\PSoC4/QDEC_Cnt16.c **** 
 424:Generated_Source\PSoC4/QDEC_Cnt16.c **** 
 425:Generated_Source\PSoC4/QDEC_Cnt16.c **** /*******************************************************************************
 426:Generated_Source\PSoC4/QDEC_Cnt16.c **** * Function Name: QDEC_Cnt16_ReadPeriod
 427:Generated_Source\PSoC4/QDEC_Cnt16.c **** ********************************************************************************
 428:Generated_Source\PSoC4/QDEC_Cnt16.c **** * Summary:
 429:Generated_Source\PSoC4/QDEC_Cnt16.c **** * Reads the current period value without affecting counter operation.
 430:Generated_Source\PSoC4/QDEC_Cnt16.c **** *
 431:Generated_Source\PSoC4/QDEC_Cnt16.c **** * Parameters:  
 432:Generated_Source\PSoC4/QDEC_Cnt16.c **** *  void:  
 433:Generated_Source\PSoC4/QDEC_Cnt16.c **** *
 434:Generated_Source\PSoC4/QDEC_Cnt16.c **** * Return: 
 435:Generated_Source\PSoC4/QDEC_Cnt16.c **** *  (uint16) Present period value.
 436:Generated_Source\PSoC4/QDEC_Cnt16.c **** *
 437:Generated_Source\PSoC4/QDEC_Cnt16.c **** *******************************************************************************/
 438:Generated_Source\PSoC4/QDEC_Cnt16.c **** uint16 QDEC_Cnt16_ReadPeriod(void) 
 439:Generated_Source\PSoC4/QDEC_Cnt16.c **** {
 440:Generated_Source\PSoC4/QDEC_Cnt16.c ****     #if(QDEC_Cnt16_UsingFixedFunction)
 441:Generated_Source\PSoC4/QDEC_Cnt16.c ****         return ((uint16)CY_GET_REG16(QDEC_Cnt16_PERIOD_LSB_PTR));
 442:Generated_Source\PSoC4/QDEC_Cnt16.c ****     #else
 443:Generated_Source\PSoC4/QDEC_Cnt16.c ****         return (CY_GET_REG16(QDEC_Cnt16_PERIOD_LSB_PTR));
 444:Generated_Source\PSoC4/QDEC_Cnt16.c ****     #endif /* (QDEC_Cnt16_UsingFixedFunction) */
 445:Generated_Source\PSoC4/QDEC_Cnt16.c **** }
 446:Generated_Source\PSoC4/QDEC_Cnt16.c **** 
 447:Generated_Source\PSoC4/QDEC_Cnt16.c **** 
 448:Generated_Source\PSoC4/QDEC_Cnt16.c **** #if (!QDEC_Cnt16_UsingFixedFunction)
 449:Generated_Source\PSoC4/QDEC_Cnt16.c **** /*******************************************************************************
 450:Generated_Source\PSoC4/QDEC_Cnt16.c **** * Function Name: QDEC_Cnt16_WriteCompare
 451:Generated_Source\PSoC4/QDEC_Cnt16.c **** ********************************************************************************
 452:Generated_Source\PSoC4/QDEC_Cnt16.c **** * Summary:
ARM GAS  C:\Users\g\AppData\Local\Temp\cc7dUDHz.s 			page 10


 453:Generated_Source\PSoC4/QDEC_Cnt16.c **** * Changes the compare value.  The compare output will 
 454:Generated_Source\PSoC4/QDEC_Cnt16.c **** * reflect the new value on the next UDB clock.  The compare output will be 
 455:Generated_Source\PSoC4/QDEC_Cnt16.c **** * driven high when the present counter value compares true based on the 
 456:Generated_Source\PSoC4/QDEC_Cnt16.c **** * configured compare mode setting. 
 457:Generated_Source\PSoC4/QDEC_Cnt16.c **** *
 458:Generated_Source\PSoC4/QDEC_Cnt16.c **** * Parameters:  
 459:Generated_Source\PSoC4/QDEC_Cnt16.c **** *  Compare:  New compare value. 
 460:Generated_Source\PSoC4/QDEC_Cnt16.c **** *
 461:Generated_Source\PSoC4/QDEC_Cnt16.c **** * Return: 
 462:Generated_Source\PSoC4/QDEC_Cnt16.c **** *  void
 463:Generated_Source\PSoC4/QDEC_Cnt16.c **** *
 464:Generated_Source\PSoC4/QDEC_Cnt16.c **** *******************************************************************************/
 465:Generated_Source\PSoC4/QDEC_Cnt16.c **** void QDEC_Cnt16_WriteCompare(uint16 compare) \
 466:Generated_Source\PSoC4/QDEC_Cnt16.c ****                                    
 467:Generated_Source\PSoC4/QDEC_Cnt16.c **** {
 468:Generated_Source\PSoC4/QDEC_Cnt16.c ****     #if(QDEC_Cnt16_UsingFixedFunction)
 469:Generated_Source\PSoC4/QDEC_Cnt16.c ****         CY_SET_REG16(QDEC_Cnt16_COMPARE_LSB_PTR, (uint16)compare);
 470:Generated_Source\PSoC4/QDEC_Cnt16.c ****     #else
 471:Generated_Source\PSoC4/QDEC_Cnt16.c ****         CY_SET_REG16(QDEC_Cnt16_COMPARE_LSB_PTR, compare);
 472:Generated_Source\PSoC4/QDEC_Cnt16.c ****     #endif /* (QDEC_Cnt16_UsingFixedFunction) */
 473:Generated_Source\PSoC4/QDEC_Cnt16.c **** }
 474:Generated_Source\PSoC4/QDEC_Cnt16.c **** 
 475:Generated_Source\PSoC4/QDEC_Cnt16.c **** 
 476:Generated_Source\PSoC4/QDEC_Cnt16.c **** /*******************************************************************************
 477:Generated_Source\PSoC4/QDEC_Cnt16.c **** * Function Name: QDEC_Cnt16_ReadCompare
 478:Generated_Source\PSoC4/QDEC_Cnt16.c **** ********************************************************************************
 479:Generated_Source\PSoC4/QDEC_Cnt16.c **** * Summary:
 480:Generated_Source\PSoC4/QDEC_Cnt16.c **** * Returns the compare value.
 481:Generated_Source\PSoC4/QDEC_Cnt16.c **** *
 482:Generated_Source\PSoC4/QDEC_Cnt16.c **** * Parameters:  
 483:Generated_Source\PSoC4/QDEC_Cnt16.c **** *  void:
 484:Generated_Source\PSoC4/QDEC_Cnt16.c **** *
 485:Generated_Source\PSoC4/QDEC_Cnt16.c **** * Return: 
 486:Generated_Source\PSoC4/QDEC_Cnt16.c **** *  (uint16) Present compare value.
 487:Generated_Source\PSoC4/QDEC_Cnt16.c **** *
 488:Generated_Source\PSoC4/QDEC_Cnt16.c **** *******************************************************************************/
 489:Generated_Source\PSoC4/QDEC_Cnt16.c **** uint16 QDEC_Cnt16_ReadCompare(void) 
 490:Generated_Source\PSoC4/QDEC_Cnt16.c **** {
 491:Generated_Source\PSoC4/QDEC_Cnt16.c ****     return (CY_GET_REG16(QDEC_Cnt16_COMPARE_LSB_PTR));
 492:Generated_Source\PSoC4/QDEC_Cnt16.c **** }
 493:Generated_Source\PSoC4/QDEC_Cnt16.c **** 
 494:Generated_Source\PSoC4/QDEC_Cnt16.c **** 
 495:Generated_Source\PSoC4/QDEC_Cnt16.c **** #if (QDEC_Cnt16_COMPARE_MODE_SOFTWARE)
 496:Generated_Source\PSoC4/QDEC_Cnt16.c **** /*******************************************************************************
 497:Generated_Source\PSoC4/QDEC_Cnt16.c **** * Function Name: QDEC_Cnt16_SetCompareMode
 498:Generated_Source\PSoC4/QDEC_Cnt16.c **** ********************************************************************************
 499:Generated_Source\PSoC4/QDEC_Cnt16.c **** * Summary:
 500:Generated_Source\PSoC4/QDEC_Cnt16.c **** *  Sets the software controlled Compare Mode.
 501:Generated_Source\PSoC4/QDEC_Cnt16.c **** *
 502:Generated_Source\PSoC4/QDEC_Cnt16.c **** * Parameters:
 503:Generated_Source\PSoC4/QDEC_Cnt16.c **** *  compareMode:  Compare Mode Enumerated Type.
 504:Generated_Source\PSoC4/QDEC_Cnt16.c **** *
 505:Generated_Source\PSoC4/QDEC_Cnt16.c **** * Return:
 506:Generated_Source\PSoC4/QDEC_Cnt16.c **** *  void
 507:Generated_Source\PSoC4/QDEC_Cnt16.c **** *
 508:Generated_Source\PSoC4/QDEC_Cnt16.c **** *******************************************************************************/
 509:Generated_Source\PSoC4/QDEC_Cnt16.c **** void QDEC_Cnt16_SetCompareMode(uint8 compareMode) 
ARM GAS  C:\Users\g\AppData\Local\Temp\cc7dUDHz.s 			page 11


 510:Generated_Source\PSoC4/QDEC_Cnt16.c **** {
 511:Generated_Source\PSoC4/QDEC_Cnt16.c ****     /* Clear the compare mode bits in the control register */
 512:Generated_Source\PSoC4/QDEC_Cnt16.c ****     QDEC_Cnt16_CONTROL &= ((uint8)(~QDEC_Cnt16_CTRL_CMPMODE_MASK));
 513:Generated_Source\PSoC4/QDEC_Cnt16.c ****     
 514:Generated_Source\PSoC4/QDEC_Cnt16.c ****     /* Write the new setting */
 515:Generated_Source\PSoC4/QDEC_Cnt16.c ****     QDEC_Cnt16_CONTROL |= compareMode;
 516:Generated_Source\PSoC4/QDEC_Cnt16.c **** }
 517:Generated_Source\PSoC4/QDEC_Cnt16.c **** #endif  /* (QDEC_Cnt16_COMPARE_MODE_SOFTWARE) */
 518:Generated_Source\PSoC4/QDEC_Cnt16.c **** 
 519:Generated_Source\PSoC4/QDEC_Cnt16.c **** 
 520:Generated_Source\PSoC4/QDEC_Cnt16.c **** #if (QDEC_Cnt16_CAPTURE_MODE_SOFTWARE)
 521:Generated_Source\PSoC4/QDEC_Cnt16.c **** /*******************************************************************************
 522:Generated_Source\PSoC4/QDEC_Cnt16.c **** * Function Name: QDEC_Cnt16_SetCaptureMode
 523:Generated_Source\PSoC4/QDEC_Cnt16.c **** ********************************************************************************
 524:Generated_Source\PSoC4/QDEC_Cnt16.c **** * Summary:
 525:Generated_Source\PSoC4/QDEC_Cnt16.c **** *  Sets the software controlled Capture Mode.
 526:Generated_Source\PSoC4/QDEC_Cnt16.c **** *
 527:Generated_Source\PSoC4/QDEC_Cnt16.c **** * Parameters:
 528:Generated_Source\PSoC4/QDEC_Cnt16.c **** *  captureMode:  Capture Mode Enumerated Type.
 529:Generated_Source\PSoC4/QDEC_Cnt16.c **** *
 530:Generated_Source\PSoC4/QDEC_Cnt16.c **** * Return:
 531:Generated_Source\PSoC4/QDEC_Cnt16.c **** *  void
 532:Generated_Source\PSoC4/QDEC_Cnt16.c **** *
 533:Generated_Source\PSoC4/QDEC_Cnt16.c **** *******************************************************************************/
 534:Generated_Source\PSoC4/QDEC_Cnt16.c **** void QDEC_Cnt16_SetCaptureMode(uint8 captureMode) 
 535:Generated_Source\PSoC4/QDEC_Cnt16.c **** {
 536:Generated_Source\PSoC4/QDEC_Cnt16.c ****     /* Clear the capture mode bits in the control register */
 537:Generated_Source\PSoC4/QDEC_Cnt16.c ****     QDEC_Cnt16_CONTROL &= ((uint8)(~QDEC_Cnt16_CTRL_CAPMODE_MASK));
 538:Generated_Source\PSoC4/QDEC_Cnt16.c ****     
 539:Generated_Source\PSoC4/QDEC_Cnt16.c ****     /* Write the new setting */
 540:Generated_Source\PSoC4/QDEC_Cnt16.c ****     QDEC_Cnt16_CONTROL |= ((uint8)((uint8)captureMode << QDEC_Cnt16_CTRL_CAPMODE0_SHIFT));
 541:Generated_Source\PSoC4/QDEC_Cnt16.c **** }
 542:Generated_Source\PSoC4/QDEC_Cnt16.c **** #endif  /* (QDEC_Cnt16_CAPTURE_MODE_SOFTWARE) */
 543:Generated_Source\PSoC4/QDEC_Cnt16.c **** 
 544:Generated_Source\PSoC4/QDEC_Cnt16.c **** 
 545:Generated_Source\PSoC4/QDEC_Cnt16.c **** /*******************************************************************************
 546:Generated_Source\PSoC4/QDEC_Cnt16.c **** * Function Name: QDEC_Cnt16_ClearFIFO
 547:Generated_Source\PSoC4/QDEC_Cnt16.c **** ********************************************************************************
 548:Generated_Source\PSoC4/QDEC_Cnt16.c **** * Summary:
 549:Generated_Source\PSoC4/QDEC_Cnt16.c **** *   This function clears all capture data from the capture FIFO
 550:Generated_Source\PSoC4/QDEC_Cnt16.c **** *
 551:Generated_Source\PSoC4/QDEC_Cnt16.c **** * Parameters:  
 552:Generated_Source\PSoC4/QDEC_Cnt16.c **** *  void:
 553:Generated_Source\PSoC4/QDEC_Cnt16.c **** *
 554:Generated_Source\PSoC4/QDEC_Cnt16.c **** * Return: 
 555:Generated_Source\PSoC4/QDEC_Cnt16.c **** *  None
 556:Generated_Source\PSoC4/QDEC_Cnt16.c **** *
 557:Generated_Source\PSoC4/QDEC_Cnt16.c **** *******************************************************************************/
 558:Generated_Source\PSoC4/QDEC_Cnt16.c **** void QDEC_Cnt16_ClearFIFO(void) 
 559:Generated_Source\PSoC4/QDEC_Cnt16.c **** {
 560:Generated_Source\PSoC4/QDEC_Cnt16.c **** 
 561:Generated_Source\PSoC4/QDEC_Cnt16.c ****     while(0u != (QDEC_Cnt16_ReadStatusRegister() & QDEC_Cnt16_STATUS_FIFONEMP))
  61              		.loc 1 561 0
  62 0018 5B06     		lsl	r3, r3, #25
  63 001a 05D5     		bpl	.L2
  64              	.LBB29:
  65              	.LBB30:
ARM GAS  C:\Users\g\AppData\Local\Temp\cc7dUDHz.s 			page 12


 395:Generated_Source\PSoC4/QDEC_Cnt16.c ****     #endif /* (QDEC_Cnt16_UsingFixedFunction) */
  66              		.loc 1 395 0
  67 001c 0F48     		ldr	r0, .L10+8
  68              	.LBE30:
  69              	.LBE29:
  70              		.loc 1 561 0
  71 001e 3D31     		add	r1, r1, #61
  72              	.L6:
  73              	.LBB32:
  74              	.LBB31:
 395:Generated_Source\PSoC4/QDEC_Cnt16.c ****     #endif /* (QDEC_Cnt16_UsingFixedFunction) */
  75              		.loc 1 395 0
  76 0020 0388     		ldrh	r3, [r0]
  77              	.LBE31:
  78              	.LBE32:
  79              	.LBB33:
  80              	.LBB28:
 263:Generated_Source\PSoC4/QDEC_Cnt16.c **** }
  81              		.loc 1 263 0
  82 0022 1378     		ldrb	r3, [r2]
  83              	.LBE28:
  84              	.LBE33:
  85              		.loc 1 561 0
  86 0024 1942     		tst	r1, r3
  87 0026 FBD1     		bne	.L6
  88              	.L2:
  89              	.LVL5:
  90              	.LBE25:
  91              	.LBE24:
  92              	.LBB34:
  93              	.LBB35:
 239:Generated_Source\PSoC4/QDEC_Cnt16.c **** }
  94              		.loc 1 239 0
  95 0028 0021     		mov	r1, #0
  96              	.LBE35:
  97              	.LBE34:
  98              	.LBB37:
  99              	.LBB38:
 420:Generated_Source\PSoC4/QDEC_Cnt16.c ****     #endif /* (QDEC_Cnt16_UsingFixedFunction) */
 100              		.loc 1 420 0
 101 002a 0D4B     		ldr	r3, .L10+12
 102 002c 0D4A     		ldr	r2, .L10+16
 103              	.LBE38:
 104              	.LBE37:
 123:Generated_Source\PSoC4/QDEC_Cnt16.c **** 
 105              		.loc 1 123 0
 106              		@ sp needed
 107              	.LBB40:
 108              	.LBB39:
 420:Generated_Source\PSoC4/QDEC_Cnt16.c ****     #endif /* (QDEC_Cnt16_UsingFixedFunction) */
 109              		.loc 1 420 0
 110 002e 1380     		strh	r3, [r2]
 111              	.LVL6:
 112              	.LBE39:
 113              	.LBE40:
 114              	.LBB41:
 115              	.LBB42:
ARM GAS  C:\Users\g\AppData\Local\Temp\cc7dUDHz.s 			page 13


 337:Generated_Source\PSoC4/QDEC_Cnt16.c ****     #endif /* (QDEC_Cnt16_UsingFixedFunction) */
 116              		.loc 1 337 0
 117 0030 0D4A     		ldr	r2, .L10+20
 118 0032 1380     		strh	r3, [r2]
 119              	.LVL7:
 120              	.LBE42:
 121              	.LBE41:
 122              	.LBB43:
 123              	.LBB36:
 239:Generated_Source\PSoC4/QDEC_Cnt16.c **** }
 124              		.loc 1 239 0
 125 0034 0D4A     		ldr	r2, .L10+24
 126 0036 1170     		strb	r1, [r2]
 127              	.LBE36:
 128              	.LBE43:
 129              	.LBB44:
 130              	.LBB45:
 263:Generated_Source\PSoC4/QDEC_Cnt16.c **** }
 131              		.loc 1 263 0
 132 0038 074A     		ldr	r2, .L10+4
 133 003a 1278     		ldrb	r2, [r2]
 134              	.LVL8:
 135              	.LBE45:
 136              	.LBE44:
 137              	.LBB46:
 138              	.LBB47:
 471:Generated_Source\PSoC4/QDEC_Cnt16.c ****     #endif /* (QDEC_Cnt16_UsingFixedFunction) */
 139              		.loc 1 471 0
 140 003c 0C4A     		ldr	r2, .L10+28
 141 003e 1380     		strh	r3, [r2]
 142              	.LBE47:
 143              	.LBE46:
 115:Generated_Source\PSoC4/QDEC_Cnt16.c ****             
 144              		.loc 1 115 0
 145 0040 FFF7FEFF 		bl	CyEnterCriticalSection
 146              	.LVL9:
 117:Generated_Source\PSoC4/QDEC_Cnt16.c ****             
 147              		.loc 1 117 0
 148 0044 1023     		mov	r3, #16
 149 0046 0B4A     		ldr	r2, .L10+32
 150 0048 1178     		ldrb	r1, [r2]
 151 004a 0B43     		orr	r3, r1
 152 004c 1370     		strb	r3, [r2]
 120:Generated_Source\PSoC4/QDEC_Cnt16.c ****             
 153              		.loc 1 120 0
 154 004e FFF7FEFF 		bl	CyExitCriticalSection
 155              	.LVL10:
 123:Generated_Source\PSoC4/QDEC_Cnt16.c **** 
 156              		.loc 1 123 0
 157 0052 08BD     		pop	{r3, pc}
 158              	.L11:
 159              		.align	2
 160              	.L10:
 161 0054 72000F40 		.word	1074724978
 162 0058 62000F40 		.word	1074724962
 163 005c 80100F40 		.word	1074729088
 164 0060 0080FFFF 		.word	-32768
ARM GAS  C:\Users\g\AppData\Local\Temp\cc7dUDHz.s 			page 14


 165 0064 40100F40 		.word	1074729024
 166 0068 00100F40 		.word	1074728960
 167 006c 82000F40 		.word	1074724994
 168 0070 60100F40 		.word	1074729056
 169 0074 92000F40 		.word	1074725010
 170              		.cfi_endproc
 171              	.LFE0:
 172              		.size	QDEC_Cnt16_Init, .-QDEC_Cnt16_Init
 173              		.section	.text.QDEC_Cnt16_Enable,"ax",%progbits
 174              		.align	2
 175              		.global	QDEC_Cnt16_Enable
 176              		.code	16
 177              		.thumb_func
 178              		.type	QDEC_Cnt16_Enable, %function
 179              	QDEC_Cnt16_Enable:
 180              	.LFB1:
 144:Generated_Source\PSoC4/QDEC_Cnt16.c ****     /* Globally Enable the Fixed Function Block chosen */
 181              		.loc 1 144 0
 182              		.cfi_startproc
 155:Generated_Source\PSoC4/QDEC_Cnt16.c ****     #endif /* (!QDEC_Cnt16_ControlRegRemoved || QDEC_Cnt16_UsingFixedFunction) */
 183              		.loc 1 155 0
 184 0000 8023     		mov	r3, #128
 185 0002 024A     		ldr	r2, .L13
 158:Generated_Source\PSoC4/QDEC_Cnt16.c **** 
 186              		.loc 1 158 0
 187              		@ sp needed
 155:Generated_Source\PSoC4/QDEC_Cnt16.c ****     #endif /* (!QDEC_Cnt16_ControlRegRemoved || QDEC_Cnt16_UsingFixedFunction) */
 188              		.loc 1 155 0
 189 0004 1178     		ldrb	r1, [r2]
 190 0006 0B43     		orr	r3, r1
 191 0008 1370     		strb	r3, [r2]
 158:Generated_Source\PSoC4/QDEC_Cnt16.c **** 
 192              		.loc 1 158 0
 193 000a 7047     		bx	lr
 194              	.L14:
 195              		.align	2
 196              	.L13:
 197 000c 72000F40 		.word	1074724978
 198              		.cfi_endproc
 199              	.LFE1:
 200              		.size	QDEC_Cnt16_Enable, .-QDEC_Cnt16_Enable
 201              		.section	.text.QDEC_Cnt16_Start,"ax",%progbits
 202              		.align	2
 203              		.global	QDEC_Cnt16_Start
 204              		.code	16
 205              		.thumb_func
 206              		.type	QDEC_Cnt16_Start, %function
 207              	QDEC_Cnt16_Start:
 208              	.LFB2:
 179:Generated_Source\PSoC4/QDEC_Cnt16.c ****     if(QDEC_Cnt16_initVar == 0u)
 209              		.loc 1 179 0
 210              		.cfi_startproc
 211 0000 10B5     		push	{r4, lr}
 212              		.cfi_def_cfa_offset 8
 213              		.cfi_offset 4, -8
 214              		.cfi_offset 14, -4
 180:Generated_Source\PSoC4/QDEC_Cnt16.c ****     {
ARM GAS  C:\Users\g\AppData\Local\Temp\cc7dUDHz.s 			page 15


 215              		.loc 1 180 0
 216 0002 074C     		ldr	r4, .L17
 217 0004 2378     		ldrb	r3, [r4]
 218 0006 002B     		cmp	r3, #0
 219 0008 03D1     		bne	.L16
 182:Generated_Source\PSoC4/QDEC_Cnt16.c ****         
 220              		.loc 1 182 0
 221 000a FFF7FEFF 		bl	QDEC_Cnt16_Init
 222              	.LVL11:
 184:Generated_Source\PSoC4/QDEC_Cnt16.c ****     }
 223              		.loc 1 184 0
 224 000e 0123     		mov	r3, #1
 225 0010 2370     		strb	r3, [r4]
 226              	.L16:
 227              	.LBB48:
 228              	.LBB49:
 155:Generated_Source\PSoC4/QDEC_Cnt16.c ****     #endif /* (!QDEC_Cnt16_ControlRegRemoved || QDEC_Cnt16_UsingFixedFunction) */
 229              		.loc 1 155 0
 230 0012 8023     		mov	r3, #128
 231 0014 034A     		ldr	r2, .L17+4
 232              	.LBE49:
 233              	.LBE48:
 189:Generated_Source\PSoC4/QDEC_Cnt16.c **** 
 234              		.loc 1 189 0
 235              		@ sp needed
 236              	.LBB51:
 237              	.LBB50:
 155:Generated_Source\PSoC4/QDEC_Cnt16.c ****     #endif /* (!QDEC_Cnt16_ControlRegRemoved || QDEC_Cnt16_UsingFixedFunction) */
 238              		.loc 1 155 0
 239 0016 1178     		ldrb	r1, [r2]
 240 0018 0B43     		orr	r3, r1
 241 001a 1370     		strb	r3, [r2]
 242              	.LBE50:
 243              	.LBE51:
 189:Generated_Source\PSoC4/QDEC_Cnt16.c **** 
 244              		.loc 1 189 0
 245 001c 10BD     		pop	{r4, pc}
 246              	.L18:
 247 001e C046     		.align	2
 248              	.L17:
 249 0020 00000000 		.word	.LANCHOR0
 250 0024 72000F40 		.word	1074724978
 251              		.cfi_endproc
 252              	.LFE2:
 253              		.size	QDEC_Cnt16_Start, .-QDEC_Cnt16_Start
 254              		.section	.text.QDEC_Cnt16_Stop,"ax",%progbits
 255              		.align	2
 256              		.global	QDEC_Cnt16_Stop
 257              		.code	16
 258              		.thumb_func
 259              		.type	QDEC_Cnt16_Stop, %function
 260              	QDEC_Cnt16_Stop:
 261              	.LFB3:
 209:Generated_Source\PSoC4/QDEC_Cnt16.c ****     /* Disable Counter */
 262              		.loc 1 209 0
 263              		.cfi_startproc
 212:Generated_Source\PSoC4/QDEC_Cnt16.c ****     #endif /* (!QDEC_Cnt16_ControlRegRemoved || QDEC_Cnt16_UsingFixedFunction) */
ARM GAS  C:\Users\g\AppData\Local\Temp\cc7dUDHz.s 			page 16


 264              		.loc 1 212 0
 265 0000 7F21     		mov	r1, #127
 266 0002 024A     		ldr	r2, .L20
 220:Generated_Source\PSoC4/QDEC_Cnt16.c **** 
 267              		.loc 1 220 0
 268              		@ sp needed
 212:Generated_Source\PSoC4/QDEC_Cnt16.c ****     #endif /* (!QDEC_Cnt16_ControlRegRemoved || QDEC_Cnt16_UsingFixedFunction) */
 269              		.loc 1 212 0
 270 0004 1378     		ldrb	r3, [r2]
 271 0006 0B40     		and	r3, r1
 272 0008 1370     		strb	r3, [r2]
 220:Generated_Source\PSoC4/QDEC_Cnt16.c **** 
 273              		.loc 1 220 0
 274 000a 7047     		bx	lr
 275              	.L21:
 276              		.align	2
 277              	.L20:
 278 000c 72000F40 		.word	1074724978
 279              		.cfi_endproc
 280              	.LFE3:
 281              		.size	QDEC_Cnt16_Stop, .-QDEC_Cnt16_Stop
 282              		.section	.text.QDEC_Cnt16_SetInterruptMode,"ax",%progbits
 283              		.align	2
 284              		.global	QDEC_Cnt16_SetInterruptMode
 285              		.code	16
 286              		.thumb_func
 287              		.type	QDEC_Cnt16_SetInterruptMode, %function
 288              	QDEC_Cnt16_SetInterruptMode:
 289              	.LFB4:
 238:Generated_Source\PSoC4/QDEC_Cnt16.c ****     QDEC_Cnt16_STATUS_MASK = interruptsMask;
 290              		.loc 1 238 0
 291              		.cfi_startproc
 292              	.LVL12:
 239:Generated_Source\PSoC4/QDEC_Cnt16.c **** }
 293              		.loc 1 239 0
 294 0000 014B     		ldr	r3, .L23
 240:Generated_Source\PSoC4/QDEC_Cnt16.c **** 
 295              		.loc 1 240 0
 296              		@ sp needed
 239:Generated_Source\PSoC4/QDEC_Cnt16.c **** }
 297              		.loc 1 239 0
 298 0002 1870     		strb	r0, [r3]
 240:Generated_Source\PSoC4/QDEC_Cnt16.c **** 
 299              		.loc 1 240 0
 300 0004 7047     		bx	lr
 301              	.L24:
 302 0006 C046     		.align	2
 303              	.L23:
 304 0008 82000F40 		.word	1074724994
 305              		.cfi_endproc
 306              	.LFE4:
 307              		.size	QDEC_Cnt16_SetInterruptMode, .-QDEC_Cnt16_SetInterruptMode
 308              		.section	.text.QDEC_Cnt16_ReadStatusRegister,"ax",%progbits
 309              		.align	2
 310              		.global	QDEC_Cnt16_ReadStatusRegister
 311              		.code	16
 312              		.thumb_func
ARM GAS  C:\Users\g\AppData\Local\Temp\cc7dUDHz.s 			page 17


 313              		.type	QDEC_Cnt16_ReadStatusRegister, %function
 314              	QDEC_Cnt16_ReadStatusRegister:
 315              	.LFB5:
 262:Generated_Source\PSoC4/QDEC_Cnt16.c ****     return QDEC_Cnt16_STATUS;
 316              		.loc 1 262 0
 317              		.cfi_startproc
 263:Generated_Source\PSoC4/QDEC_Cnt16.c **** }
 318              		.loc 1 263 0
 319 0000 014B     		ldr	r3, .L26
 264:Generated_Source\PSoC4/QDEC_Cnt16.c **** 
 320              		.loc 1 264 0
 321              		@ sp needed
 263:Generated_Source\PSoC4/QDEC_Cnt16.c **** }
 322              		.loc 1 263 0
 323 0002 1878     		ldrb	r0, [r3]
 324 0004 C0B2     		uxtb	r0, r0
 264:Generated_Source\PSoC4/QDEC_Cnt16.c **** 
 325              		.loc 1 264 0
 326 0006 7047     		bx	lr
 327              	.L27:
 328              		.align	2
 329              	.L26:
 330 0008 62000F40 		.word	1074724962
 331              		.cfi_endproc
 332              	.LFE5:
 333              		.size	QDEC_Cnt16_ReadStatusRegister, .-QDEC_Cnt16_ReadStatusRegister
 334              		.section	.text.QDEC_Cnt16_ReadControlRegister,"ax",%progbits
 335              		.align	2
 336              		.global	QDEC_Cnt16_ReadControlRegister
 337              		.code	16
 338              		.thumb_func
 339              		.type	QDEC_Cnt16_ReadControlRegister, %function
 340              	QDEC_Cnt16_ReadControlRegister:
 341              	.LFB6:
 284:Generated_Source\PSoC4/QDEC_Cnt16.c ****     return QDEC_Cnt16_CONTROL;
 342              		.loc 1 284 0
 343              		.cfi_startproc
 285:Generated_Source\PSoC4/QDEC_Cnt16.c **** }
 344              		.loc 1 285 0
 345 0000 014B     		ldr	r3, .L29
 286:Generated_Source\PSoC4/QDEC_Cnt16.c **** 
 346              		.loc 1 286 0
 347              		@ sp needed
 285:Generated_Source\PSoC4/QDEC_Cnt16.c **** }
 348              		.loc 1 285 0
 349 0002 1878     		ldrb	r0, [r3]
 350 0004 C0B2     		uxtb	r0, r0
 286:Generated_Source\PSoC4/QDEC_Cnt16.c **** 
 351              		.loc 1 286 0
 352 0006 7047     		bx	lr
 353              	.L30:
 354              		.align	2
 355              	.L29:
 356 0008 72000F40 		.word	1074724978
 357              		.cfi_endproc
 358              	.LFE6:
 359              		.size	QDEC_Cnt16_ReadControlRegister, .-QDEC_Cnt16_ReadControlRegister
ARM GAS  C:\Users\g\AppData\Local\Temp\cc7dUDHz.s 			page 18


 360              		.section	.text.QDEC_Cnt16_WriteControlRegister,"ax",%progbits
 361              		.align	2
 362              		.global	QDEC_Cnt16_WriteControlRegister
 363              		.code	16
 364              		.thumb_func
 365              		.type	QDEC_Cnt16_WriteControlRegister, %function
 366              	QDEC_Cnt16_WriteControlRegister:
 367              	.LFB7:
 305:Generated_Source\PSoC4/QDEC_Cnt16.c ****     QDEC_Cnt16_CONTROL = control;
 368              		.loc 1 305 0
 369              		.cfi_startproc
 370              	.LVL13:
 306:Generated_Source\PSoC4/QDEC_Cnt16.c **** }
 371              		.loc 1 306 0
 372 0000 014B     		ldr	r3, .L32
 307:Generated_Source\PSoC4/QDEC_Cnt16.c **** 
 373              		.loc 1 307 0
 374              		@ sp needed
 306:Generated_Source\PSoC4/QDEC_Cnt16.c **** }
 375              		.loc 1 306 0
 376 0002 1870     		strb	r0, [r3]
 307:Generated_Source\PSoC4/QDEC_Cnt16.c **** 
 377              		.loc 1 307 0
 378 0004 7047     		bx	lr
 379              	.L33:
 380 0006 C046     		.align	2
 381              	.L32:
 382 0008 72000F40 		.word	1074724978
 383              		.cfi_endproc
 384              	.LFE7:
 385              		.size	QDEC_Cnt16_WriteControlRegister, .-QDEC_Cnt16_WriteControlRegister
 386              		.section	.text.QDEC_Cnt16_WriteCounter,"ax",%progbits
 387              		.align	2
 388              		.global	QDEC_Cnt16_WriteCounter
 389              		.code	16
 390              		.thumb_func
 391              		.type	QDEC_Cnt16_WriteCounter, %function
 392              	QDEC_Cnt16_WriteCounter:
 393              	.LFB8:
 328:Generated_Source\PSoC4/QDEC_Cnt16.c ****     #if(QDEC_Cnt16_UsingFixedFunction)
 394              		.loc 1 328 0
 395              		.cfi_startproc
 396              	.LVL14:
 337:Generated_Source\PSoC4/QDEC_Cnt16.c ****     #endif /* (QDEC_Cnt16_UsingFixedFunction) */
 397              		.loc 1 337 0
 398 0000 014B     		ldr	r3, .L35
 339:Generated_Source\PSoC4/QDEC_Cnt16.c **** #endif /* (!(QDEC_Cnt16_UsingFixedFunction && (CY_PSOC5A))) */
 399              		.loc 1 339 0
 400              		@ sp needed
 337:Generated_Source\PSoC4/QDEC_Cnt16.c ****     #endif /* (QDEC_Cnt16_UsingFixedFunction) */
 401              		.loc 1 337 0
 402 0002 1880     		strh	r0, [r3]
 339:Generated_Source\PSoC4/QDEC_Cnt16.c **** #endif /* (!(QDEC_Cnt16_UsingFixedFunction && (CY_PSOC5A))) */
 403              		.loc 1 339 0
 404 0004 7047     		bx	lr
 405              	.L36:
 406 0006 C046     		.align	2
ARM GAS  C:\Users\g\AppData\Local\Temp\cc7dUDHz.s 			page 19


 407              	.L35:
 408 0008 00100F40 		.word	1074728960
 409              		.cfi_endproc
 410              	.LFE8:
 411              		.size	QDEC_Cnt16_WriteCounter, .-QDEC_Cnt16_WriteCounter
 412              		.section	.text.QDEC_Cnt16_ReadCounter,"ax",%progbits
 413              		.align	2
 414              		.global	QDEC_Cnt16_ReadCounter
 415              		.code	16
 416              		.thumb_func
 417              		.type	QDEC_Cnt16_ReadCounter, %function
 418              	QDEC_Cnt16_ReadCounter:
 419              	.LFB9:
 358:Generated_Source\PSoC4/QDEC_Cnt16.c ****     /* Force capture by reading Accumulator */
 420              		.loc 1 358 0
 421              		.cfi_startproc
 365:Generated_Source\PSoC4/QDEC_Cnt16.c **** 	#endif/* (QDEC_Cnt16_UsingFixedFunction) */
 422              		.loc 1 365 0
 423 0000 024B     		ldr	r3, .L38
 374:Generated_Source\PSoC4/QDEC_Cnt16.c **** 
 424              		.loc 1 374 0
 425              		@ sp needed
 365:Generated_Source\PSoC4/QDEC_Cnt16.c **** 	#endif/* (QDEC_Cnt16_UsingFixedFunction) */
 426              		.loc 1 365 0
 427 0002 1B78     		ldrb	r3, [r3]
 372:Generated_Source\PSoC4/QDEC_Cnt16.c ****     #endif /* (QDEC_Cnt16_UsingFixedFunction) */
 428              		.loc 1 372 0
 429 0004 024B     		ldr	r3, .L38+4
 430 0006 1888     		ldrh	r0, [r3]
 431 0008 80B2     		uxth	r0, r0
 374:Generated_Source\PSoC4/QDEC_Cnt16.c **** 
 432              		.loc 1 374 0
 433 000a 7047     		bx	lr
 434              	.L39:
 435              		.align	2
 436              	.L38:
 437 000c 00000F40 		.word	1074724864
 438 0010 80100F40 		.word	1074729088
 439              		.cfi_endproc
 440              	.LFE9:
 441              		.size	QDEC_Cnt16_ReadCounter, .-QDEC_Cnt16_ReadCounter
 442              		.section	.text.QDEC_Cnt16_ReadCapture,"ax",%progbits
 443              		.align	2
 444              		.global	QDEC_Cnt16_ReadCapture
 445              		.code	16
 446              		.thumb_func
 447              		.type	QDEC_Cnt16_ReadCapture, %function
 448              	QDEC_Cnt16_ReadCapture:
 449              	.LFB10:
 391:Generated_Source\PSoC4/QDEC_Cnt16.c ****     #if(QDEC_Cnt16_UsingFixedFunction)
 450              		.loc 1 391 0
 451              		.cfi_startproc
 395:Generated_Source\PSoC4/QDEC_Cnt16.c ****     #endif /* (QDEC_Cnt16_UsingFixedFunction) */
 452              		.loc 1 395 0
 453 0000 014B     		ldr	r3, .L41
 397:Generated_Source\PSoC4/QDEC_Cnt16.c **** 
 454              		.loc 1 397 0
ARM GAS  C:\Users\g\AppData\Local\Temp\cc7dUDHz.s 			page 20


 455              		@ sp needed
 395:Generated_Source\PSoC4/QDEC_Cnt16.c ****     #endif /* (QDEC_Cnt16_UsingFixedFunction) */
 456              		.loc 1 395 0
 457 0002 1888     		ldrh	r0, [r3]
 458 0004 80B2     		uxth	r0, r0
 397:Generated_Source\PSoC4/QDEC_Cnt16.c **** 
 459              		.loc 1 397 0
 460 0006 7047     		bx	lr
 461              	.L42:
 462              		.align	2
 463              	.L41:
 464 0008 80100F40 		.word	1074729088
 465              		.cfi_endproc
 466              	.LFE10:
 467              		.size	QDEC_Cnt16_ReadCapture, .-QDEC_Cnt16_ReadCapture
 468              		.section	.text.QDEC_Cnt16_WritePeriod,"ax",%progbits
 469              		.align	2
 470              		.global	QDEC_Cnt16_WritePeriod
 471              		.code	16
 472              		.thumb_func
 473              		.type	QDEC_Cnt16_WritePeriod, %function
 474              	QDEC_Cnt16_WritePeriod:
 475              	.LFB11:
 416:Generated_Source\PSoC4/QDEC_Cnt16.c ****     #if(QDEC_Cnt16_UsingFixedFunction)
 476              		.loc 1 416 0
 477              		.cfi_startproc
 478              	.LVL15:
 420:Generated_Source\PSoC4/QDEC_Cnt16.c ****     #endif /* (QDEC_Cnt16_UsingFixedFunction) */
 479              		.loc 1 420 0
 480 0000 014B     		ldr	r3, .L44
 422:Generated_Source\PSoC4/QDEC_Cnt16.c **** 
 481              		.loc 1 422 0
 482              		@ sp needed
 420:Generated_Source\PSoC4/QDEC_Cnt16.c ****     #endif /* (QDEC_Cnt16_UsingFixedFunction) */
 483              		.loc 1 420 0
 484 0002 1880     		strh	r0, [r3]
 422:Generated_Source\PSoC4/QDEC_Cnt16.c **** 
 485              		.loc 1 422 0
 486 0004 7047     		bx	lr
 487              	.L45:
 488 0006 C046     		.align	2
 489              	.L44:
 490 0008 40100F40 		.word	1074729024
 491              		.cfi_endproc
 492              	.LFE11:
 493              		.size	QDEC_Cnt16_WritePeriod, .-QDEC_Cnt16_WritePeriod
 494              		.section	.text.QDEC_Cnt16_ReadPeriod,"ax",%progbits
 495              		.align	2
 496              		.global	QDEC_Cnt16_ReadPeriod
 497              		.code	16
 498              		.thumb_func
 499              		.type	QDEC_Cnt16_ReadPeriod, %function
 500              	QDEC_Cnt16_ReadPeriod:
 501              	.LFB12:
 439:Generated_Source\PSoC4/QDEC_Cnt16.c ****     #if(QDEC_Cnt16_UsingFixedFunction)
 502              		.loc 1 439 0
 503              		.cfi_startproc
ARM GAS  C:\Users\g\AppData\Local\Temp\cc7dUDHz.s 			page 21


 443:Generated_Source\PSoC4/QDEC_Cnt16.c ****     #endif /* (QDEC_Cnt16_UsingFixedFunction) */
 504              		.loc 1 443 0
 505 0000 014B     		ldr	r3, .L47
 445:Generated_Source\PSoC4/QDEC_Cnt16.c **** 
 506              		.loc 1 445 0
 507              		@ sp needed
 443:Generated_Source\PSoC4/QDEC_Cnt16.c ****     #endif /* (QDEC_Cnt16_UsingFixedFunction) */
 508              		.loc 1 443 0
 509 0002 1888     		ldrh	r0, [r3]
 510 0004 80B2     		uxth	r0, r0
 445:Generated_Source\PSoC4/QDEC_Cnt16.c **** 
 511              		.loc 1 445 0
 512 0006 7047     		bx	lr
 513              	.L48:
 514              		.align	2
 515              	.L47:
 516 0008 40100F40 		.word	1074729024
 517              		.cfi_endproc
 518              	.LFE12:
 519              		.size	QDEC_Cnt16_ReadPeriod, .-QDEC_Cnt16_ReadPeriod
 520              		.section	.text.QDEC_Cnt16_WriteCompare,"ax",%progbits
 521              		.align	2
 522              		.global	QDEC_Cnt16_WriteCompare
 523              		.code	16
 524              		.thumb_func
 525              		.type	QDEC_Cnt16_WriteCompare, %function
 526              	QDEC_Cnt16_WriteCompare:
 527              	.LFB13:
 467:Generated_Source\PSoC4/QDEC_Cnt16.c ****     #if(QDEC_Cnt16_UsingFixedFunction)
 528              		.loc 1 467 0
 529              		.cfi_startproc
 530              	.LVL16:
 471:Generated_Source\PSoC4/QDEC_Cnt16.c ****     #endif /* (QDEC_Cnt16_UsingFixedFunction) */
 531              		.loc 1 471 0
 532 0000 014B     		ldr	r3, .L50
 473:Generated_Source\PSoC4/QDEC_Cnt16.c **** 
 533              		.loc 1 473 0
 534              		@ sp needed
 471:Generated_Source\PSoC4/QDEC_Cnt16.c ****     #endif /* (QDEC_Cnt16_UsingFixedFunction) */
 535              		.loc 1 471 0
 536 0002 1880     		strh	r0, [r3]
 473:Generated_Source\PSoC4/QDEC_Cnt16.c **** 
 537              		.loc 1 473 0
 538 0004 7047     		bx	lr
 539              	.L51:
 540 0006 C046     		.align	2
 541              	.L50:
 542 0008 60100F40 		.word	1074729056
 543              		.cfi_endproc
 544              	.LFE13:
 545              		.size	QDEC_Cnt16_WriteCompare, .-QDEC_Cnt16_WriteCompare
 546              		.section	.text.QDEC_Cnt16_ReadCompare,"ax",%progbits
 547              		.align	2
 548              		.global	QDEC_Cnt16_ReadCompare
 549              		.code	16
 550              		.thumb_func
 551              		.type	QDEC_Cnt16_ReadCompare, %function
ARM GAS  C:\Users\g\AppData\Local\Temp\cc7dUDHz.s 			page 22


 552              	QDEC_Cnt16_ReadCompare:
 553              	.LFB14:
 490:Generated_Source\PSoC4/QDEC_Cnt16.c ****     return (CY_GET_REG16(QDEC_Cnt16_COMPARE_LSB_PTR));
 554              		.loc 1 490 0
 555              		.cfi_startproc
 491:Generated_Source\PSoC4/QDEC_Cnt16.c **** }
 556              		.loc 1 491 0
 557 0000 014B     		ldr	r3, .L53
 492:Generated_Source\PSoC4/QDEC_Cnt16.c **** 
 558              		.loc 1 492 0
 559              		@ sp needed
 491:Generated_Source\PSoC4/QDEC_Cnt16.c **** }
 560              		.loc 1 491 0
 561 0002 1888     		ldrh	r0, [r3]
 562 0004 80B2     		uxth	r0, r0
 492:Generated_Source\PSoC4/QDEC_Cnt16.c **** 
 563              		.loc 1 492 0
 564 0006 7047     		bx	lr
 565              	.L54:
 566              		.align	2
 567              	.L53:
 568 0008 60100F40 		.word	1074729056
 569              		.cfi_endproc
 570              	.LFE14:
 571              		.size	QDEC_Cnt16_ReadCompare, .-QDEC_Cnt16_ReadCompare
 572              		.section	.text.QDEC_Cnt16_ClearFIFO,"ax",%progbits
 573              		.align	2
 574              		.global	QDEC_Cnt16_ClearFIFO
 575              		.code	16
 576              		.thumb_func
 577              		.type	QDEC_Cnt16_ClearFIFO, %function
 578              	QDEC_Cnt16_ClearFIFO:
 579              	.LFB15:
 559:Generated_Source\PSoC4/QDEC_Cnt16.c **** 
 580              		.loc 1 559 0
 581              		.cfi_startproc
 582              	.LBB52:
 583              	.LBB53:
 263:Generated_Source\PSoC4/QDEC_Cnt16.c **** }
 584              		.loc 1 263 0
 585 0000 054A     		ldr	r2, .L63
 586 0002 1378     		ldrb	r3, [r2]
 587              	.LBE53:
 588              	.LBE52:
 589              		.loc 1 561 0
 590 0004 5B06     		lsl	r3, r3, #25
 591 0006 05D5     		bpl	.L55
 592 0008 4021     		mov	r1, #64
 593              	.LBB55:
 594              	.LBB56:
 395:Generated_Source\PSoC4/QDEC_Cnt16.c ****     #endif /* (QDEC_Cnt16_UsingFixedFunction) */
 595              		.loc 1 395 0
 596 000a 0448     		ldr	r0, .L63+4
 597              	.L60:
 598 000c 0388     		ldrh	r3, [r0]
 599              	.LBE56:
 600              	.LBE55:
ARM GAS  C:\Users\g\AppData\Local\Temp\cc7dUDHz.s 			page 23


 601              	.LBB57:
 602              	.LBB54:
 263:Generated_Source\PSoC4/QDEC_Cnt16.c **** }
 603              		.loc 1 263 0
 604 000e 1378     		ldrb	r3, [r2]
 605              	.LBE54:
 606              	.LBE57:
 607              		.loc 1 561 0
 608 0010 1942     		tst	r1, r3
 609 0012 FBD1     		bne	.L60
 610              	.L55:
 562:Generated_Source\PSoC4/QDEC_Cnt16.c ****     {
 563:Generated_Source\PSoC4/QDEC_Cnt16.c ****         (void)QDEC_Cnt16_ReadCapture();
 564:Generated_Source\PSoC4/QDEC_Cnt16.c ****     }
 565:Generated_Source\PSoC4/QDEC_Cnt16.c **** 
 566:Generated_Source\PSoC4/QDEC_Cnt16.c **** }
 611              		.loc 1 566 0
 612              		@ sp needed
 613 0014 7047     		bx	lr
 614              	.L64:
 615 0016 C046     		.align	2
 616              	.L63:
 617 0018 62000F40 		.word	1074724962
 618 001c 80100F40 		.word	1074729088
 619              		.cfi_endproc
 620              	.LFE15:
 621              		.size	QDEC_Cnt16_ClearFIFO, .-QDEC_Cnt16_ClearFIFO
 622              		.global	QDEC_Cnt16_initVar
 623              		.bss
 624              		.set	.LANCHOR0,. + 0
 625              		.type	QDEC_Cnt16_initVar, %object
 626              		.size	QDEC_Cnt16_initVar, 1
 627              	QDEC_Cnt16_initVar:
 628 0000 00       		.space	1
 629              		.text
 630              	.Letext0:
 631              		.file 2 "Generated_Source\\PSoC4\\cytypes.h"
 632              		.file 3 "Generated_Source\\PSoC4\\CyLib.h"