ARM GAS  C:\Users\g\AppData\Local\Temp\ccJvPa3O.s 			page 1


   1              		.cpu cortex-m0
   2              		.fpu softvfp
   3              		.eabi_attribute 20, 1
   4              		.eabi_attribute 21, 1
   5              		.eabi_attribute 23, 3
   6              		.eabi_attribute 24, 1
   7              		.eabi_attribute 25, 1
   8              		.eabi_attribute 26, 1
   9              		.eabi_attribute 30, 2
  10              		.eabi_attribute 34, 0
  11              		.eabi_attribute 18, 4
  12              		.code	16
  13              		.file	"QDEC_FAULT.c"
  14              		.text
  15              	.Ltext0:
  16              		.cfi_sections	.debug_frame
  17              		.section	.text.QDEC_FAULT_Read,"ax",%progbits
  18              		.align	2
  19              		.global	QDEC_FAULT_Read
  20              		.code	16
  21              		.thumb_func
  22              		.type	QDEC_FAULT_Read, %function
  23              	QDEC_FAULT_Read:
  24              	.LFB0:
  25              		.file 1 ".\\Generated_Source\\PSoC4\\QDEC_FAULT.c"
   1:.\Generated_Source\PSoC4/QDEC_FAULT.c **** /*******************************************************************************
   2:.\Generated_Source\PSoC4/QDEC_FAULT.c **** * File Name: QDEC_FAULT.c  
   3:.\Generated_Source\PSoC4/QDEC_FAULT.c **** * Version 1.90
   4:.\Generated_Source\PSoC4/QDEC_FAULT.c **** *
   5:.\Generated_Source\PSoC4/QDEC_FAULT.c **** * Description:
   6:.\Generated_Source\PSoC4/QDEC_FAULT.c **** *  This file contains API to enable firmware to read the value of a Status 
   7:.\Generated_Source\PSoC4/QDEC_FAULT.c **** *  Register.
   8:.\Generated_Source\PSoC4/QDEC_FAULT.c **** *
   9:.\Generated_Source\PSoC4/QDEC_FAULT.c **** * Note:
  10:.\Generated_Source\PSoC4/QDEC_FAULT.c **** *
  11:.\Generated_Source\PSoC4/QDEC_FAULT.c **** ********************************************************************************
  12:.\Generated_Source\PSoC4/QDEC_FAULT.c **** * Copyright 2008-2015, Cypress Semiconductor Corporation.  All rights reserved.
  13:.\Generated_Source\PSoC4/QDEC_FAULT.c **** * You may use this file only in accordance with the license, terms, conditions, 
  14:.\Generated_Source\PSoC4/QDEC_FAULT.c **** * disclaimers, and limitations in the end user license agreement accompanying 
  15:.\Generated_Source\PSoC4/QDEC_FAULT.c **** * the software package with which this file was provided.
  16:.\Generated_Source\PSoC4/QDEC_FAULT.c **** *******************************************************************************/
  17:.\Generated_Source\PSoC4/QDEC_FAULT.c **** 
  18:.\Generated_Source\PSoC4/QDEC_FAULT.c **** #include "QDEC_FAULT.h"
  19:.\Generated_Source\PSoC4/QDEC_FAULT.c **** 
  20:.\Generated_Source\PSoC4/QDEC_FAULT.c **** #if !defined(QDEC_FAULT_sts_sts_reg__REMOVED) /* Check for removal by optimization */
  21:.\Generated_Source\PSoC4/QDEC_FAULT.c **** 
  22:.\Generated_Source\PSoC4/QDEC_FAULT.c **** 
  23:.\Generated_Source\PSoC4/QDEC_FAULT.c **** /*******************************************************************************
  24:.\Generated_Source\PSoC4/QDEC_FAULT.c **** * Function Name: QDEC_FAULT_Read
  25:.\Generated_Source\PSoC4/QDEC_FAULT.c **** ********************************************************************************
  26:.\Generated_Source\PSoC4/QDEC_FAULT.c **** *
  27:.\Generated_Source\PSoC4/QDEC_FAULT.c **** * Summary:
  28:.\Generated_Source\PSoC4/QDEC_FAULT.c **** *  Reads the current value assigned to the Status Register.
  29:.\Generated_Source\PSoC4/QDEC_FAULT.c **** *
  30:.\Generated_Source\PSoC4/QDEC_FAULT.c **** * Parameters:
  31:.\Generated_Source\PSoC4/QDEC_FAULT.c **** *  None.
  32:.\Generated_Source\PSoC4/QDEC_FAULT.c **** *
ARM GAS  C:\Users\g\AppData\Local\Temp\ccJvPa3O.s 			page 2


  33:.\Generated_Source\PSoC4/QDEC_FAULT.c **** * Return:
  34:.\Generated_Source\PSoC4/QDEC_FAULT.c **** *  The current value in the Status Register.
  35:.\Generated_Source\PSoC4/QDEC_FAULT.c **** *
  36:.\Generated_Source\PSoC4/QDEC_FAULT.c **** *******************************************************************************/
  37:.\Generated_Source\PSoC4/QDEC_FAULT.c **** uint8 QDEC_FAULT_Read(void) 
  38:.\Generated_Source\PSoC4/QDEC_FAULT.c **** { 
  26              		.loc 1 38 0
  27              		.cfi_startproc
  39:.\Generated_Source\PSoC4/QDEC_FAULT.c ****     return QDEC_FAULT_Status;
  28              		.loc 1 39 0
  29 0000 014B     		ldr	r3, .L2
  40:.\Generated_Source\PSoC4/QDEC_FAULT.c **** }
  30              		.loc 1 40 0
  31              		@ sp needed
  39:.\Generated_Source\PSoC4/QDEC_FAULT.c ****     return QDEC_FAULT_Status;
  32              		.loc 1 39 0
  33 0002 1878     		ldrb	r0, [r3]
  34 0004 C0B2     		uxtb	r0, r0
  35              		.loc 1 40 0
  36 0006 7047     		bx	lr
  37              	.L3:
  38              		.align	2
  39              	.L2:
  40 0008 62000F40 		.word	1074724962
  41              		.cfi_endproc
  42              	.LFE0:
  43              		.size	QDEC_FAULT_Read, .-QDEC_FAULT_Read
  44              		.section	.text.QDEC_FAULT_InterruptEnable,"ax",%progbits
  45              		.align	2
  46              		.global	QDEC_FAULT_InterruptEnable
  47              		.code	16
  48              		.thumb_func
  49              		.type	QDEC_FAULT_InterruptEnable, %function
  50              	QDEC_FAULT_InterruptEnable:
  51              	.LFB1:
  41:.\Generated_Source\PSoC4/QDEC_FAULT.c **** 
  42:.\Generated_Source\PSoC4/QDEC_FAULT.c **** 
  43:.\Generated_Source\PSoC4/QDEC_FAULT.c **** /*******************************************************************************
  44:.\Generated_Source\PSoC4/QDEC_FAULT.c **** * Function Name: QDEC_FAULT_InterruptEnable
  45:.\Generated_Source\PSoC4/QDEC_FAULT.c **** ********************************************************************************
  46:.\Generated_Source\PSoC4/QDEC_FAULT.c **** *
  47:.\Generated_Source\PSoC4/QDEC_FAULT.c **** * Summary:
  48:.\Generated_Source\PSoC4/QDEC_FAULT.c **** *  Enables the Status Register interrupt.
  49:.\Generated_Source\PSoC4/QDEC_FAULT.c **** *
  50:.\Generated_Source\PSoC4/QDEC_FAULT.c **** * Parameters:
  51:.\Generated_Source\PSoC4/QDEC_FAULT.c **** *  None.
  52:.\Generated_Source\PSoC4/QDEC_FAULT.c **** *
  53:.\Generated_Source\PSoC4/QDEC_FAULT.c **** * Return:
  54:.\Generated_Source\PSoC4/QDEC_FAULT.c **** *  None.
  55:.\Generated_Source\PSoC4/QDEC_FAULT.c **** *
  56:.\Generated_Source\PSoC4/QDEC_FAULT.c **** *******************************************************************************/
  57:.\Generated_Source\PSoC4/QDEC_FAULT.c **** void QDEC_FAULT_InterruptEnable(void) 
  58:.\Generated_Source\PSoC4/QDEC_FAULT.c **** {
  52              		.loc 1 58 0
  53              		.cfi_startproc
  54 0000 08B5     		push	{r3, lr}
  55              		.cfi_def_cfa_offset 8
ARM GAS  C:\Users\g\AppData\Local\Temp\ccJvPa3O.s 			page 3


  56              		.cfi_offset 3, -8
  57              		.cfi_offset 14, -4
  59:.\Generated_Source\PSoC4/QDEC_FAULT.c ****     uint8 interruptState;
  60:.\Generated_Source\PSoC4/QDEC_FAULT.c ****     interruptState = CyEnterCriticalSection();
  58              		.loc 1 60 0
  59 0002 FFF7FEFF 		bl	CyEnterCriticalSection
  60              	.LVL0:
  61:.\Generated_Source\PSoC4/QDEC_FAULT.c ****     QDEC_FAULT_Status_Aux_Ctrl |= QDEC_FAULT_STATUS_INTR_ENBL;
  61              		.loc 1 61 0
  62 0006 1023     		mov	r3, #16
  63 0008 034A     		ldr	r2, .L5
  62:.\Generated_Source\PSoC4/QDEC_FAULT.c ****     CyExitCriticalSection(interruptState);
  63:.\Generated_Source\PSoC4/QDEC_FAULT.c **** }
  64              		.loc 1 63 0
  65              		@ sp needed
  61:.\Generated_Source\PSoC4/QDEC_FAULT.c ****     QDEC_FAULT_Status_Aux_Ctrl |= QDEC_FAULT_STATUS_INTR_ENBL;
  66              		.loc 1 61 0
  67 000a 1178     		ldrb	r1, [r2]
  68 000c 0B43     		orr	r3, r1
  69 000e 1370     		strb	r3, [r2]
  62:.\Generated_Source\PSoC4/QDEC_FAULT.c ****     CyExitCriticalSection(interruptState);
  70              		.loc 1 62 0
  71 0010 FFF7FEFF 		bl	CyExitCriticalSection
  72              	.LVL1:
  73              		.loc 1 63 0
  74 0014 08BD     		pop	{r3, pc}
  75              	.L6:
  76 0016 C046     		.align	2
  77              	.L5:
  78 0018 92000F40 		.word	1074725010
  79              		.cfi_endproc
  80              	.LFE1:
  81              		.size	QDEC_FAULT_InterruptEnable, .-QDEC_FAULT_InterruptEnable
  82              		.section	.text.QDEC_FAULT_InterruptDisable,"ax",%progbits
  83              		.align	2
  84              		.global	QDEC_FAULT_InterruptDisable
  85              		.code	16
  86              		.thumb_func
  87              		.type	QDEC_FAULT_InterruptDisable, %function
  88              	QDEC_FAULT_InterruptDisable:
  89              	.LFB2:
  64:.\Generated_Source\PSoC4/QDEC_FAULT.c **** 
  65:.\Generated_Source\PSoC4/QDEC_FAULT.c **** 
  66:.\Generated_Source\PSoC4/QDEC_FAULT.c **** /*******************************************************************************
  67:.\Generated_Source\PSoC4/QDEC_FAULT.c **** * Function Name: QDEC_FAULT_InterruptDisable
  68:.\Generated_Source\PSoC4/QDEC_FAULT.c **** ********************************************************************************
  69:.\Generated_Source\PSoC4/QDEC_FAULT.c **** *
  70:.\Generated_Source\PSoC4/QDEC_FAULT.c **** * Summary:
  71:.\Generated_Source\PSoC4/QDEC_FAULT.c **** *  Disables the Status Register interrupt.
  72:.\Generated_Source\PSoC4/QDEC_FAULT.c **** *
  73:.\Generated_Source\PSoC4/QDEC_FAULT.c **** * Parameters:
  74:.\Generated_Source\PSoC4/QDEC_FAULT.c **** *  None.
  75:.\Generated_Source\PSoC4/QDEC_FAULT.c **** *
  76:.\Generated_Source\PSoC4/QDEC_FAULT.c **** * Return:
  77:.\Generated_Source\PSoC4/QDEC_FAULT.c **** *  None.
  78:.\Generated_Source\PSoC4/QDEC_FAULT.c **** *
  79:.\Generated_Source\PSoC4/QDEC_FAULT.c **** *******************************************************************************/
ARM GAS  C:\Users\g\AppData\Local\Temp\ccJvPa3O.s 			page 4


  80:.\Generated_Source\PSoC4/QDEC_FAULT.c **** void QDEC_FAULT_InterruptDisable(void) 
  81:.\Generated_Source\PSoC4/QDEC_FAULT.c **** {
  90              		.loc 1 81 0
  91              		.cfi_startproc
  92 0000 08B5     		push	{r3, lr}
  93              		.cfi_def_cfa_offset 8
  94              		.cfi_offset 3, -8
  95              		.cfi_offset 14, -4
  82:.\Generated_Source\PSoC4/QDEC_FAULT.c ****     uint8 interruptState;
  83:.\Generated_Source\PSoC4/QDEC_FAULT.c ****     interruptState = CyEnterCriticalSection();
  96              		.loc 1 83 0
  97 0002 FFF7FEFF 		bl	CyEnterCriticalSection
  98              	.LVL2:
  84:.\Generated_Source\PSoC4/QDEC_FAULT.c ****     QDEC_FAULT_Status_Aux_Ctrl &= (uint8)(~QDEC_FAULT_STATUS_INTR_ENBL);
  99              		.loc 1 84 0
 100 0006 1021     		mov	r1, #16
 101 0008 034A     		ldr	r2, .L8
  85:.\Generated_Source\PSoC4/QDEC_FAULT.c ****     CyExitCriticalSection(interruptState);
  86:.\Generated_Source\PSoC4/QDEC_FAULT.c **** }
 102              		.loc 1 86 0
 103              		@ sp needed
  84:.\Generated_Source\PSoC4/QDEC_FAULT.c ****     QDEC_FAULT_Status_Aux_Ctrl &= (uint8)(~QDEC_FAULT_STATUS_INTR_ENBL);
 104              		.loc 1 84 0
 105 000a 1378     		ldrb	r3, [r2]
 106 000c 8B43     		bic	r3, r1
 107 000e 1370     		strb	r3, [r2]
  85:.\Generated_Source\PSoC4/QDEC_FAULT.c ****     CyExitCriticalSection(interruptState);
 108              		.loc 1 85 0
 109 0010 FFF7FEFF 		bl	CyExitCriticalSection
 110              	.LVL3:
 111              		.loc 1 86 0
 112 0014 08BD     		pop	{r3, pc}
 113              	.L9:
 114 0016 C046     		.align	2
 115              	.L8:
 116 0018 92000F40 		.word	1074725010
 117              		.cfi_endproc
 118              	.LFE2:
 119              		.size	QDEC_FAULT_InterruptDisable, .-QDEC_FAULT_InterruptDisable
 120              		.section	.text.QDEC_FAULT_WriteMask,"ax",%progbits
 121              		.align	2
 122              		.global	QDEC_FAULT_WriteMask
 123              		.code	16
 124              		.thumb_func
 125              		.type	QDEC_FAULT_WriteMask, %function
 126              	QDEC_FAULT_WriteMask:
 127              	.LFB3:
  87:.\Generated_Source\PSoC4/QDEC_FAULT.c **** 
  88:.\Generated_Source\PSoC4/QDEC_FAULT.c **** 
  89:.\Generated_Source\PSoC4/QDEC_FAULT.c **** /*******************************************************************************
  90:.\Generated_Source\PSoC4/QDEC_FAULT.c **** * Function Name: QDEC_FAULT_WriteMask
  91:.\Generated_Source\PSoC4/QDEC_FAULT.c **** ********************************************************************************
  92:.\Generated_Source\PSoC4/QDEC_FAULT.c **** *
  93:.\Generated_Source\PSoC4/QDEC_FAULT.c **** * Summary:
  94:.\Generated_Source\PSoC4/QDEC_FAULT.c **** *  Writes the current mask value assigned to the Status Register.
  95:.\Generated_Source\PSoC4/QDEC_FAULT.c **** *
  96:.\Generated_Source\PSoC4/QDEC_FAULT.c **** * Parameters:
ARM GAS  C:\Users\g\AppData\Local\Temp\ccJvPa3O.s 			page 5


  97:.\Generated_Source\PSoC4/QDEC_FAULT.c **** *  mask:  Value to write into the mask register.
  98:.\Generated_Source\PSoC4/QDEC_FAULT.c **** *
  99:.\Generated_Source\PSoC4/QDEC_FAULT.c **** * Return:
 100:.\Generated_Source\PSoC4/QDEC_FAULT.c **** *  None.
 101:.\Generated_Source\PSoC4/QDEC_FAULT.c **** *
 102:.\Generated_Source\PSoC4/QDEC_FAULT.c **** *******************************************************************************/
 103:.\Generated_Source\PSoC4/QDEC_FAULT.c **** void QDEC_FAULT_WriteMask(uint8 mask) 
 104:.\Generated_Source\PSoC4/QDEC_FAULT.c **** {
 128              		.loc 1 104 0
 129              		.cfi_startproc
 130              	.LVL4:
 105:.\Generated_Source\PSoC4/QDEC_FAULT.c ****     #if(QDEC_FAULT_INPUTS < 8u)
 106:.\Generated_Source\PSoC4/QDEC_FAULT.c ****     	mask &= ((uint8)(1u << QDEC_FAULT_INPUTS) - 1u);
 131              		.loc 1 106 0
 132 0000 0123     		mov	r3, #1
 133 0002 1840     		and	r0, r3
 134              	.LVL5:
 107:.\Generated_Source\PSoC4/QDEC_FAULT.c **** 	#endif /* End QDEC_FAULT_INPUTS < 8u */
 108:.\Generated_Source\PSoC4/QDEC_FAULT.c ****     QDEC_FAULT_Status_Mask = mask;
 135              		.loc 1 108 0
 136 0004 014B     		ldr	r3, .L11
 109:.\Generated_Source\PSoC4/QDEC_FAULT.c **** }
 137              		.loc 1 109 0
 138              		@ sp needed
 108:.\Generated_Source\PSoC4/QDEC_FAULT.c **** }
 139              		.loc 1 108 0
 140 0006 1870     		strb	r0, [r3]
 141              		.loc 1 109 0
 142 0008 7047     		bx	lr
 143              	.L12:
 144 000a C046     		.align	2
 145              	.L11:
 146 000c 82000F40 		.word	1074724994
 147              		.cfi_endproc
 148              	.LFE3:
 149              		.size	QDEC_FAULT_WriteMask, .-QDEC_FAULT_WriteMask
 150              		.section	.text.QDEC_FAULT_ReadMask,"ax",%progbits
 151              		.align	2
 152              		.global	QDEC_FAULT_ReadMask
 153              		.code	16
 154              		.thumb_func
 155              		.type	QDEC_FAULT_ReadMask, %function
 156              	QDEC_FAULT_ReadMask:
 157              	.LFB4:
 110:.\Generated_Source\PSoC4/QDEC_FAULT.c **** 
 111:.\Generated_Source\PSoC4/QDEC_FAULT.c **** 
 112:.\Generated_Source\PSoC4/QDEC_FAULT.c **** /*******************************************************************************
 113:.\Generated_Source\PSoC4/QDEC_FAULT.c **** * Function Name: QDEC_FAULT_ReadMask
 114:.\Generated_Source\PSoC4/QDEC_FAULT.c **** ********************************************************************************
 115:.\Generated_Source\PSoC4/QDEC_FAULT.c **** *
 116:.\Generated_Source\PSoC4/QDEC_FAULT.c **** * Summary:
 117:.\Generated_Source\PSoC4/QDEC_FAULT.c **** *  Reads the current interrupt mask assigned to the Status Register.
 118:.\Generated_Source\PSoC4/QDEC_FAULT.c **** *
 119:.\Generated_Source\PSoC4/QDEC_FAULT.c **** * Parameters:
 120:.\Generated_Source\PSoC4/QDEC_FAULT.c **** *  None.
 121:.\Generated_Source\PSoC4/QDEC_FAULT.c **** *
 122:.\Generated_Source\PSoC4/QDEC_FAULT.c **** * Return:
ARM GAS  C:\Users\g\AppData\Local\Temp\ccJvPa3O.s 			page 6


 123:.\Generated_Source\PSoC4/QDEC_FAULT.c **** *  The value of the interrupt mask of the Status Register.
 124:.\Generated_Source\PSoC4/QDEC_FAULT.c **** *
 125:.\Generated_Source\PSoC4/QDEC_FAULT.c **** *******************************************************************************/
 126:.\Generated_Source\PSoC4/QDEC_FAULT.c **** uint8 QDEC_FAULT_ReadMask(void) 
 127:.\Generated_Source\PSoC4/QDEC_FAULT.c **** {
 158              		.loc 1 127 0
 159              		.cfi_startproc
 128:.\Generated_Source\PSoC4/QDEC_FAULT.c ****     return QDEC_FAULT_Status_Mask;
 160              		.loc 1 128 0
 161 0000 014B     		ldr	r3, .L14
 129:.\Generated_Source\PSoC4/QDEC_FAULT.c **** }
 162              		.loc 1 129 0
 163              		@ sp needed
 128:.\Generated_Source\PSoC4/QDEC_FAULT.c ****     return QDEC_FAULT_Status_Mask;
 164              		.loc 1 128 0
 165 0002 1878     		ldrb	r0, [r3]
 166 0004 C0B2     		uxtb	r0, r0
 167              		.loc 1 129 0
 168 0006 7047     		bx	lr
 169              	.L15:
 170              		.align	2
 171              	.L14:
 172 0008 82000F40 		.word	1074724994
 173              		.cfi_endproc
 174              	.LFE4:
 175              		.size	QDEC_FAULT_ReadMask, .-QDEC_FAULT_ReadMask
 176              		.text
 177              	.Letext0:
 178              		.file 2 ".\\Generated_Source\\PSoC4\\cytypes.h"
 179              		.file 3 ".\\Generated_Source\\PSoC4\\CyLib.h"