ARM GAS  C:\Users\g\AppData\Local\Temp\ccuILjoe.s 			page 1


   1              		.cpu cortex-m0
   2              		.fpu softvfp
   3              		.eabi_attribute 20, 1
   4              		.eabi_attribute 21, 1
   5              		.eabi_attribute 23, 3
   6              		.eabi_attribute 24, 1
   7              		.eabi_attribute 25, 1
   8              		.eabi_attribute 26, 1
   9              		.eabi_attribute 30, 2
  10              		.eabi_attribute 34, 0
  11              		.eabi_attribute 18, 4
  12              		.code	16
  13              		.file	"QDEC_PM.c"
  14              		.text
  15              	.Ltext0:
  16              		.cfi_sections	.debug_frame
  17              		.section	.text.QDEC_SaveConfig,"ax",%progbits
  18              		.align	2
  19              		.global	QDEC_SaveConfig
  20              		.code	16
  21              		.thumb_func
  22              		.type	QDEC_SaveConfig, %function
  23              	QDEC_SaveConfig:
  24              	.LFB0:
  25              		.file 1 "Generated_Source\\PSoC4\\QDEC_PM.c"
   1:Generated_Source\PSoC4/QDEC_PM.c **** /*******************************************************************************
   2:Generated_Source\PSoC4/QDEC_PM.c **** * File Name: QDEC_PM.c
   3:Generated_Source\PSoC4/QDEC_PM.c **** * Version 3.0
   4:Generated_Source\PSoC4/QDEC_PM.c **** *
   5:Generated_Source\PSoC4/QDEC_PM.c **** * Description:
   6:Generated_Source\PSoC4/QDEC_PM.c **** *  This file contains the setup, control and status commands to support 
   7:Generated_Source\PSoC4/QDEC_PM.c **** *  component operations in low power mode.  
   8:Generated_Source\PSoC4/QDEC_PM.c **** *
   9:Generated_Source\PSoC4/QDEC_PM.c **** * Note:
  10:Generated_Source\PSoC4/QDEC_PM.c **** *  None.
  11:Generated_Source\PSoC4/QDEC_PM.c **** *
  12:Generated_Source\PSoC4/QDEC_PM.c **** ********************************************************************************
  13:Generated_Source\PSoC4/QDEC_PM.c **** * Copyright 2008-2014, Cypress Semiconductor Corporation.  All rights reserved.
  14:Generated_Source\PSoC4/QDEC_PM.c **** * You may use this file only in accordance with the license, terms, conditions,
  15:Generated_Source\PSoC4/QDEC_PM.c **** * disclaimers, and limitations in the end user license agreement accompanying
  16:Generated_Source\PSoC4/QDEC_PM.c **** * the software package with which this file was provided.
  17:Generated_Source\PSoC4/QDEC_PM.c **** *******************************************************************************/
  18:Generated_Source\PSoC4/QDEC_PM.c **** 
  19:Generated_Source\PSoC4/QDEC_PM.c **** #include "QDEC.h"
  20:Generated_Source\PSoC4/QDEC_PM.c **** 
  21:Generated_Source\PSoC4/QDEC_PM.c **** static QDEC_BACKUP_STRUCT QDEC_backup = {0u};
  22:Generated_Source\PSoC4/QDEC_PM.c **** 
  23:Generated_Source\PSoC4/QDEC_PM.c **** 
  24:Generated_Source\PSoC4/QDEC_PM.c **** /*******************************************************************************
  25:Generated_Source\PSoC4/QDEC_PM.c **** * Function Name: QDEC_SaveConfig
  26:Generated_Source\PSoC4/QDEC_PM.c **** ********************************************************************************
  27:Generated_Source\PSoC4/QDEC_PM.c **** * Summary:
  28:Generated_Source\PSoC4/QDEC_PM.c **** *  Saves the current user configuration of the component.
  29:Generated_Source\PSoC4/QDEC_PM.c **** *
  30:Generated_Source\PSoC4/QDEC_PM.c **** * Parameters:
  31:Generated_Source\PSoC4/QDEC_PM.c **** *  None.
  32:Generated_Source\PSoC4/QDEC_PM.c **** *
ARM GAS  C:\Users\g\AppData\Local\Temp\ccuILjoe.s 			page 2


  33:Generated_Source\PSoC4/QDEC_PM.c **** * Return:
  34:Generated_Source\PSoC4/QDEC_PM.c **** *  None.
  35:Generated_Source\PSoC4/QDEC_PM.c **** *
  36:Generated_Source\PSoC4/QDEC_PM.c **** *******************************************************************************/
  37:Generated_Source\PSoC4/QDEC_PM.c **** void QDEC_SaveConfig(void) 
  38:Generated_Source\PSoC4/QDEC_PM.c **** {
  26              		.loc 1 38 0
  27              		.cfi_startproc
  28 0000 08B5     		push	{r3, lr}
  29              		.cfi_def_cfa_offset 8
  30              		.cfi_offset 3, -8
  31              		.cfi_offset 14, -4
  39:Generated_Source\PSoC4/QDEC_PM.c ****     #if (QDEC_COUNTER_SIZE == QDEC_COUNTER_SIZE_8_BIT)
  40:Generated_Source\PSoC4/QDEC_PM.c ****         QDEC_Cnt8_SaveConfig();
  41:Generated_Source\PSoC4/QDEC_PM.c ****     #else 
  42:Generated_Source\PSoC4/QDEC_PM.c ****         /* (QDEC_COUNTER_SIZE == QDEC_COUNTER_SIZE_16_BIT) || 
  43:Generated_Source\PSoC4/QDEC_PM.c ****          * (QDEC_COUNTER_SIZE == QDEC_COUNTER_SIZE_32_BIT)
  44:Generated_Source\PSoC4/QDEC_PM.c ****          */
  45:Generated_Source\PSoC4/QDEC_PM.c ****         QDEC_Cnt16_SaveConfig();
  32              		.loc 1 45 0
  33 0002 FFF7FEFF 		bl	QDEC_Cnt16_SaveConfig
  34              	.LVL0:
  46:Generated_Source\PSoC4/QDEC_PM.c ****     #endif /* (QDEC_COUNTER_SIZE == QDEC_COUNTER_SIZE_8_BIT) */
  47:Generated_Source\PSoC4/QDEC_PM.c **** }
  35              		.loc 1 47 0
  36              		@ sp needed
  37 0006 08BD     		pop	{r3, pc}
  38              		.cfi_endproc
  39              	.LFE0:
  40              		.size	QDEC_SaveConfig, .-QDEC_SaveConfig
  41              		.section	.text.QDEC_RestoreConfig,"ax",%progbits
  42              		.align	2
  43              		.global	QDEC_RestoreConfig
  44              		.code	16
  45              		.thumb_func
  46              		.type	QDEC_RestoreConfig, %function
  47              	QDEC_RestoreConfig:
  48              	.LFB1:
  48:Generated_Source\PSoC4/QDEC_PM.c **** 
  49:Generated_Source\PSoC4/QDEC_PM.c **** 
  50:Generated_Source\PSoC4/QDEC_PM.c **** /*******************************************************************************
  51:Generated_Source\PSoC4/QDEC_PM.c **** * Function Name: QDEC_RestoreConfig
  52:Generated_Source\PSoC4/QDEC_PM.c **** ********************************************************************************
  53:Generated_Source\PSoC4/QDEC_PM.c **** * Summary:
  54:Generated_Source\PSoC4/QDEC_PM.c **** *  Restores the current user configuration of the component.
  55:Generated_Source\PSoC4/QDEC_PM.c **** *
  56:Generated_Source\PSoC4/QDEC_PM.c **** * Parameters:
  57:Generated_Source\PSoC4/QDEC_PM.c **** *  None.
  58:Generated_Source\PSoC4/QDEC_PM.c **** *
  59:Generated_Source\PSoC4/QDEC_PM.c **** * Return:
  60:Generated_Source\PSoC4/QDEC_PM.c **** *  None.
  61:Generated_Source\PSoC4/QDEC_PM.c **** *
  62:Generated_Source\PSoC4/QDEC_PM.c **** *******************************************************************************/
  63:Generated_Source\PSoC4/QDEC_PM.c **** void QDEC_RestoreConfig(void) 
  64:Generated_Source\PSoC4/QDEC_PM.c **** {
  49              		.loc 1 64 0
  50              		.cfi_startproc
ARM GAS  C:\Users\g\AppData\Local\Temp\ccuILjoe.s 			page 3


  51 0000 08B5     		push	{r3, lr}
  52              		.cfi_def_cfa_offset 8
  53              		.cfi_offset 3, -8
  54              		.cfi_offset 14, -4
  65:Generated_Source\PSoC4/QDEC_PM.c ****     #if (QDEC_COUNTER_SIZE == QDEC_COUNTER_SIZE_8_BIT)
  66:Generated_Source\PSoC4/QDEC_PM.c ****         QDEC_Cnt8_RestoreConfig();
  67:Generated_Source\PSoC4/QDEC_PM.c ****     #else 
  68:Generated_Source\PSoC4/QDEC_PM.c ****         /* (QDEC_COUNTER_SIZE == QDEC_COUNTER_SIZE_16_BIT) || 
  69:Generated_Source\PSoC4/QDEC_PM.c ****          * (QDEC_COUNTER_SIZE == QDEC_COUNTER_SIZE_32_BIT) 
  70:Generated_Source\PSoC4/QDEC_PM.c ****          */
  71:Generated_Source\PSoC4/QDEC_PM.c ****         QDEC_Cnt16_RestoreConfig();
  55              		.loc 1 71 0
  56 0002 FFF7FEFF 		bl	QDEC_Cnt16_RestoreConfig
  57              	.LVL1:
  72:Generated_Source\PSoC4/QDEC_PM.c ****     #endif /* (QDEC_COUNTER_SIZE == QDEC_COUNTER_SIZE_8_BIT) */
  73:Generated_Source\PSoC4/QDEC_PM.c **** }
  58              		.loc 1 73 0
  59              		@ sp needed
  60 0006 08BD     		pop	{r3, pc}
  61              		.cfi_endproc
  62              	.LFE1:
  63              		.size	QDEC_RestoreConfig, .-QDEC_RestoreConfig
  64              		.section	.text.QDEC_Sleep,"ax",%progbits
  65              		.align	2
  66              		.global	QDEC_Sleep
  67              		.code	16
  68              		.thumb_func
  69              		.type	QDEC_Sleep, %function
  70              	QDEC_Sleep:
  71              	.LFB2:
  74:Generated_Source\PSoC4/QDEC_PM.c **** 
  75:Generated_Source\PSoC4/QDEC_PM.c **** 
  76:Generated_Source\PSoC4/QDEC_PM.c **** /*******************************************************************************
  77:Generated_Source\PSoC4/QDEC_PM.c **** * Function Name: QDEC_Sleep
  78:Generated_Source\PSoC4/QDEC_PM.c **** ********************************************************************************
  79:Generated_Source\PSoC4/QDEC_PM.c **** * 
  80:Generated_Source\PSoC4/QDEC_PM.c **** * Summary:
  81:Generated_Source\PSoC4/QDEC_PM.c **** *  Prepare Quadrature Decoder Component goes to sleep.
  82:Generated_Source\PSoC4/QDEC_PM.c **** *
  83:Generated_Source\PSoC4/QDEC_PM.c **** * Parameters:
  84:Generated_Source\PSoC4/QDEC_PM.c **** *  None.
  85:Generated_Source\PSoC4/QDEC_PM.c **** *
  86:Generated_Source\PSoC4/QDEC_PM.c **** * Return:
  87:Generated_Source\PSoC4/QDEC_PM.c **** *  None.
  88:Generated_Source\PSoC4/QDEC_PM.c **** *
  89:Generated_Source\PSoC4/QDEC_PM.c **** * Global Variables:
  90:Generated_Source\PSoC4/QDEC_PM.c **** *  QDEC_backup - modified when non-retention registers are saved.
  91:Generated_Source\PSoC4/QDEC_PM.c **** *
  92:Generated_Source\PSoC4/QDEC_PM.c **** * Reentrant:
  93:Generated_Source\PSoC4/QDEC_PM.c **** *  No.
  94:Generated_Source\PSoC4/QDEC_PM.c **** *
  95:Generated_Source\PSoC4/QDEC_PM.c **** *******************************************************************************/
  96:Generated_Source\PSoC4/QDEC_PM.c **** void QDEC_Sleep(void) 
  97:Generated_Source\PSoC4/QDEC_PM.c **** {
  72              		.loc 1 97 0
  73              		.cfi_startproc
  98:Generated_Source\PSoC4/QDEC_PM.c ****     if (0u != (QDEC_SR_AUX_CONTROL & QDEC_INTERRUPTS_ENABLE))
ARM GAS  C:\Users\g\AppData\Local\Temp\ccuILjoe.s 			page 4


  74              		.loc 1 98 0
  75 0000 1022     		mov	r2, #16
  97:Generated_Source\PSoC4/QDEC_PM.c ****     if (0u != (QDEC_SR_AUX_CONTROL & QDEC_INTERRUPTS_ENABLE))
  76              		.loc 1 97 0
  77 0002 08B5     		push	{r3, lr}
  78              		.cfi_def_cfa_offset 8
  79              		.cfi_offset 3, -8
  80              		.cfi_offset 14, -4
  81              		.loc 1 98 0
  82 0004 074B     		ldr	r3, .L8
  83 0006 1B78     		ldrb	r3, [r3]
  84 0008 1340     		and	r3, r2
  85 000a 06D1     		bne	.L7
  99:Generated_Source\PSoC4/QDEC_PM.c ****     {
 100:Generated_Source\PSoC4/QDEC_PM.c ****         QDEC_backup.enableState = 1u;
 101:Generated_Source\PSoC4/QDEC_PM.c ****     }
 102:Generated_Source\PSoC4/QDEC_PM.c ****     else /* The Quadrature Decoder Component is disabled */
 103:Generated_Source\PSoC4/QDEC_PM.c ****     {
 104:Generated_Source\PSoC4/QDEC_PM.c ****         QDEC_backup.enableState = 0u;
  86              		.loc 1 104 0
  87 000c 064A     		ldr	r2, .L8+4
  88 000e 1370     		strb	r3, [r2]
  89              	.L5:
 105:Generated_Source\PSoC4/QDEC_PM.c ****     }
 106:Generated_Source\PSoC4/QDEC_PM.c **** 
 107:Generated_Source\PSoC4/QDEC_PM.c ****     QDEC_Stop();
  90              		.loc 1 107 0
  91 0010 FFF7FEFF 		bl	QDEC_Stop
  92              	.LVL2:
 108:Generated_Source\PSoC4/QDEC_PM.c ****     QDEC_SaveConfig();
 109:Generated_Source\PSoC4/QDEC_PM.c **** }
  93              		.loc 1 109 0
  94              		@ sp needed
  95              	.LBB6:
  96              	.LBB7:
  45:Generated_Source\PSoC4/QDEC_PM.c ****     #endif /* (QDEC_COUNTER_SIZE == QDEC_COUNTER_SIZE_8_BIT) */
  97              		.loc 1 45 0
  98 0014 FFF7FEFF 		bl	QDEC_Cnt16_SaveConfig
  99              	.LVL3:
 100              	.LBE7:
 101              	.LBE6:
 102              		.loc 1 109 0
 103 0018 08BD     		pop	{r3, pc}
 104              	.L7:
 100:Generated_Source\PSoC4/QDEC_PM.c ****     }
 105              		.loc 1 100 0
 106 001a 034B     		ldr	r3, .L8+4
 107 001c 0F3A     		sub	r2, r2, #15
 108 001e 1A70     		strb	r2, [r3]
 109 0020 F6E7     		b	.L5
 110              	.L9:
 111 0022 C046     		.align	2
 112              	.L8:
 113 0024 90000F40 		.word	1074725008
 114 0028 00000000 		.word	.LANCHOR0
 115              		.cfi_endproc
 116              	.LFE2:
ARM GAS  C:\Users\g\AppData\Local\Temp\ccuILjoe.s 			page 5


 117              		.size	QDEC_Sleep, .-QDEC_Sleep
 118              		.section	.text.QDEC_Wakeup,"ax",%progbits
 119              		.align	2
 120              		.global	QDEC_Wakeup
 121              		.code	16
 122              		.thumb_func
 123              		.type	QDEC_Wakeup, %function
 124              	QDEC_Wakeup:
 125              	.LFB3:
 110:Generated_Source\PSoC4/QDEC_PM.c **** 
 111:Generated_Source\PSoC4/QDEC_PM.c **** 
 112:Generated_Source\PSoC4/QDEC_PM.c **** /*******************************************************************************
 113:Generated_Source\PSoC4/QDEC_PM.c **** * Function Name: QDEC_Wakeup
 114:Generated_Source\PSoC4/QDEC_PM.c **** ********************************************************************************
 115:Generated_Source\PSoC4/QDEC_PM.c **** *
 116:Generated_Source\PSoC4/QDEC_PM.c **** * Summary:
 117:Generated_Source\PSoC4/QDEC_PM.c **** *  Prepare Quadrature Decoder Component to wake up.
 118:Generated_Source\PSoC4/QDEC_PM.c **** *
 119:Generated_Source\PSoC4/QDEC_PM.c **** * Parameters:
 120:Generated_Source\PSoC4/QDEC_PM.c **** *  None.
 121:Generated_Source\PSoC4/QDEC_PM.c **** *
 122:Generated_Source\PSoC4/QDEC_PM.c **** * Return:
 123:Generated_Source\PSoC4/QDEC_PM.c **** *  None.
 124:Generated_Source\PSoC4/QDEC_PM.c **** *
 125:Generated_Source\PSoC4/QDEC_PM.c **** * Global Variables:
 126:Generated_Source\PSoC4/QDEC_PM.c **** *  QDEC_backup - used when non-retention registers are restored.
 127:Generated_Source\PSoC4/QDEC_PM.c **** *
 128:Generated_Source\PSoC4/QDEC_PM.c **** *******************************************************************************/
 129:Generated_Source\PSoC4/QDEC_PM.c **** void QDEC_Wakeup(void) 
 130:Generated_Source\PSoC4/QDEC_PM.c **** {
 126              		.loc 1 130 0
 127              		.cfi_startproc
 128 0000 08B5     		push	{r3, lr}
 129              		.cfi_def_cfa_offset 8
 130              		.cfi_offset 3, -8
 131              		.cfi_offset 14, -4
 132              	.LBB8:
 133              	.LBB9:
  71:Generated_Source\PSoC4/QDEC_PM.c ****     #endif /* (QDEC_COUNTER_SIZE == QDEC_COUNTER_SIZE_8_BIT) */
 134              		.loc 1 71 0
 135 0002 FFF7FEFF 		bl	QDEC_Cnt16_RestoreConfig
 136              	.LVL4:
 137              	.LBE9:
 138              	.LBE8:
 131:Generated_Source\PSoC4/QDEC_PM.c ****     QDEC_RestoreConfig();
 132:Generated_Source\PSoC4/QDEC_PM.c **** 
 133:Generated_Source\PSoC4/QDEC_PM.c ****     if (QDEC_backup.enableState != 0u)
 139              		.loc 1 133 0
 140 0006 044B     		ldr	r3, .L15
 141 0008 1B78     		ldrb	r3, [r3]
 142 000a 002B     		cmp	r3, #0
 143 000c 03D0     		beq	.L10
 134:Generated_Source\PSoC4/QDEC_PM.c ****     {
 135:Generated_Source\PSoC4/QDEC_PM.c ****         #if (QDEC_COUNTER_SIZE == QDEC_COUNTER_SIZE_8_BIT)
 136:Generated_Source\PSoC4/QDEC_PM.c ****             QDEC_Cnt8_Enable();
 137:Generated_Source\PSoC4/QDEC_PM.c ****         #else 
 138:Generated_Source\PSoC4/QDEC_PM.c ****             /* (QDEC_COUNTER_SIZE == QDEC_COUNTER_SIZE_16_BIT) || 
ARM GAS  C:\Users\g\AppData\Local\Temp\ccuILjoe.s 			page 6


 139:Generated_Source\PSoC4/QDEC_PM.c ****             *  (QDEC_COUNTER_SIZE == QDEC_COUNTER_SIZE_32_BIT) 
 140:Generated_Source\PSoC4/QDEC_PM.c ****             */
 141:Generated_Source\PSoC4/QDEC_PM.c ****             QDEC_Cnt16_Enable();
 144              		.loc 1 141 0
 145 000e FFF7FEFF 		bl	QDEC_Cnt16_Enable
 146              	.LVL5:
 142:Generated_Source\PSoC4/QDEC_PM.c ****         #endif /* (QDEC_COUNTER_SIZE == QDEC_COUNTER_SIZE_8_BIT) */
 143:Generated_Source\PSoC4/QDEC_PM.c **** 
 144:Generated_Source\PSoC4/QDEC_PM.c ****         /* Enable component's operation */
 145:Generated_Source\PSoC4/QDEC_PM.c ****         QDEC_Enable();
 147              		.loc 1 145 0
 148 0012 FFF7FEFF 		bl	QDEC_Enable
 149              	.LVL6:
 150              	.L10:
 146:Generated_Source\PSoC4/QDEC_PM.c ****     } /* Do nothing if component's block was disabled before */
 147:Generated_Source\PSoC4/QDEC_PM.c **** }
 151              		.loc 1 147 0
 152              		@ sp needed
 153 0016 08BD     		pop	{r3, pc}
 154              	.L16:
 155              		.align	2
 156              	.L15:
 157 0018 00000000 		.word	.LANCHOR0
 158              		.cfi_endproc
 159              	.LFE3:
 160              		.size	QDEC_Wakeup, .-QDEC_Wakeup
 161              		.bss
 162              		.align	2
 163              		.set	.LANCHOR0,. + 0
 164              		.type	QDEC_backup, %object
 165              		.size	QDEC_backup, 1
 166              	QDEC_backup:
 167 0000 00       		.space	1
 168 0001 000000   		.text
 169              	.Letext0:
 170              		.file 2 "Generated_Source\\PSoC4\\cytypes.h"
 171              		.file 3 "Generated_Source\\PSoC4\\QDEC.h"
 172              		.file 4 "Generated_Source\\PSoC4\\QDEC_Cnt16.h"