ARM GAS  C:\Users\g\AppData\Local\Temp\ccBatKPn.s 			page 1


   1              		.cpu cortex-m0
   2              		.fpu softvfp
   3              		.eabi_attribute 20, 1
   4              		.eabi_attribute 21, 1
   5              		.eabi_attribute 23, 3
   6              		.eabi_attribute 24, 1
   7              		.eabi_attribute 25, 1
   8              		.eabi_attribute 26, 1
   9              		.eabi_attribute 30, 2
  10              		.eabi_attribute 34, 0
  11              		.eabi_attribute 18, 4
  12              		.code	16
  13              		.file	"QuadDec_1.c"
  14              		.text
  15              	.Ltext0:
  16              		.cfi_sections	.debug_frame
  17              		.section	.text.QuadDec_1_Init,"ax",%progbits
  18              		.align	2
  19              		.global	QuadDec_1_Init
  20              		.code	16
  21              		.thumb_func
  22              		.type	QuadDec_1_Init, %function
  23              	QuadDec_1_Init:
  24              	.LFB0:
  25              		.file 1 ".\\Generated_Source\\PSoC4\\QuadDec_1.c"
   1:.\Generated_Source\PSoC4/QuadDec_1.c **** /*******************************************************************************
   2:.\Generated_Source\PSoC4/QuadDec_1.c **** * File Name: QuadDec_1.c  
   3:.\Generated_Source\PSoC4/QuadDec_1.c **** * Version 3.0
   4:.\Generated_Source\PSoC4/QuadDec_1.c **** *
   5:.\Generated_Source\PSoC4/QuadDec_1.c **** * Description:
   6:.\Generated_Source\PSoC4/QuadDec_1.c **** *  This file provides the source code to the API for the Quadrature Decoder
   7:.\Generated_Source\PSoC4/QuadDec_1.c **** *  component.
   8:.\Generated_Source\PSoC4/QuadDec_1.c **** *
   9:.\Generated_Source\PSoC4/QuadDec_1.c **** * Note:
  10:.\Generated_Source\PSoC4/QuadDec_1.c **** *  None.
  11:.\Generated_Source\PSoC4/QuadDec_1.c **** *   
  12:.\Generated_Source\PSoC4/QuadDec_1.c **** ********************************************************************************
  13:.\Generated_Source\PSoC4/QuadDec_1.c **** * Copyright 2008-2014, Cypress Semiconductor Corporation.  All rights reserved.
  14:.\Generated_Source\PSoC4/QuadDec_1.c **** * You may use this file only in accordance with the license, terms, conditions, 
  15:.\Generated_Source\PSoC4/QuadDec_1.c **** * disclaimers, and limitations in the end user license agreement accompanying 
  16:.\Generated_Source\PSoC4/QuadDec_1.c **** * the software package with which this file was provided.
  17:.\Generated_Source\PSoC4/QuadDec_1.c **** *******************************************************************************/
  18:.\Generated_Source\PSoC4/QuadDec_1.c **** 
  19:.\Generated_Source\PSoC4/QuadDec_1.c **** #include "QuadDec_1.h"
  20:.\Generated_Source\PSoC4/QuadDec_1.c **** 
  21:.\Generated_Source\PSoC4/QuadDec_1.c **** #if (QuadDec_1_COUNTER_SIZE == QuadDec_1_COUNTER_SIZE_32_BIT)
  22:.\Generated_Source\PSoC4/QuadDec_1.c ****     #include "QuadDec_1_PVT.h"
  23:.\Generated_Source\PSoC4/QuadDec_1.c **** #endif /* QuadDec_1_COUNTER_SIZE == QuadDec_1_COUNTER_SIZE_32_BIT */
  24:.\Generated_Source\PSoC4/QuadDec_1.c **** 
  25:.\Generated_Source\PSoC4/QuadDec_1.c **** uint8 QuadDec_1_initVar = 0u;
  26:.\Generated_Source\PSoC4/QuadDec_1.c **** 
  27:.\Generated_Source\PSoC4/QuadDec_1.c **** 
  28:.\Generated_Source\PSoC4/QuadDec_1.c **** /*******************************************************************************
  29:.\Generated_Source\PSoC4/QuadDec_1.c **** * Function Name: QuadDec_1_Init
  30:.\Generated_Source\PSoC4/QuadDec_1.c **** ********************************************************************************
  31:.\Generated_Source\PSoC4/QuadDec_1.c **** *
  32:.\Generated_Source\PSoC4/QuadDec_1.c **** * Summary:
ARM GAS  C:\Users\g\AppData\Local\Temp\ccBatKPn.s 			page 2


  33:.\Generated_Source\PSoC4/QuadDec_1.c **** *  Inits/Restores default QuadDec configuration provided with customizer.
  34:.\Generated_Source\PSoC4/QuadDec_1.c **** *
  35:.\Generated_Source\PSoC4/QuadDec_1.c **** * Parameters:
  36:.\Generated_Source\PSoC4/QuadDec_1.c **** *  None.
  37:.\Generated_Source\PSoC4/QuadDec_1.c **** *
  38:.\Generated_Source\PSoC4/QuadDec_1.c **** * Return:
  39:.\Generated_Source\PSoC4/QuadDec_1.c **** *  None.
  40:.\Generated_Source\PSoC4/QuadDec_1.c **** *
  41:.\Generated_Source\PSoC4/QuadDec_1.c **** *******************************************************************************/
  42:.\Generated_Source\PSoC4/QuadDec_1.c **** void QuadDec_1_Init(void) 
  43:.\Generated_Source\PSoC4/QuadDec_1.c **** {
  26              		.loc 1 43 0
  27              		.cfi_startproc
  28 0000 08B5     		push	{r3, lr}
  29              		.cfi_def_cfa_offset 8
  30              		.cfi_offset 3, -8
  31              		.cfi_offset 14, -4
  44:.\Generated_Source\PSoC4/QuadDec_1.c ****     #if (QuadDec_1_COUNTER_SIZE == QuadDec_1_COUNTER_SIZE_32_BIT)
  45:.\Generated_Source\PSoC4/QuadDec_1.c ****         /* Disable Interrupt. */
  46:.\Generated_Source\PSoC4/QuadDec_1.c ****         CyIntDisable(QuadDec_1_ISR_NUMBER);
  32              		.loc 1 46 0
  33 0002 0020     		mov	r0, #0
  34 0004 FFF7FEFF 		bl	CyIntDisable
  35              	.LVL0:
  47:.\Generated_Source\PSoC4/QuadDec_1.c ****         /* Set the ISR to point to the QuadDec_1_isr Interrupt. */
  48:.\Generated_Source\PSoC4/QuadDec_1.c ****         (void) CyIntSetVector(QuadDec_1_ISR_NUMBER, & QuadDec_1_ISR);
  36              		.loc 1 48 0
  37 0008 0449     		ldr	r1, .L2
  38 000a 0020     		mov	r0, #0
  39 000c FFF7FEFF 		bl	CyIntSetVector
  40              	.LVL1:
  49:.\Generated_Source\PSoC4/QuadDec_1.c ****         /* Set the priority. */
  50:.\Generated_Source\PSoC4/QuadDec_1.c ****         CyIntSetPriority(QuadDec_1_ISR_NUMBER, QuadDec_1_ISR_PRIORITY);
  41              		.loc 1 50 0
  42 0010 0020     		mov	r0, #0
  43 0012 0321     		mov	r1, #3
  44 0014 FFF7FEFF 		bl	CyIntSetPriority
  45              	.LVL2:
  51:.\Generated_Source\PSoC4/QuadDec_1.c ****     #endif /* QuadDec_1_COUNTER_SIZE == QuadDec_1_COUNTER_SIZE_32_BIT */
  52:.\Generated_Source\PSoC4/QuadDec_1.c **** }
  46              		.loc 1 52 0
  47              		@ sp needed
  48 0018 08BD     		pop	{r3, pc}
  49              	.L3:
  50 001a C046     		.align	2
  51              	.L2:
  52 001c 00000000 		.word	QuadDec_1_ISR
  53              		.cfi_endproc
  54              	.LFE0:
  55              		.size	QuadDec_1_Init, .-QuadDec_1_Init
  56              		.section	.text.QuadDec_1_Enable,"ax",%progbits
  57              		.align	2
  58              		.global	QuadDec_1_Enable
  59              		.code	16
  60              		.thumb_func
  61              		.type	QuadDec_1_Enable, %function
  62              	QuadDec_1_Enable:
ARM GAS  C:\Users\g\AppData\Local\Temp\ccBatKPn.s 			page 3


  63              	.LFB1:
  53:.\Generated_Source\PSoC4/QuadDec_1.c **** 
  54:.\Generated_Source\PSoC4/QuadDec_1.c **** 
  55:.\Generated_Source\PSoC4/QuadDec_1.c **** /*******************************************************************************
  56:.\Generated_Source\PSoC4/QuadDec_1.c **** * Function Name: QuadDec_1_Enable
  57:.\Generated_Source\PSoC4/QuadDec_1.c **** ********************************************************************************
  58:.\Generated_Source\PSoC4/QuadDec_1.c **** *
  59:.\Generated_Source\PSoC4/QuadDec_1.c **** * Summary:
  60:.\Generated_Source\PSoC4/QuadDec_1.c **** *  This function enable interrupts from Component and also enable Component's
  61:.\Generated_Source\PSoC4/QuadDec_1.c **** *  ISR in case of 32-bit counter.
  62:.\Generated_Source\PSoC4/QuadDec_1.c **** *
  63:.\Generated_Source\PSoC4/QuadDec_1.c **** * Parameters:
  64:.\Generated_Source\PSoC4/QuadDec_1.c **** *  None.
  65:.\Generated_Source\PSoC4/QuadDec_1.c **** *
  66:.\Generated_Source\PSoC4/QuadDec_1.c **** * Return:
  67:.\Generated_Source\PSoC4/QuadDec_1.c **** *  None.
  68:.\Generated_Source\PSoC4/QuadDec_1.c **** *
  69:.\Generated_Source\PSoC4/QuadDec_1.c **** *******************************************************************************/
  70:.\Generated_Source\PSoC4/QuadDec_1.c **** void QuadDec_1_Enable(void) 
  71:.\Generated_Source\PSoC4/QuadDec_1.c **** {
  64              		.loc 1 71 0
  65              		.cfi_startproc
  66              	.LVL3:
  67              	.LBB6:
  68              	.LBB7:
  72:.\Generated_Source\PSoC4/QuadDec_1.c ****     uint8 enableInterrupts;
  73:.\Generated_Source\PSoC4/QuadDec_1.c **** 
  74:.\Generated_Source\PSoC4/QuadDec_1.c ****     QuadDec_1_SetInterruptMask(QuadDec_1_INIT_INT_MASK);
  75:.\Generated_Source\PSoC4/QuadDec_1.c **** 
  76:.\Generated_Source\PSoC4/QuadDec_1.c ****     /* Clear pending interrupts. */
  77:.\Generated_Source\PSoC4/QuadDec_1.c ****     (void) QuadDec_1_GetEvents();
  78:.\Generated_Source\PSoC4/QuadDec_1.c ****     
  79:.\Generated_Source\PSoC4/QuadDec_1.c ****     enableInterrupts = CyEnterCriticalSection();
  80:.\Generated_Source\PSoC4/QuadDec_1.c **** 
  81:.\Generated_Source\PSoC4/QuadDec_1.c ****     /* Enable interrupts from Statusi register */
  82:.\Generated_Source\PSoC4/QuadDec_1.c ****     QuadDec_1_SR_AUX_CONTROL |= QuadDec_1_INTERRUPTS_ENABLE;
  83:.\Generated_Source\PSoC4/QuadDec_1.c **** 
  84:.\Generated_Source\PSoC4/QuadDec_1.c ****     CyExitCriticalSection(enableInterrupts);        
  85:.\Generated_Source\PSoC4/QuadDec_1.c **** 
  86:.\Generated_Source\PSoC4/QuadDec_1.c ****     #if (QuadDec_1_COUNTER_SIZE == QuadDec_1_COUNTER_SIZE_32_BIT)
  87:.\Generated_Source\PSoC4/QuadDec_1.c ****         /* Enable Component interrupts */
  88:.\Generated_Source\PSoC4/QuadDec_1.c ****         CyIntEnable(QuadDec_1_ISR_NUMBER);
  89:.\Generated_Source\PSoC4/QuadDec_1.c ****     #endif /* QuadDec_1_COUNTER_SIZE == QuadDec_1_COUNTER_SIZE_32_BIT */
  90:.\Generated_Source\PSoC4/QuadDec_1.c **** }
  91:.\Generated_Source\PSoC4/QuadDec_1.c **** 
  92:.\Generated_Source\PSoC4/QuadDec_1.c **** 
  93:.\Generated_Source\PSoC4/QuadDec_1.c **** /*******************************************************************************
  94:.\Generated_Source\PSoC4/QuadDec_1.c **** * Function Name: QuadDec_1_Start
  95:.\Generated_Source\PSoC4/QuadDec_1.c **** ********************************************************************************
  96:.\Generated_Source\PSoC4/QuadDec_1.c **** *
  97:.\Generated_Source\PSoC4/QuadDec_1.c **** * Summary:
  98:.\Generated_Source\PSoC4/QuadDec_1.c **** *  Initializes UDBs and other relevant hardware.
  99:.\Generated_Source\PSoC4/QuadDec_1.c **** *  Resets counter, enables or disables all relevant interrupts.
 100:.\Generated_Source\PSoC4/QuadDec_1.c **** *  Starts monitoring the inputs and counting.
 101:.\Generated_Source\PSoC4/QuadDec_1.c **** *
 102:.\Generated_Source\PSoC4/QuadDec_1.c **** * Parameters:
 103:.\Generated_Source\PSoC4/QuadDec_1.c **** *  None.
ARM GAS  C:\Users\g\AppData\Local\Temp\ccBatKPn.s 			page 4


 104:.\Generated_Source\PSoC4/QuadDec_1.c **** *
 105:.\Generated_Source\PSoC4/QuadDec_1.c **** * Return:
 106:.\Generated_Source\PSoC4/QuadDec_1.c **** *  None.
 107:.\Generated_Source\PSoC4/QuadDec_1.c **** *
 108:.\Generated_Source\PSoC4/QuadDec_1.c **** * Global variables:
 109:.\Generated_Source\PSoC4/QuadDec_1.c **** *  QuadDec_1_initVar - used to check initial configuration, modified on
 110:.\Generated_Source\PSoC4/QuadDec_1.c **** *  first function call.
 111:.\Generated_Source\PSoC4/QuadDec_1.c **** *
 112:.\Generated_Source\PSoC4/QuadDec_1.c **** * Reentrant:
 113:.\Generated_Source\PSoC4/QuadDec_1.c **** *  No.
 114:.\Generated_Source\PSoC4/QuadDec_1.c **** *
 115:.\Generated_Source\PSoC4/QuadDec_1.c **** *******************************************************************************/
 116:.\Generated_Source\PSoC4/QuadDec_1.c **** void QuadDec_1_Start(void) 
 117:.\Generated_Source\PSoC4/QuadDec_1.c **** {
 118:.\Generated_Source\PSoC4/QuadDec_1.c ****     #if (QuadDec_1_COUNTER_SIZE == QuadDec_1_COUNTER_SIZE_8_BIT)
 119:.\Generated_Source\PSoC4/QuadDec_1.c ****         QuadDec_1_Cnt8_Start();
 120:.\Generated_Source\PSoC4/QuadDec_1.c ****         QuadDec_1_Cnt8_WriteCounter(QuadDec_1_COUNTER_INIT_VALUE);
 121:.\Generated_Source\PSoC4/QuadDec_1.c ****     #else
 122:.\Generated_Source\PSoC4/QuadDec_1.c ****         /* (QuadDec_1_COUNTER_SIZE == QuadDec_1_COUNTER_SIZE_16_BIT) || 
 123:.\Generated_Source\PSoC4/QuadDec_1.c ****         *  (QuadDec_1_COUNTER_SIZE == QuadDec_1_COUNTER_SIZE_32_BIT) 
 124:.\Generated_Source\PSoC4/QuadDec_1.c ****         */
 125:.\Generated_Source\PSoC4/QuadDec_1.c ****         QuadDec_1_Cnt16_Start();
 126:.\Generated_Source\PSoC4/QuadDec_1.c ****         QuadDec_1_Cnt16_WriteCounter(QuadDec_1_COUNTER_INIT_VALUE);
 127:.\Generated_Source\PSoC4/QuadDec_1.c ****     #endif /* QuadDec_1_COUNTER_SIZE == QuadDec_1_COUNTER_SIZE_8_BIT */
 128:.\Generated_Source\PSoC4/QuadDec_1.c ****     
 129:.\Generated_Source\PSoC4/QuadDec_1.c ****     #if (QuadDec_1_COUNTER_SIZE == QuadDec_1_COUNTER_SIZE_32_BIT)        
 130:.\Generated_Source\PSoC4/QuadDec_1.c ****        QuadDec_1_count32SoftPart = 0;
 131:.\Generated_Source\PSoC4/QuadDec_1.c ****     #endif /* QuadDec_1_COUNTER_SIZE == QuadDec_1_COUNTER_SIZE_32_BIT */
 132:.\Generated_Source\PSoC4/QuadDec_1.c **** 
 133:.\Generated_Source\PSoC4/QuadDec_1.c ****     if (QuadDec_1_initVar == 0u)
 134:.\Generated_Source\PSoC4/QuadDec_1.c ****     {
 135:.\Generated_Source\PSoC4/QuadDec_1.c ****         QuadDec_1_Init();
 136:.\Generated_Source\PSoC4/QuadDec_1.c ****         QuadDec_1_initVar = 1u;
 137:.\Generated_Source\PSoC4/QuadDec_1.c ****     }
 138:.\Generated_Source\PSoC4/QuadDec_1.c **** 
 139:.\Generated_Source\PSoC4/QuadDec_1.c ****     QuadDec_1_Enable();
 140:.\Generated_Source\PSoC4/QuadDec_1.c **** }
 141:.\Generated_Source\PSoC4/QuadDec_1.c **** 
 142:.\Generated_Source\PSoC4/QuadDec_1.c **** 
 143:.\Generated_Source\PSoC4/QuadDec_1.c **** /*******************************************************************************
 144:.\Generated_Source\PSoC4/QuadDec_1.c **** * Function Name: QuadDec_1_Stop
 145:.\Generated_Source\PSoC4/QuadDec_1.c **** ********************************************************************************
 146:.\Generated_Source\PSoC4/QuadDec_1.c **** *
 147:.\Generated_Source\PSoC4/QuadDec_1.c **** * Summary:
 148:.\Generated_Source\PSoC4/QuadDec_1.c **** *  Turns off UDBs and other relevant hardware.
 149:.\Generated_Source\PSoC4/QuadDec_1.c **** *
 150:.\Generated_Source\PSoC4/QuadDec_1.c **** * Parameters:
 151:.\Generated_Source\PSoC4/QuadDec_1.c **** *  None.
 152:.\Generated_Source\PSoC4/QuadDec_1.c **** *
 153:.\Generated_Source\PSoC4/QuadDec_1.c **** * Return:
 154:.\Generated_Source\PSoC4/QuadDec_1.c **** *  None.
 155:.\Generated_Source\PSoC4/QuadDec_1.c **** *
 156:.\Generated_Source\PSoC4/QuadDec_1.c **** *******************************************************************************/
 157:.\Generated_Source\PSoC4/QuadDec_1.c **** void QuadDec_1_Stop(void) 
 158:.\Generated_Source\PSoC4/QuadDec_1.c **** {
 159:.\Generated_Source\PSoC4/QuadDec_1.c ****     uint8 enableInterrupts;
 160:.\Generated_Source\PSoC4/QuadDec_1.c **** 
ARM GAS  C:\Users\g\AppData\Local\Temp\ccBatKPn.s 			page 5


 161:.\Generated_Source\PSoC4/QuadDec_1.c ****     #if (QuadDec_1_COUNTER_SIZE == QuadDec_1_COUNTER_SIZE_8_BIT)
 162:.\Generated_Source\PSoC4/QuadDec_1.c ****         QuadDec_1_Cnt8_Stop();
 163:.\Generated_Source\PSoC4/QuadDec_1.c ****     #else 
 164:.\Generated_Source\PSoC4/QuadDec_1.c ****         /* (QuadDec_1_COUNTER_SIZE == QuadDec_1_COUNTER_SIZE_16_BIT) ||
 165:.\Generated_Source\PSoC4/QuadDec_1.c ****         *  (QuadDec_1_COUNTER_SIZE == QuadDec_1_COUNTER_SIZE_32_BIT)
 166:.\Generated_Source\PSoC4/QuadDec_1.c ****         */
 167:.\Generated_Source\PSoC4/QuadDec_1.c ****         QuadDec_1_Cnt16_Stop();    /* counter disable */
 168:.\Generated_Source\PSoC4/QuadDec_1.c ****     #endif /* (QuadDec_1_COUNTER_SIZE == QuadDec_1_COUNTER_SIZE_8_BIT) */
 169:.\Generated_Source\PSoC4/QuadDec_1.c ****  
 170:.\Generated_Source\PSoC4/QuadDec_1.c ****     enableInterrupts = CyEnterCriticalSection();
 171:.\Generated_Source\PSoC4/QuadDec_1.c **** 
 172:.\Generated_Source\PSoC4/QuadDec_1.c ****     /* Disable interrupts interrupts from Statusi register */
 173:.\Generated_Source\PSoC4/QuadDec_1.c ****     QuadDec_1_SR_AUX_CONTROL &= (uint8) (~QuadDec_1_INTERRUPTS_ENABLE);
 174:.\Generated_Source\PSoC4/QuadDec_1.c **** 
 175:.\Generated_Source\PSoC4/QuadDec_1.c ****     CyExitCriticalSection(enableInterrupts);
 176:.\Generated_Source\PSoC4/QuadDec_1.c **** 
 177:.\Generated_Source\PSoC4/QuadDec_1.c ****     #if (QuadDec_1_COUNTER_SIZE == QuadDec_1_COUNTER_SIZE_32_BIT)
 178:.\Generated_Source\PSoC4/QuadDec_1.c ****         CyIntDisable(QuadDec_1_ISR_NUMBER);    /* interrupt disable */
 179:.\Generated_Source\PSoC4/QuadDec_1.c ****     #endif /* QuadDec_1_COUNTER_SIZE == QuadDec_1_COUNTER_SIZE_32_BIT */
 180:.\Generated_Source\PSoC4/QuadDec_1.c **** }
 181:.\Generated_Source\PSoC4/QuadDec_1.c **** 
 182:.\Generated_Source\PSoC4/QuadDec_1.c **** 
 183:.\Generated_Source\PSoC4/QuadDec_1.c **** /*******************************************************************************
 184:.\Generated_Source\PSoC4/QuadDec_1.c **** * Function Name: QuadDec_1_GetCounter
 185:.\Generated_Source\PSoC4/QuadDec_1.c **** ********************************************************************************
 186:.\Generated_Source\PSoC4/QuadDec_1.c **** *
 187:.\Generated_Source\PSoC4/QuadDec_1.c **** * Summary:
 188:.\Generated_Source\PSoC4/QuadDec_1.c **** *  Reports the current value of the counter.
 189:.\Generated_Source\PSoC4/QuadDec_1.c **** *
 190:.\Generated_Source\PSoC4/QuadDec_1.c **** * Parameters:
 191:.\Generated_Source\PSoC4/QuadDec_1.c **** *  None.
 192:.\Generated_Source\PSoC4/QuadDec_1.c **** *
 193:.\Generated_Source\PSoC4/QuadDec_1.c **** * Return:
 194:.\Generated_Source\PSoC4/QuadDec_1.c **** *  The counter value. Return type is signed and per the counter size setting.
 195:.\Generated_Source\PSoC4/QuadDec_1.c **** *  A positive value indicates clockwise movement (B before A).
 196:.\Generated_Source\PSoC4/QuadDec_1.c **** *
 197:.\Generated_Source\PSoC4/QuadDec_1.c **** * Global variables:
 198:.\Generated_Source\PSoC4/QuadDec_1.c **** *  QuadDec_1_count32SoftPart - used to get hi 16 bit for current value
 199:.\Generated_Source\PSoC4/QuadDec_1.c **** *  of the 32-bit counter, when Counter size equal 32-bit.
 200:.\Generated_Source\PSoC4/QuadDec_1.c **** *
 201:.\Generated_Source\PSoC4/QuadDec_1.c **** *******************************************************************************/
 202:.\Generated_Source\PSoC4/QuadDec_1.c **** int32 QuadDec_1_GetCounter(void) 
 203:.\Generated_Source\PSoC4/QuadDec_1.c **** {
 204:.\Generated_Source\PSoC4/QuadDec_1.c ****     int32 count;
 205:.\Generated_Source\PSoC4/QuadDec_1.c ****     uint16 tmpCnt;
 206:.\Generated_Source\PSoC4/QuadDec_1.c **** 
 207:.\Generated_Source\PSoC4/QuadDec_1.c ****     #if (QuadDec_1_COUNTER_SIZE == QuadDec_1_COUNTER_SIZE_32_BIT)
 208:.\Generated_Source\PSoC4/QuadDec_1.c ****         int16 hwCount;
 209:.\Generated_Source\PSoC4/QuadDec_1.c **** 
 210:.\Generated_Source\PSoC4/QuadDec_1.c ****         CyIntDisable(QuadDec_1_ISR_NUMBER);
 211:.\Generated_Source\PSoC4/QuadDec_1.c **** 
 212:.\Generated_Source\PSoC4/QuadDec_1.c ****         tmpCnt = QuadDec_1_Cnt16_ReadCounter();
 213:.\Generated_Source\PSoC4/QuadDec_1.c ****         hwCount = (int16) ((int32) tmpCnt - (int32) QuadDec_1_COUNTER_INIT_VALUE);
 214:.\Generated_Source\PSoC4/QuadDec_1.c ****         count = QuadDec_1_count32SoftPart + hwCount;
 215:.\Generated_Source\PSoC4/QuadDec_1.c **** 
 216:.\Generated_Source\PSoC4/QuadDec_1.c ****         CyIntEnable(QuadDec_1_ISR_NUMBER);
 217:.\Generated_Source\PSoC4/QuadDec_1.c ****     #else 
ARM GAS  C:\Users\g\AppData\Local\Temp\ccBatKPn.s 			page 6


 218:.\Generated_Source\PSoC4/QuadDec_1.c ****         /* (QuadDec_1_COUNTER_SIZE == QuadDec_1_COUNTER_SIZE_8_BIT) || 
 219:.\Generated_Source\PSoC4/QuadDec_1.c ****         *  (QuadDec_1_COUNTER_SIZE == QuadDec_1_COUNTER_SIZE_16_BIT)
 220:.\Generated_Source\PSoC4/QuadDec_1.c ****         */
 221:.\Generated_Source\PSoC4/QuadDec_1.c ****         #if (QuadDec_1_COUNTER_SIZE == QuadDec_1_COUNTER_SIZE_8_BIT)
 222:.\Generated_Source\PSoC4/QuadDec_1.c ****             tmpCnt = QuadDec_1_Cnt8_ReadCounter();
 223:.\Generated_Source\PSoC4/QuadDec_1.c ****         #else /* (QuadDec_1_COUNTER_SIZE == QuadDec_1_COUNTER_SIZE_16_BIT) */
 224:.\Generated_Source\PSoC4/QuadDec_1.c ****             tmpCnt = QuadDec_1_Cnt16_ReadCounter();
 225:.\Generated_Source\PSoC4/QuadDec_1.c ****         #endif  /* QuadDec_1_COUNTER_SIZE == QuadDec_1_COUNTER_SIZE_8_BIT */
 226:.\Generated_Source\PSoC4/QuadDec_1.c **** 
 227:.\Generated_Source\PSoC4/QuadDec_1.c ****         count = (int32) ((int32) tmpCnt -
 228:.\Generated_Source\PSoC4/QuadDec_1.c ****                 (int32) QuadDec_1_COUNTER_INIT_VALUE);
 229:.\Generated_Source\PSoC4/QuadDec_1.c **** 
 230:.\Generated_Source\PSoC4/QuadDec_1.c ****     #endif /* QuadDec_1_COUNTER_SIZE == QuadDec_1_COUNTER_SIZE_32_BIT */ 
 231:.\Generated_Source\PSoC4/QuadDec_1.c **** 
 232:.\Generated_Source\PSoC4/QuadDec_1.c ****     return (count);
 233:.\Generated_Source\PSoC4/QuadDec_1.c **** }
 234:.\Generated_Source\PSoC4/QuadDec_1.c **** 
 235:.\Generated_Source\PSoC4/QuadDec_1.c **** 
 236:.\Generated_Source\PSoC4/QuadDec_1.c **** /*******************************************************************************
 237:.\Generated_Source\PSoC4/QuadDec_1.c **** * Function Name: QuadDec_1_SetCounter
 238:.\Generated_Source\PSoC4/QuadDec_1.c **** ********************************************************************************
 239:.\Generated_Source\PSoC4/QuadDec_1.c **** *
 240:.\Generated_Source\PSoC4/QuadDec_1.c **** * Summary:
 241:.\Generated_Source\PSoC4/QuadDec_1.c **** *  Sets the current value of the counter.
 242:.\Generated_Source\PSoC4/QuadDec_1.c **** *
 243:.\Generated_Source\PSoC4/QuadDec_1.c **** * Parameters:
 244:.\Generated_Source\PSoC4/QuadDec_1.c **** *  value:  The new value. Parameter type is signed and per the counter size
 245:.\Generated_Source\PSoC4/QuadDec_1.c **** *  setting.
 246:.\Generated_Source\PSoC4/QuadDec_1.c **** *
 247:.\Generated_Source\PSoC4/QuadDec_1.c **** * Return:
 248:.\Generated_Source\PSoC4/QuadDec_1.c **** *  None.
 249:.\Generated_Source\PSoC4/QuadDec_1.c **** *
 250:.\Generated_Source\PSoC4/QuadDec_1.c **** * Global variables:
 251:.\Generated_Source\PSoC4/QuadDec_1.c **** *  QuadDec_1_count32SoftPart - modified to set hi 16 bit for current
 252:.\Generated_Source\PSoC4/QuadDec_1.c **** *  value of the 32-bit counter, when Counter size equal 32-bit.
 253:.\Generated_Source\PSoC4/QuadDec_1.c **** *
 254:.\Generated_Source\PSoC4/QuadDec_1.c **** * Reentrant:
 255:.\Generated_Source\PSoC4/QuadDec_1.c **** *  No.
 256:.\Generated_Source\PSoC4/QuadDec_1.c **** *
 257:.\Generated_Source\PSoC4/QuadDec_1.c **** *******************************************************************************/
 258:.\Generated_Source\PSoC4/QuadDec_1.c **** void QuadDec_1_SetCounter(int32 value) 
 259:.\Generated_Source\PSoC4/QuadDec_1.c **** {
 260:.\Generated_Source\PSoC4/QuadDec_1.c ****     #if ((QuadDec_1_COUNTER_SIZE == QuadDec_1_COUNTER_SIZE_8_BIT) || \
 261:.\Generated_Source\PSoC4/QuadDec_1.c ****          (QuadDec_1_COUNTER_SIZE == QuadDec_1_COUNTER_SIZE_16_BIT))
 262:.\Generated_Source\PSoC4/QuadDec_1.c ****         uint16 count;
 263:.\Generated_Source\PSoC4/QuadDec_1.c ****         
 264:.\Generated_Source\PSoC4/QuadDec_1.c ****         if (value >= 0)
 265:.\Generated_Source\PSoC4/QuadDec_1.c ****         {
 266:.\Generated_Source\PSoC4/QuadDec_1.c ****             count = (uint16) value + QuadDec_1_COUNTER_INIT_VALUE;
 267:.\Generated_Source\PSoC4/QuadDec_1.c ****         }
 268:.\Generated_Source\PSoC4/QuadDec_1.c ****         else
 269:.\Generated_Source\PSoC4/QuadDec_1.c ****         {
 270:.\Generated_Source\PSoC4/QuadDec_1.c ****             count = QuadDec_1_COUNTER_INIT_VALUE - (uint16)(-value);
 271:.\Generated_Source\PSoC4/QuadDec_1.c ****         }
 272:.\Generated_Source\PSoC4/QuadDec_1.c ****         #if (QuadDec_1_COUNTER_SIZE == QuadDec_1_COUNTER_SIZE_8_BIT)
 273:.\Generated_Source\PSoC4/QuadDec_1.c ****             QuadDec_1_Cnt8_WriteCounter(count);
 274:.\Generated_Source\PSoC4/QuadDec_1.c ****         #else /* (QuadDec_1_COUNTER_SIZE == QuadDec_1_COUNTER_SIZE_16_BIT) */
ARM GAS  C:\Users\g\AppData\Local\Temp\ccBatKPn.s 			page 7


 275:.\Generated_Source\PSoC4/QuadDec_1.c ****             QuadDec_1_Cnt16_WriteCounter(count);
 276:.\Generated_Source\PSoC4/QuadDec_1.c ****         #endif  /* QuadDec_1_COUNTER_SIZE == QuadDec_1_COUNTER_SIZE_8_BIT */
 277:.\Generated_Source\PSoC4/QuadDec_1.c ****     #else /* (QuadDec_1_COUNTER_SIZE == QuadDec_1_COUNTER_SIZE_32_BIT) */
 278:.\Generated_Source\PSoC4/QuadDec_1.c ****         CyIntDisable(QuadDec_1_ISR_NUMBER);
 279:.\Generated_Source\PSoC4/QuadDec_1.c **** 
 280:.\Generated_Source\PSoC4/QuadDec_1.c ****         QuadDec_1_Cnt16_WriteCounter(QuadDec_1_COUNTER_INIT_VALUE);
 281:.\Generated_Source\PSoC4/QuadDec_1.c ****         QuadDec_1_count32SoftPart = value;
 282:.\Generated_Source\PSoC4/QuadDec_1.c **** 
 283:.\Generated_Source\PSoC4/QuadDec_1.c ****         CyIntEnable(QuadDec_1_ISR_NUMBER);
 284:.\Generated_Source\PSoC4/QuadDec_1.c ****     #endif  /* (QuadDec_1_COUNTER_SIZE == QuadDec_1_COUNTER_SIZE_8_BIT) ||
 285:.\Generated_Source\PSoC4/QuadDec_1.c ****              * (QuadDec_1_COUNTER_SIZE == QuadDec_1_COUNTER_SIZE_16_BIT)
 286:.\Generated_Source\PSoC4/QuadDec_1.c ****              */
 287:.\Generated_Source\PSoC4/QuadDec_1.c **** }
 288:.\Generated_Source\PSoC4/QuadDec_1.c **** 
 289:.\Generated_Source\PSoC4/QuadDec_1.c **** 
 290:.\Generated_Source\PSoC4/QuadDec_1.c **** /*******************************************************************************
 291:.\Generated_Source\PSoC4/QuadDec_1.c **** * Function Name: QuadDec_1_GetEvents
 292:.\Generated_Source\PSoC4/QuadDec_1.c **** ********************************************************************************
 293:.\Generated_Source\PSoC4/QuadDec_1.c **** * 
 294:.\Generated_Source\PSoC4/QuadDec_1.c **** * Summary:
 295:.\Generated_Source\PSoC4/QuadDec_1.c **** *   Reports the current status of events. This function clears the bits of the 
 296:.\Generated_Source\PSoC4/QuadDec_1.c **** *   status register.
 297:.\Generated_Source\PSoC4/QuadDec_1.c **** *
 298:.\Generated_Source\PSoC4/QuadDec_1.c **** * Parameters:
 299:.\Generated_Source\PSoC4/QuadDec_1.c **** *  None.
 300:.\Generated_Source\PSoC4/QuadDec_1.c **** *
 301:.\Generated_Source\PSoC4/QuadDec_1.c **** * Return:
 302:.\Generated_Source\PSoC4/QuadDec_1.c **** *  The events, as bits in an unsigned 8-bit value:
 303:.\Generated_Source\PSoC4/QuadDec_1.c **** *    Bit      Description
 304:.\Generated_Source\PSoC4/QuadDec_1.c **** *     0        Counter overflow.
 305:.\Generated_Source\PSoC4/QuadDec_1.c **** *     1        Counter underflow.
 306:.\Generated_Source\PSoC4/QuadDec_1.c **** *     2        Counter reset due to index, if index input is used.
 307:.\Generated_Source\PSoC4/QuadDec_1.c **** *     3        Invalid A, B inputs state transition.
 308:.\Generated_Source\PSoC4/QuadDec_1.c **** *
 309:.\Generated_Source\PSoC4/QuadDec_1.c **** *******************************************************************************/
 310:.\Generated_Source\PSoC4/QuadDec_1.c **** uint8 QuadDec_1_GetEvents(void) 
 311:.\Generated_Source\PSoC4/QuadDec_1.c **** {
 312:.\Generated_Source\PSoC4/QuadDec_1.c ****     return (QuadDec_1_STATUS_REG & QuadDec_1_INIT_INT_MASK);
 313:.\Generated_Source\PSoC4/QuadDec_1.c **** }
 314:.\Generated_Source\PSoC4/QuadDec_1.c **** 
 315:.\Generated_Source\PSoC4/QuadDec_1.c **** 
 316:.\Generated_Source\PSoC4/QuadDec_1.c **** /*******************************************************************************
 317:.\Generated_Source\PSoC4/QuadDec_1.c **** * Function Name: QuadDec_1_SetInterruptMask
 318:.\Generated_Source\PSoC4/QuadDec_1.c **** ********************************************************************************
 319:.\Generated_Source\PSoC4/QuadDec_1.c **** *
 320:.\Generated_Source\PSoC4/QuadDec_1.c **** * Summary:
 321:.\Generated_Source\PSoC4/QuadDec_1.c **** *  Enables / disables interrupts due to the events.
 322:.\Generated_Source\PSoC4/QuadDec_1.c **** *  For the 32-bit counter, the overflow, underflow and reset interrupts cannot
 323:.\Generated_Source\PSoC4/QuadDec_1.c **** *  be disabled, these bits are ignored.
 324:.\Generated_Source\PSoC4/QuadDec_1.c **** *
 325:.\Generated_Source\PSoC4/QuadDec_1.c **** * Parameters:
 326:.\Generated_Source\PSoC4/QuadDec_1.c **** *  mask: Enable / disable bits in an 8-bit value, where 1 enables the interrupt.
 327:.\Generated_Source\PSoC4/QuadDec_1.c **** *
 328:.\Generated_Source\PSoC4/QuadDec_1.c **** * Return:
 329:.\Generated_Source\PSoC4/QuadDec_1.c **** *  None.
 330:.\Generated_Source\PSoC4/QuadDec_1.c **** *
 331:.\Generated_Source\PSoC4/QuadDec_1.c **** *******************************************************************************/
ARM GAS  C:\Users\g\AppData\Local\Temp\ccBatKPn.s 			page 8


 332:.\Generated_Source\PSoC4/QuadDec_1.c **** void QuadDec_1_SetInterruptMask(uint8 mask) 
 333:.\Generated_Source\PSoC4/QuadDec_1.c **** {
 334:.\Generated_Source\PSoC4/QuadDec_1.c ****     #if (QuadDec_1_COUNTER_SIZE == QuadDec_1_COUNTER_SIZE_32_BIT)
 335:.\Generated_Source\PSoC4/QuadDec_1.c ****         /* Underflow, Overflow and Reset interrupts for 32-bit Counter are always enable */
 336:.\Generated_Source\PSoC4/QuadDec_1.c ****         mask |= (QuadDec_1_COUNTER_OVERFLOW | QuadDec_1_COUNTER_UNDERFLOW |
 337:.\Generated_Source\PSoC4/QuadDec_1.c ****                  QuadDec_1_COUNTER_RESET);
 338:.\Generated_Source\PSoC4/QuadDec_1.c ****     #endif /* QuadDec_1_COUNTER_SIZE == QuadDec_1_COUNTER_SIZE_32_BIT */
 339:.\Generated_Source\PSoC4/QuadDec_1.c **** 
 340:.\Generated_Source\PSoC4/QuadDec_1.c ****     QuadDec_1_STATUS_MASK = mask;
  69              		.loc 1 340 0
  70 0000 0F22     		mov	r2, #15
  71              	.LBE7:
  72              	.LBE6:
  71:.\Generated_Source\PSoC4/QuadDec_1.c ****     uint8 enableInterrupts;
  73              		.loc 1 71 0
  74 0002 08B5     		push	{r3, lr}
  75              		.cfi_def_cfa_offset 8
  76              		.cfi_offset 3, -8
  77              		.cfi_offset 14, -4
  78              	.LBB10:
  79              	.LBB8:
  80              		.loc 1 340 0
  81 0004 084B     		ldr	r3, .L5
  82              	.LBE8:
  83              	.LBE10:
  90:.\Generated_Source\PSoC4/QuadDec_1.c **** 
  84              		.loc 1 90 0
  85              		@ sp needed
  86              	.LBB11:
  87              	.LBB9:
  88              		.loc 1 340 0
  89 0006 1A70     		strb	r2, [r3]
  90              	.LBE9:
  91              	.LBE11:
  92              	.LBB12:
  93              	.LBB13:
 312:.\Generated_Source\PSoC4/QuadDec_1.c **** }
  94              		.loc 1 312 0
  95 0008 084B     		ldr	r3, .L5+4
  96 000a 1B78     		ldrb	r3, [r3]
  97              	.LBE13:
  98              	.LBE12:
  79:.\Generated_Source\PSoC4/QuadDec_1.c **** 
  99              		.loc 1 79 0
 100 000c FFF7FEFF 		bl	CyEnterCriticalSection
 101              	.LVL4:
  82:.\Generated_Source\PSoC4/QuadDec_1.c **** 
 102              		.loc 1 82 0
 103 0010 1023     		mov	r3, #16
 104 0012 074A     		ldr	r2, .L5+8
 105 0014 1178     		ldrb	r1, [r2]
 106 0016 0B43     		orr	r3, r1
 107 0018 1370     		strb	r3, [r2]
  84:.\Generated_Source\PSoC4/QuadDec_1.c **** 
 108              		.loc 1 84 0
 109 001a FFF7FEFF 		bl	CyExitCriticalSection
 110              	.LVL5:
ARM GAS  C:\Users\g\AppData\Local\Temp\ccBatKPn.s 			page 9


  88:.\Generated_Source\PSoC4/QuadDec_1.c ****     #endif /* QuadDec_1_COUNTER_SIZE == QuadDec_1_COUNTER_SIZE_32_BIT */
 111              		.loc 1 88 0
 112 001e 0020     		mov	r0, #0
 113 0020 FFF7FEFF 		bl	CyIntEnable
 114              	.LVL6:
  90:.\Generated_Source\PSoC4/QuadDec_1.c **** 
 115              		.loc 1 90 0
 116 0024 08BD     		pop	{r3, pc}
 117              	.L6:
 118 0026 C046     		.align	2
 119              	.L5:
 120 0028 80000F40 		.word	1074724992
 121 002c 60000F40 		.word	1074724960
 122 0030 90000F40 		.word	1074725008
 123              		.cfi_endproc
 124              	.LFE1:
 125              		.size	QuadDec_1_Enable, .-QuadDec_1_Enable
 126              		.section	.text.QuadDec_1_Start,"ax",%progbits
 127              		.align	2
 128              		.global	QuadDec_1_Start
 129              		.code	16
 130              		.thumb_func
 131              		.type	QuadDec_1_Start, %function
 132              	QuadDec_1_Start:
 133              	.LFB2:
 117:.\Generated_Source\PSoC4/QuadDec_1.c ****     #if (QuadDec_1_COUNTER_SIZE == QuadDec_1_COUNTER_SIZE_8_BIT)
 134              		.loc 1 117 0
 135              		.cfi_startproc
 136 0000 10B5     		push	{r4, lr}
 137              		.cfi_def_cfa_offset 8
 138              		.cfi_offset 4, -8
 139              		.cfi_offset 14, -4
 125:.\Generated_Source\PSoC4/QuadDec_1.c ****         QuadDec_1_Cnt16_WriteCounter(QuadDec_1_COUNTER_INIT_VALUE);
 140              		.loc 1 125 0
 141 0002 FFF7FEFF 		bl	QuadDec_1_Cnt16_Start
 142              	.LVL7:
 126:.\Generated_Source\PSoC4/QuadDec_1.c ****     #endif /* QuadDec_1_COUNTER_SIZE == QuadDec_1_COUNTER_SIZE_8_BIT */
 143              		.loc 1 126 0
 144 0006 8020     		mov	r0, #128
 145 0008 0002     		lsl	r0, r0, #8
 146 000a FFF7FEFF 		bl	QuadDec_1_Cnt16_WriteCounter
 147              	.LVL8:
 130:.\Generated_Source\PSoC4/QuadDec_1.c ****     #endif /* QuadDec_1_COUNTER_SIZE == QuadDec_1_COUNTER_SIZE_32_BIT */
 148              		.loc 1 130 0
 149 000e 0022     		mov	r2, #0
 150 0010 064B     		ldr	r3, .L10
 133:.\Generated_Source\PSoC4/QuadDec_1.c ****     {
 151              		.loc 1 133 0
 152 0012 074C     		ldr	r4, .L10+4
 130:.\Generated_Source\PSoC4/QuadDec_1.c ****     #endif /* QuadDec_1_COUNTER_SIZE == QuadDec_1_COUNTER_SIZE_32_BIT */
 153              		.loc 1 130 0
 154 0014 1A60     		str	r2, [r3]
 133:.\Generated_Source\PSoC4/QuadDec_1.c ****     {
 155              		.loc 1 133 0
 156 0016 2378     		ldrb	r3, [r4]
 157 0018 002B     		cmp	r3, #0
 158 001a 03D1     		bne	.L8
ARM GAS  C:\Users\g\AppData\Local\Temp\ccBatKPn.s 			page 10


 135:.\Generated_Source\PSoC4/QuadDec_1.c ****         QuadDec_1_initVar = 1u;
 159              		.loc 1 135 0
 160 001c FFF7FEFF 		bl	QuadDec_1_Init
 161              	.LVL9:
 136:.\Generated_Source\PSoC4/QuadDec_1.c ****     }
 162              		.loc 1 136 0
 163 0020 0123     		mov	r3, #1
 164 0022 2370     		strb	r3, [r4]
 165              	.L8:
 139:.\Generated_Source\PSoC4/QuadDec_1.c **** }
 166              		.loc 1 139 0
 167 0024 FFF7FEFF 		bl	QuadDec_1_Enable
 168              	.LVL10:
 140:.\Generated_Source\PSoC4/QuadDec_1.c **** 
 169              		.loc 1 140 0
 170              		@ sp needed
 171 0028 10BD     		pop	{r4, pc}
 172              	.L11:
 173 002a C046     		.align	2
 174              	.L10:
 175 002c 00000000 		.word	QuadDec_1_count32SoftPart
 176 0030 00000000 		.word	.LANCHOR0
 177              		.cfi_endproc
 178              	.LFE2:
 179              		.size	QuadDec_1_Start, .-QuadDec_1_Start
 180              		.section	.text.QuadDec_1_Stop,"ax",%progbits
 181              		.align	2
 182              		.global	QuadDec_1_Stop
 183              		.code	16
 184              		.thumb_func
 185              		.type	QuadDec_1_Stop, %function
 186              	QuadDec_1_Stop:
 187              	.LFB3:
 158:.\Generated_Source\PSoC4/QuadDec_1.c ****     uint8 enableInterrupts;
 188              		.loc 1 158 0
 189              		.cfi_startproc
 190 0000 08B5     		push	{r3, lr}
 191              		.cfi_def_cfa_offset 8
 192              		.cfi_offset 3, -8
 193              		.cfi_offset 14, -4
 167:.\Generated_Source\PSoC4/QuadDec_1.c ****     #endif /* (QuadDec_1_COUNTER_SIZE == QuadDec_1_COUNTER_SIZE_8_BIT) */
 194              		.loc 1 167 0
 195 0002 FFF7FEFF 		bl	QuadDec_1_Cnt16_Stop
 196              	.LVL11:
 170:.\Generated_Source\PSoC4/QuadDec_1.c **** 
 197              		.loc 1 170 0
 198 0006 FFF7FEFF 		bl	CyEnterCriticalSection
 199              	.LVL12:
 173:.\Generated_Source\PSoC4/QuadDec_1.c **** 
 200              		.loc 1 173 0
 201 000a 1021     		mov	r1, #16
 202 000c 044A     		ldr	r2, .L13
 180:.\Generated_Source\PSoC4/QuadDec_1.c **** 
 203              		.loc 1 180 0
 204              		@ sp needed
 173:.\Generated_Source\PSoC4/QuadDec_1.c **** 
 205              		.loc 1 173 0
ARM GAS  C:\Users\g\AppData\Local\Temp\ccBatKPn.s 			page 11


 206 000e 1378     		ldrb	r3, [r2]
 207 0010 8B43     		bic	r3, r1
 208 0012 1370     		strb	r3, [r2]
 175:.\Generated_Source\PSoC4/QuadDec_1.c **** 
 209              		.loc 1 175 0
 210 0014 FFF7FEFF 		bl	CyExitCriticalSection
 211              	.LVL13:
 178:.\Generated_Source\PSoC4/QuadDec_1.c ****     #endif /* QuadDec_1_COUNTER_SIZE == QuadDec_1_COUNTER_SIZE_32_BIT */
 212              		.loc 1 178 0
 213 0018 0020     		mov	r0, #0
 214 001a FFF7FEFF 		bl	CyIntDisable
 215              	.LVL14:
 180:.\Generated_Source\PSoC4/QuadDec_1.c **** 
 216              		.loc 1 180 0
 217 001e 08BD     		pop	{r3, pc}
 218              	.L14:
 219              		.align	2
 220              	.L13:
 221 0020 90000F40 		.word	1074725008
 222              		.cfi_endproc
 223              	.LFE3:
 224              		.size	QuadDec_1_Stop, .-QuadDec_1_Stop
 225              		.section	.text.QuadDec_1_GetCounter,"ax",%progbits
 226              		.align	2
 227              		.global	QuadDec_1_GetCounter
 228              		.code	16
 229              		.thumb_func
 230              		.type	QuadDec_1_GetCounter, %function
 231              	QuadDec_1_GetCounter:
 232              	.LFB4:
 203:.\Generated_Source\PSoC4/QuadDec_1.c ****     int32 count;
 233              		.loc 1 203 0
 234              		.cfi_startproc
 235 0000 10B5     		push	{r4, lr}
 236              		.cfi_def_cfa_offset 8
 237              		.cfi_offset 4, -8
 238              		.cfi_offset 14, -4
 210:.\Generated_Source\PSoC4/QuadDec_1.c **** 
 239              		.loc 1 210 0
 240 0002 0020     		mov	r0, #0
 241 0004 FFF7FEFF 		bl	CyIntDisable
 242              	.LVL15:
 212:.\Generated_Source\PSoC4/QuadDec_1.c ****         hwCount = (int16) ((int32) tmpCnt - (int32) QuadDec_1_COUNTER_INIT_VALUE);
 243              		.loc 1 212 0
 244 0008 FFF7FEFF 		bl	QuadDec_1_Cnt16_ReadCounter
 245              	.LVL16:
 214:.\Generated_Source\PSoC4/QuadDec_1.c **** 
 246              		.loc 1 214 0
 247 000c 054B     		ldr	r3, .L16
 233:.\Generated_Source\PSoC4/QuadDec_1.c **** 
 248              		.loc 1 233 0
 249              		@ sp needed
 214:.\Generated_Source\PSoC4/QuadDec_1.c **** 
 250              		.loc 1 214 0
 251 000e 1C68     		ldr	r4, [r3]
 213:.\Generated_Source\PSoC4/QuadDec_1.c ****         count = QuadDec_1_count32SoftPart + hwCount;
 252              		.loc 1 213 0
ARM GAS  C:\Users\g\AppData\Local\Temp\ccBatKPn.s 			page 12


 253 0010 054B     		ldr	r3, .L16+4
 254 0012 9C46     		mov	ip, r3
 255 0014 6044     		add	r0, r0, ip
 256              	.LVL17:
 214:.\Generated_Source\PSoC4/QuadDec_1.c **** 
 257              		.loc 1 214 0
 258 0016 00B2     		sxth	r0, r0
 259 0018 0419     		add	r4, r0, r4
 260              	.LVL18:
 216:.\Generated_Source\PSoC4/QuadDec_1.c ****     #else 
 261              		.loc 1 216 0
 262 001a 0020     		mov	r0, #0
 263 001c FFF7FEFF 		bl	CyIntEnable
 264              	.LVL19:
 233:.\Generated_Source\PSoC4/QuadDec_1.c **** 
 265              		.loc 1 233 0
 266 0020 201C     		mov	r0, r4
 267              	.LVL20:
 268 0022 10BD     		pop	{r4, pc}
 269              	.L17:
 270              		.align	2
 271              	.L16:
 272 0024 00000000 		.word	QuadDec_1_count32SoftPart
 273 0028 0080FFFF 		.word	-32768
 274              		.cfi_endproc
 275              	.LFE4:
 276              		.size	QuadDec_1_GetCounter, .-QuadDec_1_GetCounter
 277              		.section	.text.QuadDec_1_SetCounter,"ax",%progbits
 278              		.align	2
 279              		.global	QuadDec_1_SetCounter
 280              		.code	16
 281              		.thumb_func
 282              		.type	QuadDec_1_SetCounter, %function
 283              	QuadDec_1_SetCounter:
 284              	.LFB5:
 259:.\Generated_Source\PSoC4/QuadDec_1.c ****     #if ((QuadDec_1_COUNTER_SIZE == QuadDec_1_COUNTER_SIZE_8_BIT) || \
 285              		.loc 1 259 0
 286              		.cfi_startproc
 287              	.LVL21:
 288 0000 10B5     		push	{r4, lr}
 289              		.cfi_def_cfa_offset 8
 290              		.cfi_offset 4, -8
 291              		.cfi_offset 14, -4
 259:.\Generated_Source\PSoC4/QuadDec_1.c ****     #if ((QuadDec_1_COUNTER_SIZE == QuadDec_1_COUNTER_SIZE_8_BIT) || \
 292              		.loc 1 259 0
 293 0002 041C     		mov	r4, r0
 278:.\Generated_Source\PSoC4/QuadDec_1.c **** 
 294              		.loc 1 278 0
 295 0004 0020     		mov	r0, #0
 296              	.LVL22:
 297 0006 FFF7FEFF 		bl	CyIntDisable
 298              	.LVL23:
 280:.\Generated_Source\PSoC4/QuadDec_1.c ****         QuadDec_1_count32SoftPart = value;
 299              		.loc 1 280 0
 300 000a 8020     		mov	r0, #128
 301 000c 0002     		lsl	r0, r0, #8
 302 000e FFF7FEFF 		bl	QuadDec_1_Cnt16_WriteCounter
ARM GAS  C:\Users\g\AppData\Local\Temp\ccBatKPn.s 			page 13


 303              	.LVL24:
 281:.\Generated_Source\PSoC4/QuadDec_1.c **** 
 304              		.loc 1 281 0
 305 0012 034B     		ldr	r3, .L19
 283:.\Generated_Source\PSoC4/QuadDec_1.c ****     #endif  /* (QuadDec_1_COUNTER_SIZE == QuadDec_1_COUNTER_SIZE_8_BIT) ||
 306              		.loc 1 283 0
 307 0014 0020     		mov	r0, #0
 281:.\Generated_Source\PSoC4/QuadDec_1.c **** 
 308              		.loc 1 281 0
 309 0016 1C60     		str	r4, [r3]
 287:.\Generated_Source\PSoC4/QuadDec_1.c **** 
 310              		.loc 1 287 0
 311              		@ sp needed
 283:.\Generated_Source\PSoC4/QuadDec_1.c ****     #endif  /* (QuadDec_1_COUNTER_SIZE == QuadDec_1_COUNTER_SIZE_8_BIT) ||
 312              		.loc 1 283 0
 313 0018 FFF7FEFF 		bl	CyIntEnable
 314              	.LVL25:
 315              	.LVL26:
 287:.\Generated_Source\PSoC4/QuadDec_1.c **** 
 316              		.loc 1 287 0
 317 001c 10BD     		pop	{r4, pc}
 318              	.L20:
 319 001e C046     		.align	2
 320              	.L19:
 321 0020 00000000 		.word	QuadDec_1_count32SoftPart
 322              		.cfi_endproc
 323              	.LFE5:
 324              		.size	QuadDec_1_SetCounter, .-QuadDec_1_SetCounter
 325              		.section	.text.QuadDec_1_GetEvents,"ax",%progbits
 326              		.align	2
 327              		.global	QuadDec_1_GetEvents
 328              		.code	16
 329              		.thumb_func
 330              		.type	QuadDec_1_GetEvents, %function
 331              	QuadDec_1_GetEvents:
 332              	.LFB6:
 311:.\Generated_Source\PSoC4/QuadDec_1.c ****     return (QuadDec_1_STATUS_REG & QuadDec_1_INIT_INT_MASK);
 333              		.loc 1 311 0
 334              		.cfi_startproc
 312:.\Generated_Source\PSoC4/QuadDec_1.c **** }
 335              		.loc 1 312 0
 336 0000 0F20     		mov	r0, #15
 337 0002 024B     		ldr	r3, .L22
 313:.\Generated_Source\PSoC4/QuadDec_1.c **** 
 338              		.loc 1 313 0
 339              		@ sp needed
 312:.\Generated_Source\PSoC4/QuadDec_1.c **** }
 340              		.loc 1 312 0
 341 0004 1B78     		ldrb	r3, [r3]
 342 0006 1840     		and	r0, r3
 313:.\Generated_Source\PSoC4/QuadDec_1.c **** 
 343              		.loc 1 313 0
 344 0008 7047     		bx	lr
 345              	.L23:
 346 000a C046     		.align	2
 347              	.L22:
 348 000c 60000F40 		.word	1074724960
ARM GAS  C:\Users\g\AppData\Local\Temp\ccBatKPn.s 			page 14


 349              		.cfi_endproc
 350              	.LFE6:
 351              		.size	QuadDec_1_GetEvents, .-QuadDec_1_GetEvents
 352              		.section	.text.QuadDec_1_SetInterruptMask,"ax",%progbits
 353              		.align	2
 354              		.global	QuadDec_1_SetInterruptMask
 355              		.code	16
 356              		.thumb_func
 357              		.type	QuadDec_1_SetInterruptMask, %function
 358              	QuadDec_1_SetInterruptMask:
 359              	.LFB7:
 333:.\Generated_Source\PSoC4/QuadDec_1.c ****     #if (QuadDec_1_COUNTER_SIZE == QuadDec_1_COUNTER_SIZE_32_BIT)
 360              		.loc 1 333 0
 361              		.cfi_startproc
 362              	.LVL27:
 336:.\Generated_Source\PSoC4/QuadDec_1.c ****                  QuadDec_1_COUNTER_RESET);
 363              		.loc 1 336 0
 364 0000 0723     		mov	r3, #7
 365 0002 1843     		orr	r0, r3
 366              	.LVL28:
 367              		.loc 1 340 0
 368 0004 014B     		ldr	r3, .L25
 341:.\Generated_Source\PSoC4/QuadDec_1.c **** }
 369              		.loc 1 341 0
 370              		@ sp needed
 340:.\Generated_Source\PSoC4/QuadDec_1.c **** }
 371              		.loc 1 340 0
 372 0006 1870     		strb	r0, [r3]
 373              		.loc 1 341 0
 374 0008 7047     		bx	lr
 375              	.L26:
 376 000a C046     		.align	2
 377              	.L25:
 378 000c 80000F40 		.word	1074724992
 379              		.cfi_endproc
 380              	.LFE7:
 381              		.size	QuadDec_1_SetInterruptMask, .-QuadDec_1_SetInterruptMask
 382              		.section	.text.QuadDec_1_GetInterruptMask,"ax",%progbits
 383              		.align	2
 384              		.global	QuadDec_1_GetInterruptMask
 385              		.code	16
 386              		.thumb_func
 387              		.type	QuadDec_1_GetInterruptMask, %function
 388              	QuadDec_1_GetInterruptMask:
 389              	.LFB8:
 342:.\Generated_Source\PSoC4/QuadDec_1.c **** 
 343:.\Generated_Source\PSoC4/QuadDec_1.c **** 
 344:.\Generated_Source\PSoC4/QuadDec_1.c **** /*******************************************************************************
 345:.\Generated_Source\PSoC4/QuadDec_1.c **** * Function Name: QuadDec_1_GetInterruptMask
 346:.\Generated_Source\PSoC4/QuadDec_1.c **** ********************************************************************************
 347:.\Generated_Source\PSoC4/QuadDec_1.c **** *
 348:.\Generated_Source\PSoC4/QuadDec_1.c **** * Summary:
 349:.\Generated_Source\PSoC4/QuadDec_1.c **** *  Reports the current interrupt mask settings.
 350:.\Generated_Source\PSoC4/QuadDec_1.c **** *
 351:.\Generated_Source\PSoC4/QuadDec_1.c **** * Parameters:
 352:.\Generated_Source\PSoC4/QuadDec_1.c **** *  None.
 353:.\Generated_Source\PSoC4/QuadDec_1.c **** *
ARM GAS  C:\Users\g\AppData\Local\Temp\ccBatKPn.s 			page 15


 354:.\Generated_Source\PSoC4/QuadDec_1.c **** * Return:
 355:.\Generated_Source\PSoC4/QuadDec_1.c **** *  Enable / disable bits in an 8-bit value, where 1 enables the interrupt.
 356:.\Generated_Source\PSoC4/QuadDec_1.c **** *  For the 32-bit counter, the overflow, underflow and reset enable bits are
 357:.\Generated_Source\PSoC4/QuadDec_1.c **** *  always set.
 358:.\Generated_Source\PSoC4/QuadDec_1.c **** *
 359:.\Generated_Source\PSoC4/QuadDec_1.c **** *******************************************************************************/
 360:.\Generated_Source\PSoC4/QuadDec_1.c **** uint8 QuadDec_1_GetInterruptMask(void) 
 361:.\Generated_Source\PSoC4/QuadDec_1.c **** {
 390              		.loc 1 361 0
 391              		.cfi_startproc
 362:.\Generated_Source\PSoC4/QuadDec_1.c ****     return (QuadDec_1_STATUS_MASK & QuadDec_1_INIT_INT_MASK);
 392              		.loc 1 362 0
 393 0000 0F20     		mov	r0, #15
 394 0002 024B     		ldr	r3, .L28
 363:.\Generated_Source\PSoC4/QuadDec_1.c **** }
 395              		.loc 1 363 0
 396              		@ sp needed
 362:.\Generated_Source\PSoC4/QuadDec_1.c ****     return (QuadDec_1_STATUS_MASK & QuadDec_1_INIT_INT_MASK);
 397              		.loc 1 362 0
 398 0004 1B78     		ldrb	r3, [r3]
 399 0006 1840     		and	r0, r3
 400              		.loc 1 363 0
 401 0008 7047     		bx	lr
 402              	.L29:
 403 000a C046     		.align	2
 404              	.L28:
 405 000c 80000F40 		.word	1074724992
 406              		.cfi_endproc
 407              	.LFE8:
 408              		.size	QuadDec_1_GetInterruptMask, .-QuadDec_1_GetInterruptMask
 409              		.global	QuadDec_1_initVar
 410              		.bss
 411              		.set	.LANCHOR0,. + 0
 412              		.type	QuadDec_1_initVar, %object
 413              		.size	QuadDec_1_initVar, 1
 414              	QuadDec_1_initVar:
 415 0000 00       		.space	1
 416              		.text
 417              	.Letext0:
 418              		.file 2 ".\\Generated_Source\\PSoC4\\cytypes.h"
 419              		.file 3 ".\\Generated_Source\\PSoC4\\QuadDec_1_PVT.h"
 420              		.file 4 ".\\Generated_Source\\PSoC4\\CyLib.h"
 421              		.file 5 ".\\Generated_Source\\PSoC4\\QuadDec_1_Cnt16.h"