ARM GAS  C:\Users\g\AppData\Local\Temp\ccdQMVvg.s 			page 1


   1              		.cpu cortex-m0
   2              		.fpu softvfp
   3              		.eabi_attribute 20, 1
   4              		.eabi_attribute 21, 1
   5              		.eabi_attribute 23, 3
   6              		.eabi_attribute 24, 1
   7              		.eabi_attribute 25, 1
   8              		.eabi_attribute 26, 1
   9              		.eabi_attribute 30, 2
  10              		.eabi_attribute 34, 0
  11              		.eabi_attribute 18, 4
  12              		.code	16
  13              		.file	"QuadDec_1_Cnt16_PM.c"
  14              		.text
  15              	.Ltext0:
  16              		.cfi_sections	.debug_frame
  17              		.section	.text.QuadDec_1_Cnt16_SaveConfig,"ax",%progbits
  18              		.align	2
  19              		.global	QuadDec_1_Cnt16_SaveConfig
  20              		.code	16
  21              		.thumb_func
  22              		.type	QuadDec_1_Cnt16_SaveConfig, %function
  23              	QuadDec_1_Cnt16_SaveConfig:
  24              	.LFB0:
  25              		.file 1 ".\\Generated_Source\\PSoC4\\QuadDec_1_Cnt16_PM.c"
   1:.\Generated_Source\PSoC4/QuadDec_1_Cnt16_PM.c **** /*******************************************************************************
   2:.\Generated_Source\PSoC4/QuadDec_1_Cnt16_PM.c **** * File Name: QuadDec_1_Cnt16_PM.c  
   3:.\Generated_Source\PSoC4/QuadDec_1_Cnt16_PM.c **** * Version 3.0
   4:.\Generated_Source\PSoC4/QuadDec_1_Cnt16_PM.c **** *
   5:.\Generated_Source\PSoC4/QuadDec_1_Cnt16_PM.c **** *  Description:
   6:.\Generated_Source\PSoC4/QuadDec_1_Cnt16_PM.c **** *    This file provides the power management source code to API for the
   7:.\Generated_Source\PSoC4/QuadDec_1_Cnt16_PM.c **** *    Counter.  
   8:.\Generated_Source\PSoC4/QuadDec_1_Cnt16_PM.c **** *
   9:.\Generated_Source\PSoC4/QuadDec_1_Cnt16_PM.c **** *   Note:
  10:.\Generated_Source\PSoC4/QuadDec_1_Cnt16_PM.c **** *     None
  11:.\Generated_Source\PSoC4/QuadDec_1_Cnt16_PM.c **** *
  12:.\Generated_Source\PSoC4/QuadDec_1_Cnt16_PM.c **** ********************************************************************************
  13:.\Generated_Source\PSoC4/QuadDec_1_Cnt16_PM.c **** * Copyright 2008-2012, Cypress Semiconductor Corporation.  All rights reserved.
  14:.\Generated_Source\PSoC4/QuadDec_1_Cnt16_PM.c **** * You may use this file only in accordance with the license, terms, conditions, 
  15:.\Generated_Source\PSoC4/QuadDec_1_Cnt16_PM.c **** * disclaimers, and limitations in the end user license agreement accompanying 
  16:.\Generated_Source\PSoC4/QuadDec_1_Cnt16_PM.c **** * the software package with which this file was provided.
  17:.\Generated_Source\PSoC4/QuadDec_1_Cnt16_PM.c **** *******************************************************************************/
  18:.\Generated_Source\PSoC4/QuadDec_1_Cnt16_PM.c **** 
  19:.\Generated_Source\PSoC4/QuadDec_1_Cnt16_PM.c **** #include "QuadDec_1_Cnt16.h"
  20:.\Generated_Source\PSoC4/QuadDec_1_Cnt16_PM.c **** 
  21:.\Generated_Source\PSoC4/QuadDec_1_Cnt16_PM.c **** static QuadDec_1_Cnt16_backupStruct QuadDec_1_Cnt16_backup;
  22:.\Generated_Source\PSoC4/QuadDec_1_Cnt16_PM.c **** 
  23:.\Generated_Source\PSoC4/QuadDec_1_Cnt16_PM.c **** 
  24:.\Generated_Source\PSoC4/QuadDec_1_Cnt16_PM.c **** /*******************************************************************************
  25:.\Generated_Source\PSoC4/QuadDec_1_Cnt16_PM.c **** * Function Name: QuadDec_1_Cnt16_SaveConfig
  26:.\Generated_Source\PSoC4/QuadDec_1_Cnt16_PM.c **** ********************************************************************************
  27:.\Generated_Source\PSoC4/QuadDec_1_Cnt16_PM.c **** * Summary:
  28:.\Generated_Source\PSoC4/QuadDec_1_Cnt16_PM.c **** *     Save the current user configuration
  29:.\Generated_Source\PSoC4/QuadDec_1_Cnt16_PM.c **** *
  30:.\Generated_Source\PSoC4/QuadDec_1_Cnt16_PM.c **** * Parameters:  
  31:.\Generated_Source\PSoC4/QuadDec_1_Cnt16_PM.c **** *  void
  32:.\Generated_Source\PSoC4/QuadDec_1_Cnt16_PM.c **** *
ARM GAS  C:\Users\g\AppData\Local\Temp\ccdQMVvg.s 			page 2


  33:.\Generated_Source\PSoC4/QuadDec_1_Cnt16_PM.c **** * Return: 
  34:.\Generated_Source\PSoC4/QuadDec_1_Cnt16_PM.c **** *  void
  35:.\Generated_Source\PSoC4/QuadDec_1_Cnt16_PM.c **** *
  36:.\Generated_Source\PSoC4/QuadDec_1_Cnt16_PM.c **** * Global variables:
  37:.\Generated_Source\PSoC4/QuadDec_1_Cnt16_PM.c **** *  QuadDec_1_Cnt16_backup:  Variables of this global structure are modified to 
  38:.\Generated_Source\PSoC4/QuadDec_1_Cnt16_PM.c **** *  store the values of non retention configuration registers when Sleep() API is 
  39:.\Generated_Source\PSoC4/QuadDec_1_Cnt16_PM.c **** *  called.
  40:.\Generated_Source\PSoC4/QuadDec_1_Cnt16_PM.c **** *
  41:.\Generated_Source\PSoC4/QuadDec_1_Cnt16_PM.c **** *******************************************************************************/
  42:.\Generated_Source\PSoC4/QuadDec_1_Cnt16_PM.c **** void QuadDec_1_Cnt16_SaveConfig(void) 
  43:.\Generated_Source\PSoC4/QuadDec_1_Cnt16_PM.c **** {
  26              		.loc 1 43 0
  27              		.cfi_startproc
  28 0000 10B5     		push	{r4, lr}
  29              		.cfi_def_cfa_offset 8
  30              		.cfi_offset 4, -8
  31              		.cfi_offset 14, -4
  44:.\Generated_Source\PSoC4/QuadDec_1_Cnt16_PM.c ****     #if (!QuadDec_1_Cnt16_UsingFixedFunction)
  45:.\Generated_Source\PSoC4/QuadDec_1_Cnt16_PM.c **** 
  46:.\Generated_Source\PSoC4/QuadDec_1_Cnt16_PM.c ****         QuadDec_1_Cnt16_backup.CounterUdb = QuadDec_1_Cnt16_ReadCounter();
  32              		.loc 1 46 0
  33 0002 FFF7FEFF 		bl	QuadDec_1_Cnt16_ReadCounter
  34              	.LVL0:
  35 0006 034C     		ldr	r4, .L2
  47:.\Generated_Source\PSoC4/QuadDec_1_Cnt16_PM.c **** 
  48:.\Generated_Source\PSoC4/QuadDec_1_Cnt16_PM.c ****         #if(!QuadDec_1_Cnt16_ControlRegRemoved)
  49:.\Generated_Source\PSoC4/QuadDec_1_Cnt16_PM.c ****             QuadDec_1_Cnt16_backup.CounterControlRegister = QuadDec_1_Cnt16_ReadControlRegister();
  50:.\Generated_Source\PSoC4/QuadDec_1_Cnt16_PM.c ****         #endif /* (!QuadDec_1_Cnt16_ControlRegRemoved) */
  51:.\Generated_Source\PSoC4/QuadDec_1_Cnt16_PM.c **** 
  52:.\Generated_Source\PSoC4/QuadDec_1_Cnt16_PM.c ****     #endif /* (!QuadDec_1_Cnt16_UsingFixedFunction) */
  53:.\Generated_Source\PSoC4/QuadDec_1_Cnt16_PM.c **** }
  36              		.loc 1 53 0
  37              		@ sp needed
  46:.\Generated_Source\PSoC4/QuadDec_1_Cnt16_PM.c **** 
  38              		.loc 1 46 0
  39 0008 6080     		strh	r0, [r4, #2]
  49:.\Generated_Source\PSoC4/QuadDec_1_Cnt16_PM.c ****         #endif /* (!QuadDec_1_Cnt16_ControlRegRemoved) */
  40              		.loc 1 49 0
  41 000a FFF7FEFF 		bl	QuadDec_1_Cnt16_ReadControlRegister
  42              	.LVL1:
  43 000e 2071     		strb	r0, [r4, #4]
  44              		.loc 1 53 0
  45 0010 10BD     		pop	{r4, pc}
  46              	.L3:
  47 0012 C046     		.align	2
  48              	.L2:
  49 0014 00000000 		.word	.LANCHOR0
  50              		.cfi_endproc
  51              	.LFE0:
  52              		.size	QuadDec_1_Cnt16_SaveConfig, .-QuadDec_1_Cnt16_SaveConfig
  53              		.section	.text.QuadDec_1_Cnt16_RestoreConfig,"ax",%progbits
  54              		.align	2
  55              		.global	QuadDec_1_Cnt16_RestoreConfig
  56              		.code	16
  57              		.thumb_func
  58              		.type	QuadDec_1_Cnt16_RestoreConfig, %function
  59              	QuadDec_1_Cnt16_RestoreConfig:
ARM GAS  C:\Users\g\AppData\Local\Temp\ccdQMVvg.s 			page 3


  60              	.LFB1:
  54:.\Generated_Source\PSoC4/QuadDec_1_Cnt16_PM.c **** 
  55:.\Generated_Source\PSoC4/QuadDec_1_Cnt16_PM.c **** 
  56:.\Generated_Source\PSoC4/QuadDec_1_Cnt16_PM.c **** /*******************************************************************************
  57:.\Generated_Source\PSoC4/QuadDec_1_Cnt16_PM.c **** * Function Name: QuadDec_1_Cnt16_RestoreConfig
  58:.\Generated_Source\PSoC4/QuadDec_1_Cnt16_PM.c **** ********************************************************************************
  59:.\Generated_Source\PSoC4/QuadDec_1_Cnt16_PM.c **** *
  60:.\Generated_Source\PSoC4/QuadDec_1_Cnt16_PM.c **** * Summary:
  61:.\Generated_Source\PSoC4/QuadDec_1_Cnt16_PM.c **** *  Restores the current user configuration.
  62:.\Generated_Source\PSoC4/QuadDec_1_Cnt16_PM.c **** *
  63:.\Generated_Source\PSoC4/QuadDec_1_Cnt16_PM.c **** * Parameters:  
  64:.\Generated_Source\PSoC4/QuadDec_1_Cnt16_PM.c **** *  void
  65:.\Generated_Source\PSoC4/QuadDec_1_Cnt16_PM.c **** *
  66:.\Generated_Source\PSoC4/QuadDec_1_Cnt16_PM.c **** * Return: 
  67:.\Generated_Source\PSoC4/QuadDec_1_Cnt16_PM.c **** *  void
  68:.\Generated_Source\PSoC4/QuadDec_1_Cnt16_PM.c **** *
  69:.\Generated_Source\PSoC4/QuadDec_1_Cnt16_PM.c **** * Global variables:
  70:.\Generated_Source\PSoC4/QuadDec_1_Cnt16_PM.c **** *  QuadDec_1_Cnt16_backup:  Variables of this global structure are used to 
  71:.\Generated_Source\PSoC4/QuadDec_1_Cnt16_PM.c **** *  restore the values of non retention registers on wakeup from sleep mode.
  72:.\Generated_Source\PSoC4/QuadDec_1_Cnt16_PM.c **** *
  73:.\Generated_Source\PSoC4/QuadDec_1_Cnt16_PM.c **** *******************************************************************************/
  74:.\Generated_Source\PSoC4/QuadDec_1_Cnt16_PM.c **** void QuadDec_1_Cnt16_RestoreConfig(void) 
  75:.\Generated_Source\PSoC4/QuadDec_1_Cnt16_PM.c **** {      
  61              		.loc 1 75 0
  62              		.cfi_startproc
  63 0000 10B5     		push	{r4, lr}
  64              		.cfi_def_cfa_offset 8
  65              		.cfi_offset 4, -8
  66              		.cfi_offset 14, -4
  76:.\Generated_Source\PSoC4/QuadDec_1_Cnt16_PM.c ****     #if (!QuadDec_1_Cnt16_UsingFixedFunction)
  77:.\Generated_Source\PSoC4/QuadDec_1_Cnt16_PM.c **** 
  78:.\Generated_Source\PSoC4/QuadDec_1_Cnt16_PM.c ****        QuadDec_1_Cnt16_WriteCounter(QuadDec_1_Cnt16_backup.CounterUdb);
  67              		.loc 1 78 0
  68 0002 044C     		ldr	r4, .L5
  79:.\Generated_Source\PSoC4/QuadDec_1_Cnt16_PM.c **** 
  80:.\Generated_Source\PSoC4/QuadDec_1_Cnt16_PM.c ****         #if(!QuadDec_1_Cnt16_ControlRegRemoved)
  81:.\Generated_Source\PSoC4/QuadDec_1_Cnt16_PM.c ****             QuadDec_1_Cnt16_WriteControlRegister(QuadDec_1_Cnt16_backup.CounterControlRegister);
  82:.\Generated_Source\PSoC4/QuadDec_1_Cnt16_PM.c ****         #endif /* (!QuadDec_1_Cnt16_ControlRegRemoved) */
  83:.\Generated_Source\PSoC4/QuadDec_1_Cnt16_PM.c **** 
  84:.\Generated_Source\PSoC4/QuadDec_1_Cnt16_PM.c ****     #endif /* (!QuadDec_1_Cnt16_UsingFixedFunction) */
  85:.\Generated_Source\PSoC4/QuadDec_1_Cnt16_PM.c **** }
  69              		.loc 1 85 0
  70              		@ sp needed
  78:.\Generated_Source\PSoC4/QuadDec_1_Cnt16_PM.c **** 
  71              		.loc 1 78 0
  72 0004 6088     		ldrh	r0, [r4, #2]
  73 0006 FFF7FEFF 		bl	QuadDec_1_Cnt16_WriteCounter
  74              	.LVL2:
  81:.\Generated_Source\PSoC4/QuadDec_1_Cnt16_PM.c ****         #endif /* (!QuadDec_1_Cnt16_ControlRegRemoved) */
  75              		.loc 1 81 0
  76 000a 2079     		ldrb	r0, [r4, #4]
  77 000c FFF7FEFF 		bl	QuadDec_1_Cnt16_WriteControlRegister
  78              	.LVL3:
  79              		.loc 1 85 0
  80 0010 10BD     		pop	{r4, pc}
  81              	.L6:
  82 0012 C046     		.align	2
ARM GAS  C:\Users\g\AppData\Local\Temp\ccdQMVvg.s 			page 4


  83              	.L5:
  84 0014 00000000 		.word	.LANCHOR0
  85              		.cfi_endproc
  86              	.LFE1:
  87              		.size	QuadDec_1_Cnt16_RestoreConfig, .-QuadDec_1_Cnt16_RestoreConfig
  88              		.section	.text.QuadDec_1_Cnt16_Sleep,"ax",%progbits
  89              		.align	2
  90              		.global	QuadDec_1_Cnt16_Sleep
  91              		.code	16
  92              		.thumb_func
  93              		.type	QuadDec_1_Cnt16_Sleep, %function
  94              	QuadDec_1_Cnt16_Sleep:
  95              	.LFB2:
  86:.\Generated_Source\PSoC4/QuadDec_1_Cnt16_PM.c **** 
  87:.\Generated_Source\PSoC4/QuadDec_1_Cnt16_PM.c **** 
  88:.\Generated_Source\PSoC4/QuadDec_1_Cnt16_PM.c **** /*******************************************************************************
  89:.\Generated_Source\PSoC4/QuadDec_1_Cnt16_PM.c **** * Function Name: QuadDec_1_Cnt16_Sleep
  90:.\Generated_Source\PSoC4/QuadDec_1_Cnt16_PM.c **** ********************************************************************************
  91:.\Generated_Source\PSoC4/QuadDec_1_Cnt16_PM.c **** * Summary:
  92:.\Generated_Source\PSoC4/QuadDec_1_Cnt16_PM.c **** *     Stop and Save the user configuration
  93:.\Generated_Source\PSoC4/QuadDec_1_Cnt16_PM.c **** *
  94:.\Generated_Source\PSoC4/QuadDec_1_Cnt16_PM.c **** * Parameters:  
  95:.\Generated_Source\PSoC4/QuadDec_1_Cnt16_PM.c **** *  void
  96:.\Generated_Source\PSoC4/QuadDec_1_Cnt16_PM.c **** *
  97:.\Generated_Source\PSoC4/QuadDec_1_Cnt16_PM.c **** * Return: 
  98:.\Generated_Source\PSoC4/QuadDec_1_Cnt16_PM.c **** *  void
  99:.\Generated_Source\PSoC4/QuadDec_1_Cnt16_PM.c **** *
 100:.\Generated_Source\PSoC4/QuadDec_1_Cnt16_PM.c **** * Global variables:
 101:.\Generated_Source\PSoC4/QuadDec_1_Cnt16_PM.c **** *  QuadDec_1_Cnt16_backup.enableState:  Is modified depending on the enable 
 102:.\Generated_Source\PSoC4/QuadDec_1_Cnt16_PM.c **** *  state of the block before entering sleep mode.
 103:.\Generated_Source\PSoC4/QuadDec_1_Cnt16_PM.c **** *
 104:.\Generated_Source\PSoC4/QuadDec_1_Cnt16_PM.c **** *******************************************************************************/
 105:.\Generated_Source\PSoC4/QuadDec_1_Cnt16_PM.c **** void QuadDec_1_Cnt16_Sleep(void) 
 106:.\Generated_Source\PSoC4/QuadDec_1_Cnt16_PM.c **** {
  96              		.loc 1 106 0
  97              		.cfi_startproc
  98 0000 08B5     		push	{r3, lr}
  99              		.cfi_def_cfa_offset 8
 100              		.cfi_offset 3, -8
 101              		.cfi_offset 14, -4
 107:.\Generated_Source\PSoC4/QuadDec_1_Cnt16_PM.c ****     #if(!QuadDec_1_Cnt16_ControlRegRemoved)
 108:.\Generated_Source\PSoC4/QuadDec_1_Cnt16_PM.c ****         /* Save Counter's enable state */
 109:.\Generated_Source\PSoC4/QuadDec_1_Cnt16_PM.c ****         if(QuadDec_1_Cnt16_CTRL_ENABLE == (QuadDec_1_Cnt16_CONTROL & QuadDec_1_Cnt16_CTRL_ENABLE))
 102              		.loc 1 109 0
 103 0002 084B     		ldr	r3, .L12
 104 0004 1B78     		ldrb	r3, [r3]
 105 0006 5BB2     		sxtb	r3, r3
 106 0008 002B     		cmp	r3, #0
 107 000a 07DB     		blt	.L11
 110:.\Generated_Source\PSoC4/QuadDec_1_Cnt16_PM.c ****         {
 111:.\Generated_Source\PSoC4/QuadDec_1_Cnt16_PM.c ****             /* Counter is enabled */
 112:.\Generated_Source\PSoC4/QuadDec_1_Cnt16_PM.c ****             QuadDec_1_Cnt16_backup.CounterEnableState = 1u;
 113:.\Generated_Source\PSoC4/QuadDec_1_Cnt16_PM.c ****         }
 114:.\Generated_Source\PSoC4/QuadDec_1_Cnt16_PM.c ****         else
 115:.\Generated_Source\PSoC4/QuadDec_1_Cnt16_PM.c ****         {
 116:.\Generated_Source\PSoC4/QuadDec_1_Cnt16_PM.c ****             /* Counter is disabled */
 117:.\Generated_Source\PSoC4/QuadDec_1_Cnt16_PM.c ****             QuadDec_1_Cnt16_backup.CounterEnableState = 0u;
ARM GAS  C:\Users\g\AppData\Local\Temp\ccdQMVvg.s 			page 5


 108              		.loc 1 117 0
 109 000c 0022     		mov	r2, #0
 110 000e 064B     		ldr	r3, .L12+4
 111 0010 1A70     		strb	r2, [r3]
 112              	.L9:
 118:.\Generated_Source\PSoC4/QuadDec_1_Cnt16_PM.c ****         }
 119:.\Generated_Source\PSoC4/QuadDec_1_Cnt16_PM.c ****     #else
 120:.\Generated_Source\PSoC4/QuadDec_1_Cnt16_PM.c ****         QuadDec_1_Cnt16_backup.CounterEnableState = 1u;
 121:.\Generated_Source\PSoC4/QuadDec_1_Cnt16_PM.c ****         if(QuadDec_1_Cnt16_backup.CounterEnableState != 0u)
 122:.\Generated_Source\PSoC4/QuadDec_1_Cnt16_PM.c ****         {
 123:.\Generated_Source\PSoC4/QuadDec_1_Cnt16_PM.c ****             QuadDec_1_Cnt16_backup.CounterEnableState = 0u;
 124:.\Generated_Source\PSoC4/QuadDec_1_Cnt16_PM.c ****         }
 125:.\Generated_Source\PSoC4/QuadDec_1_Cnt16_PM.c ****     #endif /* (!QuadDec_1_Cnt16_ControlRegRemoved) */
 126:.\Generated_Source\PSoC4/QuadDec_1_Cnt16_PM.c ****     
 127:.\Generated_Source\PSoC4/QuadDec_1_Cnt16_PM.c ****     QuadDec_1_Cnt16_Stop();
 113              		.loc 1 127 0
 114 0012 FFF7FEFF 		bl	QuadDec_1_Cnt16_Stop
 115              	.LVL4:
 128:.\Generated_Source\PSoC4/QuadDec_1_Cnt16_PM.c ****     QuadDec_1_Cnt16_SaveConfig();
 129:.\Generated_Source\PSoC4/QuadDec_1_Cnt16_PM.c **** }
 116              		.loc 1 129 0
 117              		@ sp needed
 128:.\Generated_Source\PSoC4/QuadDec_1_Cnt16_PM.c ****     QuadDec_1_Cnt16_SaveConfig();
 118              		.loc 1 128 0
 119 0016 FFF7FEFF 		bl	QuadDec_1_Cnt16_SaveConfig
 120              	.LVL5:
 121              		.loc 1 129 0
 122 001a 08BD     		pop	{r3, pc}
 123              	.L11:
 112:.\Generated_Source\PSoC4/QuadDec_1_Cnt16_PM.c ****         }
 124              		.loc 1 112 0
 125 001c 0122     		mov	r2, #1
 126 001e 024B     		ldr	r3, .L12+4
 127 0020 1A70     		strb	r2, [r3]
 128 0022 F6E7     		b	.L9
 129              	.L13:
 130              		.align	2
 131              	.L12:
 132 0024 72000F40 		.word	1074724978
 133 0028 00000000 		.word	.LANCHOR0
 134              		.cfi_endproc
 135              	.LFE2:
 136              		.size	QuadDec_1_Cnt16_Sleep, .-QuadDec_1_Cnt16_Sleep
 137              		.section	.text.QuadDec_1_Cnt16_Wakeup,"ax",%progbits
 138              		.align	2
 139              		.global	QuadDec_1_Cnt16_Wakeup
 140              		.code	16
 141              		.thumb_func
 142              		.type	QuadDec_1_Cnt16_Wakeup, %function
 143              	QuadDec_1_Cnt16_Wakeup:
 144              	.LFB3:
 130:.\Generated_Source\PSoC4/QuadDec_1_Cnt16_PM.c **** 
 131:.\Generated_Source\PSoC4/QuadDec_1_Cnt16_PM.c **** 
 132:.\Generated_Source\PSoC4/QuadDec_1_Cnt16_PM.c **** /*******************************************************************************
 133:.\Generated_Source\PSoC4/QuadDec_1_Cnt16_PM.c **** * Function Name: QuadDec_1_Cnt16_Wakeup
 134:.\Generated_Source\PSoC4/QuadDec_1_Cnt16_PM.c **** ********************************************************************************
 135:.\Generated_Source\PSoC4/QuadDec_1_Cnt16_PM.c **** *
ARM GAS  C:\Users\g\AppData\Local\Temp\ccdQMVvg.s 			page 6


 136:.\Generated_Source\PSoC4/QuadDec_1_Cnt16_PM.c **** * Summary:
 137:.\Generated_Source\PSoC4/QuadDec_1_Cnt16_PM.c **** *  Restores and enables the user configuration
 138:.\Generated_Source\PSoC4/QuadDec_1_Cnt16_PM.c **** *  
 139:.\Generated_Source\PSoC4/QuadDec_1_Cnt16_PM.c **** * Parameters:  
 140:.\Generated_Source\PSoC4/QuadDec_1_Cnt16_PM.c **** *  void
 141:.\Generated_Source\PSoC4/QuadDec_1_Cnt16_PM.c **** *
 142:.\Generated_Source\PSoC4/QuadDec_1_Cnt16_PM.c **** * Return: 
 143:.\Generated_Source\PSoC4/QuadDec_1_Cnt16_PM.c **** *  void
 144:.\Generated_Source\PSoC4/QuadDec_1_Cnt16_PM.c **** *
 145:.\Generated_Source\PSoC4/QuadDec_1_Cnt16_PM.c **** * Global variables:
 146:.\Generated_Source\PSoC4/QuadDec_1_Cnt16_PM.c **** *  QuadDec_1_Cnt16_backup.enableState:  Is used to restore the enable state of 
 147:.\Generated_Source\PSoC4/QuadDec_1_Cnt16_PM.c **** *  block on wakeup from sleep mode.
 148:.\Generated_Source\PSoC4/QuadDec_1_Cnt16_PM.c **** *
 149:.\Generated_Source\PSoC4/QuadDec_1_Cnt16_PM.c **** *******************************************************************************/
 150:.\Generated_Source\PSoC4/QuadDec_1_Cnt16_PM.c **** void QuadDec_1_Cnt16_Wakeup(void) 
 151:.\Generated_Source\PSoC4/QuadDec_1_Cnt16_PM.c **** {
 145              		.loc 1 151 0
 146              		.cfi_startproc
 147 0000 08B5     		push	{r3, lr}
 148              		.cfi_def_cfa_offset 8
 149              		.cfi_offset 3, -8
 150              		.cfi_offset 14, -4
 152:.\Generated_Source\PSoC4/QuadDec_1_Cnt16_PM.c ****     QuadDec_1_Cnt16_RestoreConfig();
 151              		.loc 1 152 0
 152 0002 FFF7FEFF 		bl	QuadDec_1_Cnt16_RestoreConfig
 153              	.LVL6:
 153:.\Generated_Source\PSoC4/QuadDec_1_Cnt16_PM.c ****     #if(!QuadDec_1_Cnt16_ControlRegRemoved)
 154:.\Generated_Source\PSoC4/QuadDec_1_Cnt16_PM.c ****         if(QuadDec_1_Cnt16_backup.CounterEnableState == 1u)
 154              		.loc 1 154 0
 155 0006 044B     		ldr	r3, .L17
 156 0008 1B78     		ldrb	r3, [r3]
 157 000a 012B     		cmp	r3, #1
 158 000c 00D0     		beq	.L16
 159              	.L14:
 155:.\Generated_Source\PSoC4/QuadDec_1_Cnt16_PM.c ****         {
 156:.\Generated_Source\PSoC4/QuadDec_1_Cnt16_PM.c ****             /* Enable Counter's operation */
 157:.\Generated_Source\PSoC4/QuadDec_1_Cnt16_PM.c ****             QuadDec_1_Cnt16_Enable();
 158:.\Generated_Source\PSoC4/QuadDec_1_Cnt16_PM.c ****         } /* Do nothing if Counter was disabled before */    
 159:.\Generated_Source\PSoC4/QuadDec_1_Cnt16_PM.c ****     #endif /* (!QuadDec_1_Cnt16_ControlRegRemoved) */
 160:.\Generated_Source\PSoC4/QuadDec_1_Cnt16_PM.c ****     
 161:.\Generated_Source\PSoC4/QuadDec_1_Cnt16_PM.c **** }
 160              		.loc 1 161 0
 161              		@ sp needed
 162 000e 08BD     		pop	{r3, pc}
 163              	.L16:
 157:.\Generated_Source\PSoC4/QuadDec_1_Cnt16_PM.c ****         } /* Do nothing if Counter was disabled before */    
 164              		.loc 1 157 0
 165 0010 FFF7FEFF 		bl	QuadDec_1_Cnt16_Enable
 166              	.LVL7:
 167 0014 FBE7     		b	.L14
 168              	.L18:
 169 0016 C046     		.align	2
 170              	.L17:
 171 0018 00000000 		.word	.LANCHOR0
 172              		.cfi_endproc
 173              	.LFE3:
 174              		.size	QuadDec_1_Cnt16_Wakeup, .-QuadDec_1_Cnt16_Wakeup
ARM GAS  C:\Users\g\AppData\Local\Temp\ccdQMVvg.s 			page 7


 175              		.bss
 176              		.align	2
 177              		.set	.LANCHOR0,. + 0
 178              		.type	QuadDec_1_Cnt16_backup, %object
 179              		.size	QuadDec_1_Cnt16_backup, 6
 180              	QuadDec_1_Cnt16_backup:
 181 0000 00000000 		.space	6
 181      0000
 182 0006 0000     		.text
 183              	.Letext0:
 184              		.file 2 ".\\Generated_Source\\PSoC4\\cytypes.h"
 185              		.file 3 ".\\Generated_Source\\PSoC4\\QuadDec_1_Cnt16.h"