ARM GAS  C:\Users\g\AppData\Local\Temp\cclhNFei.s 			page 1


   1              		.cpu cortex-m0
   2              		.fpu softvfp
   3              		.eabi_attribute 20, 1
   4              		.eabi_attribute 21, 1
   5              		.eabi_attribute 23, 3
   6              		.eabi_attribute 24, 1
   7              		.eabi_attribute 25, 1
   8              		.eabi_attribute 26, 1
   9              		.eabi_attribute 30, 2
  10              		.eabi_attribute 34, 0
  11              		.eabi_attribute 18, 4
  12              		.code	16
  13              		.file	"QuadDec_1_Cnt8.c"
  14              		.text
  15              	.Ltext0:
  16              		.cfi_sections	.debug_frame
  17              		.section	.text.QuadDec_1_Cnt8_Init,"ax",%progbits
  18              		.align	2
  19              		.global	QuadDec_1_Cnt8_Init
  20              		.code	16
  21              		.thumb_func
  22              		.type	QuadDec_1_Cnt8_Init, %function
  23              	QuadDec_1_Cnt8_Init:
  24              	.LFB0:
  25              		.file 1 ".\\Generated_Source\\PSoC4\\QuadDec_1_Cnt8.c"
   1:.\Generated_Source\PSoC4/QuadDec_1_Cnt8.c **** /*******************************************************************************
   2:.\Generated_Source\PSoC4/QuadDec_1_Cnt8.c **** * File Name: QuadDec_1_Cnt8.c  
   3:.\Generated_Source\PSoC4/QuadDec_1_Cnt8.c **** * Version 3.0
   4:.\Generated_Source\PSoC4/QuadDec_1_Cnt8.c **** *
   5:.\Generated_Source\PSoC4/QuadDec_1_Cnt8.c **** *  Description:
   6:.\Generated_Source\PSoC4/QuadDec_1_Cnt8.c **** *     The Counter component consists of a 8, 16, 24 or 32-bit counter with
   7:.\Generated_Source\PSoC4/QuadDec_1_Cnt8.c **** *     a selectable period between 2 and 2^Width - 1.  
   8:.\Generated_Source\PSoC4/QuadDec_1_Cnt8.c **** *
   9:.\Generated_Source\PSoC4/QuadDec_1_Cnt8.c **** *   Note:
  10:.\Generated_Source\PSoC4/QuadDec_1_Cnt8.c **** *     None
  11:.\Generated_Source\PSoC4/QuadDec_1_Cnt8.c **** *
  12:.\Generated_Source\PSoC4/QuadDec_1_Cnt8.c **** ********************************************************************************
  13:.\Generated_Source\PSoC4/QuadDec_1_Cnt8.c **** * Copyright 2008-2012, Cypress Semiconductor Corporation.  All rights reserved.
  14:.\Generated_Source\PSoC4/QuadDec_1_Cnt8.c **** * You may use this file only in accordance with the license, terms, conditions, 
  15:.\Generated_Source\PSoC4/QuadDec_1_Cnt8.c **** * disclaimers, and limitations in the end user license agreement accompanying 
  16:.\Generated_Source\PSoC4/QuadDec_1_Cnt8.c **** * the software package with which this file was provided.
  17:.\Generated_Source\PSoC4/QuadDec_1_Cnt8.c **** *******************************************************************************/
  18:.\Generated_Source\PSoC4/QuadDec_1_Cnt8.c **** 
  19:.\Generated_Source\PSoC4/QuadDec_1_Cnt8.c **** #include "QuadDec_1_Cnt8.h"
  20:.\Generated_Source\PSoC4/QuadDec_1_Cnt8.c **** 
  21:.\Generated_Source\PSoC4/QuadDec_1_Cnt8.c **** uint8 QuadDec_1_Cnt8_initVar = 0u;
  22:.\Generated_Source\PSoC4/QuadDec_1_Cnt8.c **** 
  23:.\Generated_Source\PSoC4/QuadDec_1_Cnt8.c **** 
  24:.\Generated_Source\PSoC4/QuadDec_1_Cnt8.c **** /*******************************************************************************
  25:.\Generated_Source\PSoC4/QuadDec_1_Cnt8.c **** * Function Name: QuadDec_1_Cnt8_Init
  26:.\Generated_Source\PSoC4/QuadDec_1_Cnt8.c **** ********************************************************************************
  27:.\Generated_Source\PSoC4/QuadDec_1_Cnt8.c **** * Summary:
  28:.\Generated_Source\PSoC4/QuadDec_1_Cnt8.c **** *     Initialize to the schematic state
  29:.\Generated_Source\PSoC4/QuadDec_1_Cnt8.c **** * 
  30:.\Generated_Source\PSoC4/QuadDec_1_Cnt8.c **** * Parameters:  
  31:.\Generated_Source\PSoC4/QuadDec_1_Cnt8.c **** *  void  
  32:.\Generated_Source\PSoC4/QuadDec_1_Cnt8.c **** *
ARM GAS  C:\Users\g\AppData\Local\Temp\cclhNFei.s 			page 2


  33:.\Generated_Source\PSoC4/QuadDec_1_Cnt8.c **** * Return: 
  34:.\Generated_Source\PSoC4/QuadDec_1_Cnt8.c **** *  void
  35:.\Generated_Source\PSoC4/QuadDec_1_Cnt8.c **** *
  36:.\Generated_Source\PSoC4/QuadDec_1_Cnt8.c **** *******************************************************************************/
  37:.\Generated_Source\PSoC4/QuadDec_1_Cnt8.c **** void QuadDec_1_Cnt8_Init(void) 
  38:.\Generated_Source\PSoC4/QuadDec_1_Cnt8.c **** {
  26              		.loc 1 38 0
  27              		.cfi_startproc
  39:.\Generated_Source\PSoC4/QuadDec_1_Cnt8.c ****         #if (!QuadDec_1_Cnt8_UsingFixedFunction && !QuadDec_1_Cnt8_ControlRegRemoved)
  40:.\Generated_Source\PSoC4/QuadDec_1_Cnt8.c ****             uint8 ctrl;
  41:.\Generated_Source\PSoC4/QuadDec_1_Cnt8.c ****         #endif /* (!QuadDec_1_Cnt8_UsingFixedFunction && !QuadDec_1_Cnt8_ControlRegRemoved) */
  42:.\Generated_Source\PSoC4/QuadDec_1_Cnt8.c ****         
  43:.\Generated_Source\PSoC4/QuadDec_1_Cnt8.c ****         #if(!QuadDec_1_Cnt8_UsingFixedFunction) 
  44:.\Generated_Source\PSoC4/QuadDec_1_Cnt8.c ****             /* Interrupt State Backup for Critical Region*/
  45:.\Generated_Source\PSoC4/QuadDec_1_Cnt8.c ****             uint8 QuadDec_1_Cnt8_interruptState;
  46:.\Generated_Source\PSoC4/QuadDec_1_Cnt8.c ****         #endif /* (!QuadDec_1_Cnt8_UsingFixedFunction) */
  47:.\Generated_Source\PSoC4/QuadDec_1_Cnt8.c ****         
  48:.\Generated_Source\PSoC4/QuadDec_1_Cnt8.c ****         #if (QuadDec_1_Cnt8_UsingFixedFunction)
  49:.\Generated_Source\PSoC4/QuadDec_1_Cnt8.c ****             /* Clear all bits but the enable bit (if it's already set for Timer operation */
  50:.\Generated_Source\PSoC4/QuadDec_1_Cnt8.c ****             QuadDec_1_Cnt8_CONTROL &= QuadDec_1_Cnt8_CTRL_ENABLE;
  51:.\Generated_Source\PSoC4/QuadDec_1_Cnt8.c ****             
  52:.\Generated_Source\PSoC4/QuadDec_1_Cnt8.c ****             /* Clear the mode bits for continuous run mode */
  53:.\Generated_Source\PSoC4/QuadDec_1_Cnt8.c ****             #if (CY_PSOC5A)
  54:.\Generated_Source\PSoC4/QuadDec_1_Cnt8.c ****                 QuadDec_1_Cnt8_CONTROL2 &= ((uint8)(~QuadDec_1_Cnt8_CTRL_MODE_MASK));
  55:.\Generated_Source\PSoC4/QuadDec_1_Cnt8.c ****             #endif /* (CY_PSOC5A) */
  56:.\Generated_Source\PSoC4/QuadDec_1_Cnt8.c ****             #if (CY_PSOC3 || CY_PSOC5LP)
  57:.\Generated_Source\PSoC4/QuadDec_1_Cnt8.c ****                 QuadDec_1_Cnt8_CONTROL3 &= ((uint8)(~QuadDec_1_Cnt8_CTRL_MODE_MASK));              
  58:.\Generated_Source\PSoC4/QuadDec_1_Cnt8.c ****             #endif /* (CY_PSOC3 || CY_PSOC5LP) */
  59:.\Generated_Source\PSoC4/QuadDec_1_Cnt8.c ****             /* Check if One Shot mode is enabled i.e. RunMode !=0*/
  60:.\Generated_Source\PSoC4/QuadDec_1_Cnt8.c ****             #if (QuadDec_1_Cnt8_RunModeUsed != 0x0u)
  61:.\Generated_Source\PSoC4/QuadDec_1_Cnt8.c ****                 /* Set 3rd bit of Control register to enable one shot mode */
  62:.\Generated_Source\PSoC4/QuadDec_1_Cnt8.c ****                 QuadDec_1_Cnt8_CONTROL |= QuadDec_1_Cnt8_ONESHOT;
  63:.\Generated_Source\PSoC4/QuadDec_1_Cnt8.c ****             #endif /* (QuadDec_1_Cnt8_RunModeUsed != 0x0u) */
  64:.\Generated_Source\PSoC4/QuadDec_1_Cnt8.c ****             
  65:.\Generated_Source\PSoC4/QuadDec_1_Cnt8.c ****             /* Set the IRQ to use the status register interrupts */
  66:.\Generated_Source\PSoC4/QuadDec_1_Cnt8.c ****             QuadDec_1_Cnt8_CONTROL2 |= QuadDec_1_Cnt8_CTRL2_IRQ_SEL;
  67:.\Generated_Source\PSoC4/QuadDec_1_Cnt8.c ****             
  68:.\Generated_Source\PSoC4/QuadDec_1_Cnt8.c ****             /* Clear and Set SYNCTC and SYNCCMP bits of RT1 register */
  69:.\Generated_Source\PSoC4/QuadDec_1_Cnt8.c ****             QuadDec_1_Cnt8_RT1 &= ((uint8)(~QuadDec_1_Cnt8_RT1_MASK));
  70:.\Generated_Source\PSoC4/QuadDec_1_Cnt8.c ****             QuadDec_1_Cnt8_RT1 |= QuadDec_1_Cnt8_SYNC;     
  71:.\Generated_Source\PSoC4/QuadDec_1_Cnt8.c ****                     
  72:.\Generated_Source\PSoC4/QuadDec_1_Cnt8.c ****             /*Enable DSI Sync all all inputs of the Timer*/
  73:.\Generated_Source\PSoC4/QuadDec_1_Cnt8.c ****             QuadDec_1_Cnt8_RT1 &= ((uint8)(~QuadDec_1_Cnt8_SYNCDSI_MASK));
  74:.\Generated_Source\PSoC4/QuadDec_1_Cnt8.c ****             QuadDec_1_Cnt8_RT1 |= QuadDec_1_Cnt8_SYNCDSI_EN;
  75:.\Generated_Source\PSoC4/QuadDec_1_Cnt8.c **** 
  76:.\Generated_Source\PSoC4/QuadDec_1_Cnt8.c ****         #else
  77:.\Generated_Source\PSoC4/QuadDec_1_Cnt8.c ****             #if(!QuadDec_1_Cnt8_ControlRegRemoved)
  78:.\Generated_Source\PSoC4/QuadDec_1_Cnt8.c ****             /* Set the default compare mode defined in the parameter */
  79:.\Generated_Source\PSoC4/QuadDec_1_Cnt8.c ****             ctrl = QuadDec_1_Cnt8_CONTROL & ((uint8)(~QuadDec_1_Cnt8_CTRL_CMPMODE_MASK));
  28              		.loc 1 79 0
  29 0000 0721     		mov	r1, #7
  38:.\Generated_Source\PSoC4/QuadDec_1_Cnt8.c ****         #if (!QuadDec_1_Cnt8_UsingFixedFunction && !QuadDec_1_Cnt8_ControlRegRemoved)
  30              		.loc 1 38 0
  31 0002 08B5     		push	{r3, lr}
  32              		.cfi_def_cfa_offset 8
  33              		.cfi_offset 3, -8
  34              		.cfi_offset 14, -4
ARM GAS  C:\Users\g\AppData\Local\Temp\cclhNFei.s 			page 3


  35              		.loc 1 79 0
  36 0004 134B     		ldr	r3, .L10
  37 0006 1A78     		ldrb	r2, [r3]
  38 0008 8A43     		bic	r2, r1
  39              	.LVL0:
  80:.\Generated_Source\PSoC4/QuadDec_1_Cnt8.c ****             QuadDec_1_Cnt8_CONTROL = ctrl | QuadDec_1_Cnt8_DEFAULT_COMPARE_MODE;
  40              		.loc 1 80 0
  41 000a 1A70     		strb	r2, [r3]
  81:.\Generated_Source\PSoC4/QuadDec_1_Cnt8.c ****             
  82:.\Generated_Source\PSoC4/QuadDec_1_Cnt8.c ****             /* Set the default capture mode defined in the parameter */
  83:.\Generated_Source\PSoC4/QuadDec_1_Cnt8.c ****             ctrl = QuadDec_1_Cnt8_CONTROL & ((uint8)(~QuadDec_1_Cnt8_CTRL_CAPMODE_MASK));
  42              		.loc 1 83 0
  43 000c 1A78     		ldrb	r2, [r3]
  44              	.LVL1:
  45 000e 0439     		sub	r1, r1, #4
  46 0010 8A43     		bic	r2, r1
  47              	.LVL2:
  84:.\Generated_Source\PSoC4/QuadDec_1_Cnt8.c ****             
  85:.\Generated_Source\PSoC4/QuadDec_1_Cnt8.c ****             #if( 0 != QuadDec_1_Cnt8_CAPTURE_MODE_CONF)
  86:.\Generated_Source\PSoC4/QuadDec_1_Cnt8.c ****                 QuadDec_1_Cnt8_CONTROL = ctrl | QuadDec_1_Cnt8_DEFAULT_CAPTURE_MODE;
  87:.\Generated_Source\PSoC4/QuadDec_1_Cnt8.c ****             #else
  88:.\Generated_Source\PSoC4/QuadDec_1_Cnt8.c ****                 QuadDec_1_Cnt8_CONTROL = ctrl;
  48              		.loc 1 88 0
  49 0012 1A70     		strb	r2, [r3]
  50              	.LBB24:
  51              	.LBB25:
  52              	.LBB26:
  53              	.LBB27:
  89:.\Generated_Source\PSoC4/QuadDec_1_Cnt8.c ****             #endif /* 0 != QuadDec_1_Cnt8_CAPTURE_MODE */ 
  90:.\Generated_Source\PSoC4/QuadDec_1_Cnt8.c ****             
  91:.\Generated_Source\PSoC4/QuadDec_1_Cnt8.c ****             #endif /* (!QuadDec_1_Cnt8_ControlRegRemoved) */
  92:.\Generated_Source\PSoC4/QuadDec_1_Cnt8.c ****         #endif /* (QuadDec_1_Cnt8_UsingFixedFunction) */
  93:.\Generated_Source\PSoC4/QuadDec_1_Cnt8.c ****         
  94:.\Generated_Source\PSoC4/QuadDec_1_Cnt8.c ****         /* Clear all data in the FIFO's */
  95:.\Generated_Source\PSoC4/QuadDec_1_Cnt8.c ****         #if (!QuadDec_1_Cnt8_UsingFixedFunction)
  96:.\Generated_Source\PSoC4/QuadDec_1_Cnt8.c ****             QuadDec_1_Cnt8_ClearFIFO();
  97:.\Generated_Source\PSoC4/QuadDec_1_Cnt8.c ****         #endif /* (!QuadDec_1_Cnt8_UsingFixedFunction) */
  98:.\Generated_Source\PSoC4/QuadDec_1_Cnt8.c ****         
  99:.\Generated_Source\PSoC4/QuadDec_1_Cnt8.c ****         /* Set Initial values from Configuration */
 100:.\Generated_Source\PSoC4/QuadDec_1_Cnt8.c ****         QuadDec_1_Cnt8_WritePeriod(QuadDec_1_Cnt8_INIT_PERIOD_VALUE);
 101:.\Generated_Source\PSoC4/QuadDec_1_Cnt8.c ****         #if (!(QuadDec_1_Cnt8_UsingFixedFunction && (CY_PSOC5A)))
 102:.\Generated_Source\PSoC4/QuadDec_1_Cnt8.c ****             QuadDec_1_Cnt8_WriteCounter(QuadDec_1_Cnt8_INIT_COUNTER_VALUE);
 103:.\Generated_Source\PSoC4/QuadDec_1_Cnt8.c ****         #endif /* (!(QuadDec_1_Cnt8_UsingFixedFunction && (CY_PSOC5A))) */
 104:.\Generated_Source\PSoC4/QuadDec_1_Cnt8.c ****         QuadDec_1_Cnt8_SetInterruptMode(QuadDec_1_Cnt8_INIT_INTERRUPTS_MASK);
 105:.\Generated_Source\PSoC4/QuadDec_1_Cnt8.c ****         
 106:.\Generated_Source\PSoC4/QuadDec_1_Cnt8.c ****         #if (!QuadDec_1_Cnt8_UsingFixedFunction)
 107:.\Generated_Source\PSoC4/QuadDec_1_Cnt8.c ****             /* Read the status register to clear the unwanted interrupts */
 108:.\Generated_Source\PSoC4/QuadDec_1_Cnt8.c ****             (void)QuadDec_1_Cnt8_ReadStatusRegister();
 109:.\Generated_Source\PSoC4/QuadDec_1_Cnt8.c ****             /* Set the compare value (only available to non-fixed function implementation */
 110:.\Generated_Source\PSoC4/QuadDec_1_Cnt8.c ****             QuadDec_1_Cnt8_WriteCompare(QuadDec_1_Cnt8_INIT_COMPARE_VALUE);
 111:.\Generated_Source\PSoC4/QuadDec_1_Cnt8.c ****             /* Use the interrupt output of the status register for IRQ output */
 112:.\Generated_Source\PSoC4/QuadDec_1_Cnt8.c ****             
 113:.\Generated_Source\PSoC4/QuadDec_1_Cnt8.c ****             /* CyEnterCriticalRegion and CyExitCriticalRegion are used to mark following region cri
 114:.\Generated_Source\PSoC4/QuadDec_1_Cnt8.c ****             /* Enter Critical Region*/
 115:.\Generated_Source\PSoC4/QuadDec_1_Cnt8.c ****             QuadDec_1_Cnt8_interruptState = CyEnterCriticalSection();
 116:.\Generated_Source\PSoC4/QuadDec_1_Cnt8.c ****             
 117:.\Generated_Source\PSoC4/QuadDec_1_Cnt8.c ****             QuadDec_1_Cnt8_STATUS_AUX_CTRL |= QuadDec_1_Cnt8_STATUS_ACTL_INT_EN_MASK;
ARM GAS  C:\Users\g\AppData\Local\Temp\cclhNFei.s 			page 4


 118:.\Generated_Source\PSoC4/QuadDec_1_Cnt8.c ****             
 119:.\Generated_Source\PSoC4/QuadDec_1_Cnt8.c ****             /* Exit Critical Region*/
 120:.\Generated_Source\PSoC4/QuadDec_1_Cnt8.c ****             CyExitCriticalSection(QuadDec_1_Cnt8_interruptState);
 121:.\Generated_Source\PSoC4/QuadDec_1_Cnt8.c ****             
 122:.\Generated_Source\PSoC4/QuadDec_1_Cnt8.c ****         #endif /* (!QuadDec_1_Cnt8_UsingFixedFunction) */
 123:.\Generated_Source\PSoC4/QuadDec_1_Cnt8.c **** }
 124:.\Generated_Source\PSoC4/QuadDec_1_Cnt8.c **** 
 125:.\Generated_Source\PSoC4/QuadDec_1_Cnt8.c **** 
 126:.\Generated_Source\PSoC4/QuadDec_1_Cnt8.c **** /*******************************************************************************
 127:.\Generated_Source\PSoC4/QuadDec_1_Cnt8.c **** * Function Name: QuadDec_1_Cnt8_Enable
 128:.\Generated_Source\PSoC4/QuadDec_1_Cnt8.c **** ********************************************************************************
 129:.\Generated_Source\PSoC4/QuadDec_1_Cnt8.c **** * Summary:
 130:.\Generated_Source\PSoC4/QuadDec_1_Cnt8.c **** *     Enable the Counter
 131:.\Generated_Source\PSoC4/QuadDec_1_Cnt8.c **** * 
 132:.\Generated_Source\PSoC4/QuadDec_1_Cnt8.c **** * Parameters:  
 133:.\Generated_Source\PSoC4/QuadDec_1_Cnt8.c **** *  void  
 134:.\Generated_Source\PSoC4/QuadDec_1_Cnt8.c **** *
 135:.\Generated_Source\PSoC4/QuadDec_1_Cnt8.c **** * Return: 
 136:.\Generated_Source\PSoC4/QuadDec_1_Cnt8.c **** *  void
 137:.\Generated_Source\PSoC4/QuadDec_1_Cnt8.c **** *
 138:.\Generated_Source\PSoC4/QuadDec_1_Cnt8.c **** * Side Effects: 
 139:.\Generated_Source\PSoC4/QuadDec_1_Cnt8.c **** *   If the Enable mode is set to Hardware only then this function has no effect 
 140:.\Generated_Source\PSoC4/QuadDec_1_Cnt8.c **** *   on the operation of the counter.
 141:.\Generated_Source\PSoC4/QuadDec_1_Cnt8.c **** *
 142:.\Generated_Source\PSoC4/QuadDec_1_Cnt8.c **** *******************************************************************************/
 143:.\Generated_Source\PSoC4/QuadDec_1_Cnt8.c **** void QuadDec_1_Cnt8_Enable(void) 
 144:.\Generated_Source\PSoC4/QuadDec_1_Cnt8.c **** {
 145:.\Generated_Source\PSoC4/QuadDec_1_Cnt8.c ****     /* Globally Enable the Fixed Function Block chosen */
 146:.\Generated_Source\PSoC4/QuadDec_1_Cnt8.c ****     #if (QuadDec_1_Cnt8_UsingFixedFunction)
 147:.\Generated_Source\PSoC4/QuadDec_1_Cnt8.c ****         QuadDec_1_Cnt8_GLOBAL_ENABLE |= QuadDec_1_Cnt8_BLOCK_EN_MASK;
 148:.\Generated_Source\PSoC4/QuadDec_1_Cnt8.c ****         QuadDec_1_Cnt8_GLOBAL_STBY_ENABLE |= QuadDec_1_Cnt8_BLOCK_STBY_EN_MASK;
 149:.\Generated_Source\PSoC4/QuadDec_1_Cnt8.c ****     #endif /* (QuadDec_1_Cnt8_UsingFixedFunction) */  
 150:.\Generated_Source\PSoC4/QuadDec_1_Cnt8.c ****         
 151:.\Generated_Source\PSoC4/QuadDec_1_Cnt8.c ****     /* Enable the counter from the control register  */
 152:.\Generated_Source\PSoC4/QuadDec_1_Cnt8.c ****     /* If Fixed Function then make sure Mode is set correctly */
 153:.\Generated_Source\PSoC4/QuadDec_1_Cnt8.c ****     /* else make sure reset is clear */
 154:.\Generated_Source\PSoC4/QuadDec_1_Cnt8.c ****     #if(!QuadDec_1_Cnt8_ControlRegRemoved || QuadDec_1_Cnt8_UsingFixedFunction)
 155:.\Generated_Source\PSoC4/QuadDec_1_Cnt8.c ****         QuadDec_1_Cnt8_CONTROL |= QuadDec_1_Cnt8_CTRL_ENABLE;                
 156:.\Generated_Source\PSoC4/QuadDec_1_Cnt8.c ****     #endif /* (!QuadDec_1_Cnt8_ControlRegRemoved || QuadDec_1_Cnt8_UsingFixedFunction) */
 157:.\Generated_Source\PSoC4/QuadDec_1_Cnt8.c ****     
 158:.\Generated_Source\PSoC4/QuadDec_1_Cnt8.c **** }
 159:.\Generated_Source\PSoC4/QuadDec_1_Cnt8.c **** 
 160:.\Generated_Source\PSoC4/QuadDec_1_Cnt8.c **** 
 161:.\Generated_Source\PSoC4/QuadDec_1_Cnt8.c **** /*******************************************************************************
 162:.\Generated_Source\PSoC4/QuadDec_1_Cnt8.c **** * Function Name: QuadDec_1_Cnt8_Start
 163:.\Generated_Source\PSoC4/QuadDec_1_Cnt8.c **** ********************************************************************************
 164:.\Generated_Source\PSoC4/QuadDec_1_Cnt8.c **** * Summary:
 165:.\Generated_Source\PSoC4/QuadDec_1_Cnt8.c **** *  Enables the counter for operation 
 166:.\Generated_Source\PSoC4/QuadDec_1_Cnt8.c **** *
 167:.\Generated_Source\PSoC4/QuadDec_1_Cnt8.c **** * Parameters:  
 168:.\Generated_Source\PSoC4/QuadDec_1_Cnt8.c **** *  void  
 169:.\Generated_Source\PSoC4/QuadDec_1_Cnt8.c **** *
 170:.\Generated_Source\PSoC4/QuadDec_1_Cnt8.c **** * Return: 
 171:.\Generated_Source\PSoC4/QuadDec_1_Cnt8.c **** *  void
 172:.\Generated_Source\PSoC4/QuadDec_1_Cnt8.c **** *
 173:.\Generated_Source\PSoC4/QuadDec_1_Cnt8.c **** * Global variables:
 174:.\Generated_Source\PSoC4/QuadDec_1_Cnt8.c **** *  QuadDec_1_Cnt8_initVar: Is modified when this function is called for the  
ARM GAS  C:\Users\g\AppData\Local\Temp\cclhNFei.s 			page 5


 175:.\Generated_Source\PSoC4/QuadDec_1_Cnt8.c **** *   first time. Is used to ensure that initialization happens only once.
 176:.\Generated_Source\PSoC4/QuadDec_1_Cnt8.c **** *
 177:.\Generated_Source\PSoC4/QuadDec_1_Cnt8.c **** *******************************************************************************/
 178:.\Generated_Source\PSoC4/QuadDec_1_Cnt8.c **** void QuadDec_1_Cnt8_Start(void) 
 179:.\Generated_Source\PSoC4/QuadDec_1_Cnt8.c **** {
 180:.\Generated_Source\PSoC4/QuadDec_1_Cnt8.c ****     if(QuadDec_1_Cnt8_initVar == 0u)
 181:.\Generated_Source\PSoC4/QuadDec_1_Cnt8.c ****     {
 182:.\Generated_Source\PSoC4/QuadDec_1_Cnt8.c ****         QuadDec_1_Cnt8_Init();
 183:.\Generated_Source\PSoC4/QuadDec_1_Cnt8.c ****         
 184:.\Generated_Source\PSoC4/QuadDec_1_Cnt8.c ****         QuadDec_1_Cnt8_initVar = 1u; /* Clear this bit for Initialization */        
 185:.\Generated_Source\PSoC4/QuadDec_1_Cnt8.c ****     }
 186:.\Generated_Source\PSoC4/QuadDec_1_Cnt8.c ****     
 187:.\Generated_Source\PSoC4/QuadDec_1_Cnt8.c ****     /* Enable the Counter */
 188:.\Generated_Source\PSoC4/QuadDec_1_Cnt8.c ****     QuadDec_1_Cnt8_Enable();        
 189:.\Generated_Source\PSoC4/QuadDec_1_Cnt8.c **** }
 190:.\Generated_Source\PSoC4/QuadDec_1_Cnt8.c **** 
 191:.\Generated_Source\PSoC4/QuadDec_1_Cnt8.c **** 
 192:.\Generated_Source\PSoC4/QuadDec_1_Cnt8.c **** /*******************************************************************************
 193:.\Generated_Source\PSoC4/QuadDec_1_Cnt8.c **** * Function Name: QuadDec_1_Cnt8_Stop
 194:.\Generated_Source\PSoC4/QuadDec_1_Cnt8.c **** ********************************************************************************
 195:.\Generated_Source\PSoC4/QuadDec_1_Cnt8.c **** * Summary:
 196:.\Generated_Source\PSoC4/QuadDec_1_Cnt8.c **** * Halts the counter, but does not change any modes or disable interrupts.
 197:.\Generated_Source\PSoC4/QuadDec_1_Cnt8.c **** *
 198:.\Generated_Source\PSoC4/QuadDec_1_Cnt8.c **** * Parameters:  
 199:.\Generated_Source\PSoC4/QuadDec_1_Cnt8.c **** *  void  
 200:.\Generated_Source\PSoC4/QuadDec_1_Cnt8.c **** *
 201:.\Generated_Source\PSoC4/QuadDec_1_Cnt8.c **** * Return: 
 202:.\Generated_Source\PSoC4/QuadDec_1_Cnt8.c **** *  void
 203:.\Generated_Source\PSoC4/QuadDec_1_Cnt8.c **** *
 204:.\Generated_Source\PSoC4/QuadDec_1_Cnt8.c **** * Side Effects: If the Enable mode is set to Hardware only then this function
 205:.\Generated_Source\PSoC4/QuadDec_1_Cnt8.c **** *               has no effect on the operation of the counter.
 206:.\Generated_Source\PSoC4/QuadDec_1_Cnt8.c **** *
 207:.\Generated_Source\PSoC4/QuadDec_1_Cnt8.c **** *******************************************************************************/
 208:.\Generated_Source\PSoC4/QuadDec_1_Cnt8.c **** void QuadDec_1_Cnt8_Stop(void) 
 209:.\Generated_Source\PSoC4/QuadDec_1_Cnt8.c **** {
 210:.\Generated_Source\PSoC4/QuadDec_1_Cnt8.c ****     /* Disable Counter */
 211:.\Generated_Source\PSoC4/QuadDec_1_Cnt8.c ****     #if(!QuadDec_1_Cnt8_ControlRegRemoved || QuadDec_1_Cnt8_UsingFixedFunction)
 212:.\Generated_Source\PSoC4/QuadDec_1_Cnt8.c ****         QuadDec_1_Cnt8_CONTROL &= ((uint8)(~QuadDec_1_Cnt8_CTRL_ENABLE));        
 213:.\Generated_Source\PSoC4/QuadDec_1_Cnt8.c ****     #endif /* (!QuadDec_1_Cnt8_ControlRegRemoved || QuadDec_1_Cnt8_UsingFixedFunction) */
 214:.\Generated_Source\PSoC4/QuadDec_1_Cnt8.c ****     
 215:.\Generated_Source\PSoC4/QuadDec_1_Cnt8.c ****     /* Globally disable the Fixed Function Block chosen */
 216:.\Generated_Source\PSoC4/QuadDec_1_Cnt8.c ****     #if (QuadDec_1_Cnt8_UsingFixedFunction)
 217:.\Generated_Source\PSoC4/QuadDec_1_Cnt8.c ****         QuadDec_1_Cnt8_GLOBAL_ENABLE &= ((uint8)(~QuadDec_1_Cnt8_BLOCK_EN_MASK));
 218:.\Generated_Source\PSoC4/QuadDec_1_Cnt8.c ****         QuadDec_1_Cnt8_GLOBAL_STBY_ENABLE &= ((uint8)(~QuadDec_1_Cnt8_BLOCK_STBY_EN_MASK));
 219:.\Generated_Source\PSoC4/QuadDec_1_Cnt8.c ****     #endif /* (QuadDec_1_Cnt8_UsingFixedFunction) */
 220:.\Generated_Source\PSoC4/QuadDec_1_Cnt8.c **** }
 221:.\Generated_Source\PSoC4/QuadDec_1_Cnt8.c **** 
 222:.\Generated_Source\PSoC4/QuadDec_1_Cnt8.c **** 
 223:.\Generated_Source\PSoC4/QuadDec_1_Cnt8.c **** /*******************************************************************************
 224:.\Generated_Source\PSoC4/QuadDec_1_Cnt8.c **** * Function Name: QuadDec_1_Cnt8_SetInterruptMode
 225:.\Generated_Source\PSoC4/QuadDec_1_Cnt8.c **** ********************************************************************************
 226:.\Generated_Source\PSoC4/QuadDec_1_Cnt8.c **** * Summary:
 227:.\Generated_Source\PSoC4/QuadDec_1_Cnt8.c **** * Configures which interrupt sources are enabled to generate the final interrupt
 228:.\Generated_Source\PSoC4/QuadDec_1_Cnt8.c **** *
 229:.\Generated_Source\PSoC4/QuadDec_1_Cnt8.c **** * Parameters:  
 230:.\Generated_Source\PSoC4/QuadDec_1_Cnt8.c **** *  InterruptsMask: This parameter is an or'd collection of the status bits
 231:.\Generated_Source\PSoC4/QuadDec_1_Cnt8.c **** *                   which will be allowed to generate the counters interrupt.   
ARM GAS  C:\Users\g\AppData\Local\Temp\cclhNFei.s 			page 6


 232:.\Generated_Source\PSoC4/QuadDec_1_Cnt8.c **** *
 233:.\Generated_Source\PSoC4/QuadDec_1_Cnt8.c **** * Return: 
 234:.\Generated_Source\PSoC4/QuadDec_1_Cnt8.c **** *  void
 235:.\Generated_Source\PSoC4/QuadDec_1_Cnt8.c **** *
 236:.\Generated_Source\PSoC4/QuadDec_1_Cnt8.c **** *******************************************************************************/
 237:.\Generated_Source\PSoC4/QuadDec_1_Cnt8.c **** void QuadDec_1_Cnt8_SetInterruptMode(uint8 interruptsMask) 
 238:.\Generated_Source\PSoC4/QuadDec_1_Cnt8.c **** {
 239:.\Generated_Source\PSoC4/QuadDec_1_Cnt8.c ****     QuadDec_1_Cnt8_STATUS_MASK = interruptsMask;
 240:.\Generated_Source\PSoC4/QuadDec_1_Cnt8.c **** }
 241:.\Generated_Source\PSoC4/QuadDec_1_Cnt8.c **** 
 242:.\Generated_Source\PSoC4/QuadDec_1_Cnt8.c **** 
 243:.\Generated_Source\PSoC4/QuadDec_1_Cnt8.c **** /*******************************************************************************
 244:.\Generated_Source\PSoC4/QuadDec_1_Cnt8.c **** * Function Name: QuadDec_1_Cnt8_ReadStatusRegister
 245:.\Generated_Source\PSoC4/QuadDec_1_Cnt8.c **** ********************************************************************************
 246:.\Generated_Source\PSoC4/QuadDec_1_Cnt8.c **** * Summary:
 247:.\Generated_Source\PSoC4/QuadDec_1_Cnt8.c **** *   Reads the status register and returns it's state. This function should use
 248:.\Generated_Source\PSoC4/QuadDec_1_Cnt8.c **** *       defined types for the bit-field information as the bits in this
 249:.\Generated_Source\PSoC4/QuadDec_1_Cnt8.c **** *       register may be permuteable.
 250:.\Generated_Source\PSoC4/QuadDec_1_Cnt8.c **** *
 251:.\Generated_Source\PSoC4/QuadDec_1_Cnt8.c **** * Parameters:  
 252:.\Generated_Source\PSoC4/QuadDec_1_Cnt8.c **** *  void
 253:.\Generated_Source\PSoC4/QuadDec_1_Cnt8.c **** *
 254:.\Generated_Source\PSoC4/QuadDec_1_Cnt8.c **** * Return: 
 255:.\Generated_Source\PSoC4/QuadDec_1_Cnt8.c **** *  (uint8) The contents of the status register
 256:.\Generated_Source\PSoC4/QuadDec_1_Cnt8.c **** *
 257:.\Generated_Source\PSoC4/QuadDec_1_Cnt8.c **** * Side Effects:
 258:.\Generated_Source\PSoC4/QuadDec_1_Cnt8.c **** *   Status register bits may be clear on read. 
 259:.\Generated_Source\PSoC4/QuadDec_1_Cnt8.c **** *
 260:.\Generated_Source\PSoC4/QuadDec_1_Cnt8.c **** *******************************************************************************/
 261:.\Generated_Source\PSoC4/QuadDec_1_Cnt8.c **** uint8   QuadDec_1_Cnt8_ReadStatusRegister(void) 
 262:.\Generated_Source\PSoC4/QuadDec_1_Cnt8.c **** {
 263:.\Generated_Source\PSoC4/QuadDec_1_Cnt8.c ****     return QuadDec_1_Cnt8_STATUS;
  54              		.loc 1 263 0
  55 0014 104A     		ldr	r2, .L10+4
  56              	.LVL3:
  57 0016 1378     		ldrb	r3, [r2]
  58              	.LVL4:
  59              	.LBE27:
  60              	.LBE26:
 264:.\Generated_Source\PSoC4/QuadDec_1_Cnt8.c **** }
 265:.\Generated_Source\PSoC4/QuadDec_1_Cnt8.c **** 
 266:.\Generated_Source\PSoC4/QuadDec_1_Cnt8.c **** 
 267:.\Generated_Source\PSoC4/QuadDec_1_Cnt8.c **** #if(!QuadDec_1_Cnt8_ControlRegRemoved)
 268:.\Generated_Source\PSoC4/QuadDec_1_Cnt8.c **** /*******************************************************************************
 269:.\Generated_Source\PSoC4/QuadDec_1_Cnt8.c **** * Function Name: QuadDec_1_Cnt8_ReadControlRegister
 270:.\Generated_Source\PSoC4/QuadDec_1_Cnt8.c **** ********************************************************************************
 271:.\Generated_Source\PSoC4/QuadDec_1_Cnt8.c **** * Summary:
 272:.\Generated_Source\PSoC4/QuadDec_1_Cnt8.c **** *   Reads the control register and returns it's state. This function should use
 273:.\Generated_Source\PSoC4/QuadDec_1_Cnt8.c **** *       defined types for the bit-field information as the bits in this
 274:.\Generated_Source\PSoC4/QuadDec_1_Cnt8.c **** *       register may be permuteable.
 275:.\Generated_Source\PSoC4/QuadDec_1_Cnt8.c **** *
 276:.\Generated_Source\PSoC4/QuadDec_1_Cnt8.c **** * Parameters:  
 277:.\Generated_Source\PSoC4/QuadDec_1_Cnt8.c **** *  void
 278:.\Generated_Source\PSoC4/QuadDec_1_Cnt8.c **** *
 279:.\Generated_Source\PSoC4/QuadDec_1_Cnt8.c **** * Return: 
 280:.\Generated_Source\PSoC4/QuadDec_1_Cnt8.c **** *  (uint8) The contents of the control register
 281:.\Generated_Source\PSoC4/QuadDec_1_Cnt8.c **** *
ARM GAS  C:\Users\g\AppData\Local\Temp\cclhNFei.s 			page 7


 282:.\Generated_Source\PSoC4/QuadDec_1_Cnt8.c **** *******************************************************************************/
 283:.\Generated_Source\PSoC4/QuadDec_1_Cnt8.c **** uint8   QuadDec_1_Cnt8_ReadControlRegister(void) 
 284:.\Generated_Source\PSoC4/QuadDec_1_Cnt8.c **** {
 285:.\Generated_Source\PSoC4/QuadDec_1_Cnt8.c ****     return QuadDec_1_Cnt8_CONTROL;
 286:.\Generated_Source\PSoC4/QuadDec_1_Cnt8.c **** }
 287:.\Generated_Source\PSoC4/QuadDec_1_Cnt8.c **** 
 288:.\Generated_Source\PSoC4/QuadDec_1_Cnt8.c **** 
 289:.\Generated_Source\PSoC4/QuadDec_1_Cnt8.c **** /*******************************************************************************
 290:.\Generated_Source\PSoC4/QuadDec_1_Cnt8.c **** * Function Name: QuadDec_1_Cnt8_WriteControlRegister
 291:.\Generated_Source\PSoC4/QuadDec_1_Cnt8.c **** ********************************************************************************
 292:.\Generated_Source\PSoC4/QuadDec_1_Cnt8.c **** * Summary:
 293:.\Generated_Source\PSoC4/QuadDec_1_Cnt8.c **** *   Sets the bit-field of the control register.  This function should use
 294:.\Generated_Source\PSoC4/QuadDec_1_Cnt8.c **** *       defined types for the bit-field information as the bits in this
 295:.\Generated_Source\PSoC4/QuadDec_1_Cnt8.c **** *       register may be permuteable.
 296:.\Generated_Source\PSoC4/QuadDec_1_Cnt8.c **** *
 297:.\Generated_Source\PSoC4/QuadDec_1_Cnt8.c **** * Parameters:  
 298:.\Generated_Source\PSoC4/QuadDec_1_Cnt8.c **** *  void
 299:.\Generated_Source\PSoC4/QuadDec_1_Cnt8.c **** *
 300:.\Generated_Source\PSoC4/QuadDec_1_Cnt8.c **** * Return: 
 301:.\Generated_Source\PSoC4/QuadDec_1_Cnt8.c **** *  (uint8) The contents of the control register
 302:.\Generated_Source\PSoC4/QuadDec_1_Cnt8.c **** *
 303:.\Generated_Source\PSoC4/QuadDec_1_Cnt8.c **** *******************************************************************************/
 304:.\Generated_Source\PSoC4/QuadDec_1_Cnt8.c **** void    QuadDec_1_Cnt8_WriteControlRegister(uint8 control) 
 305:.\Generated_Source\PSoC4/QuadDec_1_Cnt8.c **** {
 306:.\Generated_Source\PSoC4/QuadDec_1_Cnt8.c ****     QuadDec_1_Cnt8_CONTROL = control;
 307:.\Generated_Source\PSoC4/QuadDec_1_Cnt8.c **** }
 308:.\Generated_Source\PSoC4/QuadDec_1_Cnt8.c **** 
 309:.\Generated_Source\PSoC4/QuadDec_1_Cnt8.c **** #endif  /* (!QuadDec_1_Cnt8_ControlRegRemoved) */
 310:.\Generated_Source\PSoC4/QuadDec_1_Cnt8.c **** 
 311:.\Generated_Source\PSoC4/QuadDec_1_Cnt8.c **** 
 312:.\Generated_Source\PSoC4/QuadDec_1_Cnt8.c **** #if (!(QuadDec_1_Cnt8_UsingFixedFunction && (CY_PSOC5A)))
 313:.\Generated_Source\PSoC4/QuadDec_1_Cnt8.c **** /*******************************************************************************
 314:.\Generated_Source\PSoC4/QuadDec_1_Cnt8.c **** * Function Name: QuadDec_1_Cnt8_WriteCounter
 315:.\Generated_Source\PSoC4/QuadDec_1_Cnt8.c **** ********************************************************************************
 316:.\Generated_Source\PSoC4/QuadDec_1_Cnt8.c **** * Summary:
 317:.\Generated_Source\PSoC4/QuadDec_1_Cnt8.c **** *   This funtion is used to set the counter to a specific value
 318:.\Generated_Source\PSoC4/QuadDec_1_Cnt8.c **** *
 319:.\Generated_Source\PSoC4/QuadDec_1_Cnt8.c **** * Parameters:  
 320:.\Generated_Source\PSoC4/QuadDec_1_Cnt8.c **** *  counter:  New counter value. 
 321:.\Generated_Source\PSoC4/QuadDec_1_Cnt8.c **** *
 322:.\Generated_Source\PSoC4/QuadDec_1_Cnt8.c **** * Return: 
 323:.\Generated_Source\PSoC4/QuadDec_1_Cnt8.c **** *  void 
 324:.\Generated_Source\PSoC4/QuadDec_1_Cnt8.c **** *
 325:.\Generated_Source\PSoC4/QuadDec_1_Cnt8.c **** *******************************************************************************/
 326:.\Generated_Source\PSoC4/QuadDec_1_Cnt8.c **** void QuadDec_1_Cnt8_WriteCounter(uint8 counter) \
 327:.\Generated_Source\PSoC4/QuadDec_1_Cnt8.c ****                                    
 328:.\Generated_Source\PSoC4/QuadDec_1_Cnt8.c **** {
 329:.\Generated_Source\PSoC4/QuadDec_1_Cnt8.c ****     #if(QuadDec_1_Cnt8_UsingFixedFunction)
 330:.\Generated_Source\PSoC4/QuadDec_1_Cnt8.c ****         /* assert if block is already enabled */
 331:.\Generated_Source\PSoC4/QuadDec_1_Cnt8.c ****         CYASSERT (0u == (QuadDec_1_Cnt8_GLOBAL_ENABLE & QuadDec_1_Cnt8_BLOCK_EN_MASK));
 332:.\Generated_Source\PSoC4/QuadDec_1_Cnt8.c ****         /* If block is disabled, enable it and then write the counter */
 333:.\Generated_Source\PSoC4/QuadDec_1_Cnt8.c ****         QuadDec_1_Cnt8_GLOBAL_ENABLE |= QuadDec_1_Cnt8_BLOCK_EN_MASK;
 334:.\Generated_Source\PSoC4/QuadDec_1_Cnt8.c ****         CY_SET_REG16(QuadDec_1_Cnt8_COUNTER_LSB_PTR, (uint16)counter);
 335:.\Generated_Source\PSoC4/QuadDec_1_Cnt8.c ****         QuadDec_1_Cnt8_GLOBAL_ENABLE &= ((uint8)(~QuadDec_1_Cnt8_BLOCK_EN_MASK));
 336:.\Generated_Source\PSoC4/QuadDec_1_Cnt8.c ****     #else
 337:.\Generated_Source\PSoC4/QuadDec_1_Cnt8.c ****         CY_SET_REG8(QuadDec_1_Cnt8_COUNTER_LSB_PTR, counter);
 338:.\Generated_Source\PSoC4/QuadDec_1_Cnt8.c ****     #endif /* (QuadDec_1_Cnt8_UsingFixedFunction) */
ARM GAS  C:\Users\g\AppData\Local\Temp\cclhNFei.s 			page 8


 339:.\Generated_Source\PSoC4/QuadDec_1_Cnt8.c **** }
 340:.\Generated_Source\PSoC4/QuadDec_1_Cnt8.c **** #endif /* (!(QuadDec_1_Cnt8_UsingFixedFunction && (CY_PSOC5A))) */
 341:.\Generated_Source\PSoC4/QuadDec_1_Cnt8.c **** 
 342:.\Generated_Source\PSoC4/QuadDec_1_Cnt8.c **** 
 343:.\Generated_Source\PSoC4/QuadDec_1_Cnt8.c **** /*******************************************************************************
 344:.\Generated_Source\PSoC4/QuadDec_1_Cnt8.c **** * Function Name: QuadDec_1_Cnt8_ReadCounter
 345:.\Generated_Source\PSoC4/QuadDec_1_Cnt8.c **** ********************************************************************************
 346:.\Generated_Source\PSoC4/QuadDec_1_Cnt8.c **** * Summary:
 347:.\Generated_Source\PSoC4/QuadDec_1_Cnt8.c **** * Returns the current value of the counter.  It doesn't matter
 348:.\Generated_Source\PSoC4/QuadDec_1_Cnt8.c **** * if the counter is enabled or running.
 349:.\Generated_Source\PSoC4/QuadDec_1_Cnt8.c **** *
 350:.\Generated_Source\PSoC4/QuadDec_1_Cnt8.c **** * Parameters:  
 351:.\Generated_Source\PSoC4/QuadDec_1_Cnt8.c **** *  void:  
 352:.\Generated_Source\PSoC4/QuadDec_1_Cnt8.c **** *
 353:.\Generated_Source\PSoC4/QuadDec_1_Cnt8.c **** * Return: 
 354:.\Generated_Source\PSoC4/QuadDec_1_Cnt8.c **** *  (uint8) The present value of the counter.
 355:.\Generated_Source\PSoC4/QuadDec_1_Cnt8.c **** *
 356:.\Generated_Source\PSoC4/QuadDec_1_Cnt8.c **** *******************************************************************************/
 357:.\Generated_Source\PSoC4/QuadDec_1_Cnt8.c **** uint8 QuadDec_1_Cnt8_ReadCounter(void) 
 358:.\Generated_Source\PSoC4/QuadDec_1_Cnt8.c **** {
 359:.\Generated_Source\PSoC4/QuadDec_1_Cnt8.c ****     /* Force capture by reading Accumulator */
 360:.\Generated_Source\PSoC4/QuadDec_1_Cnt8.c ****     /* Must first do a software capture to be able to read the counter */
 361:.\Generated_Source\PSoC4/QuadDec_1_Cnt8.c ****     /* It is up to the user code to make sure there isn't already captured data in the FIFO */
 362:.\Generated_Source\PSoC4/QuadDec_1_Cnt8.c ****     #if(QuadDec_1_Cnt8_UsingFixedFunction)
 363:.\Generated_Source\PSoC4/QuadDec_1_Cnt8.c **** 		(void)CY_GET_REG16(QuadDec_1_Cnt8_COUNTER_LSB_PTR);
 364:.\Generated_Source\PSoC4/QuadDec_1_Cnt8.c **** 	#else
 365:.\Generated_Source\PSoC4/QuadDec_1_Cnt8.c **** 		(void)CY_GET_REG8(QuadDec_1_Cnt8_COUNTER_LSB_PTR_8BIT);
 366:.\Generated_Source\PSoC4/QuadDec_1_Cnt8.c **** 	#endif/* (QuadDec_1_Cnt8_UsingFixedFunction) */
 367:.\Generated_Source\PSoC4/QuadDec_1_Cnt8.c ****     
 368:.\Generated_Source\PSoC4/QuadDec_1_Cnt8.c ****     /* Read the data from the FIFO (or capture register for Fixed Function)*/
 369:.\Generated_Source\PSoC4/QuadDec_1_Cnt8.c ****     #if(QuadDec_1_Cnt8_UsingFixedFunction)
 370:.\Generated_Source\PSoC4/QuadDec_1_Cnt8.c ****         return ((uint8)CY_GET_REG16(QuadDec_1_Cnt8_STATICCOUNT_LSB_PTR));
 371:.\Generated_Source\PSoC4/QuadDec_1_Cnt8.c ****     #else
 372:.\Generated_Source\PSoC4/QuadDec_1_Cnt8.c ****         return (CY_GET_REG8(QuadDec_1_Cnt8_STATICCOUNT_LSB_PTR));
 373:.\Generated_Source\PSoC4/QuadDec_1_Cnt8.c ****     #endif /* (QuadDec_1_Cnt8_UsingFixedFunction) */
 374:.\Generated_Source\PSoC4/QuadDec_1_Cnt8.c **** }
 375:.\Generated_Source\PSoC4/QuadDec_1_Cnt8.c **** 
 376:.\Generated_Source\PSoC4/QuadDec_1_Cnt8.c **** 
 377:.\Generated_Source\PSoC4/QuadDec_1_Cnt8.c **** /*******************************************************************************
 378:.\Generated_Source\PSoC4/QuadDec_1_Cnt8.c **** * Function Name: QuadDec_1_Cnt8_ReadCapture
 379:.\Generated_Source\PSoC4/QuadDec_1_Cnt8.c **** ********************************************************************************
 380:.\Generated_Source\PSoC4/QuadDec_1_Cnt8.c **** * Summary:
 381:.\Generated_Source\PSoC4/QuadDec_1_Cnt8.c **** *   This function returns the last value captured.
 382:.\Generated_Source\PSoC4/QuadDec_1_Cnt8.c **** *
 383:.\Generated_Source\PSoC4/QuadDec_1_Cnt8.c **** * Parameters:  
 384:.\Generated_Source\PSoC4/QuadDec_1_Cnt8.c **** *  void
 385:.\Generated_Source\PSoC4/QuadDec_1_Cnt8.c **** *
 386:.\Generated_Source\PSoC4/QuadDec_1_Cnt8.c **** * Return: 
 387:.\Generated_Source\PSoC4/QuadDec_1_Cnt8.c **** *  (uint8) Present Capture value.
 388:.\Generated_Source\PSoC4/QuadDec_1_Cnt8.c **** *
 389:.\Generated_Source\PSoC4/QuadDec_1_Cnt8.c **** *******************************************************************************/
 390:.\Generated_Source\PSoC4/QuadDec_1_Cnt8.c **** uint8 QuadDec_1_Cnt8_ReadCapture(void) 
 391:.\Generated_Source\PSoC4/QuadDec_1_Cnt8.c **** {
 392:.\Generated_Source\PSoC4/QuadDec_1_Cnt8.c ****     #if(QuadDec_1_Cnt8_UsingFixedFunction)
 393:.\Generated_Source\PSoC4/QuadDec_1_Cnt8.c ****         return ((uint8)CY_GET_REG16(QuadDec_1_Cnt8_STATICCOUNT_LSB_PTR));
 394:.\Generated_Source\PSoC4/QuadDec_1_Cnt8.c ****     #else
 395:.\Generated_Source\PSoC4/QuadDec_1_Cnt8.c ****         return (CY_GET_REG8(QuadDec_1_Cnt8_STATICCOUNT_LSB_PTR));
ARM GAS  C:\Users\g\AppData\Local\Temp\cclhNFei.s 			page 9


 396:.\Generated_Source\PSoC4/QuadDec_1_Cnt8.c ****     #endif /* (QuadDec_1_Cnt8_UsingFixedFunction) */
 397:.\Generated_Source\PSoC4/QuadDec_1_Cnt8.c **** }
 398:.\Generated_Source\PSoC4/QuadDec_1_Cnt8.c **** 
 399:.\Generated_Source\PSoC4/QuadDec_1_Cnt8.c **** 
 400:.\Generated_Source\PSoC4/QuadDec_1_Cnt8.c **** /*******************************************************************************
 401:.\Generated_Source\PSoC4/QuadDec_1_Cnt8.c **** * Function Name: QuadDec_1_Cnt8_WritePeriod
 402:.\Generated_Source\PSoC4/QuadDec_1_Cnt8.c **** ********************************************************************************
 403:.\Generated_Source\PSoC4/QuadDec_1_Cnt8.c **** * Summary:
 404:.\Generated_Source\PSoC4/QuadDec_1_Cnt8.c **** * Changes the period of the counter.  The new period 
 405:.\Generated_Source\PSoC4/QuadDec_1_Cnt8.c **** * will be loaded the next time terminal count is detected.
 406:.\Generated_Source\PSoC4/QuadDec_1_Cnt8.c **** *
 407:.\Generated_Source\PSoC4/QuadDec_1_Cnt8.c **** * Parameters:  
 408:.\Generated_Source\PSoC4/QuadDec_1_Cnt8.c **** *  period: (uint8) A value of 0 will result in
 409:.\Generated_Source\PSoC4/QuadDec_1_Cnt8.c **** *         the counter remaining at zero.  
 410:.\Generated_Source\PSoC4/QuadDec_1_Cnt8.c **** *
 411:.\Generated_Source\PSoC4/QuadDec_1_Cnt8.c **** * Return: 
 412:.\Generated_Source\PSoC4/QuadDec_1_Cnt8.c **** *  void
 413:.\Generated_Source\PSoC4/QuadDec_1_Cnt8.c **** *
 414:.\Generated_Source\PSoC4/QuadDec_1_Cnt8.c **** *******************************************************************************/
 415:.\Generated_Source\PSoC4/QuadDec_1_Cnt8.c **** void QuadDec_1_Cnt8_WritePeriod(uint8 period) 
 416:.\Generated_Source\PSoC4/QuadDec_1_Cnt8.c **** {
 417:.\Generated_Source\PSoC4/QuadDec_1_Cnt8.c ****     #if(QuadDec_1_Cnt8_UsingFixedFunction)
 418:.\Generated_Source\PSoC4/QuadDec_1_Cnt8.c ****         CY_SET_REG16(QuadDec_1_Cnt8_PERIOD_LSB_PTR,(uint16)period);
 419:.\Generated_Source\PSoC4/QuadDec_1_Cnt8.c ****     #else
 420:.\Generated_Source\PSoC4/QuadDec_1_Cnt8.c ****         CY_SET_REG8(QuadDec_1_Cnt8_PERIOD_LSB_PTR, period);
 421:.\Generated_Source\PSoC4/QuadDec_1_Cnt8.c ****     #endif /* (QuadDec_1_Cnt8_UsingFixedFunction) */
 422:.\Generated_Source\PSoC4/QuadDec_1_Cnt8.c **** }
 423:.\Generated_Source\PSoC4/QuadDec_1_Cnt8.c **** 
 424:.\Generated_Source\PSoC4/QuadDec_1_Cnt8.c **** 
 425:.\Generated_Source\PSoC4/QuadDec_1_Cnt8.c **** /*******************************************************************************
 426:.\Generated_Source\PSoC4/QuadDec_1_Cnt8.c **** * Function Name: QuadDec_1_Cnt8_ReadPeriod
 427:.\Generated_Source\PSoC4/QuadDec_1_Cnt8.c **** ********************************************************************************
 428:.\Generated_Source\PSoC4/QuadDec_1_Cnt8.c **** * Summary:
 429:.\Generated_Source\PSoC4/QuadDec_1_Cnt8.c **** * Reads the current period value without affecting counter operation.
 430:.\Generated_Source\PSoC4/QuadDec_1_Cnt8.c **** *
 431:.\Generated_Source\PSoC4/QuadDec_1_Cnt8.c **** * Parameters:  
 432:.\Generated_Source\PSoC4/QuadDec_1_Cnt8.c **** *  void:  
 433:.\Generated_Source\PSoC4/QuadDec_1_Cnt8.c **** *
 434:.\Generated_Source\PSoC4/QuadDec_1_Cnt8.c **** * Return: 
 435:.\Generated_Source\PSoC4/QuadDec_1_Cnt8.c **** *  (uint8) Present period value.
 436:.\Generated_Source\PSoC4/QuadDec_1_Cnt8.c **** *
 437:.\Generated_Source\PSoC4/QuadDec_1_Cnt8.c **** *******************************************************************************/
 438:.\Generated_Source\PSoC4/QuadDec_1_Cnt8.c **** uint8 QuadDec_1_Cnt8_ReadPeriod(void) 
 439:.\Generated_Source\PSoC4/QuadDec_1_Cnt8.c **** {
 440:.\Generated_Source\PSoC4/QuadDec_1_Cnt8.c ****     #if(QuadDec_1_Cnt8_UsingFixedFunction)
 441:.\Generated_Source\PSoC4/QuadDec_1_Cnt8.c ****         return ((uint8)CY_GET_REG16(QuadDec_1_Cnt8_PERIOD_LSB_PTR));
 442:.\Generated_Source\PSoC4/QuadDec_1_Cnt8.c ****     #else
 443:.\Generated_Source\PSoC4/QuadDec_1_Cnt8.c ****         return (CY_GET_REG8(QuadDec_1_Cnt8_PERIOD_LSB_PTR));
 444:.\Generated_Source\PSoC4/QuadDec_1_Cnt8.c ****     #endif /* (QuadDec_1_Cnt8_UsingFixedFunction) */
 445:.\Generated_Source\PSoC4/QuadDec_1_Cnt8.c **** }
 446:.\Generated_Source\PSoC4/QuadDec_1_Cnt8.c **** 
 447:.\Generated_Source\PSoC4/QuadDec_1_Cnt8.c **** 
 448:.\Generated_Source\PSoC4/QuadDec_1_Cnt8.c **** #if (!QuadDec_1_Cnt8_UsingFixedFunction)
 449:.\Generated_Source\PSoC4/QuadDec_1_Cnt8.c **** /*******************************************************************************
 450:.\Generated_Source\PSoC4/QuadDec_1_Cnt8.c **** * Function Name: QuadDec_1_Cnt8_WriteCompare
 451:.\Generated_Source\PSoC4/QuadDec_1_Cnt8.c **** ********************************************************************************
 452:.\Generated_Source\PSoC4/QuadDec_1_Cnt8.c **** * Summary:
ARM GAS  C:\Users\g\AppData\Local\Temp\cclhNFei.s 			page 10


 453:.\Generated_Source\PSoC4/QuadDec_1_Cnt8.c **** * Changes the compare value.  The compare output will 
 454:.\Generated_Source\PSoC4/QuadDec_1_Cnt8.c **** * reflect the new value on the next UDB clock.  The compare output will be 
 455:.\Generated_Source\PSoC4/QuadDec_1_Cnt8.c **** * driven high when the present counter value compares true based on the 
 456:.\Generated_Source\PSoC4/QuadDec_1_Cnt8.c **** * configured compare mode setting. 
 457:.\Generated_Source\PSoC4/QuadDec_1_Cnt8.c **** *
 458:.\Generated_Source\PSoC4/QuadDec_1_Cnt8.c **** * Parameters:  
 459:.\Generated_Source\PSoC4/QuadDec_1_Cnt8.c **** *  Compare:  New compare value. 
 460:.\Generated_Source\PSoC4/QuadDec_1_Cnt8.c **** *
 461:.\Generated_Source\PSoC4/QuadDec_1_Cnt8.c **** * Return: 
 462:.\Generated_Source\PSoC4/QuadDec_1_Cnt8.c **** *  void
 463:.\Generated_Source\PSoC4/QuadDec_1_Cnt8.c **** *
 464:.\Generated_Source\PSoC4/QuadDec_1_Cnt8.c **** *******************************************************************************/
 465:.\Generated_Source\PSoC4/QuadDec_1_Cnt8.c **** void QuadDec_1_Cnt8_WriteCompare(uint8 compare) \
 466:.\Generated_Source\PSoC4/QuadDec_1_Cnt8.c ****                                    
 467:.\Generated_Source\PSoC4/QuadDec_1_Cnt8.c **** {
 468:.\Generated_Source\PSoC4/QuadDec_1_Cnt8.c ****     #if(QuadDec_1_Cnt8_UsingFixedFunction)
 469:.\Generated_Source\PSoC4/QuadDec_1_Cnt8.c ****         CY_SET_REG16(QuadDec_1_Cnt8_COMPARE_LSB_PTR, (uint16)compare);
 470:.\Generated_Source\PSoC4/QuadDec_1_Cnt8.c ****     #else
 471:.\Generated_Source\PSoC4/QuadDec_1_Cnt8.c ****         CY_SET_REG8(QuadDec_1_Cnt8_COMPARE_LSB_PTR, compare);
 472:.\Generated_Source\PSoC4/QuadDec_1_Cnt8.c ****     #endif /* (QuadDec_1_Cnt8_UsingFixedFunction) */
 473:.\Generated_Source\PSoC4/QuadDec_1_Cnt8.c **** }
 474:.\Generated_Source\PSoC4/QuadDec_1_Cnt8.c **** 
 475:.\Generated_Source\PSoC4/QuadDec_1_Cnt8.c **** 
 476:.\Generated_Source\PSoC4/QuadDec_1_Cnt8.c **** /*******************************************************************************
 477:.\Generated_Source\PSoC4/QuadDec_1_Cnt8.c **** * Function Name: QuadDec_1_Cnt8_ReadCompare
 478:.\Generated_Source\PSoC4/QuadDec_1_Cnt8.c **** ********************************************************************************
 479:.\Generated_Source\PSoC4/QuadDec_1_Cnt8.c **** * Summary:
 480:.\Generated_Source\PSoC4/QuadDec_1_Cnt8.c **** * Returns the compare value.
 481:.\Generated_Source\PSoC4/QuadDec_1_Cnt8.c **** *
 482:.\Generated_Source\PSoC4/QuadDec_1_Cnt8.c **** * Parameters:  
 483:.\Generated_Source\PSoC4/QuadDec_1_Cnt8.c **** *  void:
 484:.\Generated_Source\PSoC4/QuadDec_1_Cnt8.c **** *
 485:.\Generated_Source\PSoC4/QuadDec_1_Cnt8.c **** * Return: 
 486:.\Generated_Source\PSoC4/QuadDec_1_Cnt8.c **** *  (uint8) Present compare value.
 487:.\Generated_Source\PSoC4/QuadDec_1_Cnt8.c **** *
 488:.\Generated_Source\PSoC4/QuadDec_1_Cnt8.c **** *******************************************************************************/
 489:.\Generated_Source\PSoC4/QuadDec_1_Cnt8.c **** uint8 QuadDec_1_Cnt8_ReadCompare(void) 
 490:.\Generated_Source\PSoC4/QuadDec_1_Cnt8.c **** {
 491:.\Generated_Source\PSoC4/QuadDec_1_Cnt8.c ****     return (CY_GET_REG8(QuadDec_1_Cnt8_COMPARE_LSB_PTR));
 492:.\Generated_Source\PSoC4/QuadDec_1_Cnt8.c **** }
 493:.\Generated_Source\PSoC4/QuadDec_1_Cnt8.c **** 
 494:.\Generated_Source\PSoC4/QuadDec_1_Cnt8.c **** 
 495:.\Generated_Source\PSoC4/QuadDec_1_Cnt8.c **** #if (QuadDec_1_Cnt8_COMPARE_MODE_SOFTWARE)
 496:.\Generated_Source\PSoC4/QuadDec_1_Cnt8.c **** /*******************************************************************************
 497:.\Generated_Source\PSoC4/QuadDec_1_Cnt8.c **** * Function Name: QuadDec_1_Cnt8_SetCompareMode
 498:.\Generated_Source\PSoC4/QuadDec_1_Cnt8.c **** ********************************************************************************
 499:.\Generated_Source\PSoC4/QuadDec_1_Cnt8.c **** * Summary:
 500:.\Generated_Source\PSoC4/QuadDec_1_Cnt8.c **** *  Sets the software controlled Compare Mode.
 501:.\Generated_Source\PSoC4/QuadDec_1_Cnt8.c **** *
 502:.\Generated_Source\PSoC4/QuadDec_1_Cnt8.c **** * Parameters:
 503:.\Generated_Source\PSoC4/QuadDec_1_Cnt8.c **** *  compareMode:  Compare Mode Enumerated Type.
 504:.\Generated_Source\PSoC4/QuadDec_1_Cnt8.c **** *
 505:.\Generated_Source\PSoC4/QuadDec_1_Cnt8.c **** * Return:
 506:.\Generated_Source\PSoC4/QuadDec_1_Cnt8.c **** *  void
 507:.\Generated_Source\PSoC4/QuadDec_1_Cnt8.c **** *
 508:.\Generated_Source\PSoC4/QuadDec_1_Cnt8.c **** *******************************************************************************/
 509:.\Generated_Source\PSoC4/QuadDec_1_Cnt8.c **** void QuadDec_1_Cnt8_SetCompareMode(uint8 compareMode) 
ARM GAS  C:\Users\g\AppData\Local\Temp\cclhNFei.s 			page 11


 510:.\Generated_Source\PSoC4/QuadDec_1_Cnt8.c **** {
 511:.\Generated_Source\PSoC4/QuadDec_1_Cnt8.c ****     /* Clear the compare mode bits in the control register */
 512:.\Generated_Source\PSoC4/QuadDec_1_Cnt8.c ****     QuadDec_1_Cnt8_CONTROL &= ((uint8)(~QuadDec_1_Cnt8_CTRL_CMPMODE_MASK));
 513:.\Generated_Source\PSoC4/QuadDec_1_Cnt8.c ****     
 514:.\Generated_Source\PSoC4/QuadDec_1_Cnt8.c ****     /* Write the new setting */
 515:.\Generated_Source\PSoC4/QuadDec_1_Cnt8.c ****     QuadDec_1_Cnt8_CONTROL |= compareMode;
 516:.\Generated_Source\PSoC4/QuadDec_1_Cnt8.c **** }
 517:.\Generated_Source\PSoC4/QuadDec_1_Cnt8.c **** #endif  /* (QuadDec_1_Cnt8_COMPARE_MODE_SOFTWARE) */
 518:.\Generated_Source\PSoC4/QuadDec_1_Cnt8.c **** 
 519:.\Generated_Source\PSoC4/QuadDec_1_Cnt8.c **** 
 520:.\Generated_Source\PSoC4/QuadDec_1_Cnt8.c **** #if (QuadDec_1_Cnt8_CAPTURE_MODE_SOFTWARE)
 521:.\Generated_Source\PSoC4/QuadDec_1_Cnt8.c **** /*******************************************************************************
 522:.\Generated_Source\PSoC4/QuadDec_1_Cnt8.c **** * Function Name: QuadDec_1_Cnt8_SetCaptureMode
 523:.\Generated_Source\PSoC4/QuadDec_1_Cnt8.c **** ********************************************************************************
 524:.\Generated_Source\PSoC4/QuadDec_1_Cnt8.c **** * Summary:
 525:.\Generated_Source\PSoC4/QuadDec_1_Cnt8.c **** *  Sets the software controlled Capture Mode.
 526:.\Generated_Source\PSoC4/QuadDec_1_Cnt8.c **** *
 527:.\Generated_Source\PSoC4/QuadDec_1_Cnt8.c **** * Parameters:
 528:.\Generated_Source\PSoC4/QuadDec_1_Cnt8.c **** *  captureMode:  Capture Mode Enumerated Type.
 529:.\Generated_Source\PSoC4/QuadDec_1_Cnt8.c **** *
 530:.\Generated_Source\PSoC4/QuadDec_1_Cnt8.c **** * Return:
 531:.\Generated_Source\PSoC4/QuadDec_1_Cnt8.c **** *  void
 532:.\Generated_Source\PSoC4/QuadDec_1_Cnt8.c **** *
 533:.\Generated_Source\PSoC4/QuadDec_1_Cnt8.c **** *******************************************************************************/
 534:.\Generated_Source\PSoC4/QuadDec_1_Cnt8.c **** void QuadDec_1_Cnt8_SetCaptureMode(uint8 captureMode) 
 535:.\Generated_Source\PSoC4/QuadDec_1_Cnt8.c **** {
 536:.\Generated_Source\PSoC4/QuadDec_1_Cnt8.c ****     /* Clear the capture mode bits in the control register */
 537:.\Generated_Source\PSoC4/QuadDec_1_Cnt8.c ****     QuadDec_1_Cnt8_CONTROL &= ((uint8)(~QuadDec_1_Cnt8_CTRL_CAPMODE_MASK));
 538:.\Generated_Source\PSoC4/QuadDec_1_Cnt8.c ****     
 539:.\Generated_Source\PSoC4/QuadDec_1_Cnt8.c ****     /* Write the new setting */
 540:.\Generated_Source\PSoC4/QuadDec_1_Cnt8.c ****     QuadDec_1_Cnt8_CONTROL |= ((uint8)((uint8)captureMode << QuadDec_1_Cnt8_CTRL_CAPMODE0_SHIFT));
 541:.\Generated_Source\PSoC4/QuadDec_1_Cnt8.c **** }
 542:.\Generated_Source\PSoC4/QuadDec_1_Cnt8.c **** #endif  /* (QuadDec_1_Cnt8_CAPTURE_MODE_SOFTWARE) */
 543:.\Generated_Source\PSoC4/QuadDec_1_Cnt8.c **** 
 544:.\Generated_Source\PSoC4/QuadDec_1_Cnt8.c **** 
 545:.\Generated_Source\PSoC4/QuadDec_1_Cnt8.c **** /*******************************************************************************
 546:.\Generated_Source\PSoC4/QuadDec_1_Cnt8.c **** * Function Name: QuadDec_1_Cnt8_ClearFIFO
 547:.\Generated_Source\PSoC4/QuadDec_1_Cnt8.c **** ********************************************************************************
 548:.\Generated_Source\PSoC4/QuadDec_1_Cnt8.c **** * Summary:
 549:.\Generated_Source\PSoC4/QuadDec_1_Cnt8.c **** *   This function clears all capture data from the capture FIFO
 550:.\Generated_Source\PSoC4/QuadDec_1_Cnt8.c **** *
 551:.\Generated_Source\PSoC4/QuadDec_1_Cnt8.c **** * Parameters:  
 552:.\Generated_Source\PSoC4/QuadDec_1_Cnt8.c **** *  void:
 553:.\Generated_Source\PSoC4/QuadDec_1_Cnt8.c **** *
 554:.\Generated_Source\PSoC4/QuadDec_1_Cnt8.c **** * Return: 
 555:.\Generated_Source\PSoC4/QuadDec_1_Cnt8.c **** *  None
 556:.\Generated_Source\PSoC4/QuadDec_1_Cnt8.c **** *
 557:.\Generated_Source\PSoC4/QuadDec_1_Cnt8.c **** *******************************************************************************/
 558:.\Generated_Source\PSoC4/QuadDec_1_Cnt8.c **** void QuadDec_1_Cnt8_ClearFIFO(void) 
 559:.\Generated_Source\PSoC4/QuadDec_1_Cnt8.c **** {
 560:.\Generated_Source\PSoC4/QuadDec_1_Cnt8.c **** 
 561:.\Generated_Source\PSoC4/QuadDec_1_Cnt8.c ****     while(0u != (QuadDec_1_Cnt8_ReadStatusRegister() & QuadDec_1_Cnt8_STATUS_FIFONEMP))
  61              		.loc 1 561 0
  62 0018 5B06     		lsl	r3, r3, #25
  63 001a 05D5     		bpl	.L2
  64              	.LBB29:
  65              	.LBB30:
ARM GAS  C:\Users\g\AppData\Local\Temp\cclhNFei.s 			page 12


 395:.\Generated_Source\PSoC4/QuadDec_1_Cnt8.c ****     #endif /* (QuadDec_1_Cnt8_UsingFixedFunction) */
  66              		.loc 1 395 0
  67 001c 0F48     		ldr	r0, .L10+8
  68              	.LBE30:
  69              	.LBE29:
  70              		.loc 1 561 0
  71 001e 3D31     		add	r1, r1, #61
  72              	.L6:
  73              	.LBB32:
  74              	.LBB31:
 395:.\Generated_Source\PSoC4/QuadDec_1_Cnt8.c ****     #endif /* (QuadDec_1_Cnt8_UsingFixedFunction) */
  75              		.loc 1 395 0
  76 0020 0378     		ldrb	r3, [r0]
  77              	.LBE31:
  78              	.LBE32:
  79              	.LBB33:
  80              	.LBB28:
 263:.\Generated_Source\PSoC4/QuadDec_1_Cnt8.c **** }
  81              		.loc 1 263 0
  82 0022 1378     		ldrb	r3, [r2]
  83              	.LBE28:
  84              	.LBE33:
  85              		.loc 1 561 0
  86 0024 1942     		tst	r1, r3
  87 0026 FBD1     		bne	.L6
  88              	.L2:
  89              	.LVL5:
  90              	.LBE25:
  91              	.LBE24:
  92              	.LBB34:
  93              	.LBB35:
 420:.\Generated_Source\PSoC4/QuadDec_1_Cnt8.c ****     #endif /* (QuadDec_1_Cnt8_UsingFixedFunction) */
  94              		.loc 1 420 0
  95 0028 8023     		mov	r3, #128
  96              	.LBE35:
  97              	.LBE34:
  98              	.LBB38:
  99              	.LBB39:
 239:.\Generated_Source\PSoC4/QuadDec_1_Cnt8.c **** }
 100              		.loc 1 239 0
 101 002a 0021     		mov	r1, #0
 102              	.LBE39:
 103              	.LBE38:
 104              	.LBB41:
 105              	.LBB36:
 420:.\Generated_Source\PSoC4/QuadDec_1_Cnt8.c ****     #endif /* (QuadDec_1_Cnt8_UsingFixedFunction) */
 106              		.loc 1 420 0
 107 002c 0C4A     		ldr	r2, .L10+12
 108              	.LBE36:
 109              	.LBE41:
 123:.\Generated_Source\PSoC4/QuadDec_1_Cnt8.c **** 
 110              		.loc 1 123 0
 111              		@ sp needed
 112              	.LBB42:
 113              	.LBB37:
 420:.\Generated_Source\PSoC4/QuadDec_1_Cnt8.c ****     #endif /* (QuadDec_1_Cnt8_UsingFixedFunction) */
 114              		.loc 1 420 0
ARM GAS  C:\Users\g\AppData\Local\Temp\cclhNFei.s 			page 13


 115 002e 1370     		strb	r3, [r2]
 116              	.LVL6:
 117              	.LBE37:
 118              	.LBE42:
 119              	.LBB43:
 120              	.LBB44:
 337:.\Generated_Source\PSoC4/QuadDec_1_Cnt8.c ****     #endif /* (QuadDec_1_Cnt8_UsingFixedFunction) */
 121              		.loc 1 337 0
 122 0030 0C4A     		ldr	r2, .L10+16
 123 0032 1370     		strb	r3, [r2]
 124              	.LVL7:
 125              	.LBE44:
 126              	.LBE43:
 127              	.LBB45:
 128              	.LBB40:
 239:.\Generated_Source\PSoC4/QuadDec_1_Cnt8.c **** }
 129              		.loc 1 239 0
 130 0034 0C4A     		ldr	r2, .L10+20
 131 0036 1170     		strb	r1, [r2]
 132              	.LBE40:
 133              	.LBE45:
 134              	.LBB46:
 135              	.LBB47:
 263:.\Generated_Source\PSoC4/QuadDec_1_Cnt8.c **** }
 136              		.loc 1 263 0
 137 0038 074A     		ldr	r2, .L10+4
 138 003a 1278     		ldrb	r2, [r2]
 139              	.LVL8:
 140              	.LBE47:
 141              	.LBE46:
 142              	.LBB48:
 143              	.LBB49:
 471:.\Generated_Source\PSoC4/QuadDec_1_Cnt8.c ****     #endif /* (QuadDec_1_Cnt8_UsingFixedFunction) */
 144              		.loc 1 471 0
 145 003c 0B4A     		ldr	r2, .L10+24
 146 003e 1370     		strb	r3, [r2]
 147              	.LBE49:
 148              	.LBE48:
 115:.\Generated_Source\PSoC4/QuadDec_1_Cnt8.c ****             
 149              		.loc 1 115 0
 150 0040 FFF7FEFF 		bl	CyEnterCriticalSection
 151              	.LVL9:
 117:.\Generated_Source\PSoC4/QuadDec_1_Cnt8.c ****             
 152              		.loc 1 117 0
 153 0044 1023     		mov	r3, #16
 154 0046 0A4A     		ldr	r2, .L10+28
 155 0048 1178     		ldrb	r1, [r2]
 156 004a 0B43     		orr	r3, r1
 157 004c 1370     		strb	r3, [r2]
 120:.\Generated_Source\PSoC4/QuadDec_1_Cnt8.c ****             
 158              		.loc 1 120 0
 159 004e FFF7FEFF 		bl	CyExitCriticalSection
 160              	.LVL10:
 123:.\Generated_Source\PSoC4/QuadDec_1_Cnt8.c **** 
 161              		.loc 1 123 0
 162 0052 08BD     		pop	{r3, pc}
 163              	.L11:
ARM GAS  C:\Users\g\AppData\Local\Temp\cclhNFei.s 			page 14


 164              		.align	2
 165              	.L10:
 166 0054 73000F40 		.word	1074724979
 167 0058 60000F40 		.word	1074724960
 168 005c 40000F40 		.word	1074724928
 169 0060 20000F40 		.word	1074724896
 170 0064 00000F40 		.word	1074724864
 171 0068 80000F40 		.word	1074724992
 172 006c 30000F40 		.word	1074724912
 173 0070 90000F40 		.word	1074725008
 174              		.cfi_endproc
 175              	.LFE0:
 176              		.size	QuadDec_1_Cnt8_Init, .-QuadDec_1_Cnt8_Init
 177              		.section	.text.QuadDec_1_Cnt8_Enable,"ax",%progbits
 178              		.align	2
 179              		.global	QuadDec_1_Cnt8_Enable
 180              		.code	16
 181              		.thumb_func
 182              		.type	QuadDec_1_Cnt8_Enable, %function
 183              	QuadDec_1_Cnt8_Enable:
 184              	.LFB1:
 144:.\Generated_Source\PSoC4/QuadDec_1_Cnt8.c ****     /* Globally Enable the Fixed Function Block chosen */
 185              		.loc 1 144 0
 186              		.cfi_startproc
 155:.\Generated_Source\PSoC4/QuadDec_1_Cnt8.c ****     #endif /* (!QuadDec_1_Cnt8_ControlRegRemoved || QuadDec_1_Cnt8_UsingFixedFunction) */
 187              		.loc 1 155 0
 188 0000 8023     		mov	r3, #128
 189 0002 024A     		ldr	r2, .L13
 158:.\Generated_Source\PSoC4/QuadDec_1_Cnt8.c **** 
 190              		.loc 1 158 0
 191              		@ sp needed
 155:.\Generated_Source\PSoC4/QuadDec_1_Cnt8.c ****     #endif /* (!QuadDec_1_Cnt8_ControlRegRemoved || QuadDec_1_Cnt8_UsingFixedFunction) */
 192              		.loc 1 155 0
 193 0004 1178     		ldrb	r1, [r2]
 194 0006 0B43     		orr	r3, r1
 195 0008 1370     		strb	r3, [r2]
 158:.\Generated_Source\PSoC4/QuadDec_1_Cnt8.c **** 
 196              		.loc 1 158 0
 197 000a 7047     		bx	lr
 198              	.L14:
 199              		.align	2
 200              	.L13:
 201 000c 73000F40 		.word	1074724979
 202              		.cfi_endproc
 203              	.LFE1:
 204              		.size	QuadDec_1_Cnt8_Enable, .-QuadDec_1_Cnt8_Enable
 205              		.section	.text.QuadDec_1_Cnt8_Start,"ax",%progbits
 206              		.align	2
 207              		.global	QuadDec_1_Cnt8_Start
 208              		.code	16
 209              		.thumb_func
 210              		.type	QuadDec_1_Cnt8_Start, %function
 211              	QuadDec_1_Cnt8_Start:
 212              	.LFB2:
 179:.\Generated_Source\PSoC4/QuadDec_1_Cnt8.c ****     if(QuadDec_1_Cnt8_initVar == 0u)
 213              		.loc 1 179 0
 214              		.cfi_startproc
ARM GAS  C:\Users\g\AppData\Local\Temp\cclhNFei.s 			page 15


 215 0000 10B5     		push	{r4, lr}
 216              		.cfi_def_cfa_offset 8
 217              		.cfi_offset 4, -8
 218              		.cfi_offset 14, -4
 180:.\Generated_Source\PSoC4/QuadDec_1_Cnt8.c ****     {
 219              		.loc 1 180 0
 220 0002 074C     		ldr	r4, .L17
 221 0004 2378     		ldrb	r3, [r4]
 222 0006 002B     		cmp	r3, #0
 223 0008 03D1     		bne	.L16
 182:.\Generated_Source\PSoC4/QuadDec_1_Cnt8.c ****         
 224              		.loc 1 182 0
 225 000a FFF7FEFF 		bl	QuadDec_1_Cnt8_Init
 226              	.LVL11:
 184:.\Generated_Source\PSoC4/QuadDec_1_Cnt8.c ****     }
 227              		.loc 1 184 0
 228 000e 0123     		mov	r3, #1
 229 0010 2370     		strb	r3, [r4]
 230              	.L16:
 231              	.LBB50:
 232              	.LBB51:
 155:.\Generated_Source\PSoC4/QuadDec_1_Cnt8.c ****     #endif /* (!QuadDec_1_Cnt8_ControlRegRemoved || QuadDec_1_Cnt8_UsingFixedFunction) */
 233              		.loc 1 155 0
 234 0012 8023     		mov	r3, #128
 235 0014 034A     		ldr	r2, .L17+4
 236              	.LBE51:
 237              	.LBE50:
 189:.\Generated_Source\PSoC4/QuadDec_1_Cnt8.c **** 
 238              		.loc 1 189 0
 239              		@ sp needed
 240              	.LBB53:
 241              	.LBB52:
 155:.\Generated_Source\PSoC4/QuadDec_1_Cnt8.c ****     #endif /* (!QuadDec_1_Cnt8_ControlRegRemoved || QuadDec_1_Cnt8_UsingFixedFunction) */
 242              		.loc 1 155 0
 243 0016 1178     		ldrb	r1, [r2]
 244 0018 0B43     		orr	r3, r1
 245 001a 1370     		strb	r3, [r2]
 246              	.LBE52:
 247              	.LBE53:
 189:.\Generated_Source\PSoC4/QuadDec_1_Cnt8.c **** 
 248              		.loc 1 189 0
 249 001c 10BD     		pop	{r4, pc}
 250              	.L18:
 251 001e C046     		.align	2
 252              	.L17:
 253 0020 00000000 		.word	.LANCHOR0
 254 0024 73000F40 		.word	1074724979
 255              		.cfi_endproc
 256              	.LFE2:
 257              		.size	QuadDec_1_Cnt8_Start, .-QuadDec_1_Cnt8_Start
 258              		.section	.text.QuadDec_1_Cnt8_Stop,"ax",%progbits
 259              		.align	2
 260              		.global	QuadDec_1_Cnt8_Stop
 261              		.code	16
 262              		.thumb_func
 263              		.type	QuadDec_1_Cnt8_Stop, %function
 264              	QuadDec_1_Cnt8_Stop:
ARM GAS  C:\Users\g\AppData\Local\Temp\cclhNFei.s 			page 16


 265              	.LFB3:
 209:.\Generated_Source\PSoC4/QuadDec_1_Cnt8.c ****     /* Disable Counter */
 266              		.loc 1 209 0
 267              		.cfi_startproc
 212:.\Generated_Source\PSoC4/QuadDec_1_Cnt8.c ****     #endif /* (!QuadDec_1_Cnt8_ControlRegRemoved || QuadDec_1_Cnt8_UsingFixedFunction) */
 268              		.loc 1 212 0
 269 0000 7F21     		mov	r1, #127
 270 0002 024A     		ldr	r2, .L20
 220:.\Generated_Source\PSoC4/QuadDec_1_Cnt8.c **** 
 271              		.loc 1 220 0
 272              		@ sp needed
 212:.\Generated_Source\PSoC4/QuadDec_1_Cnt8.c ****     #endif /* (!QuadDec_1_Cnt8_ControlRegRemoved || QuadDec_1_Cnt8_UsingFixedFunction) */
 273              		.loc 1 212 0
 274 0004 1378     		ldrb	r3, [r2]
 275 0006 0B40     		and	r3, r1
 276 0008 1370     		strb	r3, [r2]
 220:.\Generated_Source\PSoC4/QuadDec_1_Cnt8.c **** 
 277              		.loc 1 220 0
 278 000a 7047     		bx	lr
 279              	.L21:
 280              		.align	2
 281              	.L20:
 282 000c 73000F40 		.word	1074724979
 283              		.cfi_endproc
 284              	.LFE3:
 285              		.size	QuadDec_1_Cnt8_Stop, .-QuadDec_1_Cnt8_Stop
 286              		.section	.text.QuadDec_1_Cnt8_SetInterruptMode,"ax",%progbits
 287              		.align	2
 288              		.global	QuadDec_1_Cnt8_SetInterruptMode
 289              		.code	16
 290              		.thumb_func
 291              		.type	QuadDec_1_Cnt8_SetInterruptMode, %function
 292              	QuadDec_1_Cnt8_SetInterruptMode:
 293              	.LFB4:
 238:.\Generated_Source\PSoC4/QuadDec_1_Cnt8.c ****     QuadDec_1_Cnt8_STATUS_MASK = interruptsMask;
 294              		.loc 1 238 0
 295              		.cfi_startproc
 296              	.LVL12:
 239:.\Generated_Source\PSoC4/QuadDec_1_Cnt8.c **** }
 297              		.loc 1 239 0
 298 0000 014B     		ldr	r3, .L23
 240:.\Generated_Source\PSoC4/QuadDec_1_Cnt8.c **** 
 299              		.loc 1 240 0
 300              		@ sp needed
 239:.\Generated_Source\PSoC4/QuadDec_1_Cnt8.c **** }
 301              		.loc 1 239 0
 302 0002 1870     		strb	r0, [r3]
 240:.\Generated_Source\PSoC4/QuadDec_1_Cnt8.c **** 
 303              		.loc 1 240 0
 304 0004 7047     		bx	lr
 305              	.L24:
 306 0006 C046     		.align	2
 307              	.L23:
 308 0008 80000F40 		.word	1074724992
 309              		.cfi_endproc
 310              	.LFE4:
 311              		.size	QuadDec_1_Cnt8_SetInterruptMode, .-QuadDec_1_Cnt8_SetInterruptMode
ARM GAS  C:\Users\g\AppData\Local\Temp\cclhNFei.s 			page 17


 312              		.section	.text.QuadDec_1_Cnt8_ReadStatusRegister,"ax",%progbits
 313              		.align	2
 314              		.global	QuadDec_1_Cnt8_ReadStatusRegister
 315              		.code	16
 316              		.thumb_func
 317              		.type	QuadDec_1_Cnt8_ReadStatusRegister, %function
 318              	QuadDec_1_Cnt8_ReadStatusRegister:
 319              	.LFB5:
 262:.\Generated_Source\PSoC4/QuadDec_1_Cnt8.c ****     return QuadDec_1_Cnt8_STATUS;
 320              		.loc 1 262 0
 321              		.cfi_startproc
 263:.\Generated_Source\PSoC4/QuadDec_1_Cnt8.c **** }
 322              		.loc 1 263 0
 323 0000 014B     		ldr	r3, .L26
 264:.\Generated_Source\PSoC4/QuadDec_1_Cnt8.c **** 
 324              		.loc 1 264 0
 325              		@ sp needed
 263:.\Generated_Source\PSoC4/QuadDec_1_Cnt8.c **** }
 326              		.loc 1 263 0
 327 0002 1878     		ldrb	r0, [r3]
 328 0004 C0B2     		uxtb	r0, r0
 264:.\Generated_Source\PSoC4/QuadDec_1_Cnt8.c **** 
 329              		.loc 1 264 0
 330 0006 7047     		bx	lr
 331              	.L27:
 332              		.align	2
 333              	.L26:
 334 0008 60000F40 		.word	1074724960
 335              		.cfi_endproc
 336              	.LFE5:
 337              		.size	QuadDec_1_Cnt8_ReadStatusRegister, .-QuadDec_1_Cnt8_ReadStatusRegister
 338              		.section	.text.QuadDec_1_Cnt8_ReadControlRegister,"ax",%progbits
 339              		.align	2
 340              		.global	QuadDec_1_Cnt8_ReadControlRegister
 341              		.code	16
 342              		.thumb_func
 343              		.type	QuadDec_1_Cnt8_ReadControlRegister, %function
 344              	QuadDec_1_Cnt8_ReadControlRegister:
 345              	.LFB6:
 284:.\Generated_Source\PSoC4/QuadDec_1_Cnt8.c ****     return QuadDec_1_Cnt8_CONTROL;
 346              		.loc 1 284 0
 347              		.cfi_startproc
 285:.\Generated_Source\PSoC4/QuadDec_1_Cnt8.c **** }
 348              		.loc 1 285 0
 349 0000 014B     		ldr	r3, .L29
 286:.\Generated_Source\PSoC4/QuadDec_1_Cnt8.c **** 
 350              		.loc 1 286 0
 351              		@ sp needed
 285:.\Generated_Source\PSoC4/QuadDec_1_Cnt8.c **** }
 352              		.loc 1 285 0
 353 0002 1878     		ldrb	r0, [r3]
 354 0004 C0B2     		uxtb	r0, r0
 286:.\Generated_Source\PSoC4/QuadDec_1_Cnt8.c **** 
 355              		.loc 1 286 0
 356 0006 7047     		bx	lr
 357              	.L30:
 358              		.align	2
ARM GAS  C:\Users\g\AppData\Local\Temp\cclhNFei.s 			page 18


 359              	.L29:
 360 0008 73000F40 		.word	1074724979
 361              		.cfi_endproc
 362              	.LFE6:
 363              		.size	QuadDec_1_Cnt8_ReadControlRegister, .-QuadDec_1_Cnt8_ReadControlRegister
 364              		.section	.text.QuadDec_1_Cnt8_WriteControlRegister,"ax",%progbits
 365              		.align	2
 366              		.global	QuadDec_1_Cnt8_WriteControlRegister
 367              		.code	16
 368              		.thumb_func
 369              		.type	QuadDec_1_Cnt8_WriteControlRegister, %function
 370              	QuadDec_1_Cnt8_WriteControlRegister:
 371              	.LFB7:
 305:.\Generated_Source\PSoC4/QuadDec_1_Cnt8.c ****     QuadDec_1_Cnt8_CONTROL = control;
 372              		.loc 1 305 0
 373              		.cfi_startproc
 374              	.LVL13:
 306:.\Generated_Source\PSoC4/QuadDec_1_Cnt8.c **** }
 375              		.loc 1 306 0
 376 0000 014B     		ldr	r3, .L32
 307:.\Generated_Source\PSoC4/QuadDec_1_Cnt8.c **** 
 377              		.loc 1 307 0
 378              		@ sp needed
 306:.\Generated_Source\PSoC4/QuadDec_1_Cnt8.c **** }
 379              		.loc 1 306 0
 380 0002 1870     		strb	r0, [r3]
 307:.\Generated_Source\PSoC4/QuadDec_1_Cnt8.c **** 
 381              		.loc 1 307 0
 382 0004 7047     		bx	lr
 383              	.L33:
 384 0006 C046     		.align	2
 385              	.L32:
 386 0008 73000F40 		.word	1074724979
 387              		.cfi_endproc
 388              	.LFE7:
 389              		.size	QuadDec_1_Cnt8_WriteControlRegister, .-QuadDec_1_Cnt8_WriteControlRegister
 390              		.section	.text.QuadDec_1_Cnt8_WriteCounter,"ax",%progbits
 391              		.align	2
 392              		.global	QuadDec_1_Cnt8_WriteCounter
 393              		.code	16
 394              		.thumb_func
 395              		.type	QuadDec_1_Cnt8_WriteCounter, %function
 396              	QuadDec_1_Cnt8_WriteCounter:
 397              	.LFB8:
 328:.\Generated_Source\PSoC4/QuadDec_1_Cnt8.c ****     #if(QuadDec_1_Cnt8_UsingFixedFunction)
 398              		.loc 1 328 0
 399              		.cfi_startproc
 400              	.LVL14:
 337:.\Generated_Source\PSoC4/QuadDec_1_Cnt8.c ****     #endif /* (QuadDec_1_Cnt8_UsingFixedFunction) */
 401              		.loc 1 337 0
 402 0000 014B     		ldr	r3, .L35
 339:.\Generated_Source\PSoC4/QuadDec_1_Cnt8.c **** #endif /* (!(QuadDec_1_Cnt8_UsingFixedFunction && (CY_PSOC5A))) */
 403              		.loc 1 339 0
 404              		@ sp needed
 337:.\Generated_Source\PSoC4/QuadDec_1_Cnt8.c ****     #endif /* (QuadDec_1_Cnt8_UsingFixedFunction) */
 405              		.loc 1 337 0
 406 0002 1870     		strb	r0, [r3]
ARM GAS  C:\Users\g\AppData\Local\Temp\cclhNFei.s 			page 19


 339:.\Generated_Source\PSoC4/QuadDec_1_Cnt8.c **** #endif /* (!(QuadDec_1_Cnt8_UsingFixedFunction && (CY_PSOC5A))) */
 407              		.loc 1 339 0
 408 0004 7047     		bx	lr
 409              	.L36:
 410 0006 C046     		.align	2
 411              	.L35:
 412 0008 00000F40 		.word	1074724864
 413              		.cfi_endproc
 414              	.LFE8:
 415              		.size	QuadDec_1_Cnt8_WriteCounter, .-QuadDec_1_Cnt8_WriteCounter
 416              		.section	.text.QuadDec_1_Cnt8_ReadCounter,"ax",%progbits
 417              		.align	2
 418              		.global	QuadDec_1_Cnt8_ReadCounter
 419              		.code	16
 420              		.thumb_func
 421              		.type	QuadDec_1_Cnt8_ReadCounter, %function
 422              	QuadDec_1_Cnt8_ReadCounter:
 423              	.LFB9:
 358:.\Generated_Source\PSoC4/QuadDec_1_Cnt8.c ****     /* Force capture by reading Accumulator */
 424              		.loc 1 358 0
 425              		.cfi_startproc
 365:.\Generated_Source\PSoC4/QuadDec_1_Cnt8.c **** 	#endif/* (QuadDec_1_Cnt8_UsingFixedFunction) */
 426              		.loc 1 365 0
 427 0000 024B     		ldr	r3, .L38
 374:.\Generated_Source\PSoC4/QuadDec_1_Cnt8.c **** 
 428              		.loc 1 374 0
 429              		@ sp needed
 365:.\Generated_Source\PSoC4/QuadDec_1_Cnt8.c **** 	#endif/* (QuadDec_1_Cnt8_UsingFixedFunction) */
 430              		.loc 1 365 0
 431 0002 1B78     		ldrb	r3, [r3]
 372:.\Generated_Source\PSoC4/QuadDec_1_Cnt8.c ****     #endif /* (QuadDec_1_Cnt8_UsingFixedFunction) */
 432              		.loc 1 372 0
 433 0004 024B     		ldr	r3, .L38+4
 434 0006 1878     		ldrb	r0, [r3]
 435 0008 C0B2     		uxtb	r0, r0
 374:.\Generated_Source\PSoC4/QuadDec_1_Cnt8.c **** 
 436              		.loc 1 374 0
 437 000a 7047     		bx	lr
 438              	.L39:
 439              		.align	2
 440              	.L38:
 441 000c 00000F40 		.word	1074724864
 442 0010 40000F40 		.word	1074724928
 443              		.cfi_endproc
 444              	.LFE9:
 445              		.size	QuadDec_1_Cnt8_ReadCounter, .-QuadDec_1_Cnt8_ReadCounter
 446              		.section	.text.QuadDec_1_Cnt8_ReadCapture,"ax",%progbits
 447              		.align	2
 448              		.global	QuadDec_1_Cnt8_ReadCapture
 449              		.code	16
 450              		.thumb_func
 451              		.type	QuadDec_1_Cnt8_ReadCapture, %function
 452              	QuadDec_1_Cnt8_ReadCapture:
 453              	.LFB10:
 391:.\Generated_Source\PSoC4/QuadDec_1_Cnt8.c ****     #if(QuadDec_1_Cnt8_UsingFixedFunction)
 454              		.loc 1 391 0
 455              		.cfi_startproc
ARM GAS  C:\Users\g\AppData\Local\Temp\cclhNFei.s 			page 20


 395:.\Generated_Source\PSoC4/QuadDec_1_Cnt8.c ****     #endif /* (QuadDec_1_Cnt8_UsingFixedFunction) */
 456              		.loc 1 395 0
 457 0000 014B     		ldr	r3, .L41
 397:.\Generated_Source\PSoC4/QuadDec_1_Cnt8.c **** 
 458              		.loc 1 397 0
 459              		@ sp needed
 395:.\Generated_Source\PSoC4/QuadDec_1_Cnt8.c ****     #endif /* (QuadDec_1_Cnt8_UsingFixedFunction) */
 460              		.loc 1 395 0
 461 0002 1878     		ldrb	r0, [r3]
 462 0004 C0B2     		uxtb	r0, r0
 397:.\Generated_Source\PSoC4/QuadDec_1_Cnt8.c **** 
 463              		.loc 1 397 0
 464 0006 7047     		bx	lr
 465              	.L42:
 466              		.align	2
 467              	.L41:
 468 0008 40000F40 		.word	1074724928
 469              		.cfi_endproc
 470              	.LFE10:
 471              		.size	QuadDec_1_Cnt8_ReadCapture, .-QuadDec_1_Cnt8_ReadCapture
 472              		.section	.text.QuadDec_1_Cnt8_WritePeriod,"ax",%progbits
 473              		.align	2
 474              		.global	QuadDec_1_Cnt8_WritePeriod
 475              		.code	16
 476              		.thumb_func
 477              		.type	QuadDec_1_Cnt8_WritePeriod, %function
 478              	QuadDec_1_Cnt8_WritePeriod:
 479              	.LFB11:
 416:.\Generated_Source\PSoC4/QuadDec_1_Cnt8.c ****     #if(QuadDec_1_Cnt8_UsingFixedFunction)
 480              		.loc 1 416 0
 481              		.cfi_startproc
 482              	.LVL15:
 420:.\Generated_Source\PSoC4/QuadDec_1_Cnt8.c ****     #endif /* (QuadDec_1_Cnt8_UsingFixedFunction) */
 483              		.loc 1 420 0
 484 0000 014B     		ldr	r3, .L44
 422:.\Generated_Source\PSoC4/QuadDec_1_Cnt8.c **** 
 485              		.loc 1 422 0
 486              		@ sp needed
 420:.\Generated_Source\PSoC4/QuadDec_1_Cnt8.c ****     #endif /* (QuadDec_1_Cnt8_UsingFixedFunction) */
 487              		.loc 1 420 0
 488 0002 1870     		strb	r0, [r3]
 422:.\Generated_Source\PSoC4/QuadDec_1_Cnt8.c **** 
 489              		.loc 1 422 0
 490 0004 7047     		bx	lr
 491              	.L45:
 492 0006 C046     		.align	2
 493              	.L44:
 494 0008 20000F40 		.word	1074724896
 495              		.cfi_endproc
 496              	.LFE11:
 497              		.size	QuadDec_1_Cnt8_WritePeriod, .-QuadDec_1_Cnt8_WritePeriod
 498              		.section	.text.QuadDec_1_Cnt8_ReadPeriod,"ax",%progbits
 499              		.align	2
 500              		.global	QuadDec_1_Cnt8_ReadPeriod
 501              		.code	16
 502              		.thumb_func
 503              		.type	QuadDec_1_Cnt8_ReadPeriod, %function
ARM GAS  C:\Users\g\AppData\Local\Temp\cclhNFei.s 			page 21


 504              	QuadDec_1_Cnt8_ReadPeriod:
 505              	.LFB12:
 439:.\Generated_Source\PSoC4/QuadDec_1_Cnt8.c ****     #if(QuadDec_1_Cnt8_UsingFixedFunction)
 506              		.loc 1 439 0
 507              		.cfi_startproc
 443:.\Generated_Source\PSoC4/QuadDec_1_Cnt8.c ****     #endif /* (QuadDec_1_Cnt8_UsingFixedFunction) */
 508              		.loc 1 443 0
 509 0000 014B     		ldr	r3, .L47
 445:.\Generated_Source\PSoC4/QuadDec_1_Cnt8.c **** 
 510              		.loc 1 445 0
 511              		@ sp needed
 443:.\Generated_Source\PSoC4/QuadDec_1_Cnt8.c ****     #endif /* (QuadDec_1_Cnt8_UsingFixedFunction) */
 512              		.loc 1 443 0
 513 0002 1878     		ldrb	r0, [r3]
 514 0004 C0B2     		uxtb	r0, r0
 445:.\Generated_Source\PSoC4/QuadDec_1_Cnt8.c **** 
 515              		.loc 1 445 0
 516 0006 7047     		bx	lr
 517              	.L48:
 518              		.align	2
 519              	.L47:
 520 0008 20000F40 		.word	1074724896
 521              		.cfi_endproc
 522              	.LFE12:
 523              		.size	QuadDec_1_Cnt8_ReadPeriod, .-QuadDec_1_Cnt8_ReadPeriod
 524              		.section	.text.QuadDec_1_Cnt8_WriteCompare,"ax",%progbits
 525              		.align	2
 526              		.global	QuadDec_1_Cnt8_WriteCompare
 527              		.code	16
 528              		.thumb_func
 529              		.type	QuadDec_1_Cnt8_WriteCompare, %function
 530              	QuadDec_1_Cnt8_WriteCompare:
 531              	.LFB13:
 467:.\Generated_Source\PSoC4/QuadDec_1_Cnt8.c ****     #if(QuadDec_1_Cnt8_UsingFixedFunction)
 532              		.loc 1 467 0
 533              		.cfi_startproc
 534              	.LVL16:
 471:.\Generated_Source\PSoC4/QuadDec_1_Cnt8.c ****     #endif /* (QuadDec_1_Cnt8_UsingFixedFunction) */
 535              		.loc 1 471 0
 536 0000 014B     		ldr	r3, .L50
 473:.\Generated_Source\PSoC4/QuadDec_1_Cnt8.c **** 
 537              		.loc 1 473 0
 538              		@ sp needed
 471:.\Generated_Source\PSoC4/QuadDec_1_Cnt8.c ****     #endif /* (QuadDec_1_Cnt8_UsingFixedFunction) */
 539              		.loc 1 471 0
 540 0002 1870     		strb	r0, [r3]
 473:.\Generated_Source\PSoC4/QuadDec_1_Cnt8.c **** 
 541              		.loc 1 473 0
 542 0004 7047     		bx	lr
 543              	.L51:
 544 0006 C046     		.align	2
 545              	.L50:
 546 0008 30000F40 		.word	1074724912
 547              		.cfi_endproc
 548              	.LFE13:
 549              		.size	QuadDec_1_Cnt8_WriteCompare, .-QuadDec_1_Cnt8_WriteCompare
 550              		.section	.text.QuadDec_1_Cnt8_ReadCompare,"ax",%progbits
ARM GAS  C:\Users\g\AppData\Local\Temp\cclhNFei.s 			page 22


 551              		.align	2
 552              		.global	QuadDec_1_Cnt8_ReadCompare
 553              		.code	16
 554              		.thumb_func
 555              		.type	QuadDec_1_Cnt8_ReadCompare, %function
 556              	QuadDec_1_Cnt8_ReadCompare:
 557              	.LFB14:
 490:.\Generated_Source\PSoC4/QuadDec_1_Cnt8.c ****     return (CY_GET_REG8(QuadDec_1_Cnt8_COMPARE_LSB_PTR));
 558              		.loc 1 490 0
 559              		.cfi_startproc
 491:.\Generated_Source\PSoC4/QuadDec_1_Cnt8.c **** }
 560              		.loc 1 491 0
 561 0000 014B     		ldr	r3, .L53
 492:.\Generated_Source\PSoC4/QuadDec_1_Cnt8.c **** 
 562              		.loc 1 492 0
 563              		@ sp needed
 491:.\Generated_Source\PSoC4/QuadDec_1_Cnt8.c **** }
 564              		.loc 1 491 0
 565 0002 1878     		ldrb	r0, [r3]
 566 0004 C0B2     		uxtb	r0, r0
 492:.\Generated_Source\PSoC4/QuadDec_1_Cnt8.c **** 
 567              		.loc 1 492 0
 568 0006 7047     		bx	lr
 569              	.L54:
 570              		.align	2
 571              	.L53:
 572 0008 30000F40 		.word	1074724912
 573              		.cfi_endproc
 574              	.LFE14:
 575              		.size	QuadDec_1_Cnt8_ReadCompare, .-QuadDec_1_Cnt8_ReadCompare
 576              		.section	.text.QuadDec_1_Cnt8_ClearFIFO,"ax",%progbits
 577              		.align	2
 578              		.global	QuadDec_1_Cnt8_ClearFIFO
 579              		.code	16
 580              		.thumb_func
 581              		.type	QuadDec_1_Cnt8_ClearFIFO, %function
 582              	QuadDec_1_Cnt8_ClearFIFO:
 583              	.LFB15:
 559:.\Generated_Source\PSoC4/QuadDec_1_Cnt8.c **** 
 584              		.loc 1 559 0
 585              		.cfi_startproc
 586              	.LBB54:
 587              	.LBB55:
 263:.\Generated_Source\PSoC4/QuadDec_1_Cnt8.c **** }
 588              		.loc 1 263 0
 589 0000 054A     		ldr	r2, .L63
 590 0002 1378     		ldrb	r3, [r2]
 591              	.LBE55:
 592              	.LBE54:
 593              		.loc 1 561 0
 594 0004 5B06     		lsl	r3, r3, #25
 595 0006 05D5     		bpl	.L55
 596 0008 4021     		mov	r1, #64
 597              	.LBB57:
 598              	.LBB58:
 395:.\Generated_Source\PSoC4/QuadDec_1_Cnt8.c ****     #endif /* (QuadDec_1_Cnt8_UsingFixedFunction) */
 599              		.loc 1 395 0
ARM GAS  C:\Users\g\AppData\Local\Temp\cclhNFei.s 			page 23


 600 000a 0448     		ldr	r0, .L63+4
 601              	.L60:
 602 000c 0378     		ldrb	r3, [r0]
 603              	.LBE58:
 604              	.LBE57:
 605              	.LBB59:
 606              	.LBB56:
 263:.\Generated_Source\PSoC4/QuadDec_1_Cnt8.c **** }
 607              		.loc 1 263 0
 608 000e 1378     		ldrb	r3, [r2]
 609              	.LBE56:
 610              	.LBE59:
 611              		.loc 1 561 0
 612 0010 1942     		tst	r1, r3
 613 0012 FBD1     		bne	.L60
 614              	.L55:
 562:.\Generated_Source\PSoC4/QuadDec_1_Cnt8.c ****     {
 563:.\Generated_Source\PSoC4/QuadDec_1_Cnt8.c ****         (void)QuadDec_1_Cnt8_ReadCapture();
 564:.\Generated_Source\PSoC4/QuadDec_1_Cnt8.c ****     }
 565:.\Generated_Source\PSoC4/QuadDec_1_Cnt8.c **** 
 566:.\Generated_Source\PSoC4/QuadDec_1_Cnt8.c **** }
 615              		.loc 1 566 0
 616              		@ sp needed
 617 0014 7047     		bx	lr
 618              	.L64:
 619 0016 C046     		.align	2
 620              	.L63:
 621 0018 60000F40 		.word	1074724960
 622 001c 40000F40 		.word	1074724928
 623              		.cfi_endproc
 624              	.LFE15:
 625              		.size	QuadDec_1_Cnt8_ClearFIFO, .-QuadDec_1_Cnt8_ClearFIFO
 626              		.global	QuadDec_1_Cnt8_initVar
 627              		.bss
 628              		.set	.LANCHOR0,. + 0
 629              		.type	QuadDec_1_Cnt8_initVar, %object
 630              		.size	QuadDec_1_Cnt8_initVar, 1
 631              	QuadDec_1_Cnt8_initVar:
 632 0000 00       		.space	1
 633              		.text
 634              	.Letext0:
 635              		.file 2 ".\\Generated_Source\\PSoC4\\cytypes.h"
 636              		.file 3 ".\\Generated_Source\\PSoC4\\CyLib.h"