ARM GAS  C:\Users\g\AppData\Local\Temp\ccVuRnsD.s 			page 1


   1              		.cpu cortex-m0
   2              		.fpu softvfp
   3              		.eabi_attribute 20, 1
   4              		.eabi_attribute 21, 1
   5              		.eabi_attribute 23, 3
   6              		.eabi_attribute 24, 1
   7              		.eabi_attribute 25, 1
   8              		.eabi_attribute 26, 1
   9              		.eabi_attribute 30, 2
  10              		.eabi_attribute 34, 0
  11              		.eabi_attribute 18, 4
  12              		.code	16
  13              		.file	"rxISR.c"
  14              		.text
  15              	.Ltext0:
  16              		.cfi_sections	.debug_frame
  17              		.section	.text.rxISR_Interrupt,"ax",%progbits
  18              		.align	2
  19              		.global	rxISR_Interrupt
  20              		.code	16
  21              		.thumb_func
  22              		.type	rxISR_Interrupt, %function
  23              	rxISR_Interrupt:
  24              	.LFB3:
  25              		.file 1 "Generated_Source\\PSoC4\\rxISR.c"
   1:Generated_Source\PSoC4/rxISR.c **** /*******************************************************************************
   2:Generated_Source\PSoC4/rxISR.c **** * File Name: rxISR.c  
   3:Generated_Source\PSoC4/rxISR.c **** * Version 1.70
   4:Generated_Source\PSoC4/rxISR.c **** *
   5:Generated_Source\PSoC4/rxISR.c **** *  Description:
   6:Generated_Source\PSoC4/rxISR.c **** *   API for controlling the state of an interrupt.
   7:Generated_Source\PSoC4/rxISR.c **** *
   8:Generated_Source\PSoC4/rxISR.c **** *
   9:Generated_Source\PSoC4/rxISR.c **** *  Note:
  10:Generated_Source\PSoC4/rxISR.c **** *
  11:Generated_Source\PSoC4/rxISR.c **** ********************************************************************************
  12:Generated_Source\PSoC4/rxISR.c **** * Copyright 2008-2015, Cypress Semiconductor Corporation.  All rights reserved.
  13:Generated_Source\PSoC4/rxISR.c **** * You may use this file only in accordance with the license, terms, conditions, 
  14:Generated_Source\PSoC4/rxISR.c **** * disclaimers, and limitations in the end user license agreement accompanying 
  15:Generated_Source\PSoC4/rxISR.c **** * the software package with which this file was provided.
  16:Generated_Source\PSoC4/rxISR.c **** *******************************************************************************/
  17:Generated_Source\PSoC4/rxISR.c **** 
  18:Generated_Source\PSoC4/rxISR.c **** 
  19:Generated_Source\PSoC4/rxISR.c **** #include <cydevice_trm.h>
  20:Generated_Source\PSoC4/rxISR.c **** #include <CyLib.h>
  21:Generated_Source\PSoC4/rxISR.c **** #include <rxISR.h>
  22:Generated_Source\PSoC4/rxISR.c **** #include "cyapicallbacks.h"
  23:Generated_Source\PSoC4/rxISR.c **** 
  24:Generated_Source\PSoC4/rxISR.c **** #if !defined(rxISR__REMOVED) /* Check for removal by optimization */
  25:Generated_Source\PSoC4/rxISR.c **** 
  26:Generated_Source\PSoC4/rxISR.c **** /*******************************************************************************
  27:Generated_Source\PSoC4/rxISR.c **** *  Place your includes, defines and code here 
  28:Generated_Source\PSoC4/rxISR.c **** ********************************************************************************/
  29:Generated_Source\PSoC4/rxISR.c **** /* `#START rxISR_intc` */
  30:Generated_Source\PSoC4/rxISR.c **** 
  31:Generated_Source\PSoC4/rxISR.c **** /* `#END` */
  32:Generated_Source\PSoC4/rxISR.c **** 
ARM GAS  C:\Users\g\AppData\Local\Temp\ccVuRnsD.s 			page 2


  33:Generated_Source\PSoC4/rxISR.c **** extern cyisraddress CyRamVectors[CYINT_IRQ_BASE + CY_NUM_INTERRUPTS];
  34:Generated_Source\PSoC4/rxISR.c **** 
  35:Generated_Source\PSoC4/rxISR.c **** /* Declared in startup, used to set unused interrupts to. */
  36:Generated_Source\PSoC4/rxISR.c **** CY_ISR_PROTO(IntDefaultHandler);
  37:Generated_Source\PSoC4/rxISR.c **** 
  38:Generated_Source\PSoC4/rxISR.c **** 
  39:Generated_Source\PSoC4/rxISR.c **** /*******************************************************************************
  40:Generated_Source\PSoC4/rxISR.c **** * Function Name: rxISR_Start
  41:Generated_Source\PSoC4/rxISR.c **** ********************************************************************************
  42:Generated_Source\PSoC4/rxISR.c **** *
  43:Generated_Source\PSoC4/rxISR.c **** * Summary:
  44:Generated_Source\PSoC4/rxISR.c **** *  Set up the interrupt and enable it. This function disables the interrupt, 
  45:Generated_Source\PSoC4/rxISR.c **** *  sets the default interrupt vector, sets the priority from the value in the
  46:Generated_Source\PSoC4/rxISR.c **** *  Design Wide Resources Interrupt Editor, then enables the interrupt to the 
  47:Generated_Source\PSoC4/rxISR.c **** *  interrupt controller.
  48:Generated_Source\PSoC4/rxISR.c **** *
  49:Generated_Source\PSoC4/rxISR.c **** * Parameters:  
  50:Generated_Source\PSoC4/rxISR.c **** *   None
  51:Generated_Source\PSoC4/rxISR.c **** *
  52:Generated_Source\PSoC4/rxISR.c **** * Return:
  53:Generated_Source\PSoC4/rxISR.c **** *   None
  54:Generated_Source\PSoC4/rxISR.c **** *
  55:Generated_Source\PSoC4/rxISR.c **** *******************************************************************************/
  56:Generated_Source\PSoC4/rxISR.c **** void rxISR_Start(void)
  57:Generated_Source\PSoC4/rxISR.c **** {
  58:Generated_Source\PSoC4/rxISR.c ****     /* For all we know the interrupt is active. */
  59:Generated_Source\PSoC4/rxISR.c ****     rxISR_Disable();
  60:Generated_Source\PSoC4/rxISR.c **** 
  61:Generated_Source\PSoC4/rxISR.c ****     /* Set the ISR to point to the rxISR Interrupt. */
  62:Generated_Source\PSoC4/rxISR.c ****     rxISR_SetVector(&rxISR_Interrupt);
  63:Generated_Source\PSoC4/rxISR.c **** 
  64:Generated_Source\PSoC4/rxISR.c ****     /* Set the priority. */
  65:Generated_Source\PSoC4/rxISR.c ****     rxISR_SetPriority((uint8)rxISR_INTC_PRIOR_NUMBER);
  66:Generated_Source\PSoC4/rxISR.c **** 
  67:Generated_Source\PSoC4/rxISR.c ****     /* Enable it. */
  68:Generated_Source\PSoC4/rxISR.c ****     rxISR_Enable();
  69:Generated_Source\PSoC4/rxISR.c **** }
  70:Generated_Source\PSoC4/rxISR.c **** 
  71:Generated_Source\PSoC4/rxISR.c **** 
  72:Generated_Source\PSoC4/rxISR.c **** /*******************************************************************************
  73:Generated_Source\PSoC4/rxISR.c **** * Function Name: rxISR_StartEx
  74:Generated_Source\PSoC4/rxISR.c **** ********************************************************************************
  75:Generated_Source\PSoC4/rxISR.c **** *
  76:Generated_Source\PSoC4/rxISR.c **** * Summary:
  77:Generated_Source\PSoC4/rxISR.c **** *  Sets up the interrupt and enables it. This function disables the interrupt,
  78:Generated_Source\PSoC4/rxISR.c **** *  sets the interrupt vector based on the address passed in, sets the priority 
  79:Generated_Source\PSoC4/rxISR.c **** *  from the value in the Design Wide Resources Interrupt Editor, then enables 
  80:Generated_Source\PSoC4/rxISR.c **** *  the interrupt to the interrupt controller.
  81:Generated_Source\PSoC4/rxISR.c **** *  
  82:Generated_Source\PSoC4/rxISR.c **** *  When defining ISR functions, the CY_ISR and CY_ISR_PROTO macros should be 
  83:Generated_Source\PSoC4/rxISR.c **** *  used to provide consistent definition across compilers:
  84:Generated_Source\PSoC4/rxISR.c **** *  
  85:Generated_Source\PSoC4/rxISR.c **** *  Function definition example:
  86:Generated_Source\PSoC4/rxISR.c **** *   CY_ISR(MyISR)
  87:Generated_Source\PSoC4/rxISR.c **** *   {
  88:Generated_Source\PSoC4/rxISR.c **** *   }
  89:Generated_Source\PSoC4/rxISR.c **** *   Function prototype example:
ARM GAS  C:\Users\g\AppData\Local\Temp\ccVuRnsD.s 			page 3


  90:Generated_Source\PSoC4/rxISR.c **** *   CY_ISR_PROTO(MyISR);
  91:Generated_Source\PSoC4/rxISR.c **** *
  92:Generated_Source\PSoC4/rxISR.c **** * Parameters:  
  93:Generated_Source\PSoC4/rxISR.c **** *   address: Address of the ISR to set in the interrupt vector table.
  94:Generated_Source\PSoC4/rxISR.c **** *
  95:Generated_Source\PSoC4/rxISR.c **** * Return:
  96:Generated_Source\PSoC4/rxISR.c **** *   None
  97:Generated_Source\PSoC4/rxISR.c **** *
  98:Generated_Source\PSoC4/rxISR.c **** *******************************************************************************/
  99:Generated_Source\PSoC4/rxISR.c **** void rxISR_StartEx(cyisraddress address)
 100:Generated_Source\PSoC4/rxISR.c **** {
 101:Generated_Source\PSoC4/rxISR.c ****     /* For all we know the interrupt is active. */
 102:Generated_Source\PSoC4/rxISR.c ****     rxISR_Disable();
 103:Generated_Source\PSoC4/rxISR.c **** 
 104:Generated_Source\PSoC4/rxISR.c ****     /* Set the ISR to point to the rxISR Interrupt. */
 105:Generated_Source\PSoC4/rxISR.c ****     rxISR_SetVector(address);
 106:Generated_Source\PSoC4/rxISR.c **** 
 107:Generated_Source\PSoC4/rxISR.c ****     /* Set the priority. */
 108:Generated_Source\PSoC4/rxISR.c ****     rxISR_SetPriority((uint8)rxISR_INTC_PRIOR_NUMBER);
 109:Generated_Source\PSoC4/rxISR.c **** 
 110:Generated_Source\PSoC4/rxISR.c ****     /* Enable it. */
 111:Generated_Source\PSoC4/rxISR.c ****     rxISR_Enable();
 112:Generated_Source\PSoC4/rxISR.c **** }
 113:Generated_Source\PSoC4/rxISR.c **** 
 114:Generated_Source\PSoC4/rxISR.c **** 
 115:Generated_Source\PSoC4/rxISR.c **** /*******************************************************************************
 116:Generated_Source\PSoC4/rxISR.c **** * Function Name: rxISR_Stop
 117:Generated_Source\PSoC4/rxISR.c **** ********************************************************************************
 118:Generated_Source\PSoC4/rxISR.c **** *
 119:Generated_Source\PSoC4/rxISR.c **** * Summary:
 120:Generated_Source\PSoC4/rxISR.c **** *   Disables and removes the interrupt.
 121:Generated_Source\PSoC4/rxISR.c **** *
 122:Generated_Source\PSoC4/rxISR.c **** * Parameters:  
 123:Generated_Source\PSoC4/rxISR.c **** *   None
 124:Generated_Source\PSoC4/rxISR.c **** *
 125:Generated_Source\PSoC4/rxISR.c **** * Return:
 126:Generated_Source\PSoC4/rxISR.c **** *   None
 127:Generated_Source\PSoC4/rxISR.c **** *
 128:Generated_Source\PSoC4/rxISR.c **** *******************************************************************************/
 129:Generated_Source\PSoC4/rxISR.c **** void rxISR_Stop(void)
 130:Generated_Source\PSoC4/rxISR.c **** {
 131:Generated_Source\PSoC4/rxISR.c ****     /* Disable this interrupt. */
 132:Generated_Source\PSoC4/rxISR.c ****     rxISR_Disable();
 133:Generated_Source\PSoC4/rxISR.c **** 
 134:Generated_Source\PSoC4/rxISR.c ****     /* Set the ISR to point to the passive one. */
 135:Generated_Source\PSoC4/rxISR.c ****     rxISR_SetVector(&IntDefaultHandler);
 136:Generated_Source\PSoC4/rxISR.c **** }
 137:Generated_Source\PSoC4/rxISR.c **** 
 138:Generated_Source\PSoC4/rxISR.c **** 
 139:Generated_Source\PSoC4/rxISR.c **** /*******************************************************************************
 140:Generated_Source\PSoC4/rxISR.c **** * Function Name: rxISR_Interrupt
 141:Generated_Source\PSoC4/rxISR.c **** ********************************************************************************
 142:Generated_Source\PSoC4/rxISR.c **** *
 143:Generated_Source\PSoC4/rxISR.c **** * Summary:
 144:Generated_Source\PSoC4/rxISR.c **** *   The default Interrupt Service Routine for rxISR.
 145:Generated_Source\PSoC4/rxISR.c **** *
 146:Generated_Source\PSoC4/rxISR.c **** *   Add custom code between the START and END comments to keep the next version
ARM GAS  C:\Users\g\AppData\Local\Temp\ccVuRnsD.s 			page 4


 147:Generated_Source\PSoC4/rxISR.c **** *   of this file from over-writing your code.
 148:Generated_Source\PSoC4/rxISR.c **** *
 149:Generated_Source\PSoC4/rxISR.c **** *   Note You may use either the default ISR by using this API, or you may define
 150:Generated_Source\PSoC4/rxISR.c **** *   your own separate ISR through ISR_StartEx().
 151:Generated_Source\PSoC4/rxISR.c **** *
 152:Generated_Source\PSoC4/rxISR.c **** * Parameters:  
 153:Generated_Source\PSoC4/rxISR.c **** *   None
 154:Generated_Source\PSoC4/rxISR.c **** *
 155:Generated_Source\PSoC4/rxISR.c **** * Return:
 156:Generated_Source\PSoC4/rxISR.c **** *   None
 157:Generated_Source\PSoC4/rxISR.c **** *
 158:Generated_Source\PSoC4/rxISR.c **** *******************************************************************************/
 159:Generated_Source\PSoC4/rxISR.c **** CY_ISR(rxISR_Interrupt)
 160:Generated_Source\PSoC4/rxISR.c **** {
  26              		.loc 1 160 0
  27              		.cfi_startproc
 161:Generated_Source\PSoC4/rxISR.c ****     #ifdef rxISR_INTERRUPT_INTERRUPT_CALLBACK
 162:Generated_Source\PSoC4/rxISR.c ****         rxISR_Interrupt_InterruptCallback();
 163:Generated_Source\PSoC4/rxISR.c ****     #endif /* rxISR_INTERRUPT_INTERRUPT_CALLBACK */ 
 164:Generated_Source\PSoC4/rxISR.c **** 
 165:Generated_Source\PSoC4/rxISR.c ****     /*  Place your Interrupt code here. */
 166:Generated_Source\PSoC4/rxISR.c ****     /* `#START rxISR_Interrupt` */
 167:Generated_Source\PSoC4/rxISR.c **** 
 168:Generated_Source\PSoC4/rxISR.c ****     /* `#END` */
 169:Generated_Source\PSoC4/rxISR.c **** }
  28              		.loc 1 169 0
  29              		@ sp needed
  30 0000 7047     		bx	lr
  31              		.cfi_endproc
  32              	.LFE3:
  33              		.size	rxISR_Interrupt, .-rxISR_Interrupt
  34 0002 C046     		.section	.text.rxISR_Stop,"ax",%progbits
  35              		.align	2
  36              		.global	rxISR_Stop
  37              		.code	16
  38              		.thumb_func
  39              		.type	rxISR_Stop, %function
  40              	rxISR_Stop:
  41              	.LFB2:
 130:Generated_Source\PSoC4/rxISR.c ****     /* Disable this interrupt. */
  42              		.loc 1 130 0
  43              		.cfi_startproc
  44              	.LBB18:
  45              	.LBB19:
 170:Generated_Source\PSoC4/rxISR.c **** 
 171:Generated_Source\PSoC4/rxISR.c **** 
 172:Generated_Source\PSoC4/rxISR.c **** /*******************************************************************************
 173:Generated_Source\PSoC4/rxISR.c **** * Function Name: rxISR_SetVector
 174:Generated_Source\PSoC4/rxISR.c **** ********************************************************************************
 175:Generated_Source\PSoC4/rxISR.c **** *
 176:Generated_Source\PSoC4/rxISR.c **** * Summary:
 177:Generated_Source\PSoC4/rxISR.c **** *   Change the ISR vector for the Interrupt. Note calling rxISR_Start
 178:Generated_Source\PSoC4/rxISR.c **** *   will override any effect this method would have had. To set the vector 
 179:Generated_Source\PSoC4/rxISR.c **** *   before the component has been started use rxISR_StartEx instead.
 180:Generated_Source\PSoC4/rxISR.c **** * 
 181:Generated_Source\PSoC4/rxISR.c **** *   When defining ISR functions, the CY_ISR and CY_ISR_PROTO macros should be 
 182:Generated_Source\PSoC4/rxISR.c **** *   used to provide consistent definition across compilers:
ARM GAS  C:\Users\g\AppData\Local\Temp\ccVuRnsD.s 			page 5


 183:Generated_Source\PSoC4/rxISR.c **** *
 184:Generated_Source\PSoC4/rxISR.c **** *   Function definition example:
 185:Generated_Source\PSoC4/rxISR.c **** *   CY_ISR(MyISR)
 186:Generated_Source\PSoC4/rxISR.c **** *   {
 187:Generated_Source\PSoC4/rxISR.c **** *   }
 188:Generated_Source\PSoC4/rxISR.c **** *
 189:Generated_Source\PSoC4/rxISR.c **** *   Function prototype example:
 190:Generated_Source\PSoC4/rxISR.c **** *     CY_ISR_PROTO(MyISR);
 191:Generated_Source\PSoC4/rxISR.c **** *
 192:Generated_Source\PSoC4/rxISR.c **** * Parameters:
 193:Generated_Source\PSoC4/rxISR.c **** *   address: Address of the ISR to set in the interrupt vector table.
 194:Generated_Source\PSoC4/rxISR.c **** *
 195:Generated_Source\PSoC4/rxISR.c **** * Return:
 196:Generated_Source\PSoC4/rxISR.c **** *   None
 197:Generated_Source\PSoC4/rxISR.c **** *
 198:Generated_Source\PSoC4/rxISR.c **** *******************************************************************************/
 199:Generated_Source\PSoC4/rxISR.c **** void rxISR_SetVector(cyisraddress address)
 200:Generated_Source\PSoC4/rxISR.c **** {
 201:Generated_Source\PSoC4/rxISR.c ****     CyRamVectors[CYINT_IRQ_BASE + rxISR__INTC_NUMBER] = address;
 202:Generated_Source\PSoC4/rxISR.c **** }
 203:Generated_Source\PSoC4/rxISR.c **** 
 204:Generated_Source\PSoC4/rxISR.c **** 
 205:Generated_Source\PSoC4/rxISR.c **** /*******************************************************************************
 206:Generated_Source\PSoC4/rxISR.c **** * Function Name: rxISR_GetVector
 207:Generated_Source\PSoC4/rxISR.c **** ********************************************************************************
 208:Generated_Source\PSoC4/rxISR.c **** *
 209:Generated_Source\PSoC4/rxISR.c **** * Summary:
 210:Generated_Source\PSoC4/rxISR.c **** *   Gets the "address" of the current ISR vector for the Interrupt.
 211:Generated_Source\PSoC4/rxISR.c **** *
 212:Generated_Source\PSoC4/rxISR.c **** * Parameters:
 213:Generated_Source\PSoC4/rxISR.c **** *   None
 214:Generated_Source\PSoC4/rxISR.c **** *
 215:Generated_Source\PSoC4/rxISR.c **** * Return:
 216:Generated_Source\PSoC4/rxISR.c **** *   Address of the ISR in the interrupt vector table.
 217:Generated_Source\PSoC4/rxISR.c **** *
 218:Generated_Source\PSoC4/rxISR.c **** *******************************************************************************/
 219:Generated_Source\PSoC4/rxISR.c **** cyisraddress rxISR_GetVector(void)
 220:Generated_Source\PSoC4/rxISR.c **** {
 221:Generated_Source\PSoC4/rxISR.c ****     return CyRamVectors[CYINT_IRQ_BASE + rxISR__INTC_NUMBER];
 222:Generated_Source\PSoC4/rxISR.c **** }
 223:Generated_Source\PSoC4/rxISR.c **** 
 224:Generated_Source\PSoC4/rxISR.c **** 
 225:Generated_Source\PSoC4/rxISR.c **** /*******************************************************************************
 226:Generated_Source\PSoC4/rxISR.c **** * Function Name: rxISR_SetPriority
 227:Generated_Source\PSoC4/rxISR.c **** ********************************************************************************
 228:Generated_Source\PSoC4/rxISR.c **** *
 229:Generated_Source\PSoC4/rxISR.c **** * Summary:
 230:Generated_Source\PSoC4/rxISR.c **** *   Sets the Priority of the Interrupt. 
 231:Generated_Source\PSoC4/rxISR.c **** *
 232:Generated_Source\PSoC4/rxISR.c **** *   Note calling rxISR_Start or rxISR_StartEx will 
 233:Generated_Source\PSoC4/rxISR.c **** *   override any effect this API would have had. This API should only be called
 234:Generated_Source\PSoC4/rxISR.c **** *   after rxISR_Start or rxISR_StartEx has been called. 
 235:Generated_Source\PSoC4/rxISR.c **** *   To set the initial priority for the component, use the Design-Wide Resources
 236:Generated_Source\PSoC4/rxISR.c **** *   Interrupt Editor.
 237:Generated_Source\PSoC4/rxISR.c **** *
 238:Generated_Source\PSoC4/rxISR.c **** *   Note This API has no effect on Non-maskable interrupt NMI).
 239:Generated_Source\PSoC4/rxISR.c **** *
ARM GAS  C:\Users\g\AppData\Local\Temp\ccVuRnsD.s 			page 6


 240:Generated_Source\PSoC4/rxISR.c **** * Parameters:
 241:Generated_Source\PSoC4/rxISR.c **** *   priority: Priority of the interrupt, 0 being the highest priority
 242:Generated_Source\PSoC4/rxISR.c **** *             PSoC 3 and PSoC 5LP: Priority is from 0 to 7.
 243:Generated_Source\PSoC4/rxISR.c **** *             PSoC 4: Priority is from 0 to 3.
 244:Generated_Source\PSoC4/rxISR.c **** *
 245:Generated_Source\PSoC4/rxISR.c **** * Return:
 246:Generated_Source\PSoC4/rxISR.c **** *   None
 247:Generated_Source\PSoC4/rxISR.c **** *
 248:Generated_Source\PSoC4/rxISR.c **** *******************************************************************************/
 249:Generated_Source\PSoC4/rxISR.c **** void rxISR_SetPriority(uint8 priority)
 250:Generated_Source\PSoC4/rxISR.c **** {
 251:Generated_Source\PSoC4/rxISR.c **** 	uint8 interruptState;
 252:Generated_Source\PSoC4/rxISR.c ****     uint32 priorityOffset = ((rxISR__INTC_NUMBER % 4u) * 8u) + 6u;
 253:Generated_Source\PSoC4/rxISR.c ****     
 254:Generated_Source\PSoC4/rxISR.c **** 	interruptState = CyEnterCriticalSection();
 255:Generated_Source\PSoC4/rxISR.c ****     *rxISR_INTC_PRIOR = (*rxISR_INTC_PRIOR & (uint32)(~rxISR__INTC_PRIOR_MASK)) |
 256:Generated_Source\PSoC4/rxISR.c ****                                     ((uint32)priority << priorityOffset);
 257:Generated_Source\PSoC4/rxISR.c **** 	CyExitCriticalSection(interruptState);
 258:Generated_Source\PSoC4/rxISR.c **** }
 259:Generated_Source\PSoC4/rxISR.c **** 
 260:Generated_Source\PSoC4/rxISR.c **** 
 261:Generated_Source\PSoC4/rxISR.c **** /*******************************************************************************
 262:Generated_Source\PSoC4/rxISR.c **** * Function Name: rxISR_GetPriority
 263:Generated_Source\PSoC4/rxISR.c **** ********************************************************************************
 264:Generated_Source\PSoC4/rxISR.c **** *
 265:Generated_Source\PSoC4/rxISR.c **** * Summary:
 266:Generated_Source\PSoC4/rxISR.c **** *   Gets the Priority of the Interrupt.
 267:Generated_Source\PSoC4/rxISR.c **** *
 268:Generated_Source\PSoC4/rxISR.c **** * Parameters:
 269:Generated_Source\PSoC4/rxISR.c **** *   None
 270:Generated_Source\PSoC4/rxISR.c **** *
 271:Generated_Source\PSoC4/rxISR.c **** * Return:
 272:Generated_Source\PSoC4/rxISR.c **** *   Priority of the interrupt, 0 being the highest priority
 273:Generated_Source\PSoC4/rxISR.c **** *    PSoC 3 and PSoC 5LP: Priority is from 0 to 7.
 274:Generated_Source\PSoC4/rxISR.c **** *    PSoC 4: Priority is from 0 to 3.
 275:Generated_Source\PSoC4/rxISR.c **** *
 276:Generated_Source\PSoC4/rxISR.c **** *******************************************************************************/
 277:Generated_Source\PSoC4/rxISR.c **** uint8 rxISR_GetPriority(void)
 278:Generated_Source\PSoC4/rxISR.c **** {
 279:Generated_Source\PSoC4/rxISR.c ****     uint32 priority;
 280:Generated_Source\PSoC4/rxISR.c **** 	uint32 priorityOffset = ((rxISR__INTC_NUMBER % 4u) * 8u) + 6u;
 281:Generated_Source\PSoC4/rxISR.c **** 
 282:Generated_Source\PSoC4/rxISR.c ****     priority = (*rxISR_INTC_PRIOR & rxISR__INTC_PRIOR_MASK) >> priorityOffset;
 283:Generated_Source\PSoC4/rxISR.c **** 
 284:Generated_Source\PSoC4/rxISR.c ****     return (uint8)priority;
 285:Generated_Source\PSoC4/rxISR.c **** }
 286:Generated_Source\PSoC4/rxISR.c **** 
 287:Generated_Source\PSoC4/rxISR.c **** 
 288:Generated_Source\PSoC4/rxISR.c **** /*******************************************************************************
 289:Generated_Source\PSoC4/rxISR.c **** * Function Name: rxISR_Enable
 290:Generated_Source\PSoC4/rxISR.c **** ********************************************************************************
 291:Generated_Source\PSoC4/rxISR.c **** *
 292:Generated_Source\PSoC4/rxISR.c **** * Summary:
 293:Generated_Source\PSoC4/rxISR.c **** *   Enables the interrupt to the interrupt controller. Do not call this function
 294:Generated_Source\PSoC4/rxISR.c **** *   unless ISR_Start() has been called or the functionality of the ISR_Start() 
 295:Generated_Source\PSoC4/rxISR.c **** *   function, which sets the vector and the priority, has been called.
 296:Generated_Source\PSoC4/rxISR.c **** *
ARM GAS  C:\Users\g\AppData\Local\Temp\ccVuRnsD.s 			page 7


 297:Generated_Source\PSoC4/rxISR.c **** * Parameters:
 298:Generated_Source\PSoC4/rxISR.c **** *   None
 299:Generated_Source\PSoC4/rxISR.c **** *
 300:Generated_Source\PSoC4/rxISR.c **** * Return:
 301:Generated_Source\PSoC4/rxISR.c **** *   None
 302:Generated_Source\PSoC4/rxISR.c **** *
 303:Generated_Source\PSoC4/rxISR.c **** *******************************************************************************/
 304:Generated_Source\PSoC4/rxISR.c **** void rxISR_Enable(void)
 305:Generated_Source\PSoC4/rxISR.c **** {
 306:Generated_Source\PSoC4/rxISR.c ****     /* Enable the general interrupt. */
 307:Generated_Source\PSoC4/rxISR.c ****     *rxISR_INTC_SET_EN = rxISR__INTC_MASK;
 308:Generated_Source\PSoC4/rxISR.c **** }
 309:Generated_Source\PSoC4/rxISR.c **** 
 310:Generated_Source\PSoC4/rxISR.c **** 
 311:Generated_Source\PSoC4/rxISR.c **** /*******************************************************************************
 312:Generated_Source\PSoC4/rxISR.c **** * Function Name: rxISR_GetState
 313:Generated_Source\PSoC4/rxISR.c **** ********************************************************************************
 314:Generated_Source\PSoC4/rxISR.c **** *
 315:Generated_Source\PSoC4/rxISR.c **** * Summary:
 316:Generated_Source\PSoC4/rxISR.c **** *   Gets the state (enabled, disabled) of the Interrupt.
 317:Generated_Source\PSoC4/rxISR.c **** *
 318:Generated_Source\PSoC4/rxISR.c **** * Parameters:
 319:Generated_Source\PSoC4/rxISR.c **** *   None
 320:Generated_Source\PSoC4/rxISR.c **** *
 321:Generated_Source\PSoC4/rxISR.c **** * Return:
 322:Generated_Source\PSoC4/rxISR.c **** *   1 if enabled, 0 if disabled.
 323:Generated_Source\PSoC4/rxISR.c **** *
 324:Generated_Source\PSoC4/rxISR.c **** *******************************************************************************/
 325:Generated_Source\PSoC4/rxISR.c **** uint8 rxISR_GetState(void)
 326:Generated_Source\PSoC4/rxISR.c **** {
 327:Generated_Source\PSoC4/rxISR.c ****     /* Get the state of the general interrupt. */
 328:Generated_Source\PSoC4/rxISR.c ****     return ((*rxISR_INTC_SET_EN & (uint32)rxISR__INTC_MASK) != 0u) ? 1u:0u;
 329:Generated_Source\PSoC4/rxISR.c **** }
 330:Generated_Source\PSoC4/rxISR.c **** 
 331:Generated_Source\PSoC4/rxISR.c **** 
 332:Generated_Source\PSoC4/rxISR.c **** /*******************************************************************************
 333:Generated_Source\PSoC4/rxISR.c **** * Function Name: rxISR_Disable
 334:Generated_Source\PSoC4/rxISR.c **** ********************************************************************************
 335:Generated_Source\PSoC4/rxISR.c **** *
 336:Generated_Source\PSoC4/rxISR.c **** * Summary:
 337:Generated_Source\PSoC4/rxISR.c **** *   Disables the Interrupt in the interrupt controller.
 338:Generated_Source\PSoC4/rxISR.c **** *
 339:Generated_Source\PSoC4/rxISR.c **** * Parameters:
 340:Generated_Source\PSoC4/rxISR.c **** *   None
 341:Generated_Source\PSoC4/rxISR.c **** *
 342:Generated_Source\PSoC4/rxISR.c **** * Return:
 343:Generated_Source\PSoC4/rxISR.c **** *   None
 344:Generated_Source\PSoC4/rxISR.c **** *
 345:Generated_Source\PSoC4/rxISR.c **** *******************************************************************************/
 346:Generated_Source\PSoC4/rxISR.c **** void rxISR_Disable(void)
 347:Generated_Source\PSoC4/rxISR.c **** {
 348:Generated_Source\PSoC4/rxISR.c ****     /* Disable the general interrupt. */
 349:Generated_Source\PSoC4/rxISR.c ****     *rxISR_INTC_CLR_EN = rxISR__INTC_MASK;
  46              		.loc 1 349 0
  47 0000 8022     		mov	r2, #128
  48 0002 034B     		ldr	r3, .L3
  49 0004 1201     		lsl	r2, r2, #4
ARM GAS  C:\Users\g\AppData\Local\Temp\ccVuRnsD.s 			page 8


  50 0006 1A60     		str	r2, [r3]
  51              	.LVL0:
  52              	.LBE19:
  53              	.LBE18:
  54              	.LBB20:
  55              	.LBB21:
 201:Generated_Source\PSoC4/rxISR.c **** }
  56              		.loc 1 201 0
  57 0008 024A     		ldr	r2, .L3+4
  58 000a 034B     		ldr	r3, .L3+8
  59              	.LBE21:
  60              	.LBE20:
 136:Generated_Source\PSoC4/rxISR.c **** 
  61              		.loc 1 136 0
  62              		@ sp needed
  63              	.LBB23:
  64              	.LBB22:
 201:Generated_Source\PSoC4/rxISR.c **** }
  65              		.loc 1 201 0
  66 000c DA66     		str	r2, [r3, #108]
  67              	.LBE22:
  68              	.LBE23:
 136:Generated_Source\PSoC4/rxISR.c **** 
  69              		.loc 1 136 0
  70 000e 7047     		bx	lr
  71              	.L4:
  72              		.align	2
  73              	.L3:
  74 0010 80E100E0 		.word	-536813184
  75 0014 00000000 		.word	IntDefaultHandler
  76 0018 00000000 		.word	CyRamVectors
  77              		.cfi_endproc
  78              	.LFE2:
  79              		.size	rxISR_Stop, .-rxISR_Stop
  80              		.section	.text.rxISR_SetVector,"ax",%progbits
  81              		.align	2
  82              		.global	rxISR_SetVector
  83              		.code	16
  84              		.thumb_func
  85              		.type	rxISR_SetVector, %function
  86              	rxISR_SetVector:
  87              	.LFB4:
 200:Generated_Source\PSoC4/rxISR.c ****     CyRamVectors[CYINT_IRQ_BASE + rxISR__INTC_NUMBER] = address;
  88              		.loc 1 200 0
  89              		.cfi_startproc
  90              	.LVL1:
 201:Generated_Source\PSoC4/rxISR.c **** }
  91              		.loc 1 201 0
  92 0000 014B     		ldr	r3, .L6
 202:Generated_Source\PSoC4/rxISR.c **** 
  93              		.loc 1 202 0
  94              		@ sp needed
 201:Generated_Source\PSoC4/rxISR.c **** }
  95              		.loc 1 201 0
  96 0002 D866     		str	r0, [r3, #108]
 202:Generated_Source\PSoC4/rxISR.c **** 
  97              		.loc 1 202 0
ARM GAS  C:\Users\g\AppData\Local\Temp\ccVuRnsD.s 			page 9


  98 0004 7047     		bx	lr
  99              	.L7:
 100 0006 C046     		.align	2
 101              	.L6:
 102 0008 00000000 		.word	CyRamVectors
 103              		.cfi_endproc
 104              	.LFE4:
 105              		.size	rxISR_SetVector, .-rxISR_SetVector
 106              		.section	.text.rxISR_GetVector,"ax",%progbits
 107              		.align	2
 108              		.global	rxISR_GetVector
 109              		.code	16
 110              		.thumb_func
 111              		.type	rxISR_GetVector, %function
 112              	rxISR_GetVector:
 113              	.LFB5:
 220:Generated_Source\PSoC4/rxISR.c ****     return CyRamVectors[CYINT_IRQ_BASE + rxISR__INTC_NUMBER];
 114              		.loc 1 220 0
 115              		.cfi_startproc
 221:Generated_Source\PSoC4/rxISR.c **** }
 116              		.loc 1 221 0
 117 0000 014B     		ldr	r3, .L9
 222:Generated_Source\PSoC4/rxISR.c **** 
 118              		.loc 1 222 0
 119              		@ sp needed
 221:Generated_Source\PSoC4/rxISR.c **** }
 120              		.loc 1 221 0
 121 0002 D86E     		ldr	r0, [r3, #108]
 222:Generated_Source\PSoC4/rxISR.c **** 
 122              		.loc 1 222 0
 123 0004 7047     		bx	lr
 124              	.L10:
 125 0006 C046     		.align	2
 126              	.L9:
 127 0008 00000000 		.word	CyRamVectors
 128              		.cfi_endproc
 129              	.LFE5:
 130              		.size	rxISR_GetVector, .-rxISR_GetVector
 131              		.section	.text.rxISR_SetPriority,"ax",%progbits
 132              		.align	2
 133              		.global	rxISR_SetPriority
 134              		.code	16
 135              		.thumb_func
 136              		.type	rxISR_SetPriority, %function
 137              	rxISR_SetPriority:
 138              	.LFB6:
 250:Generated_Source\PSoC4/rxISR.c **** 	uint8 interruptState;
 139              		.loc 1 250 0
 140              		.cfi_startproc
 141              	.LVL2:
 142 0000 10B5     		push	{r4, lr}
 143              		.cfi_def_cfa_offset 8
 144              		.cfi_offset 4, -8
 145              		.cfi_offset 14, -4
 250:Generated_Source\PSoC4/rxISR.c **** 	uint8 interruptState;
 146              		.loc 1 250 0
 147 0002 041C     		mov	r4, r0
ARM GAS  C:\Users\g\AppData\Local\Temp\ccVuRnsD.s 			page 10


 254:Generated_Source\PSoC4/rxISR.c ****     *rxISR_INTC_PRIOR = (*rxISR_INTC_PRIOR & (uint32)(~rxISR__INTC_PRIOR_MASK)) |
 148              		.loc 1 254 0
 149 0004 FFF7FEFF 		bl	CyEnterCriticalSection
 150              	.LVL3:
 255:Generated_Source\PSoC4/rxISR.c ****                                     ((uint32)priority << priorityOffset);
 151              		.loc 1 255 0
 152 0008 044A     		ldr	r2, .L12
 256:Generated_Source\PSoC4/rxISR.c **** 	CyExitCriticalSection(interruptState);
 153              		.loc 1 256 0
 154 000a A407     		lsl	r4, r4, #30
 255:Generated_Source\PSoC4/rxISR.c ****                                     ((uint32)priority << priorityOffset);
 155              		.loc 1 255 0
 156 000c 1368     		ldr	r3, [r2]
 258:Generated_Source\PSoC4/rxISR.c **** 
 157              		.loc 1 258 0
 158              		@ sp needed
 255:Generated_Source\PSoC4/rxISR.c ****                                     ((uint32)priority << priorityOffset);
 159              		.loc 1 255 0
 160 000e 9B00     		lsl	r3, r3, #2
 161 0010 9B08     		lsr	r3, r3, #2
 162 0012 2343     		orr	r3, r4
 163 0014 1360     		str	r3, [r2]
 257:Generated_Source\PSoC4/rxISR.c **** }
 164              		.loc 1 257 0
 165 0016 FFF7FEFF 		bl	CyExitCriticalSection
 166              	.LVL4:
 258:Generated_Source\PSoC4/rxISR.c **** 
 167              		.loc 1 258 0
 168 001a 10BD     		pop	{r4, pc}
 169              	.L13:
 170              		.align	2
 171              	.L12:
 172 001c 08E400E0 		.word	-536812536
 173              		.cfi_endproc
 174              	.LFE6:
 175              		.size	rxISR_SetPriority, .-rxISR_SetPriority
 176              		.section	.text.rxISR_Start,"ax",%progbits
 177              		.align	2
 178              		.global	rxISR_Start
 179              		.code	16
 180              		.thumb_func
 181              		.type	rxISR_Start, %function
 182              	rxISR_Start:
 183              	.LFB0:
  57:Generated_Source\PSoC4/rxISR.c ****     /* For all we know the interrupt is active. */
 184              		.loc 1 57 0
 185              		.cfi_startproc
 186 0000 10B5     		push	{r4, lr}
 187              		.cfi_def_cfa_offset 8
 188              		.cfi_offset 4, -8
 189              		.cfi_offset 14, -4
 190              	.LBB24:
 191              	.LBB25:
 192              		.loc 1 349 0
 193 0002 8024     		mov	r4, #128
 194 0004 054B     		ldr	r3, .L15
 195 0006 2401     		lsl	r4, r4, #4
ARM GAS  C:\Users\g\AppData\Local\Temp\ccVuRnsD.s 			page 11


 196 0008 1C60     		str	r4, [r3]
 197              	.LVL5:
 198              	.LBE25:
 199              	.LBE24:
 200              	.LBB26:
 201              	.LBB27:
 201:Generated_Source\PSoC4/rxISR.c **** }
 202              		.loc 1 201 0
 203 000a 054A     		ldr	r2, .L15+4
 204 000c 054B     		ldr	r3, .L15+8
 205              	.LBE27:
 206              	.LBE26:
  65:Generated_Source\PSoC4/rxISR.c **** 
 207              		.loc 1 65 0
 208 000e 0120     		mov	r0, #1
 209              	.LBB29:
 210              	.LBB28:
 201:Generated_Source\PSoC4/rxISR.c **** }
 211              		.loc 1 201 0
 212 0010 DA66     		str	r2, [r3, #108]
 213              	.LBE28:
 214              	.LBE29:
  65:Generated_Source\PSoC4/rxISR.c **** 
 215              		.loc 1 65 0
 216 0012 FFF7FEFF 		bl	rxISR_SetPriority
 217              	.LVL6:
 218              	.LBB30:
 219              	.LBB31:
 307:Generated_Source\PSoC4/rxISR.c **** }
 220              		.loc 1 307 0
 221 0016 044B     		ldr	r3, .L15+12
 222              	.LBE31:
 223              	.LBE30:
  69:Generated_Source\PSoC4/rxISR.c **** 
 224              		.loc 1 69 0
 225              		@ sp needed
 226              	.LBB33:
 227              	.LBB32:
 307:Generated_Source\PSoC4/rxISR.c **** }
 228              		.loc 1 307 0
 229 0018 1C60     		str	r4, [r3]
 230              	.LBE32:
 231              	.LBE33:
  69:Generated_Source\PSoC4/rxISR.c **** 
 232              		.loc 1 69 0
 233 001a 10BD     		pop	{r4, pc}
 234              	.L16:
 235              		.align	2
 236              	.L15:
 237 001c 80E100E0 		.word	-536813184
 238 0020 00000000 		.word	rxISR_Interrupt
 239 0024 00000000 		.word	CyRamVectors
 240 0028 00E100E0 		.word	-536813312
 241              		.cfi_endproc
 242              	.LFE0:
 243              		.size	rxISR_Start, .-rxISR_Start
 244              		.section	.text.rxISR_StartEx,"ax",%progbits
ARM GAS  C:\Users\g\AppData\Local\Temp\ccVuRnsD.s 			page 12


 245              		.align	2
 246              		.global	rxISR_StartEx
 247              		.code	16
 248              		.thumb_func
 249              		.type	rxISR_StartEx, %function
 250              	rxISR_StartEx:
 251              	.LFB1:
 100:Generated_Source\PSoC4/rxISR.c ****     /* For all we know the interrupt is active. */
 252              		.loc 1 100 0
 253              		.cfi_startproc
 254              	.LVL7:
 255 0000 10B5     		push	{r4, lr}
 256              		.cfi_def_cfa_offset 8
 257              		.cfi_offset 4, -8
 258              		.cfi_offset 14, -4
 259              	.LBB34:
 260              	.LBB35:
 261              		.loc 1 349 0
 262 0002 8024     		mov	r4, #128
 263 0004 054B     		ldr	r3, .L18
 264 0006 2401     		lsl	r4, r4, #4
 265 0008 1C60     		str	r4, [r3]
 266              	.LVL8:
 267              	.LBE35:
 268              	.LBE34:
 269              	.LBB36:
 270              	.LBB37:
 201:Generated_Source\PSoC4/rxISR.c **** }
 271              		.loc 1 201 0
 272 000a 054B     		ldr	r3, .L18+4
 273              	.LBE37:
 274              	.LBE36:
 112:Generated_Source\PSoC4/rxISR.c **** 
 275              		.loc 1 112 0
 276              		@ sp needed
 277              	.LBB39:
 278              	.LBB38:
 201:Generated_Source\PSoC4/rxISR.c **** }
 279              		.loc 1 201 0
 280 000c D866     		str	r0, [r3, #108]
 281              	.LBE38:
 282              	.LBE39:
 108:Generated_Source\PSoC4/rxISR.c **** 
 283              		.loc 1 108 0
 284 000e 0120     		mov	r0, #1
 285              	.LVL9:
 286 0010 FFF7FEFF 		bl	rxISR_SetPriority
 287              	.LVL10:
 288              	.LBB40:
 289              	.LBB41:
 307:Generated_Source\PSoC4/rxISR.c **** }
 290              		.loc 1 307 0
 291 0014 034B     		ldr	r3, .L18+8
 292 0016 1C60     		str	r4, [r3]
 293              	.LBE41:
 294              	.LBE40:
 112:Generated_Source\PSoC4/rxISR.c **** 
ARM GAS  C:\Users\g\AppData\Local\Temp\ccVuRnsD.s 			page 13


 295              		.loc 1 112 0
 296 0018 10BD     		pop	{r4, pc}
 297              	.L19:
 298 001a C046     		.align	2
 299              	.L18:
 300 001c 80E100E0 		.word	-536813184
 301 0020 00000000 		.word	CyRamVectors
 302 0024 00E100E0 		.word	-536813312
 303              		.cfi_endproc
 304              	.LFE1:
 305              		.size	rxISR_StartEx, .-rxISR_StartEx
 306              		.section	.text.rxISR_GetPriority,"ax",%progbits
 307              		.align	2
 308              		.global	rxISR_GetPriority
 309              		.code	16
 310              		.thumb_func
 311              		.type	rxISR_GetPriority, %function
 312              	rxISR_GetPriority:
 313              	.LFB7:
 278:Generated_Source\PSoC4/rxISR.c ****     uint32 priority;
 314              		.loc 1 278 0
 315              		.cfi_startproc
 316              	.LVL11:
 282:Generated_Source\PSoC4/rxISR.c **** 
 317              		.loc 1 282 0
 318 0000 014B     		ldr	r3, .L21
 285:Generated_Source\PSoC4/rxISR.c **** 
 319              		.loc 1 285 0
 320              		@ sp needed
 282:Generated_Source\PSoC4/rxISR.c **** 
 321              		.loc 1 282 0
 322 0002 1868     		ldr	r0, [r3]
 323              	.LVL12:
 284:Generated_Source\PSoC4/rxISR.c **** }
 324              		.loc 1 284 0
 325 0004 800F     		lsr	r0, r0, #30
 326              	.LVL13:
 285:Generated_Source\PSoC4/rxISR.c **** 
 327              		.loc 1 285 0
 328 0006 7047     		bx	lr
 329              	.L22:
 330              		.align	2
 331              	.L21:
 332 0008 08E400E0 		.word	-536812536
 333              		.cfi_endproc
 334              	.LFE7:
 335              		.size	rxISR_GetPriority, .-rxISR_GetPriority
 336              		.section	.text.rxISR_Enable,"ax",%progbits
 337              		.align	2
 338              		.global	rxISR_Enable
 339              		.code	16
 340              		.thumb_func
 341              		.type	rxISR_Enable, %function
 342              	rxISR_Enable:
 343              	.LFB8:
 305:Generated_Source\PSoC4/rxISR.c ****     /* Enable the general interrupt. */
 344              		.loc 1 305 0
ARM GAS  C:\Users\g\AppData\Local\Temp\ccVuRnsD.s 			page 14


 345              		.cfi_startproc
 307:Generated_Source\PSoC4/rxISR.c **** }
 346              		.loc 1 307 0
 347 0000 8022     		mov	r2, #128
 348 0002 024B     		ldr	r3, .L24
 349 0004 1201     		lsl	r2, r2, #4
 350 0006 1A60     		str	r2, [r3]
 308:Generated_Source\PSoC4/rxISR.c **** 
 351              		.loc 1 308 0
 352              		@ sp needed
 353 0008 7047     		bx	lr
 354              	.L25:
 355 000a C046     		.align	2
 356              	.L24:
 357 000c 00E100E0 		.word	-536813312
 358              		.cfi_endproc
 359              	.LFE8:
 360              		.size	rxISR_Enable, .-rxISR_Enable
 361              		.section	.text.rxISR_GetState,"ax",%progbits
 362              		.align	2
 363              		.global	rxISR_GetState
 364              		.code	16
 365              		.thumb_func
 366              		.type	rxISR_GetState, %function
 367              	rxISR_GetState:
 368              	.LFB9:
 326:Generated_Source\PSoC4/rxISR.c ****     /* Get the state of the general interrupt. */
 369              		.loc 1 326 0
 370              		.cfi_startproc
 328:Generated_Source\PSoC4/rxISR.c **** }
 371              		.loc 1 328 0
 372 0000 024B     		ldr	r3, .L27
 329:Generated_Source\PSoC4/rxISR.c **** 
 373              		.loc 1 329 0
 374              		@ sp needed
 328:Generated_Source\PSoC4/rxISR.c **** }
 375              		.loc 1 328 0
 376 0002 1868     		ldr	r0, [r3]
 377 0004 0005     		lsl	r0, r0, #20
 378 0006 C00F     		lsr	r0, r0, #31
 329:Generated_Source\PSoC4/rxISR.c **** 
 379              		.loc 1 329 0
 380 0008 7047     		bx	lr
 381              	.L28:
 382 000a C046     		.align	2
 383              	.L27:
 384 000c 00E100E0 		.word	-536813312
 385              		.cfi_endproc
 386              	.LFE9:
 387              		.size	rxISR_GetState, .-rxISR_GetState
 388              		.section	.text.rxISR_Disable,"ax",%progbits
 389              		.align	2
 390              		.global	rxISR_Disable
 391              		.code	16
 392              		.thumb_func
 393              		.type	rxISR_Disable, %function
 394              	rxISR_Disable:
ARM GAS  C:\Users\g\AppData\Local\Temp\ccVuRnsD.s 			page 15


 395              	.LFB10:
 347:Generated_Source\PSoC4/rxISR.c ****     /* Disable the general interrupt. */
 396              		.loc 1 347 0
 397              		.cfi_startproc
 398              		.loc 1 349 0
 399 0000 8022     		mov	r2, #128
 400 0002 024B     		ldr	r3, .L30
 401 0004 1201     		lsl	r2, r2, #4
 402 0006 1A60     		str	r2, [r3]
 350:Generated_Source\PSoC4/rxISR.c **** }
 403              		.loc 1 350 0
 404              		@ sp needed
 405 0008 7047     		bx	lr
 406              	.L31:
 407 000a C046     		.align	2
 408              	.L30:
 409 000c 80E100E0 		.word	-536813184
 410              		.cfi_endproc
 411              	.LFE10:
 412              		.size	rxISR_Disable, .-rxISR_Disable
 413              		.section	.text.rxISR_SetPending,"ax",%progbits
 414              		.align	2
 415              		.global	rxISR_SetPending
 416              		.code	16
 417              		.thumb_func
 418              		.type	rxISR_SetPending, %function
 419              	rxISR_SetPending:
 420              	.LFB11:
 351:Generated_Source\PSoC4/rxISR.c **** 
 352:Generated_Source\PSoC4/rxISR.c **** 
 353:Generated_Source\PSoC4/rxISR.c **** /*******************************************************************************
 354:Generated_Source\PSoC4/rxISR.c **** * Function Name: rxISR_SetPending
 355:Generated_Source\PSoC4/rxISR.c **** ********************************************************************************
 356:Generated_Source\PSoC4/rxISR.c **** *
 357:Generated_Source\PSoC4/rxISR.c **** * Summary:
 358:Generated_Source\PSoC4/rxISR.c **** *   Causes the Interrupt to enter the pending state, a software method of
 359:Generated_Source\PSoC4/rxISR.c **** *   generating the interrupt.
 360:Generated_Source\PSoC4/rxISR.c **** *
 361:Generated_Source\PSoC4/rxISR.c **** * Parameters:
 362:Generated_Source\PSoC4/rxISR.c **** *   None
 363:Generated_Source\PSoC4/rxISR.c **** *
 364:Generated_Source\PSoC4/rxISR.c **** * Return:
 365:Generated_Source\PSoC4/rxISR.c **** *   None
 366:Generated_Source\PSoC4/rxISR.c **** *
 367:Generated_Source\PSoC4/rxISR.c **** * Side Effects:
 368:Generated_Source\PSoC4/rxISR.c **** *   If interrupts are enabled and the interrupt is set up properly, the ISR is
 369:Generated_Source\PSoC4/rxISR.c **** *   entered (depending on the priority of this interrupt and other pending 
 370:Generated_Source\PSoC4/rxISR.c **** *   interrupts).
 371:Generated_Source\PSoC4/rxISR.c **** *
 372:Generated_Source\PSoC4/rxISR.c **** *******************************************************************************/
 373:Generated_Source\PSoC4/rxISR.c **** void rxISR_SetPending(void)
 374:Generated_Source\PSoC4/rxISR.c **** {
 421              		.loc 1 374 0
 422              		.cfi_startproc
 375:Generated_Source\PSoC4/rxISR.c ****     *rxISR_INTC_SET_PD = rxISR__INTC_MASK;
 423              		.loc 1 375 0
 424 0000 8022     		mov	r2, #128
ARM GAS  C:\Users\g\AppData\Local\Temp\ccVuRnsD.s 			page 16


 425 0002 024B     		ldr	r3, .L33
 426 0004 1201     		lsl	r2, r2, #4
 427 0006 1A60     		str	r2, [r3]
 376:Generated_Source\PSoC4/rxISR.c **** }
 428              		.loc 1 376 0
 429              		@ sp needed
 430 0008 7047     		bx	lr
 431              	.L34:
 432 000a C046     		.align	2
 433              	.L33:
 434 000c 00E200E0 		.word	-536813056
 435              		.cfi_endproc
 436              	.LFE11:
 437              		.size	rxISR_SetPending, .-rxISR_SetPending
 438              		.section	.text.rxISR_ClearPending,"ax",%progbits
 439              		.align	2
 440              		.global	rxISR_ClearPending
 441              		.code	16
 442              		.thumb_func
 443              		.type	rxISR_ClearPending, %function
 444              	rxISR_ClearPending:
 445              	.LFB12:
 377:Generated_Source\PSoC4/rxISR.c **** 
 378:Generated_Source\PSoC4/rxISR.c **** 
 379:Generated_Source\PSoC4/rxISR.c **** /*******************************************************************************
 380:Generated_Source\PSoC4/rxISR.c **** * Function Name: rxISR_ClearPending
 381:Generated_Source\PSoC4/rxISR.c **** ********************************************************************************
 382:Generated_Source\PSoC4/rxISR.c **** *
 383:Generated_Source\PSoC4/rxISR.c **** * Summary:
 384:Generated_Source\PSoC4/rxISR.c **** *   Clears a pending interrupt in the interrupt controller.
 385:Generated_Source\PSoC4/rxISR.c **** *
 386:Generated_Source\PSoC4/rxISR.c **** *   Note Some interrupt sources are clear-on-read and require the block 
 387:Generated_Source\PSoC4/rxISR.c **** *   interrupt/status register to be read/cleared with the appropriate block API 
 388:Generated_Source\PSoC4/rxISR.c **** *   (GPIO, UART, and so on). Otherwise the ISR will continue to remain in 
 389:Generated_Source\PSoC4/rxISR.c **** *   pending state even though the interrupt itself is cleared using this API.
 390:Generated_Source\PSoC4/rxISR.c **** *
 391:Generated_Source\PSoC4/rxISR.c **** * Parameters:
 392:Generated_Source\PSoC4/rxISR.c **** *   None
 393:Generated_Source\PSoC4/rxISR.c **** *
 394:Generated_Source\PSoC4/rxISR.c **** * Return:
 395:Generated_Source\PSoC4/rxISR.c **** *   None
 396:Generated_Source\PSoC4/rxISR.c **** *
 397:Generated_Source\PSoC4/rxISR.c **** *******************************************************************************/
 398:Generated_Source\PSoC4/rxISR.c **** void rxISR_ClearPending(void)
 399:Generated_Source\PSoC4/rxISR.c **** {
 446              		.loc 1 399 0
 447              		.cfi_startproc
 400:Generated_Source\PSoC4/rxISR.c ****     *rxISR_INTC_CLR_PD = rxISR__INTC_MASK;
 448              		.loc 1 400 0
 449 0000 8022     		mov	r2, #128
 450 0002 024B     		ldr	r3, .L36
 451 0004 1201     		lsl	r2, r2, #4
 452 0006 1A60     		str	r2, [r3]
 401:Generated_Source\PSoC4/rxISR.c **** }
 453              		.loc 1 401 0
 454              		@ sp needed
 455 0008 7047     		bx	lr
ARM GAS  C:\Users\g\AppData\Local\Temp\ccVuRnsD.s 			page 17


 456              	.L37:
 457 000a C046     		.align	2
 458              	.L36:
 459 000c 80E200E0 		.word	-536812928
 460              		.cfi_endproc
 461              	.LFE12:
 462              		.size	rxISR_ClearPending, .-rxISR_ClearPending
 463              		.text
 464              	.Letext0:
 465              		.file 2 "Generated_Source\\PSoC4/cytypes.h"
 466              		.file 3 "Generated_Source\\PSoC4/CyLib.h"