ARM GAS  C:\Users\g\AppData\Local\Temp\ccR0Zkbi.s 			page 1


   1              		.cpu cortex-m0
   2              		.fpu softvfp
   3              		.eabi_attribute 20, 1
   4              		.eabi_attribute 21, 1
   5              		.eabi_attribute 23, 3
   6              		.eabi_attribute 24, 1
   7              		.eabi_attribute 25, 1
   8              		.eabi_attribute 26, 1
   9              		.eabi_attribute 30, 2
  10              		.eabi_attribute 34, 0
  11              		.eabi_attribute 18, 4
  12              		.code	16
  13              		.file	"TX_SEND_PM.c"
  14              		.text
  15              	.Ltext0:
  16              		.cfi_sections	.debug_frame
  17              		.section	.text.TX_SEND_SaveConfig,"ax",%progbits
  18              		.align	2
  19              		.global	TX_SEND_SaveConfig
  20              		.code	16
  21              		.thumb_func
  22              		.type	TX_SEND_SaveConfig, %function
  23              	TX_SEND_SaveConfig:
  24              	.LFB0:
  25              		.file 1 ".\\Generated_Source\\PSoC4\\TX_SEND_PM.c"
   1:.\Generated_Source\PSoC4/TX_SEND_PM.c **** /*******************************************************************************
   2:.\Generated_Source\PSoC4/TX_SEND_PM.c **** * File Name: TX_SEND_PM.c
   3:.\Generated_Source\PSoC4/TX_SEND_PM.c **** * Version 2.10
   4:.\Generated_Source\PSoC4/TX_SEND_PM.c **** *
   5:.\Generated_Source\PSoC4/TX_SEND_PM.c **** * Description:
   6:.\Generated_Source\PSoC4/TX_SEND_PM.c **** *  This file contains the setup, control, and status commands to support
   7:.\Generated_Source\PSoC4/TX_SEND_PM.c **** *  the component operations in the low power mode.
   8:.\Generated_Source\PSoC4/TX_SEND_PM.c **** *
   9:.\Generated_Source\PSoC4/TX_SEND_PM.c **** * Note:
  10:.\Generated_Source\PSoC4/TX_SEND_PM.c **** *  None
  11:.\Generated_Source\PSoC4/TX_SEND_PM.c **** *
  12:.\Generated_Source\PSoC4/TX_SEND_PM.c **** ********************************************************************************
  13:.\Generated_Source\PSoC4/TX_SEND_PM.c **** * Copyright 2013-2015, Cypress Semiconductor Corporation.  All rights reserved.
  14:.\Generated_Source\PSoC4/TX_SEND_PM.c **** * You may use this file only in accordance with the license, terms, conditions,
  15:.\Generated_Source\PSoC4/TX_SEND_PM.c **** * disclaimers, and limitations in the end user license agreement accompanying
  16:.\Generated_Source\PSoC4/TX_SEND_PM.c **** * the software package with which this file was provided.
  17:.\Generated_Source\PSoC4/TX_SEND_PM.c **** *******************************************************************************/
  18:.\Generated_Source\PSoC4/TX_SEND_PM.c **** 
  19:.\Generated_Source\PSoC4/TX_SEND_PM.c **** #include "TX_SEND.h"
  20:.\Generated_Source\PSoC4/TX_SEND_PM.c **** 
  21:.\Generated_Source\PSoC4/TX_SEND_PM.c **** static TX_SEND_BACKUP_STRUCT TX_SEND_backup;
  22:.\Generated_Source\PSoC4/TX_SEND_PM.c **** 
  23:.\Generated_Source\PSoC4/TX_SEND_PM.c **** 
  24:.\Generated_Source\PSoC4/TX_SEND_PM.c **** /*******************************************************************************
  25:.\Generated_Source\PSoC4/TX_SEND_PM.c **** * Function Name: TX_SEND_SaveConfig
  26:.\Generated_Source\PSoC4/TX_SEND_PM.c **** ********************************************************************************
  27:.\Generated_Source\PSoC4/TX_SEND_PM.c **** *
  28:.\Generated_Source\PSoC4/TX_SEND_PM.c **** * Summary:
  29:.\Generated_Source\PSoC4/TX_SEND_PM.c **** *  All configuration registers are retention. Nothing to save here.
  30:.\Generated_Source\PSoC4/TX_SEND_PM.c **** *
  31:.\Generated_Source\PSoC4/TX_SEND_PM.c **** * Parameters:
  32:.\Generated_Source\PSoC4/TX_SEND_PM.c **** *  None
ARM GAS  C:\Users\g\AppData\Local\Temp\ccR0Zkbi.s 			page 2


  33:.\Generated_Source\PSoC4/TX_SEND_PM.c **** *
  34:.\Generated_Source\PSoC4/TX_SEND_PM.c **** * Return:
  35:.\Generated_Source\PSoC4/TX_SEND_PM.c **** *  None
  36:.\Generated_Source\PSoC4/TX_SEND_PM.c **** *
  37:.\Generated_Source\PSoC4/TX_SEND_PM.c **** *******************************************************************************/
  38:.\Generated_Source\PSoC4/TX_SEND_PM.c **** void TX_SEND_SaveConfig(void)
  39:.\Generated_Source\PSoC4/TX_SEND_PM.c **** {
  26              		.loc 1 39 0
  27              		.cfi_startproc
  40:.\Generated_Source\PSoC4/TX_SEND_PM.c **** 
  41:.\Generated_Source\PSoC4/TX_SEND_PM.c **** }
  28              		.loc 1 41 0
  29              		@ sp needed
  30 0000 7047     		bx	lr
  31              		.cfi_endproc
  32              	.LFE0:
  33              		.size	TX_SEND_SaveConfig, .-TX_SEND_SaveConfig
  34 0002 C046     		.section	.text.TX_SEND_Sleep,"ax",%progbits
  35              		.align	2
  36              		.global	TX_SEND_Sleep
  37              		.code	16
  38              		.thumb_func
  39              		.type	TX_SEND_Sleep, %function
  40              	TX_SEND_Sleep:
  41              	.LFB1:
  42:.\Generated_Source\PSoC4/TX_SEND_PM.c **** 
  43:.\Generated_Source\PSoC4/TX_SEND_PM.c **** 
  44:.\Generated_Source\PSoC4/TX_SEND_PM.c **** /*******************************************************************************
  45:.\Generated_Source\PSoC4/TX_SEND_PM.c **** * Function Name: TX_SEND_Sleep
  46:.\Generated_Source\PSoC4/TX_SEND_PM.c **** ********************************************************************************
  47:.\Generated_Source\PSoC4/TX_SEND_PM.c **** *
  48:.\Generated_Source\PSoC4/TX_SEND_PM.c **** * Summary:
  49:.\Generated_Source\PSoC4/TX_SEND_PM.c **** *  Stops the component operation and saves the user configuration.
  50:.\Generated_Source\PSoC4/TX_SEND_PM.c **** *
  51:.\Generated_Source\PSoC4/TX_SEND_PM.c **** * Parameters:
  52:.\Generated_Source\PSoC4/TX_SEND_PM.c **** *  None
  53:.\Generated_Source\PSoC4/TX_SEND_PM.c **** *
  54:.\Generated_Source\PSoC4/TX_SEND_PM.c **** * Return:
  55:.\Generated_Source\PSoC4/TX_SEND_PM.c **** *  None
  56:.\Generated_Source\PSoC4/TX_SEND_PM.c **** *
  57:.\Generated_Source\PSoC4/TX_SEND_PM.c **** *******************************************************************************/
  58:.\Generated_Source\PSoC4/TX_SEND_PM.c **** void TX_SEND_Sleep(void)
  59:.\Generated_Source\PSoC4/TX_SEND_PM.c **** {
  42              		.loc 1 59 0
  43              		.cfi_startproc
  60:.\Generated_Source\PSoC4/TX_SEND_PM.c ****     if(0u != (TX_SEND_BLOCK_CONTROL_REG & TX_SEND_MASK))
  44              		.loc 1 60 0
  45 0000 0122     		mov	r2, #1
  59:.\Generated_Source\PSoC4/TX_SEND_PM.c ****     if(0u != (TX_SEND_BLOCK_CONTROL_REG & TX_SEND_MASK))
  46              		.loc 1 59 0
  47 0002 08B5     		push	{r3, lr}
  48              		.cfi_def_cfa_offset 8
  49              		.cfi_offset 3, -8
  50              		.cfi_offset 14, -4
  51              		.loc 1 60 0
  52 0004 054B     		ldr	r3, .L7
  53 0006 1B68     		ldr	r3, [r3]
ARM GAS  C:\Users\g\AppData\Local\Temp\ccR0Zkbi.s 			page 3


  54 0008 1340     		and	r3, r2
  55 000a 04D1     		bne	.L6
  61:.\Generated_Source\PSoC4/TX_SEND_PM.c ****     {
  62:.\Generated_Source\PSoC4/TX_SEND_PM.c ****         TX_SEND_backup.enableState = 1u;
  63:.\Generated_Source\PSoC4/TX_SEND_PM.c ****     }
  64:.\Generated_Source\PSoC4/TX_SEND_PM.c ****     else
  65:.\Generated_Source\PSoC4/TX_SEND_PM.c ****     {
  66:.\Generated_Source\PSoC4/TX_SEND_PM.c ****         TX_SEND_backup.enableState = 0u;
  56              		.loc 1 66 0
  57 000c 044A     		ldr	r2, .L7+4
  58 000e 1370     		strb	r3, [r2]
  59              	.L4:
  67:.\Generated_Source\PSoC4/TX_SEND_PM.c ****     }
  68:.\Generated_Source\PSoC4/TX_SEND_PM.c **** 
  69:.\Generated_Source\PSoC4/TX_SEND_PM.c ****     TX_SEND_Stop();
  60              		.loc 1 69 0
  61 0010 FFF7FEFF 		bl	TX_SEND_Stop
  62              	.LVL0:
  70:.\Generated_Source\PSoC4/TX_SEND_PM.c ****     TX_SEND_SaveConfig();
  71:.\Generated_Source\PSoC4/TX_SEND_PM.c **** }
  63              		.loc 1 71 0
  64              		@ sp needed
  65 0014 08BD     		pop	{r3, pc}
  66              	.L6:
  62:.\Generated_Source\PSoC4/TX_SEND_PM.c ****     }
  67              		.loc 1 62 0
  68 0016 024B     		ldr	r3, .L7+4
  69 0018 1A70     		strb	r2, [r3]
  70 001a F9E7     		b	.L4
  71              	.L8:
  72              		.align	2
  73              	.L7:
  74 001c 00000540 		.word	1074069504
  75 0020 00000000 		.word	.LANCHOR0
  76              		.cfi_endproc
  77              	.LFE1:
  78              		.size	TX_SEND_Sleep, .-TX_SEND_Sleep
  79              		.section	.text.TX_SEND_RestoreConfig,"ax",%progbits
  80              		.align	2
  81              		.global	TX_SEND_RestoreConfig
  82              		.code	16
  83              		.thumb_func
  84              		.type	TX_SEND_RestoreConfig, %function
  85              	TX_SEND_RestoreConfig:
  86              	.LFB2:
  72:.\Generated_Source\PSoC4/TX_SEND_PM.c **** 
  73:.\Generated_Source\PSoC4/TX_SEND_PM.c **** 
  74:.\Generated_Source\PSoC4/TX_SEND_PM.c **** /*******************************************************************************
  75:.\Generated_Source\PSoC4/TX_SEND_PM.c **** * Function Name: TX_SEND_RestoreConfig
  76:.\Generated_Source\PSoC4/TX_SEND_PM.c **** ********************************************************************************
  77:.\Generated_Source\PSoC4/TX_SEND_PM.c **** *
  78:.\Generated_Source\PSoC4/TX_SEND_PM.c **** * Summary:
  79:.\Generated_Source\PSoC4/TX_SEND_PM.c **** *  All configuration registers are retention. Nothing to restore here.
  80:.\Generated_Source\PSoC4/TX_SEND_PM.c **** *
  81:.\Generated_Source\PSoC4/TX_SEND_PM.c **** * Parameters:
  82:.\Generated_Source\PSoC4/TX_SEND_PM.c **** *  None
  83:.\Generated_Source\PSoC4/TX_SEND_PM.c **** *
ARM GAS  C:\Users\g\AppData\Local\Temp\ccR0Zkbi.s 			page 4


  84:.\Generated_Source\PSoC4/TX_SEND_PM.c **** * Return:
  85:.\Generated_Source\PSoC4/TX_SEND_PM.c **** *  None
  86:.\Generated_Source\PSoC4/TX_SEND_PM.c **** *
  87:.\Generated_Source\PSoC4/TX_SEND_PM.c **** *******************************************************************************/
  88:.\Generated_Source\PSoC4/TX_SEND_PM.c **** void TX_SEND_RestoreConfig(void)
  89:.\Generated_Source\PSoC4/TX_SEND_PM.c **** {
  87              		.loc 1 89 0
  88              		.cfi_startproc
  90:.\Generated_Source\PSoC4/TX_SEND_PM.c **** 
  91:.\Generated_Source\PSoC4/TX_SEND_PM.c **** }
  89              		.loc 1 91 0
  90              		@ sp needed
  91 0000 7047     		bx	lr
  92              		.cfi_endproc
  93              	.LFE2:
  94              		.size	TX_SEND_RestoreConfig, .-TX_SEND_RestoreConfig
  95 0002 C046     		.section	.text.TX_SEND_Wakeup,"ax",%progbits
  96              		.align	2
  97              		.global	TX_SEND_Wakeup
  98              		.code	16
  99              		.thumb_func
 100              		.type	TX_SEND_Wakeup, %function
 101              	TX_SEND_Wakeup:
 102              	.LFB3:
  92:.\Generated_Source\PSoC4/TX_SEND_PM.c **** 
  93:.\Generated_Source\PSoC4/TX_SEND_PM.c **** 
  94:.\Generated_Source\PSoC4/TX_SEND_PM.c **** /*******************************************************************************
  95:.\Generated_Source\PSoC4/TX_SEND_PM.c **** * Function Name: TX_SEND_Wakeup
  96:.\Generated_Source\PSoC4/TX_SEND_PM.c **** ********************************************************************************
  97:.\Generated_Source\PSoC4/TX_SEND_PM.c **** *
  98:.\Generated_Source\PSoC4/TX_SEND_PM.c **** * Summary:
  99:.\Generated_Source\PSoC4/TX_SEND_PM.c **** *  Restores the user configuration and restores the enable state.
 100:.\Generated_Source\PSoC4/TX_SEND_PM.c **** *
 101:.\Generated_Source\PSoC4/TX_SEND_PM.c **** * Parameters:
 102:.\Generated_Source\PSoC4/TX_SEND_PM.c **** *  None
 103:.\Generated_Source\PSoC4/TX_SEND_PM.c **** *
 104:.\Generated_Source\PSoC4/TX_SEND_PM.c **** * Return:
 105:.\Generated_Source\PSoC4/TX_SEND_PM.c **** *  None
 106:.\Generated_Source\PSoC4/TX_SEND_PM.c **** *
 107:.\Generated_Source\PSoC4/TX_SEND_PM.c **** *******************************************************************************/
 108:.\Generated_Source\PSoC4/TX_SEND_PM.c **** void TX_SEND_Wakeup(void)
 109:.\Generated_Source\PSoC4/TX_SEND_PM.c **** {
 103              		.loc 1 109 0
 104              		.cfi_startproc
 105 0000 08B5     		push	{r3, lr}
 106              		.cfi_def_cfa_offset 8
 107              		.cfi_offset 3, -8
 108              		.cfi_offset 14, -4
 110:.\Generated_Source\PSoC4/TX_SEND_PM.c ****     TX_SEND_RestoreConfig();
 111:.\Generated_Source\PSoC4/TX_SEND_PM.c **** 
 112:.\Generated_Source\PSoC4/TX_SEND_PM.c ****     if(0u != TX_SEND_backup.enableState)
 109              		.loc 1 112 0
 110 0002 034B     		ldr	r3, .L15
 111 0004 1B78     		ldrb	r3, [r3]
 112 0006 002B     		cmp	r3, #0
 113 0008 01D0     		beq	.L10
 113:.\Generated_Source\PSoC4/TX_SEND_PM.c ****     {
ARM GAS  C:\Users\g\AppData\Local\Temp\ccR0Zkbi.s 			page 5


 114:.\Generated_Source\PSoC4/TX_SEND_PM.c ****         TX_SEND_Enable();
 114              		.loc 1 114 0
 115 000a FFF7FEFF 		bl	TX_SEND_Enable
 116              	.LVL1:
 117              	.L10:
 115:.\Generated_Source\PSoC4/TX_SEND_PM.c ****     }
 116:.\Generated_Source\PSoC4/TX_SEND_PM.c **** }
 118              		.loc 1 116 0
 119              		@ sp needed
 120 000e 08BD     		pop	{r3, pc}
 121              	.L16:
 122              		.align	2
 123              	.L15:
 124 0010 00000000 		.word	.LANCHOR0
 125              		.cfi_endproc
 126              	.LFE3:
 127              		.size	TX_SEND_Wakeup, .-TX_SEND_Wakeup
 128              		.bss
 129              		.align	2
 130              		.set	.LANCHOR0,. + 0
 131              		.type	TX_SEND_backup, %object
 132              		.size	TX_SEND_backup, 1
 133              	TX_SEND_backup:
 134 0000 00       		.space	1
 135 0001 000000   		.text
 136              	.Letext0:
 137              		.file 2 ".\\Generated_Source\\PSoC4\\cytypes.h"
 138              		.file 3 ".\\Generated_Source\\PSoC4\\TX_SEND.h"