ARM GAS  C:\Users\g\AppData\Local\Temp\ccADf1Mj.s 			page 1


   1              		.cpu cortex-m0
   2              		.fpu softvfp
   3              		.eabi_attribute 20, 1
   4              		.eabi_attribute 21, 1
   5              		.eabi_attribute 23, 3
   6              		.eabi_attribute 24, 1
   7              		.eabi_attribute 25, 1
   8              		.eabi_attribute 26, 1
   9              		.eabi_attribute 30, 2
  10              		.eabi_attribute 34, 0
  11              		.eabi_attribute 18, 4
  12              		.code	16
  13              		.file	"txISR.c"
  14              		.text
  15              	.Ltext0:
  16              		.cfi_sections	.debug_frame
  17              		.section	.text.txISR_Interrupt,"ax",%progbits
  18              		.align	2
  19              		.global	txISR_Interrupt
  20              		.code	16
  21              		.thumb_func
  22              		.type	txISR_Interrupt, %function
  23              	txISR_Interrupt:
  24              	.LFB3:
  25              		.file 1 "Generated_Source\\PSoC4\\txISR.c"
   1:Generated_Source\PSoC4/txISR.c **** /*******************************************************************************
   2:Generated_Source\PSoC4/txISR.c **** * File Name: txISR.c  
   3:Generated_Source\PSoC4/txISR.c **** * Version 1.70
   4:Generated_Source\PSoC4/txISR.c **** *
   5:Generated_Source\PSoC4/txISR.c **** *  Description:
   6:Generated_Source\PSoC4/txISR.c **** *   API for controlling the state of an interrupt.
   7:Generated_Source\PSoC4/txISR.c **** *
   8:Generated_Source\PSoC4/txISR.c **** *
   9:Generated_Source\PSoC4/txISR.c **** *  Note:
  10:Generated_Source\PSoC4/txISR.c **** *
  11:Generated_Source\PSoC4/txISR.c **** ********************************************************************************
  12:Generated_Source\PSoC4/txISR.c **** * Copyright 2008-2015, Cypress Semiconductor Corporation.  All rights reserved.
  13:Generated_Source\PSoC4/txISR.c **** * You may use this file only in accordance with the license, terms, conditions, 
  14:Generated_Source\PSoC4/txISR.c **** * disclaimers, and limitations in the end user license agreement accompanying 
  15:Generated_Source\PSoC4/txISR.c **** * the software package with which this file was provided.
  16:Generated_Source\PSoC4/txISR.c **** *******************************************************************************/
  17:Generated_Source\PSoC4/txISR.c **** 
  18:Generated_Source\PSoC4/txISR.c **** 
  19:Generated_Source\PSoC4/txISR.c **** #include <cydevice_trm.h>
  20:Generated_Source\PSoC4/txISR.c **** #include <CyLib.h>
  21:Generated_Source\PSoC4/txISR.c **** #include <txISR.h>
  22:Generated_Source\PSoC4/txISR.c **** #include "cyapicallbacks.h"
  23:Generated_Source\PSoC4/txISR.c **** 
  24:Generated_Source\PSoC4/txISR.c **** #if !defined(txISR__REMOVED) /* Check for removal by optimization */
  25:Generated_Source\PSoC4/txISR.c **** 
  26:Generated_Source\PSoC4/txISR.c **** /*******************************************************************************
  27:Generated_Source\PSoC4/txISR.c **** *  Place your includes, defines and code here 
  28:Generated_Source\PSoC4/txISR.c **** ********************************************************************************/
  29:Generated_Source\PSoC4/txISR.c **** /* `#START txISR_intc` */
  30:Generated_Source\PSoC4/txISR.c **** 
  31:Generated_Source\PSoC4/txISR.c **** /* `#END` */
  32:Generated_Source\PSoC4/txISR.c **** 
ARM GAS  C:\Users\g\AppData\Local\Temp\ccADf1Mj.s 			page 2


  33:Generated_Source\PSoC4/txISR.c **** extern cyisraddress CyRamVectors[CYINT_IRQ_BASE + CY_NUM_INTERRUPTS];
  34:Generated_Source\PSoC4/txISR.c **** 
  35:Generated_Source\PSoC4/txISR.c **** /* Declared in startup, used to set unused interrupts to. */
  36:Generated_Source\PSoC4/txISR.c **** CY_ISR_PROTO(IntDefaultHandler);
  37:Generated_Source\PSoC4/txISR.c **** 
  38:Generated_Source\PSoC4/txISR.c **** 
  39:Generated_Source\PSoC4/txISR.c **** /*******************************************************************************
  40:Generated_Source\PSoC4/txISR.c **** * Function Name: txISR_Start
  41:Generated_Source\PSoC4/txISR.c **** ********************************************************************************
  42:Generated_Source\PSoC4/txISR.c **** *
  43:Generated_Source\PSoC4/txISR.c **** * Summary:
  44:Generated_Source\PSoC4/txISR.c **** *  Set up the interrupt and enable it. This function disables the interrupt, 
  45:Generated_Source\PSoC4/txISR.c **** *  sets the default interrupt vector, sets the priority from the value in the
  46:Generated_Source\PSoC4/txISR.c **** *  Design Wide Resources Interrupt Editor, then enables the interrupt to the 
  47:Generated_Source\PSoC4/txISR.c **** *  interrupt controller.
  48:Generated_Source\PSoC4/txISR.c **** *
  49:Generated_Source\PSoC4/txISR.c **** * Parameters:  
  50:Generated_Source\PSoC4/txISR.c **** *   None
  51:Generated_Source\PSoC4/txISR.c **** *
  52:Generated_Source\PSoC4/txISR.c **** * Return:
  53:Generated_Source\PSoC4/txISR.c **** *   None
  54:Generated_Source\PSoC4/txISR.c **** *
  55:Generated_Source\PSoC4/txISR.c **** *******************************************************************************/
  56:Generated_Source\PSoC4/txISR.c **** void txISR_Start(void)
  57:Generated_Source\PSoC4/txISR.c **** {
  58:Generated_Source\PSoC4/txISR.c ****     /* For all we know the interrupt is active. */
  59:Generated_Source\PSoC4/txISR.c ****     txISR_Disable();
  60:Generated_Source\PSoC4/txISR.c **** 
  61:Generated_Source\PSoC4/txISR.c ****     /* Set the ISR to point to the txISR Interrupt. */
  62:Generated_Source\PSoC4/txISR.c ****     txISR_SetVector(&txISR_Interrupt);
  63:Generated_Source\PSoC4/txISR.c **** 
  64:Generated_Source\PSoC4/txISR.c ****     /* Set the priority. */
  65:Generated_Source\PSoC4/txISR.c ****     txISR_SetPriority((uint8)txISR_INTC_PRIOR_NUMBER);
  66:Generated_Source\PSoC4/txISR.c **** 
  67:Generated_Source\PSoC4/txISR.c ****     /* Enable it. */
  68:Generated_Source\PSoC4/txISR.c ****     txISR_Enable();
  69:Generated_Source\PSoC4/txISR.c **** }
  70:Generated_Source\PSoC4/txISR.c **** 
  71:Generated_Source\PSoC4/txISR.c **** 
  72:Generated_Source\PSoC4/txISR.c **** /*******************************************************************************
  73:Generated_Source\PSoC4/txISR.c **** * Function Name: txISR_StartEx
  74:Generated_Source\PSoC4/txISR.c **** ********************************************************************************
  75:Generated_Source\PSoC4/txISR.c **** *
  76:Generated_Source\PSoC4/txISR.c **** * Summary:
  77:Generated_Source\PSoC4/txISR.c **** *  Sets up the interrupt and enables it. This function disables the interrupt,
  78:Generated_Source\PSoC4/txISR.c **** *  sets the interrupt vector based on the address passed in, sets the priority 
  79:Generated_Source\PSoC4/txISR.c **** *  from the value in the Design Wide Resources Interrupt Editor, then enables 
  80:Generated_Source\PSoC4/txISR.c **** *  the interrupt to the interrupt controller.
  81:Generated_Source\PSoC4/txISR.c **** *  
  82:Generated_Source\PSoC4/txISR.c **** *  When defining ISR functions, the CY_ISR and CY_ISR_PROTO macros should be 
  83:Generated_Source\PSoC4/txISR.c **** *  used to provide consistent definition across compilers:
  84:Generated_Source\PSoC4/txISR.c **** *  
  85:Generated_Source\PSoC4/txISR.c **** *  Function definition example:
  86:Generated_Source\PSoC4/txISR.c **** *   CY_ISR(MyISR)
  87:Generated_Source\PSoC4/txISR.c **** *   {
  88:Generated_Source\PSoC4/txISR.c **** *   }
  89:Generated_Source\PSoC4/txISR.c **** *   Function prototype example:
ARM GAS  C:\Users\g\AppData\Local\Temp\ccADf1Mj.s 			page 3


  90:Generated_Source\PSoC4/txISR.c **** *   CY_ISR_PROTO(MyISR);
  91:Generated_Source\PSoC4/txISR.c **** *
  92:Generated_Source\PSoC4/txISR.c **** * Parameters:  
  93:Generated_Source\PSoC4/txISR.c **** *   address: Address of the ISR to set in the interrupt vector table.
  94:Generated_Source\PSoC4/txISR.c **** *
  95:Generated_Source\PSoC4/txISR.c **** * Return:
  96:Generated_Source\PSoC4/txISR.c **** *   None
  97:Generated_Source\PSoC4/txISR.c **** *
  98:Generated_Source\PSoC4/txISR.c **** *******************************************************************************/
  99:Generated_Source\PSoC4/txISR.c **** void txISR_StartEx(cyisraddress address)
 100:Generated_Source\PSoC4/txISR.c **** {
 101:Generated_Source\PSoC4/txISR.c ****     /* For all we know the interrupt is active. */
 102:Generated_Source\PSoC4/txISR.c ****     txISR_Disable();
 103:Generated_Source\PSoC4/txISR.c **** 
 104:Generated_Source\PSoC4/txISR.c ****     /* Set the ISR to point to the txISR Interrupt. */
 105:Generated_Source\PSoC4/txISR.c ****     txISR_SetVector(address);
 106:Generated_Source\PSoC4/txISR.c **** 
 107:Generated_Source\PSoC4/txISR.c ****     /* Set the priority. */
 108:Generated_Source\PSoC4/txISR.c ****     txISR_SetPriority((uint8)txISR_INTC_PRIOR_NUMBER);
 109:Generated_Source\PSoC4/txISR.c **** 
 110:Generated_Source\PSoC4/txISR.c ****     /* Enable it. */
 111:Generated_Source\PSoC4/txISR.c ****     txISR_Enable();
 112:Generated_Source\PSoC4/txISR.c **** }
 113:Generated_Source\PSoC4/txISR.c **** 
 114:Generated_Source\PSoC4/txISR.c **** 
 115:Generated_Source\PSoC4/txISR.c **** /*******************************************************************************
 116:Generated_Source\PSoC4/txISR.c **** * Function Name: txISR_Stop
 117:Generated_Source\PSoC4/txISR.c **** ********************************************************************************
 118:Generated_Source\PSoC4/txISR.c **** *
 119:Generated_Source\PSoC4/txISR.c **** * Summary:
 120:Generated_Source\PSoC4/txISR.c **** *   Disables and removes the interrupt.
 121:Generated_Source\PSoC4/txISR.c **** *
 122:Generated_Source\PSoC4/txISR.c **** * Parameters:  
 123:Generated_Source\PSoC4/txISR.c **** *   None
 124:Generated_Source\PSoC4/txISR.c **** *
 125:Generated_Source\PSoC4/txISR.c **** * Return:
 126:Generated_Source\PSoC4/txISR.c **** *   None
 127:Generated_Source\PSoC4/txISR.c **** *
 128:Generated_Source\PSoC4/txISR.c **** *******************************************************************************/
 129:Generated_Source\PSoC4/txISR.c **** void txISR_Stop(void)
 130:Generated_Source\PSoC4/txISR.c **** {
 131:Generated_Source\PSoC4/txISR.c ****     /* Disable this interrupt. */
 132:Generated_Source\PSoC4/txISR.c ****     txISR_Disable();
 133:Generated_Source\PSoC4/txISR.c **** 
 134:Generated_Source\PSoC4/txISR.c ****     /* Set the ISR to point to the passive one. */
 135:Generated_Source\PSoC4/txISR.c ****     txISR_SetVector(&IntDefaultHandler);
 136:Generated_Source\PSoC4/txISR.c **** }
 137:Generated_Source\PSoC4/txISR.c **** 
 138:Generated_Source\PSoC4/txISR.c **** 
 139:Generated_Source\PSoC4/txISR.c **** /*******************************************************************************
 140:Generated_Source\PSoC4/txISR.c **** * Function Name: txISR_Interrupt
 141:Generated_Source\PSoC4/txISR.c **** ********************************************************************************
 142:Generated_Source\PSoC4/txISR.c **** *
 143:Generated_Source\PSoC4/txISR.c **** * Summary:
 144:Generated_Source\PSoC4/txISR.c **** *   The default Interrupt Service Routine for txISR.
 145:Generated_Source\PSoC4/txISR.c **** *
 146:Generated_Source\PSoC4/txISR.c **** *   Add custom code between the START and END comments to keep the next version
ARM GAS  C:\Users\g\AppData\Local\Temp\ccADf1Mj.s 			page 4


 147:Generated_Source\PSoC4/txISR.c **** *   of this file from over-writing your code.
 148:Generated_Source\PSoC4/txISR.c **** *
 149:Generated_Source\PSoC4/txISR.c **** *   Note You may use either the default ISR by using this API, or you may define
 150:Generated_Source\PSoC4/txISR.c **** *   your own separate ISR through ISR_StartEx().
 151:Generated_Source\PSoC4/txISR.c **** *
 152:Generated_Source\PSoC4/txISR.c **** * Parameters:  
 153:Generated_Source\PSoC4/txISR.c **** *   None
 154:Generated_Source\PSoC4/txISR.c **** *
 155:Generated_Source\PSoC4/txISR.c **** * Return:
 156:Generated_Source\PSoC4/txISR.c **** *   None
 157:Generated_Source\PSoC4/txISR.c **** *
 158:Generated_Source\PSoC4/txISR.c **** *******************************************************************************/
 159:Generated_Source\PSoC4/txISR.c **** CY_ISR(txISR_Interrupt)
 160:Generated_Source\PSoC4/txISR.c **** {
  26              		.loc 1 160 0
  27              		.cfi_startproc
 161:Generated_Source\PSoC4/txISR.c ****     #ifdef txISR_INTERRUPT_INTERRUPT_CALLBACK
 162:Generated_Source\PSoC4/txISR.c ****         txISR_Interrupt_InterruptCallback();
 163:Generated_Source\PSoC4/txISR.c ****     #endif /* txISR_INTERRUPT_INTERRUPT_CALLBACK */ 
 164:Generated_Source\PSoC4/txISR.c **** 
 165:Generated_Source\PSoC4/txISR.c ****     /*  Place your Interrupt code here. */
 166:Generated_Source\PSoC4/txISR.c ****     /* `#START txISR_Interrupt` */
 167:Generated_Source\PSoC4/txISR.c **** 
 168:Generated_Source\PSoC4/txISR.c ****     /* `#END` */
 169:Generated_Source\PSoC4/txISR.c **** }
  28              		.loc 1 169 0
  29              		@ sp needed
  30 0000 7047     		bx	lr
  31              		.cfi_endproc
  32              	.LFE3:
  33              		.size	txISR_Interrupt, .-txISR_Interrupt
  34 0002 C046     		.section	.text.txISR_Stop,"ax",%progbits
  35              		.align	2
  36              		.global	txISR_Stop
  37              		.code	16
  38              		.thumb_func
  39              		.type	txISR_Stop, %function
  40              	txISR_Stop:
  41              	.LFB2:
 130:Generated_Source\PSoC4/txISR.c ****     /* Disable this interrupt. */
  42              		.loc 1 130 0
  43              		.cfi_startproc
  44              	.LBB18:
  45              	.LBB19:
 170:Generated_Source\PSoC4/txISR.c **** 
 171:Generated_Source\PSoC4/txISR.c **** 
 172:Generated_Source\PSoC4/txISR.c **** /*******************************************************************************
 173:Generated_Source\PSoC4/txISR.c **** * Function Name: txISR_SetVector
 174:Generated_Source\PSoC4/txISR.c **** ********************************************************************************
 175:Generated_Source\PSoC4/txISR.c **** *
 176:Generated_Source\PSoC4/txISR.c **** * Summary:
 177:Generated_Source\PSoC4/txISR.c **** *   Change the ISR vector for the Interrupt. Note calling txISR_Start
 178:Generated_Source\PSoC4/txISR.c **** *   will override any effect this method would have had. To set the vector 
 179:Generated_Source\PSoC4/txISR.c **** *   before the component has been started use txISR_StartEx instead.
 180:Generated_Source\PSoC4/txISR.c **** * 
 181:Generated_Source\PSoC4/txISR.c **** *   When defining ISR functions, the CY_ISR and CY_ISR_PROTO macros should be 
 182:Generated_Source\PSoC4/txISR.c **** *   used to provide consistent definition across compilers:
ARM GAS  C:\Users\g\AppData\Local\Temp\ccADf1Mj.s 			page 5


 183:Generated_Source\PSoC4/txISR.c **** *
 184:Generated_Source\PSoC4/txISR.c **** *   Function definition example:
 185:Generated_Source\PSoC4/txISR.c **** *   CY_ISR(MyISR)
 186:Generated_Source\PSoC4/txISR.c **** *   {
 187:Generated_Source\PSoC4/txISR.c **** *   }
 188:Generated_Source\PSoC4/txISR.c **** *
 189:Generated_Source\PSoC4/txISR.c **** *   Function prototype example:
 190:Generated_Source\PSoC4/txISR.c **** *     CY_ISR_PROTO(MyISR);
 191:Generated_Source\PSoC4/txISR.c **** *
 192:Generated_Source\PSoC4/txISR.c **** * Parameters:
 193:Generated_Source\PSoC4/txISR.c **** *   address: Address of the ISR to set in the interrupt vector table.
 194:Generated_Source\PSoC4/txISR.c **** *
 195:Generated_Source\PSoC4/txISR.c **** * Return:
 196:Generated_Source\PSoC4/txISR.c **** *   None
 197:Generated_Source\PSoC4/txISR.c **** *
 198:Generated_Source\PSoC4/txISR.c **** *******************************************************************************/
 199:Generated_Source\PSoC4/txISR.c **** void txISR_SetVector(cyisraddress address)
 200:Generated_Source\PSoC4/txISR.c **** {
 201:Generated_Source\PSoC4/txISR.c ****     CyRamVectors[CYINT_IRQ_BASE + txISR__INTC_NUMBER] = address;
 202:Generated_Source\PSoC4/txISR.c **** }
 203:Generated_Source\PSoC4/txISR.c **** 
 204:Generated_Source\PSoC4/txISR.c **** 
 205:Generated_Source\PSoC4/txISR.c **** /*******************************************************************************
 206:Generated_Source\PSoC4/txISR.c **** * Function Name: txISR_GetVector
 207:Generated_Source\PSoC4/txISR.c **** ********************************************************************************
 208:Generated_Source\PSoC4/txISR.c **** *
 209:Generated_Source\PSoC4/txISR.c **** * Summary:
 210:Generated_Source\PSoC4/txISR.c **** *   Gets the "address" of the current ISR vector for the Interrupt.
 211:Generated_Source\PSoC4/txISR.c **** *
 212:Generated_Source\PSoC4/txISR.c **** * Parameters:
 213:Generated_Source\PSoC4/txISR.c **** *   None
 214:Generated_Source\PSoC4/txISR.c **** *
 215:Generated_Source\PSoC4/txISR.c **** * Return:
 216:Generated_Source\PSoC4/txISR.c **** *   Address of the ISR in the interrupt vector table.
 217:Generated_Source\PSoC4/txISR.c **** *
 218:Generated_Source\PSoC4/txISR.c **** *******************************************************************************/
 219:Generated_Source\PSoC4/txISR.c **** cyisraddress txISR_GetVector(void)
 220:Generated_Source\PSoC4/txISR.c **** {
 221:Generated_Source\PSoC4/txISR.c ****     return CyRamVectors[CYINT_IRQ_BASE + txISR__INTC_NUMBER];
 222:Generated_Source\PSoC4/txISR.c **** }
 223:Generated_Source\PSoC4/txISR.c **** 
 224:Generated_Source\PSoC4/txISR.c **** 
 225:Generated_Source\PSoC4/txISR.c **** /*******************************************************************************
 226:Generated_Source\PSoC4/txISR.c **** * Function Name: txISR_SetPriority
 227:Generated_Source\PSoC4/txISR.c **** ********************************************************************************
 228:Generated_Source\PSoC4/txISR.c **** *
 229:Generated_Source\PSoC4/txISR.c **** * Summary:
 230:Generated_Source\PSoC4/txISR.c **** *   Sets the Priority of the Interrupt. 
 231:Generated_Source\PSoC4/txISR.c **** *
 232:Generated_Source\PSoC4/txISR.c **** *   Note calling txISR_Start or txISR_StartEx will 
 233:Generated_Source\PSoC4/txISR.c **** *   override any effect this API would have had. This API should only be called
 234:Generated_Source\PSoC4/txISR.c **** *   after txISR_Start or txISR_StartEx has been called. 
 235:Generated_Source\PSoC4/txISR.c **** *   To set the initial priority for the component, use the Design-Wide Resources
 236:Generated_Source\PSoC4/txISR.c **** *   Interrupt Editor.
 237:Generated_Source\PSoC4/txISR.c **** *
 238:Generated_Source\PSoC4/txISR.c **** *   Note This API has no effect on Non-maskable interrupt NMI).
 239:Generated_Source\PSoC4/txISR.c **** *
ARM GAS  C:\Users\g\AppData\Local\Temp\ccADf1Mj.s 			page 6


 240:Generated_Source\PSoC4/txISR.c **** * Parameters:
 241:Generated_Source\PSoC4/txISR.c **** *   priority: Priority of the interrupt, 0 being the highest priority
 242:Generated_Source\PSoC4/txISR.c **** *             PSoC 3 and PSoC 5LP: Priority is from 0 to 7.
 243:Generated_Source\PSoC4/txISR.c **** *             PSoC 4: Priority is from 0 to 3.
 244:Generated_Source\PSoC4/txISR.c **** *
 245:Generated_Source\PSoC4/txISR.c **** * Return:
 246:Generated_Source\PSoC4/txISR.c **** *   None
 247:Generated_Source\PSoC4/txISR.c **** *
 248:Generated_Source\PSoC4/txISR.c **** *******************************************************************************/
 249:Generated_Source\PSoC4/txISR.c **** void txISR_SetPriority(uint8 priority)
 250:Generated_Source\PSoC4/txISR.c **** {
 251:Generated_Source\PSoC4/txISR.c **** 	uint8 interruptState;
 252:Generated_Source\PSoC4/txISR.c ****     uint32 priorityOffset = ((txISR__INTC_NUMBER % 4u) * 8u) + 6u;
 253:Generated_Source\PSoC4/txISR.c ****     
 254:Generated_Source\PSoC4/txISR.c **** 	interruptState = CyEnterCriticalSection();
 255:Generated_Source\PSoC4/txISR.c ****     *txISR_INTC_PRIOR = (*txISR_INTC_PRIOR & (uint32)(~txISR__INTC_PRIOR_MASK)) |
 256:Generated_Source\PSoC4/txISR.c ****                                     ((uint32)priority << priorityOffset);
 257:Generated_Source\PSoC4/txISR.c **** 	CyExitCriticalSection(interruptState);
 258:Generated_Source\PSoC4/txISR.c **** }
 259:Generated_Source\PSoC4/txISR.c **** 
 260:Generated_Source\PSoC4/txISR.c **** 
 261:Generated_Source\PSoC4/txISR.c **** /*******************************************************************************
 262:Generated_Source\PSoC4/txISR.c **** * Function Name: txISR_GetPriority
 263:Generated_Source\PSoC4/txISR.c **** ********************************************************************************
 264:Generated_Source\PSoC4/txISR.c **** *
 265:Generated_Source\PSoC4/txISR.c **** * Summary:
 266:Generated_Source\PSoC4/txISR.c **** *   Gets the Priority of the Interrupt.
 267:Generated_Source\PSoC4/txISR.c **** *
 268:Generated_Source\PSoC4/txISR.c **** * Parameters:
 269:Generated_Source\PSoC4/txISR.c **** *   None
 270:Generated_Source\PSoC4/txISR.c **** *
 271:Generated_Source\PSoC4/txISR.c **** * Return:
 272:Generated_Source\PSoC4/txISR.c **** *   Priority of the interrupt, 0 being the highest priority
 273:Generated_Source\PSoC4/txISR.c **** *    PSoC 3 and PSoC 5LP: Priority is from 0 to 7.
 274:Generated_Source\PSoC4/txISR.c **** *    PSoC 4: Priority is from 0 to 3.
 275:Generated_Source\PSoC4/txISR.c **** *
 276:Generated_Source\PSoC4/txISR.c **** *******************************************************************************/
 277:Generated_Source\PSoC4/txISR.c **** uint8 txISR_GetPriority(void)
 278:Generated_Source\PSoC4/txISR.c **** {
 279:Generated_Source\PSoC4/txISR.c ****     uint32 priority;
 280:Generated_Source\PSoC4/txISR.c **** 	uint32 priorityOffset = ((txISR__INTC_NUMBER % 4u) * 8u) + 6u;
 281:Generated_Source\PSoC4/txISR.c **** 
 282:Generated_Source\PSoC4/txISR.c ****     priority = (*txISR_INTC_PRIOR & txISR__INTC_PRIOR_MASK) >> priorityOffset;
 283:Generated_Source\PSoC4/txISR.c **** 
 284:Generated_Source\PSoC4/txISR.c ****     return (uint8)priority;
 285:Generated_Source\PSoC4/txISR.c **** }
 286:Generated_Source\PSoC4/txISR.c **** 
 287:Generated_Source\PSoC4/txISR.c **** 
 288:Generated_Source\PSoC4/txISR.c **** /*******************************************************************************
 289:Generated_Source\PSoC4/txISR.c **** * Function Name: txISR_Enable
 290:Generated_Source\PSoC4/txISR.c **** ********************************************************************************
 291:Generated_Source\PSoC4/txISR.c **** *
 292:Generated_Source\PSoC4/txISR.c **** * Summary:
 293:Generated_Source\PSoC4/txISR.c **** *   Enables the interrupt to the interrupt controller. Do not call this function
 294:Generated_Source\PSoC4/txISR.c **** *   unless ISR_Start() has been called or the functionality of the ISR_Start() 
 295:Generated_Source\PSoC4/txISR.c **** *   function, which sets the vector and the priority, has been called.
 296:Generated_Source\PSoC4/txISR.c **** *
ARM GAS  C:\Users\g\AppData\Local\Temp\ccADf1Mj.s 			page 7


 297:Generated_Source\PSoC4/txISR.c **** * Parameters:
 298:Generated_Source\PSoC4/txISR.c **** *   None
 299:Generated_Source\PSoC4/txISR.c **** *
 300:Generated_Source\PSoC4/txISR.c **** * Return:
 301:Generated_Source\PSoC4/txISR.c **** *   None
 302:Generated_Source\PSoC4/txISR.c **** *
 303:Generated_Source\PSoC4/txISR.c **** *******************************************************************************/
 304:Generated_Source\PSoC4/txISR.c **** void txISR_Enable(void)
 305:Generated_Source\PSoC4/txISR.c **** {
 306:Generated_Source\PSoC4/txISR.c ****     /* Enable the general interrupt. */
 307:Generated_Source\PSoC4/txISR.c ****     *txISR_INTC_SET_EN = txISR__INTC_MASK;
 308:Generated_Source\PSoC4/txISR.c **** }
 309:Generated_Source\PSoC4/txISR.c **** 
 310:Generated_Source\PSoC4/txISR.c **** 
 311:Generated_Source\PSoC4/txISR.c **** /*******************************************************************************
 312:Generated_Source\PSoC4/txISR.c **** * Function Name: txISR_GetState
 313:Generated_Source\PSoC4/txISR.c **** ********************************************************************************
 314:Generated_Source\PSoC4/txISR.c **** *
 315:Generated_Source\PSoC4/txISR.c **** * Summary:
 316:Generated_Source\PSoC4/txISR.c **** *   Gets the state (enabled, disabled) of the Interrupt.
 317:Generated_Source\PSoC4/txISR.c **** *
 318:Generated_Source\PSoC4/txISR.c **** * Parameters:
 319:Generated_Source\PSoC4/txISR.c **** *   None
 320:Generated_Source\PSoC4/txISR.c **** *
 321:Generated_Source\PSoC4/txISR.c **** * Return:
 322:Generated_Source\PSoC4/txISR.c **** *   1 if enabled, 0 if disabled.
 323:Generated_Source\PSoC4/txISR.c **** *
 324:Generated_Source\PSoC4/txISR.c **** *******************************************************************************/
 325:Generated_Source\PSoC4/txISR.c **** uint8 txISR_GetState(void)
 326:Generated_Source\PSoC4/txISR.c **** {
 327:Generated_Source\PSoC4/txISR.c ****     /* Get the state of the general interrupt. */
 328:Generated_Source\PSoC4/txISR.c ****     return ((*txISR_INTC_SET_EN & (uint32)txISR__INTC_MASK) != 0u) ? 1u:0u;
 329:Generated_Source\PSoC4/txISR.c **** }
 330:Generated_Source\PSoC4/txISR.c **** 
 331:Generated_Source\PSoC4/txISR.c **** 
 332:Generated_Source\PSoC4/txISR.c **** /*******************************************************************************
 333:Generated_Source\PSoC4/txISR.c **** * Function Name: txISR_Disable
 334:Generated_Source\PSoC4/txISR.c **** ********************************************************************************
 335:Generated_Source\PSoC4/txISR.c **** *
 336:Generated_Source\PSoC4/txISR.c **** * Summary:
 337:Generated_Source\PSoC4/txISR.c **** *   Disables the Interrupt in the interrupt controller.
 338:Generated_Source\PSoC4/txISR.c **** *
 339:Generated_Source\PSoC4/txISR.c **** * Parameters:
 340:Generated_Source\PSoC4/txISR.c **** *   None
 341:Generated_Source\PSoC4/txISR.c **** *
 342:Generated_Source\PSoC4/txISR.c **** * Return:
 343:Generated_Source\PSoC4/txISR.c **** *   None
 344:Generated_Source\PSoC4/txISR.c **** *
 345:Generated_Source\PSoC4/txISR.c **** *******************************************************************************/
 346:Generated_Source\PSoC4/txISR.c **** void txISR_Disable(void)
 347:Generated_Source\PSoC4/txISR.c **** {
 348:Generated_Source\PSoC4/txISR.c ****     /* Disable the general interrupt. */
 349:Generated_Source\PSoC4/txISR.c ****     *txISR_INTC_CLR_EN = txISR__INTC_MASK;
  46              		.loc 1 349 0
  47 0000 0422     		mov	r2, #4
  48 0002 034B     		ldr	r3, .L3
  49              	.LBE19:
ARM GAS  C:\Users\g\AppData\Local\Temp\ccADf1Mj.s 			page 8


  50              	.LBE18:
 136:Generated_Source\PSoC4/txISR.c **** 
  51              		.loc 1 136 0
  52              		@ sp needed
  53              	.LBB21:
  54              	.LBB20:
  55              		.loc 1 349 0
  56 0004 1A60     		str	r2, [r3]
  57              	.LVL0:
  58              	.LBE20:
  59              	.LBE21:
  60              	.LBB22:
  61              	.LBB23:
 201:Generated_Source\PSoC4/txISR.c **** }
  62              		.loc 1 201 0
  63 0006 034A     		ldr	r2, .L3+4
  64 0008 034B     		ldr	r3, .L3+8
  65 000a 9A64     		str	r2, [r3, #72]
  66              	.LBE23:
  67              	.LBE22:
 136:Generated_Source\PSoC4/txISR.c **** 
  68              		.loc 1 136 0
  69 000c 7047     		bx	lr
  70              	.L4:
  71 000e C046     		.align	2
  72              	.L3:
  73 0010 80E100E0 		.word	-536813184
  74 0014 00000000 		.word	IntDefaultHandler
  75 0018 00000000 		.word	CyRamVectors
  76              		.cfi_endproc
  77              	.LFE2:
  78              		.size	txISR_Stop, .-txISR_Stop
  79              		.section	.text.txISR_SetVector,"ax",%progbits
  80              		.align	2
  81              		.global	txISR_SetVector
  82              		.code	16
  83              		.thumb_func
  84              		.type	txISR_SetVector, %function
  85              	txISR_SetVector:
  86              	.LFB4:
 200:Generated_Source\PSoC4/txISR.c ****     CyRamVectors[CYINT_IRQ_BASE + txISR__INTC_NUMBER] = address;
  87              		.loc 1 200 0
  88              		.cfi_startproc
  89              	.LVL1:
 201:Generated_Source\PSoC4/txISR.c **** }
  90              		.loc 1 201 0
  91 0000 014B     		ldr	r3, .L6
 202:Generated_Source\PSoC4/txISR.c **** 
  92              		.loc 1 202 0
  93              		@ sp needed
 201:Generated_Source\PSoC4/txISR.c **** }
  94              		.loc 1 201 0
  95 0002 9864     		str	r0, [r3, #72]
 202:Generated_Source\PSoC4/txISR.c **** 
  96              		.loc 1 202 0
  97 0004 7047     		bx	lr
  98              	.L7:
ARM GAS  C:\Users\g\AppData\Local\Temp\ccADf1Mj.s 			page 9


  99 0006 C046     		.align	2
 100              	.L6:
 101 0008 00000000 		.word	CyRamVectors
 102              		.cfi_endproc
 103              	.LFE4:
 104              		.size	txISR_SetVector, .-txISR_SetVector
 105              		.section	.text.txISR_GetVector,"ax",%progbits
 106              		.align	2
 107              		.global	txISR_GetVector
 108              		.code	16
 109              		.thumb_func
 110              		.type	txISR_GetVector, %function
 111              	txISR_GetVector:
 112              	.LFB5:
 220:Generated_Source\PSoC4/txISR.c ****     return CyRamVectors[CYINT_IRQ_BASE + txISR__INTC_NUMBER];
 113              		.loc 1 220 0
 114              		.cfi_startproc
 221:Generated_Source\PSoC4/txISR.c **** }
 115              		.loc 1 221 0
 116 0000 014B     		ldr	r3, .L9
 222:Generated_Source\PSoC4/txISR.c **** 
 117              		.loc 1 222 0
 118              		@ sp needed
 221:Generated_Source\PSoC4/txISR.c **** }
 119              		.loc 1 221 0
 120 0002 986C     		ldr	r0, [r3, #72]
 222:Generated_Source\PSoC4/txISR.c **** 
 121              		.loc 1 222 0
 122 0004 7047     		bx	lr
 123              	.L10:
 124 0006 C046     		.align	2
 125              	.L9:
 126 0008 00000000 		.word	CyRamVectors
 127              		.cfi_endproc
 128              	.LFE5:
 129              		.size	txISR_GetVector, .-txISR_GetVector
 130              		.section	.text.txISR_SetPriority,"ax",%progbits
 131              		.align	2
 132              		.global	txISR_SetPriority
 133              		.code	16
 134              		.thumb_func
 135              		.type	txISR_SetPriority, %function
 136              	txISR_SetPriority:
 137              	.LFB6:
 250:Generated_Source\PSoC4/txISR.c **** 	uint8 interruptState;
 138              		.loc 1 250 0
 139              		.cfi_startproc
 140              	.LVL2:
 141 0000 10B5     		push	{r4, lr}
 142              		.cfi_def_cfa_offset 8
 143              		.cfi_offset 4, -8
 144              		.cfi_offset 14, -4
 250:Generated_Source\PSoC4/txISR.c **** 	uint8 interruptState;
 145              		.loc 1 250 0
 146 0002 041C     		mov	r4, r0
 254:Generated_Source\PSoC4/txISR.c ****     *txISR_INTC_PRIOR = (*txISR_INTC_PRIOR & (uint32)(~txISR__INTC_PRIOR_MASK)) |
 147              		.loc 1 254 0
ARM GAS  C:\Users\g\AppData\Local\Temp\ccADf1Mj.s 			page 10


 148 0004 FFF7FEFF 		bl	CyEnterCriticalSection
 149              	.LVL3:
 255:Generated_Source\PSoC4/txISR.c ****                                     ((uint32)priority << priorityOffset);
 150              		.loc 1 255 0
 151 0008 0449     		ldr	r1, .L12
 152 000a 054A     		ldr	r2, .L12+4
 153 000c 0B68     		ldr	r3, [r1]
 256:Generated_Source\PSoC4/txISR.c **** 	CyExitCriticalSection(interruptState);
 154              		.loc 1 256 0
 155 000e A405     		lsl	r4, r4, #22
 255:Generated_Source\PSoC4/txISR.c ****                                     ((uint32)priority << priorityOffset);
 156              		.loc 1 255 0
 157 0010 1340     		and	r3, r2
 158 0012 2343     		orr	r3, r4
 159 0014 0B60     		str	r3, [r1]
 257:Generated_Source\PSoC4/txISR.c **** }
 160              		.loc 1 257 0
 161 0016 FFF7FEFF 		bl	CyExitCriticalSection
 162              	.LVL4:
 258:Generated_Source\PSoC4/txISR.c **** 
 163              		.loc 1 258 0
 164              		@ sp needed
 165 001a 10BD     		pop	{r4, pc}
 166              	.L13:
 167              		.align	2
 168              	.L12:
 169 001c 00E400E0 		.word	-536812544
 170 0020 FFFF3FFF 		.word	-12582913
 171              		.cfi_endproc
 172              	.LFE6:
 173              		.size	txISR_SetPriority, .-txISR_SetPriority
 174              		.section	.text.txISR_Start,"ax",%progbits
 175              		.align	2
 176              		.global	txISR_Start
 177              		.code	16
 178              		.thumb_func
 179              		.type	txISR_Start, %function
 180              	txISR_Start:
 181              	.LFB0:
  57:Generated_Source\PSoC4/txISR.c ****     /* For all we know the interrupt is active. */
 182              		.loc 1 57 0
 183              		.cfi_startproc
 184 0000 10B5     		push	{r4, lr}
 185              		.cfi_def_cfa_offset 8
 186              		.cfi_offset 4, -8
 187              		.cfi_offset 14, -4
 188              	.LBB24:
 189              	.LBB25:
 190              		.loc 1 349 0
 191 0002 0424     		mov	r4, #4
 192 0004 054B     		ldr	r3, .L15
 193              	.LBE25:
 194              	.LBE24:
 195              	.LBB27:
 196              	.LBB28:
 201:Generated_Source\PSoC4/txISR.c **** }
 197              		.loc 1 201 0
ARM GAS  C:\Users\g\AppData\Local\Temp\ccADf1Mj.s 			page 11


 198 0006 064A     		ldr	r2, .L15+4
 199              	.LBE28:
 200              	.LBE27:
 201              	.LBB31:
 202              	.LBB26:
 203              		.loc 1 349 0
 204 0008 1C60     		str	r4, [r3]
 205              	.LVL5:
 206              	.LBE26:
 207              	.LBE31:
 208              	.LBB32:
 209              	.LBB29:
 201:Generated_Source\PSoC4/txISR.c **** }
 210              		.loc 1 201 0
 211 000a 064B     		ldr	r3, .L15+8
 212              	.LBE29:
 213              	.LBE32:
  65:Generated_Source\PSoC4/txISR.c **** 
 214              		.loc 1 65 0
 215 000c 0220     		mov	r0, #2
 216              	.LBB33:
 217              	.LBB30:
 201:Generated_Source\PSoC4/txISR.c **** }
 218              		.loc 1 201 0
 219 000e 9A64     		str	r2, [r3, #72]
 220              	.LBE30:
 221              	.LBE33:
  65:Generated_Source\PSoC4/txISR.c **** 
 222              		.loc 1 65 0
 223 0010 FFF7FEFF 		bl	txISR_SetPriority
 224              	.LVL6:
 225              	.LBB34:
 226              	.LBB35:
 307:Generated_Source\PSoC4/txISR.c **** }
 227              		.loc 1 307 0
 228 0014 044B     		ldr	r3, .L15+12
 229              	.LBE35:
 230              	.LBE34:
  69:Generated_Source\PSoC4/txISR.c **** 
 231              		.loc 1 69 0
 232              		@ sp needed
 233              	.LBB37:
 234              	.LBB36:
 307:Generated_Source\PSoC4/txISR.c **** }
 235              		.loc 1 307 0
 236 0016 1C60     		str	r4, [r3]
 237              	.LBE36:
 238              	.LBE37:
  69:Generated_Source\PSoC4/txISR.c **** 
 239              		.loc 1 69 0
 240 0018 10BD     		pop	{r4, pc}
 241              	.L16:
 242 001a C046     		.align	2
 243              	.L15:
 244 001c 80E100E0 		.word	-536813184
 245 0020 00000000 		.word	txISR_Interrupt
 246 0024 00000000 		.word	CyRamVectors
ARM GAS  C:\Users\g\AppData\Local\Temp\ccADf1Mj.s 			page 12


 247 0028 00E100E0 		.word	-536813312
 248              		.cfi_endproc
 249              	.LFE0:
 250              		.size	txISR_Start, .-txISR_Start
 251              		.section	.text.txISR_StartEx,"ax",%progbits
 252              		.align	2
 253              		.global	txISR_StartEx
 254              		.code	16
 255              		.thumb_func
 256              		.type	txISR_StartEx, %function
 257              	txISR_StartEx:
 258              	.LFB1:
 100:Generated_Source\PSoC4/txISR.c ****     /* For all we know the interrupt is active. */
 259              		.loc 1 100 0
 260              		.cfi_startproc
 261              	.LVL7:
 262 0000 10B5     		push	{r4, lr}
 263              		.cfi_def_cfa_offset 8
 264              		.cfi_offset 4, -8
 265              		.cfi_offset 14, -4
 266              	.LBB38:
 267              	.LBB39:
 268              		.loc 1 349 0
 269 0002 0424     		mov	r4, #4
 270 0004 044B     		ldr	r3, .L18
 271              	.LBE39:
 272              	.LBE38:
 112:Generated_Source\PSoC4/txISR.c **** 
 273              		.loc 1 112 0
 274              		@ sp needed
 275              	.LBB41:
 276              	.LBB40:
 277              		.loc 1 349 0
 278 0006 1C60     		str	r4, [r3]
 279              	.LVL8:
 280              	.LBE40:
 281              	.LBE41:
 282              	.LBB42:
 283              	.LBB43:
 201:Generated_Source\PSoC4/txISR.c **** }
 284              		.loc 1 201 0
 285 0008 044B     		ldr	r3, .L18+4
 286 000a 9864     		str	r0, [r3, #72]
 287              	.LBE43:
 288              	.LBE42:
 108:Generated_Source\PSoC4/txISR.c **** 
 289              		.loc 1 108 0
 290 000c 0220     		mov	r0, #2
 291              	.LVL9:
 292 000e FFF7FEFF 		bl	txISR_SetPriority
 293              	.LVL10:
 294              	.LBB44:
 295              	.LBB45:
 307:Generated_Source\PSoC4/txISR.c **** }
 296              		.loc 1 307 0
 297 0012 034B     		ldr	r3, .L18+8
 298 0014 1C60     		str	r4, [r3]
ARM GAS  C:\Users\g\AppData\Local\Temp\ccADf1Mj.s 			page 13


 299              	.LBE45:
 300              	.LBE44:
 112:Generated_Source\PSoC4/txISR.c **** 
 301              		.loc 1 112 0
 302 0016 10BD     		pop	{r4, pc}
 303              	.L19:
 304              		.align	2
 305              	.L18:
 306 0018 80E100E0 		.word	-536813184
 307 001c 00000000 		.word	CyRamVectors
 308 0020 00E100E0 		.word	-536813312
 309              		.cfi_endproc
 310              	.LFE1:
 311              		.size	txISR_StartEx, .-txISR_StartEx
 312              		.section	.text.txISR_GetPriority,"ax",%progbits
 313              		.align	2
 314              		.global	txISR_GetPriority
 315              		.code	16
 316              		.thumb_func
 317              		.type	txISR_GetPriority, %function
 318              	txISR_GetPriority:
 319              	.LFB7:
 278:Generated_Source\PSoC4/txISR.c ****     uint32 priority;
 320              		.loc 1 278 0
 321              		.cfi_startproc
 322              	.LVL11:
 282:Generated_Source\PSoC4/txISR.c **** 
 323              		.loc 1 282 0
 324 0000 024B     		ldr	r3, .L21
 285:Generated_Source\PSoC4/txISR.c **** 
 325              		.loc 1 285 0
 326              		@ sp needed
 282:Generated_Source\PSoC4/txISR.c **** 
 327              		.loc 1 282 0
 328 0002 1868     		ldr	r0, [r3]
 329              	.LVL12:
 330 0004 0002     		lsl	r0, r0, #8
 331              	.LVL13:
 284:Generated_Source\PSoC4/txISR.c **** }
 332              		.loc 1 284 0
 333 0006 800F     		lsr	r0, r0, #30
 285:Generated_Source\PSoC4/txISR.c **** 
 334              		.loc 1 285 0
 335 0008 7047     		bx	lr
 336              	.L22:
 337 000a C046     		.align	2
 338              	.L21:
 339 000c 00E400E0 		.word	-536812544
 340              		.cfi_endproc
 341              	.LFE7:
 342              		.size	txISR_GetPriority, .-txISR_GetPriority
 343              		.section	.text.txISR_Enable,"ax",%progbits
 344              		.align	2
 345              		.global	txISR_Enable
 346              		.code	16
 347              		.thumb_func
 348              		.type	txISR_Enable, %function
ARM GAS  C:\Users\g\AppData\Local\Temp\ccADf1Mj.s 			page 14


 349              	txISR_Enable:
 350              	.LFB8:
 305:Generated_Source\PSoC4/txISR.c ****     /* Enable the general interrupt. */
 351              		.loc 1 305 0
 352              		.cfi_startproc
 307:Generated_Source\PSoC4/txISR.c **** }
 353              		.loc 1 307 0
 354 0000 0422     		mov	r2, #4
 355 0002 014B     		ldr	r3, .L24
 308:Generated_Source\PSoC4/txISR.c **** 
 356              		.loc 1 308 0
 357              		@ sp needed
 307:Generated_Source\PSoC4/txISR.c **** }
 358              		.loc 1 307 0
 359 0004 1A60     		str	r2, [r3]
 308:Generated_Source\PSoC4/txISR.c **** 
 360              		.loc 1 308 0
 361 0006 7047     		bx	lr
 362              	.L25:
 363              		.align	2
 364              	.L24:
 365 0008 00E100E0 		.word	-536813312
 366              		.cfi_endproc
 367              	.LFE8:
 368              		.size	txISR_Enable, .-txISR_Enable
 369              		.section	.text.txISR_GetState,"ax",%progbits
 370              		.align	2
 371              		.global	txISR_GetState
 372              		.code	16
 373              		.thumb_func
 374              		.type	txISR_GetState, %function
 375              	txISR_GetState:
 376              	.LFB9:
 326:Generated_Source\PSoC4/txISR.c ****     /* Get the state of the general interrupt. */
 377              		.loc 1 326 0
 378              		.cfi_startproc
 328:Generated_Source\PSoC4/txISR.c **** }
 379              		.loc 1 328 0
 380 0000 024B     		ldr	r3, .L27
 329:Generated_Source\PSoC4/txISR.c **** 
 381              		.loc 1 329 0
 382              		@ sp needed
 328:Generated_Source\PSoC4/txISR.c **** }
 383              		.loc 1 328 0
 384 0002 1868     		ldr	r0, [r3]
 385 0004 4007     		lsl	r0, r0, #29
 386 0006 C00F     		lsr	r0, r0, #31
 329:Generated_Source\PSoC4/txISR.c **** 
 387              		.loc 1 329 0
 388 0008 7047     		bx	lr
 389              	.L28:
 390 000a C046     		.align	2
 391              	.L27:
 392 000c 00E100E0 		.word	-536813312
 393              		.cfi_endproc
 394              	.LFE9:
 395              		.size	txISR_GetState, .-txISR_GetState
ARM GAS  C:\Users\g\AppData\Local\Temp\ccADf1Mj.s 			page 15


 396              		.section	.text.txISR_Disable,"ax",%progbits
 397              		.align	2
 398              		.global	txISR_Disable
 399              		.code	16
 400              		.thumb_func
 401              		.type	txISR_Disable, %function
 402              	txISR_Disable:
 403              	.LFB10:
 347:Generated_Source\PSoC4/txISR.c ****     /* Disable the general interrupt. */
 404              		.loc 1 347 0
 405              		.cfi_startproc
 406              		.loc 1 349 0
 407 0000 0422     		mov	r2, #4
 408 0002 014B     		ldr	r3, .L30
 350:Generated_Source\PSoC4/txISR.c **** }
 409              		.loc 1 350 0
 410              		@ sp needed
 349:Generated_Source\PSoC4/txISR.c **** }
 411              		.loc 1 349 0
 412 0004 1A60     		str	r2, [r3]
 413              		.loc 1 350 0
 414 0006 7047     		bx	lr
 415              	.L31:
 416              		.align	2
 417              	.L30:
 418 0008 80E100E0 		.word	-536813184
 419              		.cfi_endproc
 420              	.LFE10:
 421              		.size	txISR_Disable, .-txISR_Disable
 422              		.section	.text.txISR_SetPending,"ax",%progbits
 423              		.align	2
 424              		.global	txISR_SetPending
 425              		.code	16
 426              		.thumb_func
 427              		.type	txISR_SetPending, %function
 428              	txISR_SetPending:
 429              	.LFB11:
 351:Generated_Source\PSoC4/txISR.c **** 
 352:Generated_Source\PSoC4/txISR.c **** 
 353:Generated_Source\PSoC4/txISR.c **** /*******************************************************************************
 354:Generated_Source\PSoC4/txISR.c **** * Function Name: txISR_SetPending
 355:Generated_Source\PSoC4/txISR.c **** ********************************************************************************
 356:Generated_Source\PSoC4/txISR.c **** *
 357:Generated_Source\PSoC4/txISR.c **** * Summary:
 358:Generated_Source\PSoC4/txISR.c **** *   Causes the Interrupt to enter the pending state, a software method of
 359:Generated_Source\PSoC4/txISR.c **** *   generating the interrupt.
 360:Generated_Source\PSoC4/txISR.c **** *
 361:Generated_Source\PSoC4/txISR.c **** * Parameters:
 362:Generated_Source\PSoC4/txISR.c **** *   None
 363:Generated_Source\PSoC4/txISR.c **** *
 364:Generated_Source\PSoC4/txISR.c **** * Return:
 365:Generated_Source\PSoC4/txISR.c **** *   None
 366:Generated_Source\PSoC4/txISR.c **** *
 367:Generated_Source\PSoC4/txISR.c **** * Side Effects:
 368:Generated_Source\PSoC4/txISR.c **** *   If interrupts are enabled and the interrupt is set up properly, the ISR is
 369:Generated_Source\PSoC4/txISR.c **** *   entered (depending on the priority of this interrupt and other pending 
 370:Generated_Source\PSoC4/txISR.c **** *   interrupts).
ARM GAS  C:\Users\g\AppData\Local\Temp\ccADf1Mj.s 			page 16


 371:Generated_Source\PSoC4/txISR.c **** *
 372:Generated_Source\PSoC4/txISR.c **** *******************************************************************************/
 373:Generated_Source\PSoC4/txISR.c **** void txISR_SetPending(void)
 374:Generated_Source\PSoC4/txISR.c **** {
 430              		.loc 1 374 0
 431              		.cfi_startproc
 375:Generated_Source\PSoC4/txISR.c ****     *txISR_INTC_SET_PD = txISR__INTC_MASK;
 432              		.loc 1 375 0
 433 0000 0422     		mov	r2, #4
 434 0002 014B     		ldr	r3, .L33
 376:Generated_Source\PSoC4/txISR.c **** }
 435              		.loc 1 376 0
 436              		@ sp needed
 375:Generated_Source\PSoC4/txISR.c ****     *txISR_INTC_SET_PD = txISR__INTC_MASK;
 437              		.loc 1 375 0
 438 0004 1A60     		str	r2, [r3]
 439              		.loc 1 376 0
 440 0006 7047     		bx	lr
 441              	.L34:
 442              		.align	2
 443              	.L33:
 444 0008 00E200E0 		.word	-536813056
 445              		.cfi_endproc
 446              	.LFE11:
 447              		.size	txISR_SetPending, .-txISR_SetPending
 448              		.section	.text.txISR_ClearPending,"ax",%progbits
 449              		.align	2
 450              		.global	txISR_ClearPending
 451              		.code	16
 452              		.thumb_func
 453              		.type	txISR_ClearPending, %function
 454              	txISR_ClearPending:
 455              	.LFB12:
 377:Generated_Source\PSoC4/txISR.c **** 
 378:Generated_Source\PSoC4/txISR.c **** 
 379:Generated_Source\PSoC4/txISR.c **** /*******************************************************************************
 380:Generated_Source\PSoC4/txISR.c **** * Function Name: txISR_ClearPending
 381:Generated_Source\PSoC4/txISR.c **** ********************************************************************************
 382:Generated_Source\PSoC4/txISR.c **** *
 383:Generated_Source\PSoC4/txISR.c **** * Summary:
 384:Generated_Source\PSoC4/txISR.c **** *   Clears a pending interrupt in the interrupt controller.
 385:Generated_Source\PSoC4/txISR.c **** *
 386:Generated_Source\PSoC4/txISR.c **** *   Note Some interrupt sources are clear-on-read and require the block 
 387:Generated_Source\PSoC4/txISR.c **** *   interrupt/status register to be read/cleared with the appropriate block API 
 388:Generated_Source\PSoC4/txISR.c **** *   (GPIO, UART, and so on). Otherwise the ISR will continue to remain in 
 389:Generated_Source\PSoC4/txISR.c **** *   pending state even though the interrupt itself is cleared using this API.
 390:Generated_Source\PSoC4/txISR.c **** *
 391:Generated_Source\PSoC4/txISR.c **** * Parameters:
 392:Generated_Source\PSoC4/txISR.c **** *   None
 393:Generated_Source\PSoC4/txISR.c **** *
 394:Generated_Source\PSoC4/txISR.c **** * Return:
 395:Generated_Source\PSoC4/txISR.c **** *   None
 396:Generated_Source\PSoC4/txISR.c **** *
 397:Generated_Source\PSoC4/txISR.c **** *******************************************************************************/
 398:Generated_Source\PSoC4/txISR.c **** void txISR_ClearPending(void)
 399:Generated_Source\PSoC4/txISR.c **** {
 456              		.loc 1 399 0
ARM GAS  C:\Users\g\AppData\Local\Temp\ccADf1Mj.s 			page 17


 457              		.cfi_startproc
 400:Generated_Source\PSoC4/txISR.c ****     *txISR_INTC_CLR_PD = txISR__INTC_MASK;
 458              		.loc 1 400 0
 459 0000 0422     		mov	r2, #4
 460 0002 014B     		ldr	r3, .L36
 401:Generated_Source\PSoC4/txISR.c **** }
 461              		.loc 1 401 0
 462              		@ sp needed
 400:Generated_Source\PSoC4/txISR.c ****     *txISR_INTC_CLR_PD = txISR__INTC_MASK;
 463              		.loc 1 400 0
 464 0004 1A60     		str	r2, [r3]
 465              		.loc 1 401 0
 466 0006 7047     		bx	lr
 467              	.L37:
 468              		.align	2
 469              	.L36:
 470 0008 80E200E0 		.word	-536812928
 471              		.cfi_endproc
 472              	.LFE12:
 473              		.size	txISR_ClearPending, .-txISR_ClearPending
 474              		.text
 475              	.Letext0:
 476              		.file 2 "Generated_Source\\PSoC4/cytypes.h"
 477              		.file 3 "Generated_Source\\PSoC4/CyLib.h"