ARM GAS  C:\Users\ottor\AppData\Local\Temp\ccqwhicm.s 			page 1


   1              		.syntax unified
   2              		.cpu cortex-m0
   3              		.fpu softvfp
   4              		.eabi_attribute 20, 1
   5              		.eabi_attribute 21, 1
   6              		.eabi_attribute 23, 3
   7              		.eabi_attribute 24, 1
   8              		.eabi_attribute 25, 1
   9              		.eabi_attribute 26, 1
  10              		.eabi_attribute 30, 1
  11              		.eabi_attribute 34, 0
  12              		.eabi_attribute 18, 4
  13              		.thumb
  14              		.syntax unified
  15              		.file	"Clock_1.c"
  16              		.text
  17              	.Ltext0:
  18              		.cfi_sections	.debug_frame
  19              		.section	.text.Clock_1_Start,"ax",%progbits
  20              		.align	2
  21              		.global	Clock_1_Start
  22              		.code	16
  23              		.thumb_func
  24              		.type	Clock_1_Start, %function
  25              	Clock_1_Start:
  26              	.LFB0:
  27              		.file 1 "Generated_Source\\PSoC4\\Clock_1.c"
   1:Generated_Source\PSoC4/Clock_1.c **** /*******************************************************************************
   2:Generated_Source\PSoC4/Clock_1.c **** * File Name: Clock_1.c
   3:Generated_Source\PSoC4/Clock_1.c **** * Version 2.20
   4:Generated_Source\PSoC4/Clock_1.c **** *
   5:Generated_Source\PSoC4/Clock_1.c **** *  Description:
   6:Generated_Source\PSoC4/Clock_1.c **** *   Provides system API for the clocking, interrupts and watchdog timer.
   7:Generated_Source\PSoC4/Clock_1.c **** *
   8:Generated_Source\PSoC4/Clock_1.c **** *  Note:
   9:Generated_Source\PSoC4/Clock_1.c **** *   Documentation of the API's in this file is located in the
  10:Generated_Source\PSoC4/Clock_1.c **** *   System Reference Guide provided with PSoC Creator.
  11:Generated_Source\PSoC4/Clock_1.c **** *
  12:Generated_Source\PSoC4/Clock_1.c **** ********************************************************************************
  13:Generated_Source\PSoC4/Clock_1.c **** * Copyright 2008-2012, Cypress Semiconductor Corporation.  All rights reserved.
  14:Generated_Source\PSoC4/Clock_1.c **** * You may use this file only in accordance with the license, terms, conditions,
  15:Generated_Source\PSoC4/Clock_1.c **** * disclaimers, and limitations in the end user license agreement accompanying
  16:Generated_Source\PSoC4/Clock_1.c **** * the software package with which this file was provided.
  17:Generated_Source\PSoC4/Clock_1.c **** *******************************************************************************/
  18:Generated_Source\PSoC4/Clock_1.c **** 
  19:Generated_Source\PSoC4/Clock_1.c **** #include <cydevice_trm.h>
  20:Generated_Source\PSoC4/Clock_1.c **** #include "Clock_1.h"
  21:Generated_Source\PSoC4/Clock_1.c **** 
  22:Generated_Source\PSoC4/Clock_1.c **** #if defined CYREG_PERI_DIV_CMD
  23:Generated_Source\PSoC4/Clock_1.c **** 
  24:Generated_Source\PSoC4/Clock_1.c **** /*******************************************************************************
  25:Generated_Source\PSoC4/Clock_1.c **** * Function Name: Clock_1_StartEx
  26:Generated_Source\PSoC4/Clock_1.c **** ********************************************************************************
  27:Generated_Source\PSoC4/Clock_1.c **** *
  28:Generated_Source\PSoC4/Clock_1.c **** * Summary:
  29:Generated_Source\PSoC4/Clock_1.c **** *  Starts the clock, aligned to the specified running clock.
  30:Generated_Source\PSoC4/Clock_1.c **** *
ARM GAS  C:\Users\ottor\AppData\Local\Temp\ccqwhicm.s 			page 2


  31:Generated_Source\PSoC4/Clock_1.c **** * Parameters:
  32:Generated_Source\PSoC4/Clock_1.c **** *  alignClkDiv:  The divider to which phase alignment is performed when the
  33:Generated_Source\PSoC4/Clock_1.c **** *    clock is started.
  34:Generated_Source\PSoC4/Clock_1.c **** *
  35:Generated_Source\PSoC4/Clock_1.c **** * Returns:
  36:Generated_Source\PSoC4/Clock_1.c **** *  None
  37:Generated_Source\PSoC4/Clock_1.c **** *
  38:Generated_Source\PSoC4/Clock_1.c **** *******************************************************************************/
  39:Generated_Source\PSoC4/Clock_1.c **** void Clock_1_StartEx(uint32 alignClkDiv)
  40:Generated_Source\PSoC4/Clock_1.c **** {
  41:Generated_Source\PSoC4/Clock_1.c ****     /* Make sure any previous start command has finished. */
  42:Generated_Source\PSoC4/Clock_1.c ****     while((Clock_1_CMD_REG & Clock_1_CMD_ENABLE_MASK) != 0u)
  43:Generated_Source\PSoC4/Clock_1.c ****     {
  44:Generated_Source\PSoC4/Clock_1.c ****     }
  45:Generated_Source\PSoC4/Clock_1.c ****     
  46:Generated_Source\PSoC4/Clock_1.c ****     /* Specify the target divider and it's alignment divider, and enable. */
  47:Generated_Source\PSoC4/Clock_1.c ****     Clock_1_CMD_REG =
  48:Generated_Source\PSoC4/Clock_1.c ****         ((uint32)Clock_1__DIV_ID << Clock_1_CMD_DIV_SHIFT)|
  49:Generated_Source\PSoC4/Clock_1.c ****         (alignClkDiv << Clock_1_CMD_PA_DIV_SHIFT) |
  50:Generated_Source\PSoC4/Clock_1.c ****         (uint32)Clock_1_CMD_ENABLE_MASK;
  51:Generated_Source\PSoC4/Clock_1.c **** }
  52:Generated_Source\PSoC4/Clock_1.c **** 
  53:Generated_Source\PSoC4/Clock_1.c **** #else
  54:Generated_Source\PSoC4/Clock_1.c **** 
  55:Generated_Source\PSoC4/Clock_1.c **** /*******************************************************************************
  56:Generated_Source\PSoC4/Clock_1.c **** * Function Name: Clock_1_Start
  57:Generated_Source\PSoC4/Clock_1.c **** ********************************************************************************
  58:Generated_Source\PSoC4/Clock_1.c **** *
  59:Generated_Source\PSoC4/Clock_1.c **** * Summary:
  60:Generated_Source\PSoC4/Clock_1.c **** *  Starts the clock.
  61:Generated_Source\PSoC4/Clock_1.c **** *
  62:Generated_Source\PSoC4/Clock_1.c **** * Parameters:
  63:Generated_Source\PSoC4/Clock_1.c **** *  None
  64:Generated_Source\PSoC4/Clock_1.c **** *
  65:Generated_Source\PSoC4/Clock_1.c **** * Returns:
  66:Generated_Source\PSoC4/Clock_1.c **** *  None
  67:Generated_Source\PSoC4/Clock_1.c **** *
  68:Generated_Source\PSoC4/Clock_1.c **** *******************************************************************************/
  69:Generated_Source\PSoC4/Clock_1.c **** 
  70:Generated_Source\PSoC4/Clock_1.c **** void Clock_1_Start(void)
  71:Generated_Source\PSoC4/Clock_1.c **** {
  28              		.loc 1 71 0
  29              		.cfi_startproc
  30              		@ args = 0, pretend = 0, frame = 0
  31              		@ frame_needed = 0, uses_anonymous_args = 0
  32              		@ link register save eliminated.
  72:Generated_Source\PSoC4/Clock_1.c ****     /* Set the bit to enable the clock. */
  73:Generated_Source\PSoC4/Clock_1.c ****     Clock_1_ENABLE_REG |= Clock_1__ENABLE_MASK;
  33              		.loc 1 73 0
  34 0000 034A     		ldr	r2, .L2
  35 0002 1368     		ldr	r3, [r2]
  36 0004 8021     		movs	r1, #128
  37 0006 0906     		lsls	r1, r1, #24
  38 0008 0B43     		orrs	r3, r1
  39 000a 1360     		str	r3, [r2]
  74:Generated_Source\PSoC4/Clock_1.c **** }
  40              		.loc 1 74 0
ARM GAS  C:\Users\ottor\AppData\Local\Temp\ccqwhicm.s 			page 3


  41              		@ sp needed
  42 000c 7047     		bx	lr
  43              	.L3:
  44 000e C046     		.align	2
  45              	.L2:
  46 0010 00000240 		.word	1073872896
  47              		.cfi_endproc
  48              	.LFE0:
  49              		.size	Clock_1_Start, .-Clock_1_Start
  50              		.section	.text.Clock_1_Stop,"ax",%progbits
  51              		.align	2
  52              		.global	Clock_1_Stop
  53              		.code	16
  54              		.thumb_func
  55              		.type	Clock_1_Stop, %function
  56              	Clock_1_Stop:
  57              	.LFB1:
  75:Generated_Source\PSoC4/Clock_1.c **** 
  76:Generated_Source\PSoC4/Clock_1.c **** #endif /* CYREG_PERI_DIV_CMD */
  77:Generated_Source\PSoC4/Clock_1.c **** 
  78:Generated_Source\PSoC4/Clock_1.c **** 
  79:Generated_Source\PSoC4/Clock_1.c **** /*******************************************************************************
  80:Generated_Source\PSoC4/Clock_1.c **** * Function Name: Clock_1_Stop
  81:Generated_Source\PSoC4/Clock_1.c **** ********************************************************************************
  82:Generated_Source\PSoC4/Clock_1.c **** *
  83:Generated_Source\PSoC4/Clock_1.c **** * Summary:
  84:Generated_Source\PSoC4/Clock_1.c **** *  Stops the clock and returns immediately. This API does not require the
  85:Generated_Source\PSoC4/Clock_1.c **** *  source clock to be running but may return before the hardware is actually
  86:Generated_Source\PSoC4/Clock_1.c **** *  disabled.
  87:Generated_Source\PSoC4/Clock_1.c **** *
  88:Generated_Source\PSoC4/Clock_1.c **** * Parameters:
  89:Generated_Source\PSoC4/Clock_1.c **** *  None
  90:Generated_Source\PSoC4/Clock_1.c **** *
  91:Generated_Source\PSoC4/Clock_1.c **** * Returns:
  92:Generated_Source\PSoC4/Clock_1.c **** *  None
  93:Generated_Source\PSoC4/Clock_1.c **** *
  94:Generated_Source\PSoC4/Clock_1.c **** *******************************************************************************/
  95:Generated_Source\PSoC4/Clock_1.c **** void Clock_1_Stop(void)
  96:Generated_Source\PSoC4/Clock_1.c **** {
  58              		.loc 1 96 0
  59              		.cfi_startproc
  60              		@ args = 0, pretend = 0, frame = 0
  61              		@ frame_needed = 0, uses_anonymous_args = 0
  62              		@ link register save eliminated.
  97:Generated_Source\PSoC4/Clock_1.c **** #if defined CYREG_PERI_DIV_CMD
  98:Generated_Source\PSoC4/Clock_1.c **** 
  99:Generated_Source\PSoC4/Clock_1.c ****     /* Make sure any previous start command has finished. */
 100:Generated_Source\PSoC4/Clock_1.c ****     while((Clock_1_CMD_REG & Clock_1_CMD_ENABLE_MASK) != 0u)
 101:Generated_Source\PSoC4/Clock_1.c ****     {
 102:Generated_Source\PSoC4/Clock_1.c ****     }
 103:Generated_Source\PSoC4/Clock_1.c ****     
 104:Generated_Source\PSoC4/Clock_1.c ****     /* Specify the target divider and it's alignment divider, and disable. */
 105:Generated_Source\PSoC4/Clock_1.c ****     Clock_1_CMD_REG =
 106:Generated_Source\PSoC4/Clock_1.c ****         ((uint32)Clock_1__DIV_ID << Clock_1_CMD_DIV_SHIFT)|
 107:Generated_Source\PSoC4/Clock_1.c ****         ((uint32)Clock_1_CMD_DISABLE_MASK);
 108:Generated_Source\PSoC4/Clock_1.c **** 
 109:Generated_Source\PSoC4/Clock_1.c **** #else
ARM GAS  C:\Users\ottor\AppData\Local\Temp\ccqwhicm.s 			page 4


 110:Generated_Source\PSoC4/Clock_1.c **** 
 111:Generated_Source\PSoC4/Clock_1.c ****     /* Clear the bit to disable the clock. */
 112:Generated_Source\PSoC4/Clock_1.c ****     Clock_1_ENABLE_REG &= (uint32)(~Clock_1__ENABLE_MASK);
  63              		.loc 1 112 0
  64 0000 024A     		ldr	r2, .L5
  65 0002 1368     		ldr	r3, [r2]
  66 0004 5B00     		lsls	r3, r3, #1
  67 0006 5B08     		lsrs	r3, r3, #1
  68 0008 1360     		str	r3, [r2]
 113:Generated_Source\PSoC4/Clock_1.c ****     
 114:Generated_Source\PSoC4/Clock_1.c **** #endif /* CYREG_PERI_DIV_CMD */
 115:Generated_Source\PSoC4/Clock_1.c **** }
  69              		.loc 1 115 0
  70              		@ sp needed
  71 000a 7047     		bx	lr
  72              	.L6:
  73              		.align	2
  74              	.L5:
  75 000c 00000240 		.word	1073872896
  76              		.cfi_endproc
  77              	.LFE1:
  78              		.size	Clock_1_Stop, .-Clock_1_Stop
  79              		.section	.text.Clock_1_SetFractionalDividerRegister,"ax",%progbits
  80              		.align	2
  81              		.global	Clock_1_SetFractionalDividerRegister
  82              		.code	16
  83              		.thumb_func
  84              		.type	Clock_1_SetFractionalDividerRegister, %function
  85              	Clock_1_SetFractionalDividerRegister:
  86              	.LFB2:
 116:Generated_Source\PSoC4/Clock_1.c **** 
 117:Generated_Source\PSoC4/Clock_1.c **** 
 118:Generated_Source\PSoC4/Clock_1.c **** /*******************************************************************************
 119:Generated_Source\PSoC4/Clock_1.c **** * Function Name: Clock_1_SetFractionalDividerRegister
 120:Generated_Source\PSoC4/Clock_1.c **** ********************************************************************************
 121:Generated_Source\PSoC4/Clock_1.c **** *
 122:Generated_Source\PSoC4/Clock_1.c **** * Summary:
 123:Generated_Source\PSoC4/Clock_1.c **** *  Modifies the clock divider and the fractional divider.
 124:Generated_Source\PSoC4/Clock_1.c **** *
 125:Generated_Source\PSoC4/Clock_1.c **** * Parameters:
 126:Generated_Source\PSoC4/Clock_1.c **** *  clkDivider:  Divider register value (0-65535). This value is NOT the
 127:Generated_Source\PSoC4/Clock_1.c **** *    divider; the clock hardware divides by clkDivider plus one. For example,
 128:Generated_Source\PSoC4/Clock_1.c **** *    to divide the clock by 2, this parameter should be set to 1.
 129:Generated_Source\PSoC4/Clock_1.c **** *  fracDivider:  Fractional Divider register value (0-31).
 130:Generated_Source\PSoC4/Clock_1.c **** * Returns:
 131:Generated_Source\PSoC4/Clock_1.c **** *  None
 132:Generated_Source\PSoC4/Clock_1.c **** *
 133:Generated_Source\PSoC4/Clock_1.c **** *******************************************************************************/
 134:Generated_Source\PSoC4/Clock_1.c **** void Clock_1_SetFractionalDividerRegister(uint16 clkDivider, uint8 clkFractional)
 135:Generated_Source\PSoC4/Clock_1.c **** {
  87              		.loc 1 135 0
  88              		.cfi_startproc
  89              		@ args = 0, pretend = 0, frame = 0
  90              		@ frame_needed = 0, uses_anonymous_args = 0
  91              		@ link register save eliminated.
  92              	.LVL0:
 136:Generated_Source\PSoC4/Clock_1.c ****     uint32 maskVal;
ARM GAS  C:\Users\ottor\AppData\Local\Temp\ccqwhicm.s 			page 5


 137:Generated_Source\PSoC4/Clock_1.c ****     uint32 regVal;
 138:Generated_Source\PSoC4/Clock_1.c ****     
 139:Generated_Source\PSoC4/Clock_1.c **** #if defined (Clock_1__FRAC_MASK) || defined (CYREG_PERI_DIV_CMD)
 140:Generated_Source\PSoC4/Clock_1.c ****     
 141:Generated_Source\PSoC4/Clock_1.c **** 	/* get all but divider bits */
 142:Generated_Source\PSoC4/Clock_1.c ****     maskVal = Clock_1_DIV_REG & 
 143:Generated_Source\PSoC4/Clock_1.c ****                     (uint32)(~(uint32)(Clock_1_DIV_INT_MASK | Clock_1_DIV_FRAC_MASK)); 
 144:Generated_Source\PSoC4/Clock_1.c **** 	/* combine mask and new divider vals into 32-bit value */
 145:Generated_Source\PSoC4/Clock_1.c ****     regVal = maskVal |
 146:Generated_Source\PSoC4/Clock_1.c ****         ((uint32)((uint32)clkDivider <<  Clock_1_DIV_INT_SHIFT) & Clock_1_DIV_INT_MASK) |
 147:Generated_Source\PSoC4/Clock_1.c ****         ((uint32)((uint32)clkFractional << Clock_1_DIV_FRAC_SHIFT) & Clock_1_DIV_FRAC_MASK);
 148:Generated_Source\PSoC4/Clock_1.c ****     
 149:Generated_Source\PSoC4/Clock_1.c **** #else
 150:Generated_Source\PSoC4/Clock_1.c ****     /* get all but integer divider bits */
 151:Generated_Source\PSoC4/Clock_1.c ****     maskVal = Clock_1_DIV_REG & (uint32)(~(uint32)Clock_1__DIVIDER_MASK);
  93              		.loc 1 151 0
  94 0000 034A     		ldr	r2, .L8
  95 0002 1368     		ldr	r3, [r2]
  96 0004 1B0C     		lsrs	r3, r3, #16
  97 0006 1B04     		lsls	r3, r3, #16
  98              	.LVL1:
 152:Generated_Source\PSoC4/Clock_1.c ****     /* combine mask and new divider val into 32-bit value */
 153:Generated_Source\PSoC4/Clock_1.c ****     regVal = clkDivider | maskVal;
  99              		.loc 1 153 0
 100 0008 0343     		orrs	r3, r0
 101              	.LVL2:
 154:Generated_Source\PSoC4/Clock_1.c ****     
 155:Generated_Source\PSoC4/Clock_1.c **** #endif /* Clock_1__FRAC_MASK || CYREG_PERI_DIV_CMD */
 156:Generated_Source\PSoC4/Clock_1.c **** 
 157:Generated_Source\PSoC4/Clock_1.c ****     Clock_1_DIV_REG = regVal;
 102              		.loc 1 157 0
 103 000a 1360     		str	r3, [r2]
 158:Generated_Source\PSoC4/Clock_1.c **** }
 104              		.loc 1 158 0
 105              		@ sp needed
 106 000c 7047     		bx	lr
 107              	.L9:
 108 000e C046     		.align	2
 109              	.L8:
 110 0010 00000240 		.word	1073872896
 111              		.cfi_endproc
 112              	.LFE2:
 113              		.size	Clock_1_SetFractionalDividerRegister, .-Clock_1_SetFractionalDividerRegister
 114              		.section	.text.Clock_1_GetDividerRegister,"ax",%progbits
 115              		.align	2
 116              		.global	Clock_1_GetDividerRegister
 117              		.code	16
 118              		.thumb_func
 119              		.type	Clock_1_GetDividerRegister, %function
 120              	Clock_1_GetDividerRegister:
 121              	.LFB3:
 159:Generated_Source\PSoC4/Clock_1.c **** 
 160:Generated_Source\PSoC4/Clock_1.c **** 
 161:Generated_Source\PSoC4/Clock_1.c **** /*******************************************************************************
 162:Generated_Source\PSoC4/Clock_1.c **** * Function Name: Clock_1_GetDividerRegister
 163:Generated_Source\PSoC4/Clock_1.c **** ********************************************************************************
 164:Generated_Source\PSoC4/Clock_1.c **** *
ARM GAS  C:\Users\ottor\AppData\Local\Temp\ccqwhicm.s 			page 6


 165:Generated_Source\PSoC4/Clock_1.c **** * Summary:
 166:Generated_Source\PSoC4/Clock_1.c **** *  Gets the clock divider register value.
 167:Generated_Source\PSoC4/Clock_1.c **** *
 168:Generated_Source\PSoC4/Clock_1.c **** * Parameters:
 169:Generated_Source\PSoC4/Clock_1.c **** *  None
 170:Generated_Source\PSoC4/Clock_1.c **** *
 171:Generated_Source\PSoC4/Clock_1.c **** * Returns:
 172:Generated_Source\PSoC4/Clock_1.c **** *  Divide value of the clock minus 1. For example, if the clock is set to
 173:Generated_Source\PSoC4/Clock_1.c **** *  divide by 2, the return value will be 1.
 174:Generated_Source\PSoC4/Clock_1.c **** *
 175:Generated_Source\PSoC4/Clock_1.c **** *******************************************************************************/
 176:Generated_Source\PSoC4/Clock_1.c **** uint16 Clock_1_GetDividerRegister(void)
 177:Generated_Source\PSoC4/Clock_1.c **** {
 122              		.loc 1 177 0
 123              		.cfi_startproc
 124              		@ args = 0, pretend = 0, frame = 0
 125              		@ frame_needed = 0, uses_anonymous_args = 0
 126              		@ link register save eliminated.
 178:Generated_Source\PSoC4/Clock_1.c ****     return (uint16)((Clock_1_DIV_REG & Clock_1_DIV_INT_MASK)
 127              		.loc 1 178 0
 128 0000 014B     		ldr	r3, .L11
 129 0002 1868     		ldr	r0, [r3]
 130 0004 80B2     		uxth	r0, r0
 179:Generated_Source\PSoC4/Clock_1.c ****         >> Clock_1_DIV_INT_SHIFT);
 180:Generated_Source\PSoC4/Clock_1.c **** }
 131              		.loc 1 180 0
 132              		@ sp needed
 133 0006 7047     		bx	lr
 134              	.L12:
 135              		.align	2
 136              	.L11:
 137 0008 00000240 		.word	1073872896
 138              		.cfi_endproc
 139              	.LFE3:
 140              		.size	Clock_1_GetDividerRegister, .-Clock_1_GetDividerRegister
 141              		.section	.text.Clock_1_GetFractionalDividerRegister,"ax",%progbits
 142              		.align	2
 143              		.global	Clock_1_GetFractionalDividerRegister
 144              		.code	16
 145              		.thumb_func
 146              		.type	Clock_1_GetFractionalDividerRegister, %function
 147              	Clock_1_GetFractionalDividerRegister:
 148              	.LFB4:
 181:Generated_Source\PSoC4/Clock_1.c **** 
 182:Generated_Source\PSoC4/Clock_1.c **** 
 183:Generated_Source\PSoC4/Clock_1.c **** /*******************************************************************************
 184:Generated_Source\PSoC4/Clock_1.c **** * Function Name: Clock_1_GetFractionalDividerRegister
 185:Generated_Source\PSoC4/Clock_1.c **** ********************************************************************************
 186:Generated_Source\PSoC4/Clock_1.c **** *
 187:Generated_Source\PSoC4/Clock_1.c **** * Summary:
 188:Generated_Source\PSoC4/Clock_1.c **** *  Gets the clock fractional divider register value.
 189:Generated_Source\PSoC4/Clock_1.c **** *
 190:Generated_Source\PSoC4/Clock_1.c **** * Parameters:
 191:Generated_Source\PSoC4/Clock_1.c **** *  None
 192:Generated_Source\PSoC4/Clock_1.c **** *
 193:Generated_Source\PSoC4/Clock_1.c **** * Returns:
 194:Generated_Source\PSoC4/Clock_1.c **** *  Fractional Divide value of the clock
ARM GAS  C:\Users\ottor\AppData\Local\Temp\ccqwhicm.s 			page 7


 195:Generated_Source\PSoC4/Clock_1.c **** *  0 if the fractional divider is not in use.
 196:Generated_Source\PSoC4/Clock_1.c **** *
 197:Generated_Source\PSoC4/Clock_1.c **** *******************************************************************************/
 198:Generated_Source\PSoC4/Clock_1.c **** uint8 Clock_1_GetFractionalDividerRegister(void)
 199:Generated_Source\PSoC4/Clock_1.c **** {
 149              		.loc 1 199 0
 150              		.cfi_startproc
 151              		@ args = 0, pretend = 0, frame = 0
 152              		@ frame_needed = 0, uses_anonymous_args = 0
 153              		@ link register save eliminated.
 200:Generated_Source\PSoC4/Clock_1.c **** #if defined (Clock_1__FRAC_MASK)
 201:Generated_Source\PSoC4/Clock_1.c ****     /* return fractional divider bits */
 202:Generated_Source\PSoC4/Clock_1.c ****     return (uint8)((Clock_1_DIV_REG & Clock_1_DIV_FRAC_MASK)
 203:Generated_Source\PSoC4/Clock_1.c ****         >> Clock_1_DIV_FRAC_SHIFT);
 204:Generated_Source\PSoC4/Clock_1.c **** #else
 205:Generated_Source\PSoC4/Clock_1.c ****     return 0u;
 206:Generated_Source\PSoC4/Clock_1.c **** #endif /* Clock_1__FRAC_MASK */
 207:Generated_Source\PSoC4/Clock_1.c **** }
 154              		.loc 1 207 0
 155 0000 0020     		movs	r0, #0
 156              		@ sp needed
 157 0002 7047     		bx	lr
 158              		.cfi_endproc
 159              	.LFE4:
 160              		.size	Clock_1_GetFractionalDividerRegister, .-Clock_1_GetFractionalDividerRegister
 161              		.text
 162              	.Letext0:
 163              		.file 2 "Generated_Source\\PSoC4/cytypes.h"