ARM GAS  C:\Users\ottor\AppData\Local\Temp\ccPSniX6.s 			page 1


   1              		.syntax unified
   2              		.cpu cortex-m0
   3              		.fpu softvfp
   4              		.eabi_attribute 20, 1
   5              		.eabi_attribute 21, 1
   6              		.eabi_attribute 23, 3
   7              		.eabi_attribute 24, 1
   8              		.eabi_attribute 25, 1
   9              		.eabi_attribute 26, 1
  10              		.eabi_attribute 30, 1
  11              		.eabi_attribute 34, 0
  12              		.eabi_attribute 18, 4
  13              		.thumb
  14              		.syntax unified
  15              		.file	"UART_UART_BOOT.c"
  16              		.text
  17              	.Ltext0:
  18              		.cfi_sections	.debug_frame
  19              		.section	.text.UART_UartCyBtldrCommStart,"ax",%progbits
  20              		.align	2
  21              		.global	UART_UartCyBtldrCommStart
  22              		.code	16
  23              		.thumb_func
  24              		.type	UART_UartCyBtldrCommStart, %function
  25              	UART_UartCyBtldrCommStart:
  26              	.LFB0:
  27              		.file 1 "Generated_Source\\PSoC4\\UART_UART_BOOT.c"
   1:Generated_Source\PSoC4/UART_UART_BOOT.c **** /***************************************************************************//**
   2:Generated_Source\PSoC4/UART_UART_BOOT.c **** * \file UART_UART_BOOT.c
   3:Generated_Source\PSoC4/UART_UART_BOOT.c **** * \version 3.20
   4:Generated_Source\PSoC4/UART_UART_BOOT.c **** *
   5:Generated_Source\PSoC4/UART_UART_BOOT.c **** * \brief
   6:Generated_Source\PSoC4/UART_UART_BOOT.c **** *  This file provides the source code of the bootloader communication APIs
   7:Generated_Source\PSoC4/UART_UART_BOOT.c **** *  for the SCB Component UART mode.
   8:Generated_Source\PSoC4/UART_UART_BOOT.c **** *
   9:Generated_Source\PSoC4/UART_UART_BOOT.c **** * Note:
  10:Generated_Source\PSoC4/UART_UART_BOOT.c **** *
  11:Generated_Source\PSoC4/UART_UART_BOOT.c **** ********************************************************************************
  12:Generated_Source\PSoC4/UART_UART_BOOT.c **** * \copyright
  13:Generated_Source\PSoC4/UART_UART_BOOT.c **** * Copyright 2013-2016, Cypress Semiconductor Corporation.  All rights reserved.
  14:Generated_Source\PSoC4/UART_UART_BOOT.c **** * You may use this file only in accordance with the license, terms, conditions,
  15:Generated_Source\PSoC4/UART_UART_BOOT.c **** * disclaimers, and limitations in the end user license agreement accompanying
  16:Generated_Source\PSoC4/UART_UART_BOOT.c **** * the software package with which this file was provided.
  17:Generated_Source\PSoC4/UART_UART_BOOT.c **** *******************************************************************************/
  18:Generated_Source\PSoC4/UART_UART_BOOT.c **** 
  19:Generated_Source\PSoC4/UART_UART_BOOT.c **** #include "UART_BOOT.h"
  20:Generated_Source\PSoC4/UART_UART_BOOT.c **** #include "UART_SPI_UART.h"
  21:Generated_Source\PSoC4/UART_UART_BOOT.c **** 
  22:Generated_Source\PSoC4/UART_UART_BOOT.c **** #if defined(CYDEV_BOOTLOADER_IO_COMP) && (UART_UART_BTLDR_COMM_ENABLED)
  23:Generated_Source\PSoC4/UART_UART_BOOT.c **** 
  24:Generated_Source\PSoC4/UART_UART_BOOT.c **** /*******************************************************************************
  25:Generated_Source\PSoC4/UART_UART_BOOT.c **** * Function Name: UART_UartCyBtldrCommStart
  26:Generated_Source\PSoC4/UART_UART_BOOT.c **** ****************************************************************************//**
  27:Generated_Source\PSoC4/UART_UART_BOOT.c **** *
  28:Generated_Source\PSoC4/UART_UART_BOOT.c **** *  Starts the UART component.
  29:Generated_Source\PSoC4/UART_UART_BOOT.c **** *
  30:Generated_Source\PSoC4/UART_UART_BOOT.c **** *******************************************************************************/
ARM GAS  C:\Users\ottor\AppData\Local\Temp\ccPSniX6.s 			page 2


  31:Generated_Source\PSoC4/UART_UART_BOOT.c **** void UART_UartCyBtldrCommStart(void)
  32:Generated_Source\PSoC4/UART_UART_BOOT.c **** {
  28              		.loc 1 32 0
  29              		.cfi_startproc
  30              		@ args = 0, pretend = 0, frame = 0
  31              		@ frame_needed = 0, uses_anonymous_args = 0
  32 0000 10B5     		push	{r4, lr}
  33              		.cfi_def_cfa_offset 8
  34              		.cfi_offset 4, -8
  35              		.cfi_offset 14, -4
  33:Generated_Source\PSoC4/UART_UART_BOOT.c ****     UART_Start();
  36              		.loc 1 33 0
  37 0002 FFF7FEFF 		bl	UART_Start
  38              	.LVL0:
  34:Generated_Source\PSoC4/UART_UART_BOOT.c **** }
  39              		.loc 1 34 0
  40              		@ sp needed
  41 0006 10BD     		pop	{r4, pc}
  42              		.cfi_endproc
  43              	.LFE0:
  44              		.size	UART_UartCyBtldrCommStart, .-UART_UartCyBtldrCommStart
  45              		.section	.text.UART_UartCyBtldrCommStop,"ax",%progbits
  46              		.align	2
  47              		.global	UART_UartCyBtldrCommStop
  48              		.code	16
  49              		.thumb_func
  50              		.type	UART_UartCyBtldrCommStop, %function
  51              	UART_UartCyBtldrCommStop:
  52              	.LFB1:
  35:Generated_Source\PSoC4/UART_UART_BOOT.c **** 
  36:Generated_Source\PSoC4/UART_UART_BOOT.c **** 
  37:Generated_Source\PSoC4/UART_UART_BOOT.c **** /*******************************************************************************
  38:Generated_Source\PSoC4/UART_UART_BOOT.c **** * Function Name: UART_UartCyBtldrCommStop
  39:Generated_Source\PSoC4/UART_UART_BOOT.c **** ****************************************************************************//**
  40:Generated_Source\PSoC4/UART_UART_BOOT.c **** *
  41:Generated_Source\PSoC4/UART_UART_BOOT.c **** *  Disables the UART component.
  42:Generated_Source\PSoC4/UART_UART_BOOT.c **** *
  43:Generated_Source\PSoC4/UART_UART_BOOT.c **** *******************************************************************************/
  44:Generated_Source\PSoC4/UART_UART_BOOT.c **** void UART_UartCyBtldrCommStop(void)
  45:Generated_Source\PSoC4/UART_UART_BOOT.c **** {
  53              		.loc 1 45 0
  54              		.cfi_startproc
  55              		@ args = 0, pretend = 0, frame = 0
  56              		@ frame_needed = 0, uses_anonymous_args = 0
  57 0000 10B5     		push	{r4, lr}
  58              		.cfi_def_cfa_offset 8
  59              		.cfi_offset 4, -8
  60              		.cfi_offset 14, -4
  46:Generated_Source\PSoC4/UART_UART_BOOT.c ****     UART_Stop();
  61              		.loc 1 46 0
  62 0002 FFF7FEFF 		bl	UART_Stop
  63              	.LVL1:
  47:Generated_Source\PSoC4/UART_UART_BOOT.c **** }
  64              		.loc 1 47 0
  65              		@ sp needed
  66 0006 10BD     		pop	{r4, pc}
  67              		.cfi_endproc
ARM GAS  C:\Users\ottor\AppData\Local\Temp\ccPSniX6.s 			page 3


  68              	.LFE1:
  69              		.size	UART_UartCyBtldrCommStop, .-UART_UartCyBtldrCommStop
  70              		.section	.text.UART_UartCyBtldrCommReset,"ax",%progbits
  71              		.align	2
  72              		.global	UART_UartCyBtldrCommReset
  73              		.code	16
  74              		.thumb_func
  75              		.type	UART_UartCyBtldrCommReset, %function
  76              	UART_UartCyBtldrCommReset:
  77              	.LFB2:
  48:Generated_Source\PSoC4/UART_UART_BOOT.c **** 
  49:Generated_Source\PSoC4/UART_UART_BOOT.c **** 
  50:Generated_Source\PSoC4/UART_UART_BOOT.c **** /*******************************************************************************
  51:Generated_Source\PSoC4/UART_UART_BOOT.c **** * Function Name: UART_UartCyBtldrCommReset
  52:Generated_Source\PSoC4/UART_UART_BOOT.c **** ****************************************************************************//**
  53:Generated_Source\PSoC4/UART_UART_BOOT.c **** *
  54:Generated_Source\PSoC4/UART_UART_BOOT.c **** *  Resets the receive and transmit communication buffers.
  55:Generated_Source\PSoC4/UART_UART_BOOT.c **** *
  56:Generated_Source\PSoC4/UART_UART_BOOT.c **** *******************************************************************************/
  57:Generated_Source\PSoC4/UART_UART_BOOT.c **** void UART_UartCyBtldrCommReset(void)
  58:Generated_Source\PSoC4/UART_UART_BOOT.c **** {
  78              		.loc 1 58 0
  79              		.cfi_startproc
  80              		@ args = 0, pretend = 0, frame = 0
  81              		@ frame_needed = 0, uses_anonymous_args = 0
  82 0000 10B5     		push	{r4, lr}
  83              		.cfi_def_cfa_offset 8
  84              		.cfi_offset 4, -8
  85              		.cfi_offset 14, -4
  59:Generated_Source\PSoC4/UART_UART_BOOT.c ****     /* Clear RX and TX buffers */
  60:Generated_Source\PSoC4/UART_UART_BOOT.c ****     UART_SpiUartClearRxBuffer();
  86              		.loc 1 60 0
  87 0002 FFF7FEFF 		bl	UART_SpiUartClearRxBuffer
  88              	.LVL2:
  61:Generated_Source\PSoC4/UART_UART_BOOT.c ****     UART_SpiUartClearTxBuffer();
  89              		.loc 1 61 0
  90 0006 FFF7FEFF 		bl	UART_SpiUartClearTxBuffer
  91              	.LVL3:
  62:Generated_Source\PSoC4/UART_UART_BOOT.c **** }
  92              		.loc 1 62 0
  93              		@ sp needed
  94 000a 10BD     		pop	{r4, pc}
  95              		.cfi_endproc
  96              	.LFE2:
  97              		.size	UART_UartCyBtldrCommReset, .-UART_UartCyBtldrCommReset
  98              		.section	.text.UART_UartCyBtldrCommRead,"ax",%progbits
  99              		.align	2
 100              		.global	UART_UartCyBtldrCommRead
 101              		.code	16
 102              		.thumb_func
 103              		.type	UART_UartCyBtldrCommRead, %function
 104              	UART_UartCyBtldrCommRead:
 105              	.LFB3:
  63:Generated_Source\PSoC4/UART_UART_BOOT.c **** 
  64:Generated_Source\PSoC4/UART_UART_BOOT.c **** 
  65:Generated_Source\PSoC4/UART_UART_BOOT.c **** /*******************************************************************************
  66:Generated_Source\PSoC4/UART_UART_BOOT.c **** * Function Name: UART_UartCyBtldrCommRead
ARM GAS  C:\Users\ottor\AppData\Local\Temp\ccPSniX6.s 			page 4


  67:Generated_Source\PSoC4/UART_UART_BOOT.c **** ****************************************************************************//**
  68:Generated_Source\PSoC4/UART_UART_BOOT.c **** *
  69:Generated_Source\PSoC4/UART_UART_BOOT.c **** *  Allows the caller to read data from the bootloader host (the host writes the
  70:Generated_Source\PSoC4/UART_UART_BOOT.c **** *  data). The function handles polling to allow a block of data to be completely
  71:Generated_Source\PSoC4/UART_UART_BOOT.c **** *  received from the host device.
  72:Generated_Source\PSoC4/UART_UART_BOOT.c **** *
  73:Generated_Source\PSoC4/UART_UART_BOOT.c **** *  \param pData: Pointer to storage for the block of data to be read from the
  74:Generated_Source\PSoC4/UART_UART_BOOT.c **** *   bootloader host
  75:Generated_Source\PSoC4/UART_UART_BOOT.c **** *  \param size: Number of bytes to be read.
  76:Generated_Source\PSoC4/UART_UART_BOOT.c **** *  \param count: Pointer to the variable to write the number of bytes actually
  77:Generated_Source\PSoC4/UART_UART_BOOT.c **** *   read.
  78:Generated_Source\PSoC4/UART_UART_BOOT.c **** *  \param timeOut Number of units in 10 ms to wait before returning
  79:Generated_Source\PSoC4/UART_UART_BOOT.c **** *   because of a timeout.
  80:Generated_Source\PSoC4/UART_UART_BOOT.c **** *
  81:Generated_Source\PSoC4/UART_UART_BOOT.c **** *  \return
  82:Generated_Source\PSoC4/UART_UART_BOOT.c **** *   Returns CYRET_SUCCESS if no problem was encountered or returns the value
  83:Generated_Source\PSoC4/UART_UART_BOOT.c **** *   that best describes the problem. For more information refer to the
  84:Generated_Source\PSoC4/UART_UART_BOOT.c **** *   "Return Codes" section of the System Reference Guide.
  85:Generated_Source\PSoC4/UART_UART_BOOT.c **** *
  86:Generated_Source\PSoC4/UART_UART_BOOT.c **** *******************************************************************************/
  87:Generated_Source\PSoC4/UART_UART_BOOT.c **** cystatus UART_UartCyBtldrCommRead(uint8 pData[], uint16 size, uint16 * count, uint8 timeOut)
  88:Generated_Source\PSoC4/UART_UART_BOOT.c **** {
 106              		.loc 1 88 0
 107              		.cfi_startproc
 108              		@ args = 0, pretend = 0, frame = 8
 109              		@ frame_needed = 0, uses_anonymous_args = 0
 110              	.LVL4:
 111 0000 F0B5     		push	{r4, r5, r6, r7, lr}
 112              		.cfi_def_cfa_offset 20
 113              		.cfi_offset 4, -20
 114              		.cfi_offset 5, -16
 115              		.cfi_offset 6, -12
 116              		.cfi_offset 7, -8
 117              		.cfi_offset 14, -4
 118 0002 83B0     		sub	sp, sp, #12
 119              		.cfi_def_cfa_offset 32
 120 0004 0700     		movs	r7, r0
 121 0006 0E00     		movs	r6, r1
 122 0008 0192     		str	r2, [sp, #4]
 123              	.LVL5:
  89:Generated_Source\PSoC4/UART_UART_BOOT.c ****     cystatus status;
  90:Generated_Source\PSoC4/UART_UART_BOOT.c ****     uint32 byteCount;
  91:Generated_Source\PSoC4/UART_UART_BOOT.c ****     uint32 timeoutMs;
  92:Generated_Source\PSoC4/UART_UART_BOOT.c ****     uint32 i;
  93:Generated_Source\PSoC4/UART_UART_BOOT.c **** 
  94:Generated_Source\PSoC4/UART_UART_BOOT.c ****     status = CYRET_BAD_PARAM;
  95:Generated_Source\PSoC4/UART_UART_BOOT.c **** 
  96:Generated_Source\PSoC4/UART_UART_BOOT.c ****     if ((NULL != pData) && (size > 0u))
 124              		.loc 1 96 0
 125 000a 0028     		cmp	r0, #0
 126 000c 2ED0     		beq	.L13
 127              		.loc 1 96 0 is_stmt 0 discriminator 1
 128 000e 0029     		cmp	r1, #0
 129 0010 2FD0     		beq	.L14
 130              	.LVL6:
  97:Generated_Source\PSoC4/UART_UART_BOOT.c ****     {
  98:Generated_Source\PSoC4/UART_UART_BOOT.c ****         status = CYRET_TIMEOUT;
ARM GAS  C:\Users\ottor\AppData\Local\Temp\ccPSniX6.s 			page 5


  99:Generated_Source\PSoC4/UART_UART_BOOT.c ****         timeoutMs = ((uint32) 10u * timeOut); /* Convert from 10mS check to 1mS checks */
 131              		.loc 1 99 0 is_stmt 1
 132 0012 9A00     		lsls	r2, r3, #2
 133              	.LVL7:
 134 0014 D318     		adds	r3, r2, r3
 135              	.LVL8:
 136 0016 5C00     		lsls	r4, r3, #1
 137              	.LVL9:
 138              	.L10:
 100:Generated_Source\PSoC4/UART_UART_BOOT.c **** 
 101:Generated_Source\PSoC4/UART_UART_BOOT.c ****         /* Wait with timeout 1mS for packet end */
 102:Generated_Source\PSoC4/UART_UART_BOOT.c ****         byteCount = 0u;
 103:Generated_Source\PSoC4/UART_UART_BOOT.c ****         do
 104:Generated_Source\PSoC4/UART_UART_BOOT.c ****         {
 105:Generated_Source\PSoC4/UART_UART_BOOT.c ****             /* Check packet start */
 106:Generated_Source\PSoC4/UART_UART_BOOT.c ****             if (0u != UART_SpiUartGetRxBufferSize())
 139              		.loc 1 106 0
 140 0018 FFF7FEFF 		bl	UART_SpiUartGetRxBufferSize
 141              	.LVL10:
 142 001c 0028     		cmp	r0, #0
 143 001e 12D0     		beq	.L6
 144              	.LVL11:
 145              	.L7:
 107:Generated_Source\PSoC4/UART_UART_BOOT.c ****             {
 108:Generated_Source\PSoC4/UART_UART_BOOT.c ****                 /* Wait for end of packet */
 109:Generated_Source\PSoC4/UART_UART_BOOT.c ****                 do
 110:Generated_Source\PSoC4/UART_UART_BOOT.c ****                 {
 111:Generated_Source\PSoC4/UART_UART_BOOT.c ****                     byteCount = UART_SpiUartGetRxBufferSize();
 146              		.loc 1 111 0 discriminator 1
 147 0020 FFF7FEFF 		bl	UART_SpiUartGetRxBufferSize
 148              	.LVL12:
 149 0024 0500     		movs	r5, r0
 150              	.LVL13:
 112:Generated_Source\PSoC4/UART_UART_BOOT.c ****                     CyDelayUs(UART_UART_BYTE_TO_BYTE);
 151              		.loc 1 112 0 discriminator 1
 152 0026 5C20     		movs	r0, #92
 153              	.LVL14:
 154 0028 FF30     		adds	r0, r0, #255
 155 002a FFF7FEFF 		bl	CyDelayUs
 156              	.LVL15:
 113:Generated_Source\PSoC4/UART_UART_BOOT.c ****                 }
 114:Generated_Source\PSoC4/UART_UART_BOOT.c ****                 while (byteCount != UART_SpiUartGetRxBufferSize());
 157              		.loc 1 114 0 discriminator 1
 158 002e FFF7FEFF 		bl	UART_SpiUartGetRxBufferSize
 159              	.LVL16:
 160 0032 8542     		cmp	r5, r0
 161 0034 F4D1     		bne	.L7
 115:Generated_Source\PSoC4/UART_UART_BOOT.c **** 
 116:Generated_Source\PSoC4/UART_UART_BOOT.c ****                 byteCount = UART_BYTES_TO_COPY(byteCount, size);
 162              		.loc 1 116 0
 163 0036 B542     		cmp	r5, r6
 164 0038 00D9     		bls	.L8
 165 003a 3500     		movs	r5, r6
 166              	.LVL17:
 167              	.L8:
 117:Generated_Source\PSoC4/UART_UART_BOOT.c ****                 *count = (uint16) byteCount;
 168              		.loc 1 117 0
ARM GAS  C:\Users\ottor\AppData\Local\Temp\ccPSniX6.s 			page 6


 169 003c 019B     		ldr	r3, [sp, #4]
 170 003e 1D80     		strh	r5, [r3]
 171              	.LVL18:
 118:Generated_Source\PSoC4/UART_UART_BOOT.c ****                 status = CYRET_SUCCESS;
 172              		.loc 1 118 0
 173 0040 0023     		movs	r3, #0
 174 0042 0193     		str	r3, [sp, #4]
 175              	.LVL19:
 119:Generated_Source\PSoC4/UART_UART_BOOT.c **** 
 120:Generated_Source\PSoC4/UART_UART_BOOT.c ****                 break;
 176              		.loc 1 120 0
 177 0044 08E0     		b	.L9
 178              	.LVL20:
 179              	.L6:
 121:Generated_Source\PSoC4/UART_UART_BOOT.c ****             }
 122:Generated_Source\PSoC4/UART_UART_BOOT.c **** 
 123:Generated_Source\PSoC4/UART_UART_BOOT.c ****             CyDelay(UART_WAIT_1_MS);
 180              		.loc 1 123 0
 181 0046 0120     		movs	r0, #1
 182 0048 FFF7FEFF 		bl	CyDelay
 183              	.LVL21:
 124:Generated_Source\PSoC4/UART_UART_BOOT.c ****             --timeoutMs;
 184              		.loc 1 124 0
 185 004c 013C     		subs	r4, r4, #1
 186              	.LVL22:
 125:Generated_Source\PSoC4/UART_UART_BOOT.c ****         }
 126:Generated_Source\PSoC4/UART_UART_BOOT.c ****         while (0u != timeoutMs);
 187              		.loc 1 126 0
 188 004e 002C     		cmp	r4, #0
 189 0050 E2D1     		bne	.L10
 102:Generated_Source\PSoC4/UART_UART_BOOT.c ****         do
 190              		.loc 1 102 0
 191 0052 0025     		movs	r5, #0
  98:Generated_Source\PSoC4/UART_UART_BOOT.c ****         timeoutMs = ((uint32) 10u * timeOut); /* Convert from 10mS check to 1mS checks */
 192              		.loc 1 98 0
 193 0054 1023     		movs	r3, #16
 194 0056 0193     		str	r3, [sp, #4]
 195              	.LVL23:
 196              	.L9:
 127:Generated_Source\PSoC4/UART_UART_BOOT.c **** 
 128:Generated_Source\PSoC4/UART_UART_BOOT.c ****         /* Get data from RX buffer into bootloader buffer */
 129:Generated_Source\PSoC4/UART_UART_BOOT.c ****         for (i = 0u; i < byteCount; ++i)
 197              		.loc 1 129 0
 198 0058 0024     		movs	r4, #0
 199              	.LVL24:
 200 005a 04E0     		b	.L11
 201              	.LVL25:
 202              	.L12:
 130:Generated_Source\PSoC4/UART_UART_BOOT.c ****         {
 131:Generated_Source\PSoC4/UART_UART_BOOT.c ****             pData[i] = (uint8) UART_SpiUartReadRxData();
 203              		.loc 1 131 0 discriminator 3
 204 005c 3E19     		adds	r6, r7, r4
 205 005e FFF7FEFF 		bl	UART_SpiUartReadRxData
 206              	.LVL26:
 207 0062 3070     		strb	r0, [r6]
 129:Generated_Source\PSoC4/UART_UART_BOOT.c ****         {
 208              		.loc 1 129 0 discriminator 3
ARM GAS  C:\Users\ottor\AppData\Local\Temp\ccPSniX6.s 			page 7


 209 0064 0134     		adds	r4, r4, #1
 210              	.LVL27:
 211              	.L11:
 129:Generated_Source\PSoC4/UART_UART_BOOT.c ****         {
 212              		.loc 1 129 0 is_stmt 0 discriminator 1
 213 0066 A542     		cmp	r5, r4
 214 0068 F8D8     		bhi	.L12
 215 006a 04E0     		b	.L5
 216              	.LVL28:
 217              	.L13:
  94:Generated_Source\PSoC4/UART_UART_BOOT.c **** 
 218              		.loc 1 94 0 is_stmt 1
 219 006c 0123     		movs	r3, #1
 220              	.LVL29:
 221 006e 0193     		str	r3, [sp, #4]
 222 0070 01E0     		b	.L5
 223              	.LVL30:
 224              	.L14:
 225 0072 0123     		movs	r3, #1
 226              	.LVL31:
 227 0074 0193     		str	r3, [sp, #4]
 228              	.LVL32:
 229              	.L5:
 132:Generated_Source\PSoC4/UART_UART_BOOT.c ****         }
 133:Generated_Source\PSoC4/UART_UART_BOOT.c ****     }
 134:Generated_Source\PSoC4/UART_UART_BOOT.c **** 
 135:Generated_Source\PSoC4/UART_UART_BOOT.c ****     return (status);
 136:Generated_Source\PSoC4/UART_UART_BOOT.c **** }
 230              		.loc 1 136 0
 231 0076 0198     		ldr	r0, [sp, #4]
 232 0078 03B0     		add	sp, sp, #12
 233              		@ sp needed
 234              	.LVL33:
 235 007a F0BD     		pop	{r4, r5, r6, r7, pc}
 236              		.cfi_endproc
 237              	.LFE3:
 238              		.size	UART_UartCyBtldrCommRead, .-UART_UartCyBtldrCommRead
 239              		.section	.text.UART_UartCyBtldrCommWrite,"ax",%progbits
 240              		.align	2
 241              		.global	UART_UartCyBtldrCommWrite
 242              		.code	16
 243              		.thumb_func
 244              		.type	UART_UartCyBtldrCommWrite, %function
 245              	UART_UartCyBtldrCommWrite:
 246              	.LFB4:
 137:Generated_Source\PSoC4/UART_UART_BOOT.c **** 
 138:Generated_Source\PSoC4/UART_UART_BOOT.c **** 
 139:Generated_Source\PSoC4/UART_UART_BOOT.c **** /*******************************************************************************
 140:Generated_Source\PSoC4/UART_UART_BOOT.c **** * Function Name: UART_UartCyBtldrCommWrite
 141:Generated_Source\PSoC4/UART_UART_BOOT.c **** ****************************************************************************//**
 142:Generated_Source\PSoC4/UART_UART_BOOT.c **** *
 143:Generated_Source\PSoC4/UART_UART_BOOT.c **** *  Allows the caller to write data to the bootloader host (the host reads the
 144:Generated_Source\PSoC4/UART_UART_BOOT.c **** *  data). The function does not use timeout and returns after data has been
 145:Generated_Source\PSoC4/UART_UART_BOOT.c **** *  copied into the transmit buffer. The data transmission starts immediately
 146:Generated_Source\PSoC4/UART_UART_BOOT.c **** *  after the first data element is written into the buffer and lasts until all
 147:Generated_Source\PSoC4/UART_UART_BOOT.c **** *  data elements from the buffer are sent.
 148:Generated_Source\PSoC4/UART_UART_BOOT.c **** *
ARM GAS  C:\Users\ottor\AppData\Local\Temp\ccPSniX6.s 			page 8


 149:Generated_Source\PSoC4/UART_UART_BOOT.c **** *  \param pData: Pointer to the block of data to be written to the bootloader
 150:Generated_Source\PSoC4/UART_UART_BOOT.c **** *   host.
 151:Generated_Source\PSoC4/UART_UART_BOOT.c **** *  \param size: Number of bytes to be written.
 152:Generated_Source\PSoC4/UART_UART_BOOT.c **** *  \param count: Pointer to the variable to write the number of bytes actually
 153:Generated_Source\PSoC4/UART_UART_BOOT.c **** *   written.
 154:Generated_Source\PSoC4/UART_UART_BOOT.c **** *  \param timeOut: The timeout is not used by this function.
 155:Generated_Source\PSoC4/UART_UART_BOOT.c **** *   The function returns as soon as data is copied into the transmit buffer.
 156:Generated_Source\PSoC4/UART_UART_BOOT.c **** *
 157:Generated_Source\PSoC4/UART_UART_BOOT.c **** *  \return
 158:Generated_Source\PSoC4/UART_UART_BOOT.c **** *   Returns CYRET_SUCCESS if no problem was encountered or returns the value
 159:Generated_Source\PSoC4/UART_UART_BOOT.c **** *   that best describes the problem. For more information refer to the
 160:Generated_Source\PSoC4/UART_UART_BOOT.c **** *   "Return Codes" section of the System Reference Guide.
 161:Generated_Source\PSoC4/UART_UART_BOOT.c **** *
 162:Generated_Source\PSoC4/UART_UART_BOOT.c **** *******************************************************************************/
 163:Generated_Source\PSoC4/UART_UART_BOOT.c **** cystatus UART_UartCyBtldrCommWrite(const uint8 pData[], uint16 size, uint16 * count, uint8 timeOut)
 164:Generated_Source\PSoC4/UART_UART_BOOT.c **** {
 247              		.loc 1 164 0
 248              		.cfi_startproc
 249              		@ args = 0, pretend = 0, frame = 0
 250              		@ frame_needed = 0, uses_anonymous_args = 0
 251              	.LVL34:
 252 0000 70B5     		push	{r4, r5, r6, lr}
 253              		.cfi_def_cfa_offset 16
 254              		.cfi_offset 4, -16
 255              		.cfi_offset 5, -12
 256              		.cfi_offset 6, -8
 257              		.cfi_offset 14, -4
 258 0002 0C00     		movs	r4, r1
 259 0004 1500     		movs	r5, r2
 260              	.LVL35:
 165:Generated_Source\PSoC4/UART_UART_BOOT.c ****     cystatus status;
 166:Generated_Source\PSoC4/UART_UART_BOOT.c **** 
 167:Generated_Source\PSoC4/UART_UART_BOOT.c ****     status = CYRET_BAD_PARAM;
 168:Generated_Source\PSoC4/UART_UART_BOOT.c **** 
 169:Generated_Source\PSoC4/UART_UART_BOOT.c ****     if ((NULL != pData) && (size > 0u))
 261              		.loc 1 169 0
 262 0006 0028     		cmp	r0, #0
 263 0008 06D0     		beq	.L17
 264              		.loc 1 169 0 is_stmt 0 discriminator 1
 265 000a 0029     		cmp	r1, #0
 266 000c 06D0     		beq	.L18
 170:Generated_Source\PSoC4/UART_UART_BOOT.c ****     {
 171:Generated_Source\PSoC4/UART_UART_BOOT.c ****         /* Transmit data. This function does not wait until data is sent. */
 172:Generated_Source\PSoC4/UART_UART_BOOT.c ****         UART_SpiUartPutArray(pData, (uint32) size);
 267              		.loc 1 172 0 is_stmt 1
 268 000e FFF7FEFF 		bl	UART_SpiUartPutArray
 269              	.LVL36:
 173:Generated_Source\PSoC4/UART_UART_BOOT.c **** 
 174:Generated_Source\PSoC4/UART_UART_BOOT.c ****         *count = size;
 270              		.loc 1 174 0
 271 0012 2C80     		strh	r4, [r5]
 272              	.LVL37:
 175:Generated_Source\PSoC4/UART_UART_BOOT.c ****         status = CYRET_SUCCESS;
 273              		.loc 1 175 0
 274 0014 0020     		movs	r0, #0
 275 0016 02E0     		b	.L16
 276              	.LVL38:
ARM GAS  C:\Users\ottor\AppData\Local\Temp\ccPSniX6.s 			page 9


 277              	.L17:
 167:Generated_Source\PSoC4/UART_UART_BOOT.c **** 
 278              		.loc 1 167 0
 279 0018 0120     		movs	r0, #1
 280              	.LVL39:
 281 001a 00E0     		b	.L16
 282              	.LVL40:
 283              	.L18:
 284 001c 0120     		movs	r0, #1
 285              	.LVL41:
 286              	.L16:
 176:Generated_Source\PSoC4/UART_UART_BOOT.c **** 
 177:Generated_Source\PSoC4/UART_UART_BOOT.c ****         if (0u != timeOut)
 178:Generated_Source\PSoC4/UART_UART_BOOT.c ****         {
 179:Generated_Source\PSoC4/UART_UART_BOOT.c ****             /* Suppress compiler warning */
 180:Generated_Source\PSoC4/UART_UART_BOOT.c ****         }
 181:Generated_Source\PSoC4/UART_UART_BOOT.c ****     }
 182:Generated_Source\PSoC4/UART_UART_BOOT.c **** 
 183:Generated_Source\PSoC4/UART_UART_BOOT.c ****     return (status);
 184:Generated_Source\PSoC4/UART_UART_BOOT.c **** }
 287              		.loc 1 184 0
 288              		@ sp needed
 289              	.LVL42:
 290 001e 70BD     		pop	{r4, r5, r6, pc}
 291              		.cfi_endproc
 292              	.LFE4:
 293              		.size	UART_UartCyBtldrCommWrite, .-UART_UartCyBtldrCommWrite
 294              		.text
 295              	.Letext0:
 296              		.file 2 "Generated_Source\\PSoC4/cytypes.h"
 297              		.file 3 "Generated_Source\\PSoC4\\UART.h"
 298              		.file 4 "Generated_Source\\PSoC4\\UART_SPI_UART.h"
 299              		.file 5 "Generated_Source\\PSoC4/CyLib.h"