ARM GAS  C:\Users\g\AppData\Local\Temp\ccMxCaP9.s 			page 1


   1              		.cpu cortex-m0
   2              		.fpu softvfp
   3              		.eabi_attribute 20, 1
   4              		.eabi_attribute 21, 1
   5              		.eabi_attribute 23, 3
   6              		.eabi_attribute 24, 1
   7              		.eabi_attribute 25, 1
   8              		.eabi_attribute 26, 1
   9              		.eabi_attribute 30, 1
  10              		.eabi_attribute 34, 0
  11              		.eabi_attribute 18, 4
  12              		.code	16
  13              		.file	"PWM_1.c"
  14              		.text
  15              	.Ltext0:
  16              		.cfi_sections	.debug_frame
  17              		.section	.text.PWM_1_Enable,"ax",%progbits
  18              		.align	2
  19              		.global	PWM_1_Enable
  20              		.code	16
  21              		.thumb_func
  22              		.type	PWM_1_Enable, %function
  23              	PWM_1_Enable:
  24              	.LFB1:
  25              		.file 1 ".\\Generated_Source\\PSoC4\\PWM_1.c"
   1:.\Generated_Source\PSoC4/PWM_1.c **** /*******************************************************************************
   2:.\Generated_Source\PSoC4/PWM_1.c **** * File Name: PWM_1.c
   3:.\Generated_Source\PSoC4/PWM_1.c **** * Version 2.10
   4:.\Generated_Source\PSoC4/PWM_1.c **** *
   5:.\Generated_Source\PSoC4/PWM_1.c **** * Description:
   6:.\Generated_Source\PSoC4/PWM_1.c **** *  This file provides the source code to the API for the PWM_1
   7:.\Generated_Source\PSoC4/PWM_1.c **** *  component
   8:.\Generated_Source\PSoC4/PWM_1.c **** *
   9:.\Generated_Source\PSoC4/PWM_1.c **** * Note:
  10:.\Generated_Source\PSoC4/PWM_1.c **** *  None
  11:.\Generated_Source\PSoC4/PWM_1.c **** *
  12:.\Generated_Source\PSoC4/PWM_1.c **** ********************************************************************************
  13:.\Generated_Source\PSoC4/PWM_1.c **** * Copyright 2013-2015, Cypress Semiconductor Corporation.  All rights reserved.
  14:.\Generated_Source\PSoC4/PWM_1.c **** * You may use this file only in accordance with the license, terms, conditions,
  15:.\Generated_Source\PSoC4/PWM_1.c **** * disclaimers, and limitations in the end user license agreement accompanying
  16:.\Generated_Source\PSoC4/PWM_1.c **** * the software package with which this file was provided.
  17:.\Generated_Source\PSoC4/PWM_1.c **** *******************************************************************************/
  18:.\Generated_Source\PSoC4/PWM_1.c **** 
  19:.\Generated_Source\PSoC4/PWM_1.c **** #include "PWM_1.h"
  20:.\Generated_Source\PSoC4/PWM_1.c **** 
  21:.\Generated_Source\PSoC4/PWM_1.c **** uint8 PWM_1_initVar = 0u;
  22:.\Generated_Source\PSoC4/PWM_1.c **** 
  23:.\Generated_Source\PSoC4/PWM_1.c **** 
  24:.\Generated_Source\PSoC4/PWM_1.c **** /*******************************************************************************
  25:.\Generated_Source\PSoC4/PWM_1.c **** * Function Name: PWM_1_Init
  26:.\Generated_Source\PSoC4/PWM_1.c **** ********************************************************************************
  27:.\Generated_Source\PSoC4/PWM_1.c **** *
  28:.\Generated_Source\PSoC4/PWM_1.c **** * Summary:
  29:.\Generated_Source\PSoC4/PWM_1.c **** *  Initialize/Restore default PWM_1 configuration.
  30:.\Generated_Source\PSoC4/PWM_1.c **** *
  31:.\Generated_Source\PSoC4/PWM_1.c **** * Parameters:
  32:.\Generated_Source\PSoC4/PWM_1.c **** *  None
ARM GAS  C:\Users\g\AppData\Local\Temp\ccMxCaP9.s 			page 2


  33:.\Generated_Source\PSoC4/PWM_1.c **** *
  34:.\Generated_Source\PSoC4/PWM_1.c **** * Return:
  35:.\Generated_Source\PSoC4/PWM_1.c **** *  None
  36:.\Generated_Source\PSoC4/PWM_1.c **** *
  37:.\Generated_Source\PSoC4/PWM_1.c **** *******************************************************************************/
  38:.\Generated_Source\PSoC4/PWM_1.c **** void PWM_1_Init(void)
  39:.\Generated_Source\PSoC4/PWM_1.c **** {
  40:.\Generated_Source\PSoC4/PWM_1.c **** 
  41:.\Generated_Source\PSoC4/PWM_1.c ****     /* Set values from customizer to CTRL */
  42:.\Generated_Source\PSoC4/PWM_1.c ****     #if (PWM_1__QUAD == PWM_1_CONFIG)
  43:.\Generated_Source\PSoC4/PWM_1.c ****         PWM_1_CONTROL_REG = PWM_1_CTRL_QUAD_BASE_CONFIG;
  44:.\Generated_Source\PSoC4/PWM_1.c ****         
  45:.\Generated_Source\PSoC4/PWM_1.c ****         /* Set values from customizer to CTRL1 */
  46:.\Generated_Source\PSoC4/PWM_1.c ****         PWM_1_TRIG_CONTROL1_REG  = PWM_1_QUAD_SIGNALS_MODES;
  47:.\Generated_Source\PSoC4/PWM_1.c **** 
  48:.\Generated_Source\PSoC4/PWM_1.c ****         /* Set values from customizer to INTR */
  49:.\Generated_Source\PSoC4/PWM_1.c ****         PWM_1_SetInterruptMode(PWM_1_QUAD_INTERRUPT_MASK);
  50:.\Generated_Source\PSoC4/PWM_1.c ****         
  51:.\Generated_Source\PSoC4/PWM_1.c ****          /* Set other values */
  52:.\Generated_Source\PSoC4/PWM_1.c ****         PWM_1_SetCounterMode(PWM_1_COUNT_DOWN);
  53:.\Generated_Source\PSoC4/PWM_1.c ****         PWM_1_WritePeriod(PWM_1_QUAD_PERIOD_INIT_VALUE);
  54:.\Generated_Source\PSoC4/PWM_1.c ****         PWM_1_WriteCounter(PWM_1_QUAD_PERIOD_INIT_VALUE);
  55:.\Generated_Source\PSoC4/PWM_1.c ****     #endif  /* (PWM_1__QUAD == PWM_1_CONFIG) */
  56:.\Generated_Source\PSoC4/PWM_1.c **** 
  57:.\Generated_Source\PSoC4/PWM_1.c ****     #if (PWM_1__TIMER == PWM_1_CONFIG)
  58:.\Generated_Source\PSoC4/PWM_1.c ****         PWM_1_CONTROL_REG = PWM_1_CTRL_TIMER_BASE_CONFIG;
  59:.\Generated_Source\PSoC4/PWM_1.c ****         
  60:.\Generated_Source\PSoC4/PWM_1.c ****         /* Set values from customizer to CTRL1 */
  61:.\Generated_Source\PSoC4/PWM_1.c ****         PWM_1_TRIG_CONTROL1_REG  = PWM_1_TIMER_SIGNALS_MODES;
  62:.\Generated_Source\PSoC4/PWM_1.c ****     
  63:.\Generated_Source\PSoC4/PWM_1.c ****         /* Set values from customizer to INTR */
  64:.\Generated_Source\PSoC4/PWM_1.c ****         PWM_1_SetInterruptMode(PWM_1_TC_INTERRUPT_MASK);
  65:.\Generated_Source\PSoC4/PWM_1.c ****         
  66:.\Generated_Source\PSoC4/PWM_1.c ****         /* Set other values from customizer */
  67:.\Generated_Source\PSoC4/PWM_1.c ****         PWM_1_WritePeriod(PWM_1_TC_PERIOD_VALUE );
  68:.\Generated_Source\PSoC4/PWM_1.c **** 
  69:.\Generated_Source\PSoC4/PWM_1.c ****         #if (PWM_1__COMPARE == PWM_1_TC_COMP_CAP_MODE)
  70:.\Generated_Source\PSoC4/PWM_1.c ****             PWM_1_WriteCompare(PWM_1_TC_COMPARE_VALUE);
  71:.\Generated_Source\PSoC4/PWM_1.c **** 
  72:.\Generated_Source\PSoC4/PWM_1.c ****             #if (1u == PWM_1_TC_COMPARE_SWAP)
  73:.\Generated_Source\PSoC4/PWM_1.c ****                 PWM_1_SetCompareSwap(1u);
  74:.\Generated_Source\PSoC4/PWM_1.c ****                 PWM_1_WriteCompareBuf(PWM_1_TC_COMPARE_BUF_VALUE);
  75:.\Generated_Source\PSoC4/PWM_1.c ****             #endif  /* (1u == PWM_1_TC_COMPARE_SWAP) */
  76:.\Generated_Source\PSoC4/PWM_1.c ****         #endif  /* (PWM_1__COMPARE == PWM_1_TC_COMP_CAP_MODE) */
  77:.\Generated_Source\PSoC4/PWM_1.c **** 
  78:.\Generated_Source\PSoC4/PWM_1.c ****         /* Initialize counter value */
  79:.\Generated_Source\PSoC4/PWM_1.c ****         #if (PWM_1_CY_TCPWM_V2 && PWM_1_TIMER_UPDOWN_CNT_USED && !PWM_1_CY_TCPWM_4000)
  80:.\Generated_Source\PSoC4/PWM_1.c ****             PWM_1_WriteCounter(1u);
  81:.\Generated_Source\PSoC4/PWM_1.c ****         #elif(PWM_1__COUNT_DOWN == PWM_1_TC_COUNTER_MODE)
  82:.\Generated_Source\PSoC4/PWM_1.c ****             PWM_1_WriteCounter(PWM_1_TC_PERIOD_VALUE);
  83:.\Generated_Source\PSoC4/PWM_1.c ****         #else
  84:.\Generated_Source\PSoC4/PWM_1.c ****             PWM_1_WriteCounter(0u);
  85:.\Generated_Source\PSoC4/PWM_1.c ****         #endif /* (PWM_1_CY_TCPWM_V2 && PWM_1_TIMER_UPDOWN_CNT_USED && !PWM_1_CY_TCPWM_4000) */
  86:.\Generated_Source\PSoC4/PWM_1.c ****     #endif  /* (PWM_1__TIMER == PWM_1_CONFIG) */
  87:.\Generated_Source\PSoC4/PWM_1.c **** 
  88:.\Generated_Source\PSoC4/PWM_1.c ****     #if (PWM_1__PWM_SEL == PWM_1_CONFIG)
  89:.\Generated_Source\PSoC4/PWM_1.c ****         PWM_1_CONTROL_REG = PWM_1_CTRL_PWM_BASE_CONFIG;
ARM GAS  C:\Users\g\AppData\Local\Temp\ccMxCaP9.s 			page 3


  90:.\Generated_Source\PSoC4/PWM_1.c **** 
  91:.\Generated_Source\PSoC4/PWM_1.c ****         #if (PWM_1__PWM_PR == PWM_1_PWM_MODE)
  92:.\Generated_Source\PSoC4/PWM_1.c ****             PWM_1_CONTROL_REG |= PWM_1_CTRL_PWM_RUN_MODE;
  93:.\Generated_Source\PSoC4/PWM_1.c ****             PWM_1_WriteCounter(PWM_1_PWM_PR_INIT_VALUE);
  94:.\Generated_Source\PSoC4/PWM_1.c ****         #else
  95:.\Generated_Source\PSoC4/PWM_1.c ****             PWM_1_CONTROL_REG |= PWM_1_CTRL_PWM_ALIGN | PWM_1_CTRL_PWM_KILL_EVENT;
  96:.\Generated_Source\PSoC4/PWM_1.c ****             
  97:.\Generated_Source\PSoC4/PWM_1.c ****             /* Initialize counter value */
  98:.\Generated_Source\PSoC4/PWM_1.c ****             #if (PWM_1_CY_TCPWM_V2 && PWM_1_PWM_UPDOWN_CNT_USED && !PWM_1_CY_TCPWM_4000)
  99:.\Generated_Source\PSoC4/PWM_1.c ****                 PWM_1_WriteCounter(1u);
 100:.\Generated_Source\PSoC4/PWM_1.c ****             #elif (PWM_1__RIGHT == PWM_1_PWM_ALIGN)
 101:.\Generated_Source\PSoC4/PWM_1.c ****                 PWM_1_WriteCounter(PWM_1_PWM_PERIOD_VALUE);
 102:.\Generated_Source\PSoC4/PWM_1.c ****             #else 
 103:.\Generated_Source\PSoC4/PWM_1.c ****                 PWM_1_WriteCounter(0u);
 104:.\Generated_Source\PSoC4/PWM_1.c ****             #endif  /* (PWM_1_CY_TCPWM_V2 && PWM_1_PWM_UPDOWN_CNT_USED && !PWM_1_CY_TCPWM_4000) */
 105:.\Generated_Source\PSoC4/PWM_1.c ****         #endif  /* (PWM_1__PWM_PR == PWM_1_PWM_MODE) */
 106:.\Generated_Source\PSoC4/PWM_1.c **** 
 107:.\Generated_Source\PSoC4/PWM_1.c ****         #if (PWM_1__PWM_DT == PWM_1_PWM_MODE)
 108:.\Generated_Source\PSoC4/PWM_1.c ****             PWM_1_CONTROL_REG |= PWM_1_CTRL_PWM_DEAD_TIME_CYCLE;
 109:.\Generated_Source\PSoC4/PWM_1.c ****         #endif  /* (PWM_1__PWM_DT == PWM_1_PWM_MODE) */
 110:.\Generated_Source\PSoC4/PWM_1.c **** 
 111:.\Generated_Source\PSoC4/PWM_1.c ****         #if (PWM_1__PWM == PWM_1_PWM_MODE)
 112:.\Generated_Source\PSoC4/PWM_1.c ****             PWM_1_CONTROL_REG |= PWM_1_CTRL_PWM_PRESCALER;
 113:.\Generated_Source\PSoC4/PWM_1.c ****         #endif  /* (PWM_1__PWM == PWM_1_PWM_MODE) */
 114:.\Generated_Source\PSoC4/PWM_1.c **** 
 115:.\Generated_Source\PSoC4/PWM_1.c ****         /* Set values from customizer to CTRL1 */
 116:.\Generated_Source\PSoC4/PWM_1.c ****         PWM_1_TRIG_CONTROL1_REG  = PWM_1_PWM_SIGNALS_MODES;
 117:.\Generated_Source\PSoC4/PWM_1.c ****     
 118:.\Generated_Source\PSoC4/PWM_1.c ****         /* Set values from customizer to INTR */
 119:.\Generated_Source\PSoC4/PWM_1.c ****         PWM_1_SetInterruptMode(PWM_1_PWM_INTERRUPT_MASK);
 120:.\Generated_Source\PSoC4/PWM_1.c **** 
 121:.\Generated_Source\PSoC4/PWM_1.c ****         /* Set values from customizer to CTRL2 */
 122:.\Generated_Source\PSoC4/PWM_1.c ****         #if (PWM_1__PWM_PR == PWM_1_PWM_MODE)
 123:.\Generated_Source\PSoC4/PWM_1.c ****             PWM_1_TRIG_CONTROL2_REG =
 124:.\Generated_Source\PSoC4/PWM_1.c ****                     (PWM_1_CC_MATCH_NO_CHANGE    |
 125:.\Generated_Source\PSoC4/PWM_1.c ****                     PWM_1_OVERLOW_NO_CHANGE      |
 126:.\Generated_Source\PSoC4/PWM_1.c ****                     PWM_1_UNDERFLOW_NO_CHANGE);
 127:.\Generated_Source\PSoC4/PWM_1.c ****         #else
 128:.\Generated_Source\PSoC4/PWM_1.c ****             #if (PWM_1__LEFT == PWM_1_PWM_ALIGN)
 129:.\Generated_Source\PSoC4/PWM_1.c ****                 PWM_1_TRIG_CONTROL2_REG = PWM_1_PWM_MODE_LEFT;
 130:.\Generated_Source\PSoC4/PWM_1.c ****             #endif  /* ( PWM_1_PWM_LEFT == PWM_1_PWM_ALIGN) */
 131:.\Generated_Source\PSoC4/PWM_1.c **** 
 132:.\Generated_Source\PSoC4/PWM_1.c ****             #if (PWM_1__RIGHT == PWM_1_PWM_ALIGN)
 133:.\Generated_Source\PSoC4/PWM_1.c ****                 PWM_1_TRIG_CONTROL2_REG = PWM_1_PWM_MODE_RIGHT;
 134:.\Generated_Source\PSoC4/PWM_1.c ****             #endif  /* ( PWM_1_PWM_RIGHT == PWM_1_PWM_ALIGN) */
 135:.\Generated_Source\PSoC4/PWM_1.c **** 
 136:.\Generated_Source\PSoC4/PWM_1.c ****             #if (PWM_1__CENTER == PWM_1_PWM_ALIGN)
 137:.\Generated_Source\PSoC4/PWM_1.c ****                 PWM_1_TRIG_CONTROL2_REG = PWM_1_PWM_MODE_CENTER;
 138:.\Generated_Source\PSoC4/PWM_1.c ****             #endif  /* ( PWM_1_PWM_CENTER == PWM_1_PWM_ALIGN) */
 139:.\Generated_Source\PSoC4/PWM_1.c **** 
 140:.\Generated_Source\PSoC4/PWM_1.c ****             #if (PWM_1__ASYMMETRIC == PWM_1_PWM_ALIGN)
 141:.\Generated_Source\PSoC4/PWM_1.c ****                 PWM_1_TRIG_CONTROL2_REG = PWM_1_PWM_MODE_ASYM;
 142:.\Generated_Source\PSoC4/PWM_1.c ****             #endif  /* (PWM_1__ASYMMETRIC == PWM_1_PWM_ALIGN) */
 143:.\Generated_Source\PSoC4/PWM_1.c ****         #endif  /* (PWM_1__PWM_PR == PWM_1_PWM_MODE) */
 144:.\Generated_Source\PSoC4/PWM_1.c **** 
 145:.\Generated_Source\PSoC4/PWM_1.c ****         /* Set other values from customizer */
 146:.\Generated_Source\PSoC4/PWM_1.c ****         PWM_1_WritePeriod(PWM_1_PWM_PERIOD_VALUE );
ARM GAS  C:\Users\g\AppData\Local\Temp\ccMxCaP9.s 			page 4


 147:.\Generated_Source\PSoC4/PWM_1.c ****         PWM_1_WriteCompare(PWM_1_PWM_COMPARE_VALUE);
 148:.\Generated_Source\PSoC4/PWM_1.c **** 
 149:.\Generated_Source\PSoC4/PWM_1.c ****         #if (1u == PWM_1_PWM_COMPARE_SWAP)
 150:.\Generated_Source\PSoC4/PWM_1.c ****             PWM_1_SetCompareSwap(1u);
 151:.\Generated_Source\PSoC4/PWM_1.c ****             PWM_1_WriteCompareBuf(PWM_1_PWM_COMPARE_BUF_VALUE);
 152:.\Generated_Source\PSoC4/PWM_1.c ****         #endif  /* (1u == PWM_1_PWM_COMPARE_SWAP) */
 153:.\Generated_Source\PSoC4/PWM_1.c **** 
 154:.\Generated_Source\PSoC4/PWM_1.c ****         #if (1u == PWM_1_PWM_PERIOD_SWAP)
 155:.\Generated_Source\PSoC4/PWM_1.c ****             PWM_1_SetPeriodSwap(1u);
 156:.\Generated_Source\PSoC4/PWM_1.c ****             PWM_1_WritePeriodBuf(PWM_1_PWM_PERIOD_BUF_VALUE);
 157:.\Generated_Source\PSoC4/PWM_1.c ****         #endif  /* (1u == PWM_1_PWM_PERIOD_SWAP) */
 158:.\Generated_Source\PSoC4/PWM_1.c ****     #endif  /* (PWM_1__PWM_SEL == PWM_1_CONFIG) */
 159:.\Generated_Source\PSoC4/PWM_1.c ****     
 160:.\Generated_Source\PSoC4/PWM_1.c **** }
 161:.\Generated_Source\PSoC4/PWM_1.c **** 
 162:.\Generated_Source\PSoC4/PWM_1.c **** 
 163:.\Generated_Source\PSoC4/PWM_1.c **** /*******************************************************************************
 164:.\Generated_Source\PSoC4/PWM_1.c **** * Function Name: PWM_1_Enable
 165:.\Generated_Source\PSoC4/PWM_1.c **** ********************************************************************************
 166:.\Generated_Source\PSoC4/PWM_1.c **** *
 167:.\Generated_Source\PSoC4/PWM_1.c **** * Summary:
 168:.\Generated_Source\PSoC4/PWM_1.c **** *  Enables the PWM_1.
 169:.\Generated_Source\PSoC4/PWM_1.c **** *
 170:.\Generated_Source\PSoC4/PWM_1.c **** * Parameters:
 171:.\Generated_Source\PSoC4/PWM_1.c **** *  None
 172:.\Generated_Source\PSoC4/PWM_1.c **** *
 173:.\Generated_Source\PSoC4/PWM_1.c **** * Return:
 174:.\Generated_Source\PSoC4/PWM_1.c **** *  None
 175:.\Generated_Source\PSoC4/PWM_1.c **** *
 176:.\Generated_Source\PSoC4/PWM_1.c **** *******************************************************************************/
 177:.\Generated_Source\PSoC4/PWM_1.c **** void PWM_1_Enable(void)
 178:.\Generated_Source\PSoC4/PWM_1.c **** {
  26              		.loc 1 178 0
  27              		.cfi_startproc
  28 0000 08B5     		push	{r3, lr}
  29              		.cfi_def_cfa_offset 8
  30              		.cfi_offset 3, -8
  31              		.cfi_offset 14, -4
 179:.\Generated_Source\PSoC4/PWM_1.c ****     uint8 enableInterrupts;
 180:.\Generated_Source\PSoC4/PWM_1.c **** 
 181:.\Generated_Source\PSoC4/PWM_1.c ****     enableInterrupts = CyEnterCriticalSection();
  32              		.loc 1 181 0
  33 0002 FFF7FEFF 		bl	CyEnterCriticalSection
  34              	.LVL0:
 182:.\Generated_Source\PSoC4/PWM_1.c ****     PWM_1_BLOCK_CONTROL_REG |= PWM_1_MASK;
  35              		.loc 1 182 0
  36 0006 044A     		ldr	r2, .L2
  37 0008 1168     		ldr	r1, [r2]
  38 000a 0123     		mov	r3, #1
  39 000c 0B43     		orr	r3, r1
  40 000e 1360     		str	r3, [r2]
 183:.\Generated_Source\PSoC4/PWM_1.c ****     CyExitCriticalSection(enableInterrupts);
  41              		.loc 1 183 0
  42 0010 FFF7FEFF 		bl	CyExitCriticalSection
  43              	.LVL1:
 184:.\Generated_Source\PSoC4/PWM_1.c **** 
 185:.\Generated_Source\PSoC4/PWM_1.c ****     /* Start Timer or PWM if start input is absent */
ARM GAS  C:\Users\g\AppData\Local\Temp\ccMxCaP9.s 			page 5


 186:.\Generated_Source\PSoC4/PWM_1.c ****     #if (PWM_1__PWM_SEL == PWM_1_CONFIG)
 187:.\Generated_Source\PSoC4/PWM_1.c ****         #if (0u == PWM_1_PWM_START_SIGNAL_PRESENT)
 188:.\Generated_Source\PSoC4/PWM_1.c ****             PWM_1_TriggerCommand(PWM_1_MASK, PWM_1_CMD_START);
 189:.\Generated_Source\PSoC4/PWM_1.c ****         #endif /* (0u == PWM_1_PWM_START_SIGNAL_PRESENT) */
 190:.\Generated_Source\PSoC4/PWM_1.c ****     #endif /* (PWM_1__PWM_SEL == PWM_1_CONFIG) */
 191:.\Generated_Source\PSoC4/PWM_1.c **** 
 192:.\Generated_Source\PSoC4/PWM_1.c ****     #if (PWM_1__TIMER == PWM_1_CONFIG)
 193:.\Generated_Source\PSoC4/PWM_1.c ****         #if (0u == PWM_1_TC_START_SIGNAL_PRESENT)
 194:.\Generated_Source\PSoC4/PWM_1.c ****             PWM_1_TriggerCommand(PWM_1_MASK, PWM_1_CMD_START);
 195:.\Generated_Source\PSoC4/PWM_1.c ****         #endif /* (0u == PWM_1_TC_START_SIGNAL_PRESENT) */
 196:.\Generated_Source\PSoC4/PWM_1.c ****     #endif /* (PWM_1__TIMER == PWM_1_CONFIG) */
 197:.\Generated_Source\PSoC4/PWM_1.c ****     
 198:.\Generated_Source\PSoC4/PWM_1.c ****     #if (PWM_1__QUAD == PWM_1_CONFIG)
 199:.\Generated_Source\PSoC4/PWM_1.c ****         #if (0u != PWM_1_QUAD_AUTO_START)
 200:.\Generated_Source\PSoC4/PWM_1.c ****             PWM_1_TriggerCommand(PWM_1_MASK, PWM_1_CMD_RELOAD);
 201:.\Generated_Source\PSoC4/PWM_1.c ****         #endif /* (0u != PWM_1_QUAD_AUTO_START) */
 202:.\Generated_Source\PSoC4/PWM_1.c ****     #endif  /* (PWM_1__QUAD == PWM_1_CONFIG) */
 203:.\Generated_Source\PSoC4/PWM_1.c **** }
  44              		.loc 1 203 0
  45              		@ sp needed
  46 0014 08BD     		pop	{r3, pc}
  47              	.L3:
  48 0016 C046     		.align	2
  49              	.L2:
  50 0018 00000540 		.word	1074069504
  51              		.cfi_endproc
  52              	.LFE1:
  53              		.size	PWM_1_Enable, .-PWM_1_Enable
  54              		.section	.text.PWM_1_Stop,"ax",%progbits
  55              		.align	2
  56              		.global	PWM_1_Stop
  57              		.code	16
  58              		.thumb_func
  59              		.type	PWM_1_Stop, %function
  60              	PWM_1_Stop:
  61              	.LFB3:
 204:.\Generated_Source\PSoC4/PWM_1.c **** 
 205:.\Generated_Source\PSoC4/PWM_1.c **** 
 206:.\Generated_Source\PSoC4/PWM_1.c **** /*******************************************************************************
 207:.\Generated_Source\PSoC4/PWM_1.c **** * Function Name: PWM_1_Start
 208:.\Generated_Source\PSoC4/PWM_1.c **** ********************************************************************************
 209:.\Generated_Source\PSoC4/PWM_1.c **** *
 210:.\Generated_Source\PSoC4/PWM_1.c **** * Summary:
 211:.\Generated_Source\PSoC4/PWM_1.c **** *  Initializes the PWM_1 with default customizer
 212:.\Generated_Source\PSoC4/PWM_1.c **** *  values when called the first time and enables the PWM_1.
 213:.\Generated_Source\PSoC4/PWM_1.c **** *  For subsequent calls the configuration is left unchanged and the component is
 214:.\Generated_Source\PSoC4/PWM_1.c **** *  just enabled.
 215:.\Generated_Source\PSoC4/PWM_1.c **** *
 216:.\Generated_Source\PSoC4/PWM_1.c **** * Parameters:
 217:.\Generated_Source\PSoC4/PWM_1.c **** *  None
 218:.\Generated_Source\PSoC4/PWM_1.c **** *
 219:.\Generated_Source\PSoC4/PWM_1.c **** * Return:
 220:.\Generated_Source\PSoC4/PWM_1.c **** *  None
 221:.\Generated_Source\PSoC4/PWM_1.c **** *
 222:.\Generated_Source\PSoC4/PWM_1.c **** * Global variables:
 223:.\Generated_Source\PSoC4/PWM_1.c **** *  PWM_1_initVar: global variable is used to indicate initial
 224:.\Generated_Source\PSoC4/PWM_1.c **** *  configuration of this component.  The variable is initialized to zero and set
ARM GAS  C:\Users\g\AppData\Local\Temp\ccMxCaP9.s 			page 6


 225:.\Generated_Source\PSoC4/PWM_1.c **** *  to 1 the first time PWM_1_Start() is called. This allows
 226:.\Generated_Source\PSoC4/PWM_1.c **** *  enabling/disabling a component without re-initialization in all subsequent
 227:.\Generated_Source\PSoC4/PWM_1.c **** *  calls to the PWM_1_Start() routine.
 228:.\Generated_Source\PSoC4/PWM_1.c **** *
 229:.\Generated_Source\PSoC4/PWM_1.c **** *******************************************************************************/
 230:.\Generated_Source\PSoC4/PWM_1.c **** void PWM_1_Start(void)
 231:.\Generated_Source\PSoC4/PWM_1.c **** {
 232:.\Generated_Source\PSoC4/PWM_1.c ****     if (0u == PWM_1_initVar)
 233:.\Generated_Source\PSoC4/PWM_1.c ****     {
 234:.\Generated_Source\PSoC4/PWM_1.c ****         PWM_1_Init();
 235:.\Generated_Source\PSoC4/PWM_1.c ****         PWM_1_initVar = 1u;
 236:.\Generated_Source\PSoC4/PWM_1.c ****     }
 237:.\Generated_Source\PSoC4/PWM_1.c **** 
 238:.\Generated_Source\PSoC4/PWM_1.c ****     PWM_1_Enable();
 239:.\Generated_Source\PSoC4/PWM_1.c **** }
 240:.\Generated_Source\PSoC4/PWM_1.c **** 
 241:.\Generated_Source\PSoC4/PWM_1.c **** 
 242:.\Generated_Source\PSoC4/PWM_1.c **** /*******************************************************************************
 243:.\Generated_Source\PSoC4/PWM_1.c **** * Function Name: PWM_1_Stop
 244:.\Generated_Source\PSoC4/PWM_1.c **** ********************************************************************************
 245:.\Generated_Source\PSoC4/PWM_1.c **** *
 246:.\Generated_Source\PSoC4/PWM_1.c **** * Summary:
 247:.\Generated_Source\PSoC4/PWM_1.c **** *  Disables the PWM_1.
 248:.\Generated_Source\PSoC4/PWM_1.c **** *
 249:.\Generated_Source\PSoC4/PWM_1.c **** * Parameters:
 250:.\Generated_Source\PSoC4/PWM_1.c **** *  None
 251:.\Generated_Source\PSoC4/PWM_1.c **** *
 252:.\Generated_Source\PSoC4/PWM_1.c **** * Return:
 253:.\Generated_Source\PSoC4/PWM_1.c **** *  None
 254:.\Generated_Source\PSoC4/PWM_1.c **** *
 255:.\Generated_Source\PSoC4/PWM_1.c **** *******************************************************************************/
 256:.\Generated_Source\PSoC4/PWM_1.c **** void PWM_1_Stop(void)
 257:.\Generated_Source\PSoC4/PWM_1.c **** {
  62              		.loc 1 257 0
  63              		.cfi_startproc
  64 0000 08B5     		push	{r3, lr}
  65              		.cfi_def_cfa_offset 8
  66              		.cfi_offset 3, -8
  67              		.cfi_offset 14, -4
 258:.\Generated_Source\PSoC4/PWM_1.c ****     uint8 enableInterrupts;
 259:.\Generated_Source\PSoC4/PWM_1.c **** 
 260:.\Generated_Source\PSoC4/PWM_1.c ****     enableInterrupts = CyEnterCriticalSection();
  68              		.loc 1 260 0
  69 0002 FFF7FEFF 		bl	CyEnterCriticalSection
  70              	.LVL2:
 261:.\Generated_Source\PSoC4/PWM_1.c **** 
 262:.\Generated_Source\PSoC4/PWM_1.c ****     PWM_1_BLOCK_CONTROL_REG &= (uint32)~PWM_1_MASK;
  71              		.loc 1 262 0
  72 0006 044A     		ldr	r2, .L5
  73 0008 1368     		ldr	r3, [r2]
  74 000a 0121     		mov	r1, #1
  75 000c 8B43     		bic	r3, r1
  76 000e 1360     		str	r3, [r2]
 263:.\Generated_Source\PSoC4/PWM_1.c **** 
 264:.\Generated_Source\PSoC4/PWM_1.c ****     CyExitCriticalSection(enableInterrupts);
  77              		.loc 1 264 0
  78 0010 FFF7FEFF 		bl	CyExitCriticalSection
ARM GAS  C:\Users\g\AppData\Local\Temp\ccMxCaP9.s 			page 7


  79              	.LVL3:
 265:.\Generated_Source\PSoC4/PWM_1.c **** }
  80              		.loc 1 265 0
  81              		@ sp needed
  82 0014 08BD     		pop	{r3, pc}
  83              	.L6:
  84 0016 C046     		.align	2
  85              	.L5:
  86 0018 00000540 		.word	1074069504
  87              		.cfi_endproc
  88              	.LFE3:
  89              		.size	PWM_1_Stop, .-PWM_1_Stop
  90              		.section	.text.PWM_1_SetMode,"ax",%progbits
  91              		.align	2
  92              		.global	PWM_1_SetMode
  93              		.code	16
  94              		.thumb_func
  95              		.type	PWM_1_SetMode, %function
  96              	PWM_1_SetMode:
  97              	.LFB4:
 266:.\Generated_Source\PSoC4/PWM_1.c **** 
 267:.\Generated_Source\PSoC4/PWM_1.c **** 
 268:.\Generated_Source\PSoC4/PWM_1.c **** /*******************************************************************************
 269:.\Generated_Source\PSoC4/PWM_1.c **** * Function Name: PWM_1_SetMode
 270:.\Generated_Source\PSoC4/PWM_1.c **** ********************************************************************************
 271:.\Generated_Source\PSoC4/PWM_1.c **** *
 272:.\Generated_Source\PSoC4/PWM_1.c **** * Summary:
 273:.\Generated_Source\PSoC4/PWM_1.c **** *  Sets the operation mode of the PWM_1. This function is used when
 274:.\Generated_Source\PSoC4/PWM_1.c **** *  configured as a generic PWM_1 and the actual mode of operation is
 275:.\Generated_Source\PSoC4/PWM_1.c **** *  set at runtime. The mode must be set while the component is disabled.
 276:.\Generated_Source\PSoC4/PWM_1.c **** *
 277:.\Generated_Source\PSoC4/PWM_1.c **** * Parameters:
 278:.\Generated_Source\PSoC4/PWM_1.c **** *  mode: Mode for the PWM_1 to operate in
 279:.\Generated_Source\PSoC4/PWM_1.c **** *   Values:
 280:.\Generated_Source\PSoC4/PWM_1.c **** *   - PWM_1_MODE_TIMER_COMPARE - Timer / Counter with
 281:.\Generated_Source\PSoC4/PWM_1.c **** *                                                 compare capability
 282:.\Generated_Source\PSoC4/PWM_1.c **** *         - PWM_1_MODE_TIMER_CAPTURE - Timer / Counter with
 283:.\Generated_Source\PSoC4/PWM_1.c **** *                                                 capture capability
 284:.\Generated_Source\PSoC4/PWM_1.c **** *         - PWM_1_MODE_QUAD - Quadrature decoder
 285:.\Generated_Source\PSoC4/PWM_1.c **** *         - PWM_1_MODE_PWM - PWM
 286:.\Generated_Source\PSoC4/PWM_1.c **** *         - PWM_1_MODE_PWM_DT - PWM with dead time
 287:.\Generated_Source\PSoC4/PWM_1.c **** *         - PWM_1_MODE_PWM_PR - PWM with pseudo random capability
 288:.\Generated_Source\PSoC4/PWM_1.c **** *
 289:.\Generated_Source\PSoC4/PWM_1.c **** * Return:
 290:.\Generated_Source\PSoC4/PWM_1.c **** *  None
 291:.\Generated_Source\PSoC4/PWM_1.c **** *
 292:.\Generated_Source\PSoC4/PWM_1.c **** *******************************************************************************/
 293:.\Generated_Source\PSoC4/PWM_1.c **** void PWM_1_SetMode(uint32 mode)
 294:.\Generated_Source\PSoC4/PWM_1.c **** {
  98              		.loc 1 294 0
  99              		.cfi_startproc
 100              	.LVL4:
 101 0000 10B5     		push	{r4, lr}
 102              		.cfi_def_cfa_offset 8
 103              		.cfi_offset 4, -8
 104              		.cfi_offset 14, -4
 105 0002 041C     		mov	r4, r0
ARM GAS  C:\Users\g\AppData\Local\Temp\ccMxCaP9.s 			page 8


 295:.\Generated_Source\PSoC4/PWM_1.c ****     uint8 enableInterrupts;
 296:.\Generated_Source\PSoC4/PWM_1.c **** 
 297:.\Generated_Source\PSoC4/PWM_1.c ****     enableInterrupts = CyEnterCriticalSection();
 106              		.loc 1 297 0
 107 0004 FFF7FEFF 		bl	CyEnterCriticalSection
 108              	.LVL5:
 298:.\Generated_Source\PSoC4/PWM_1.c **** 
 299:.\Generated_Source\PSoC4/PWM_1.c ****     PWM_1_CONTROL_REG &= (uint32)~PWM_1_MODE_MASK;
 109              		.loc 1 299 0
 110 0008 054B     		ldr	r3, .L8
 111 000a 1968     		ldr	r1, [r3]
 112 000c 054A     		ldr	r2, .L8+4
 113 000e 0A40     		and	r2, r1
 114 0010 1A60     		str	r2, [r3]
 300:.\Generated_Source\PSoC4/PWM_1.c ****     PWM_1_CONTROL_REG |= mode;
 115              		.loc 1 300 0
 116 0012 1A68     		ldr	r2, [r3]
 117 0014 1443     		orr	r4, r2
 118              	.LVL6:
 119 0016 1C60     		str	r4, [r3]
 301:.\Generated_Source\PSoC4/PWM_1.c **** 
 302:.\Generated_Source\PSoC4/PWM_1.c ****     CyExitCriticalSection(enableInterrupts);
 120              		.loc 1 302 0
 121 0018 FFF7FEFF 		bl	CyExitCriticalSection
 122              	.LVL7:
 303:.\Generated_Source\PSoC4/PWM_1.c **** }
 123              		.loc 1 303 0
 124              		@ sp needed
 125 001c 10BD     		pop	{r4, pc}
 126              	.L9:
 127 001e C046     		.align	2
 128              	.L8:
 129 0020 00010540 		.word	1074069760
 130 0024 FFFFFFF8 		.word	-117440513
 131              		.cfi_endproc
 132              	.LFE4:
 133              		.size	PWM_1_SetMode, .-PWM_1_SetMode
 134              		.section	.text.PWM_1_SetQDMode,"ax",%progbits
 135              		.align	2
 136              		.global	PWM_1_SetQDMode
 137              		.code	16
 138              		.thumb_func
 139              		.type	PWM_1_SetQDMode, %function
 140              	PWM_1_SetQDMode:
 141              	.LFB5:
 304:.\Generated_Source\PSoC4/PWM_1.c **** 
 305:.\Generated_Source\PSoC4/PWM_1.c **** 
 306:.\Generated_Source\PSoC4/PWM_1.c **** /*******************************************************************************
 307:.\Generated_Source\PSoC4/PWM_1.c **** * Function Name: PWM_1_SetQDMode
 308:.\Generated_Source\PSoC4/PWM_1.c **** ********************************************************************************
 309:.\Generated_Source\PSoC4/PWM_1.c **** *
 310:.\Generated_Source\PSoC4/PWM_1.c **** * Summary:
 311:.\Generated_Source\PSoC4/PWM_1.c **** *  Sets the the Quadrature Decoder to one of the 3 supported modes.
 312:.\Generated_Source\PSoC4/PWM_1.c **** *  Its functionality is only applicable to Quadrature Decoder operation.
 313:.\Generated_Source\PSoC4/PWM_1.c **** *
 314:.\Generated_Source\PSoC4/PWM_1.c **** * Parameters:
 315:.\Generated_Source\PSoC4/PWM_1.c **** *  qdMode: Quadrature Decoder mode
ARM GAS  C:\Users\g\AppData\Local\Temp\ccMxCaP9.s 			page 9


 316:.\Generated_Source\PSoC4/PWM_1.c **** *   Values:
 317:.\Generated_Source\PSoC4/PWM_1.c **** *         - PWM_1_MODE_X1 - Counts on phi 1 rising
 318:.\Generated_Source\PSoC4/PWM_1.c **** *         - PWM_1_MODE_X2 - Counts on both edges of phi1 (2x faster)
 319:.\Generated_Source\PSoC4/PWM_1.c **** *         - PWM_1_MODE_X4 - Counts on both edges of phi1 and phi2
 320:.\Generated_Source\PSoC4/PWM_1.c **** *                                        (4x faster)
 321:.\Generated_Source\PSoC4/PWM_1.c **** *
 322:.\Generated_Source\PSoC4/PWM_1.c **** * Return:
 323:.\Generated_Source\PSoC4/PWM_1.c **** *  None
 324:.\Generated_Source\PSoC4/PWM_1.c **** *
 325:.\Generated_Source\PSoC4/PWM_1.c **** *******************************************************************************/
 326:.\Generated_Source\PSoC4/PWM_1.c **** void PWM_1_SetQDMode(uint32 qdMode)
 327:.\Generated_Source\PSoC4/PWM_1.c **** {
 142              		.loc 1 327 0
 143              		.cfi_startproc
 144              	.LVL8:
 145 0000 10B5     		push	{r4, lr}
 146              		.cfi_def_cfa_offset 8
 147              		.cfi_offset 4, -8
 148              		.cfi_offset 14, -4
 149 0002 041C     		mov	r4, r0
 328:.\Generated_Source\PSoC4/PWM_1.c ****     uint8 enableInterrupts;
 329:.\Generated_Source\PSoC4/PWM_1.c **** 
 330:.\Generated_Source\PSoC4/PWM_1.c ****     enableInterrupts = CyEnterCriticalSection();
 150              		.loc 1 330 0
 151 0004 FFF7FEFF 		bl	CyEnterCriticalSection
 152              	.LVL9:
 331:.\Generated_Source\PSoC4/PWM_1.c **** 
 332:.\Generated_Source\PSoC4/PWM_1.c ****     PWM_1_CONTROL_REG &= (uint32)~PWM_1_QUAD_MODE_MASK;
 153              		.loc 1 332 0
 154 0008 054B     		ldr	r3, .L11
 155 000a 1968     		ldr	r1, [r3]
 156 000c 054A     		ldr	r2, .L11+4
 157 000e 0A40     		and	r2, r1
 158 0010 1A60     		str	r2, [r3]
 333:.\Generated_Source\PSoC4/PWM_1.c ****     PWM_1_CONTROL_REG |= qdMode;
 159              		.loc 1 333 0
 160 0012 1A68     		ldr	r2, [r3]
 161 0014 1443     		orr	r4, r2
 162              	.LVL10:
 163 0016 1C60     		str	r4, [r3]
 334:.\Generated_Source\PSoC4/PWM_1.c **** 
 335:.\Generated_Source\PSoC4/PWM_1.c ****     CyExitCriticalSection(enableInterrupts);
 164              		.loc 1 335 0
 165 0018 FFF7FEFF 		bl	CyExitCriticalSection
 166              	.LVL11:
 336:.\Generated_Source\PSoC4/PWM_1.c **** }
 167              		.loc 1 336 0
 168              		@ sp needed
 169 001c 10BD     		pop	{r4, pc}
 170              	.L12:
 171 001e C046     		.align	2
 172              	.L11:
 173 0020 00010540 		.word	1074069760
 174 0024 FFFF8FFF 		.word	-7340033
 175              		.cfi_endproc
 176              	.LFE5:
 177              		.size	PWM_1_SetQDMode, .-PWM_1_SetQDMode
ARM GAS  C:\Users\g\AppData\Local\Temp\ccMxCaP9.s 			page 10


 178              		.section	.text.PWM_1_SetPrescaler,"ax",%progbits
 179              		.align	2
 180              		.global	PWM_1_SetPrescaler
 181              		.code	16
 182              		.thumb_func
 183              		.type	PWM_1_SetPrescaler, %function
 184              	PWM_1_SetPrescaler:
 185              	.LFB6:
 337:.\Generated_Source\PSoC4/PWM_1.c **** 
 338:.\Generated_Source\PSoC4/PWM_1.c **** 
 339:.\Generated_Source\PSoC4/PWM_1.c **** /*******************************************************************************
 340:.\Generated_Source\PSoC4/PWM_1.c **** * Function Name: PWM_1_SetPrescaler
 341:.\Generated_Source\PSoC4/PWM_1.c **** ********************************************************************************
 342:.\Generated_Source\PSoC4/PWM_1.c **** *
 343:.\Generated_Source\PSoC4/PWM_1.c **** * Summary:
 344:.\Generated_Source\PSoC4/PWM_1.c **** *  Sets the prescaler value that is applied to the clock input.  Not applicable
 345:.\Generated_Source\PSoC4/PWM_1.c **** *  to a PWM with the dead time mode or Quadrature Decoder mode.
 346:.\Generated_Source\PSoC4/PWM_1.c **** *
 347:.\Generated_Source\PSoC4/PWM_1.c **** * Parameters:
 348:.\Generated_Source\PSoC4/PWM_1.c **** *  prescaler: Prescaler divider value
 349:.\Generated_Source\PSoC4/PWM_1.c **** *   Values:
 350:.\Generated_Source\PSoC4/PWM_1.c **** *         - PWM_1_PRESCALE_DIVBY1    - Divide by 1 (no prescaling)
 351:.\Generated_Source\PSoC4/PWM_1.c **** *         - PWM_1_PRESCALE_DIVBY2    - Divide by 2
 352:.\Generated_Source\PSoC4/PWM_1.c **** *         - PWM_1_PRESCALE_DIVBY4    - Divide by 4
 353:.\Generated_Source\PSoC4/PWM_1.c **** *         - PWM_1_PRESCALE_DIVBY8    - Divide by 8
 354:.\Generated_Source\PSoC4/PWM_1.c **** *         - PWM_1_PRESCALE_DIVBY16   - Divide by 16
 355:.\Generated_Source\PSoC4/PWM_1.c **** *         - PWM_1_PRESCALE_DIVBY32   - Divide by 32
 356:.\Generated_Source\PSoC4/PWM_1.c **** *         - PWM_1_PRESCALE_DIVBY64   - Divide by 64
 357:.\Generated_Source\PSoC4/PWM_1.c **** *         - PWM_1_PRESCALE_DIVBY128  - Divide by 128
 358:.\Generated_Source\PSoC4/PWM_1.c **** *
 359:.\Generated_Source\PSoC4/PWM_1.c **** * Return:
 360:.\Generated_Source\PSoC4/PWM_1.c **** *  None
 361:.\Generated_Source\PSoC4/PWM_1.c **** *
 362:.\Generated_Source\PSoC4/PWM_1.c **** *******************************************************************************/
 363:.\Generated_Source\PSoC4/PWM_1.c **** void PWM_1_SetPrescaler(uint32 prescaler)
 364:.\Generated_Source\PSoC4/PWM_1.c **** {
 186              		.loc 1 364 0
 187              		.cfi_startproc
 188              	.LVL12:
 189 0000 10B5     		push	{r4, lr}
 190              		.cfi_def_cfa_offset 8
 191              		.cfi_offset 4, -8
 192              		.cfi_offset 14, -4
 193 0002 041C     		mov	r4, r0
 365:.\Generated_Source\PSoC4/PWM_1.c ****     uint8 enableInterrupts;
 366:.\Generated_Source\PSoC4/PWM_1.c **** 
 367:.\Generated_Source\PSoC4/PWM_1.c ****     enableInterrupts = CyEnterCriticalSection();
 194              		.loc 1 367 0
 195 0004 FFF7FEFF 		bl	CyEnterCriticalSection
 196              	.LVL13:
 368:.\Generated_Source\PSoC4/PWM_1.c **** 
 369:.\Generated_Source\PSoC4/PWM_1.c ****     PWM_1_CONTROL_REG &= (uint32)~PWM_1_PRESCALER_MASK;
 197              		.loc 1 369 0
 198 0008 054B     		ldr	r3, .L14
 199 000a 1968     		ldr	r1, [r3]
 200 000c 054A     		ldr	r2, .L14+4
 201 000e 0A40     		and	r2, r1
ARM GAS  C:\Users\g\AppData\Local\Temp\ccMxCaP9.s 			page 11


 202 0010 1A60     		str	r2, [r3]
 370:.\Generated_Source\PSoC4/PWM_1.c ****     PWM_1_CONTROL_REG |= prescaler;
 203              		.loc 1 370 0
 204 0012 1A68     		ldr	r2, [r3]
 205 0014 1443     		orr	r4, r2
 206              	.LVL14:
 207 0016 1C60     		str	r4, [r3]
 371:.\Generated_Source\PSoC4/PWM_1.c **** 
 372:.\Generated_Source\PSoC4/PWM_1.c ****     CyExitCriticalSection(enableInterrupts);
 208              		.loc 1 372 0
 209 0018 FFF7FEFF 		bl	CyExitCriticalSection
 210              	.LVL15:
 373:.\Generated_Source\PSoC4/PWM_1.c **** }
 211              		.loc 1 373 0
 212              		@ sp needed
 213 001c 10BD     		pop	{r4, pc}
 214              	.L15:
 215 001e C046     		.align	2
 216              	.L14:
 217 0020 00010540 		.word	1074069760
 218 0024 FF00FFFF 		.word	-65281
 219              		.cfi_endproc
 220              	.LFE6:
 221              		.size	PWM_1_SetPrescaler, .-PWM_1_SetPrescaler
 222              		.section	.text.PWM_1_SetOneShot,"ax",%progbits
 223              		.align	2
 224              		.global	PWM_1_SetOneShot
 225              		.code	16
 226              		.thumb_func
 227              		.type	PWM_1_SetOneShot, %function
 228              	PWM_1_SetOneShot:
 229              	.LFB7:
 374:.\Generated_Source\PSoC4/PWM_1.c **** 
 375:.\Generated_Source\PSoC4/PWM_1.c **** 
 376:.\Generated_Source\PSoC4/PWM_1.c **** /*******************************************************************************
 377:.\Generated_Source\PSoC4/PWM_1.c **** * Function Name: PWM_1_SetOneShot
 378:.\Generated_Source\PSoC4/PWM_1.c **** ********************************************************************************
 379:.\Generated_Source\PSoC4/PWM_1.c **** *
 380:.\Generated_Source\PSoC4/PWM_1.c **** * Summary:
 381:.\Generated_Source\PSoC4/PWM_1.c **** *  Writes the register that controls whether the PWM_1 runs
 382:.\Generated_Source\PSoC4/PWM_1.c **** *  continuously or stops when terminal count is reached.  By default the
 383:.\Generated_Source\PSoC4/PWM_1.c **** *  PWM_1 operates in the continuous mode.
 384:.\Generated_Source\PSoC4/PWM_1.c **** *
 385:.\Generated_Source\PSoC4/PWM_1.c **** * Parameters:
 386:.\Generated_Source\PSoC4/PWM_1.c **** *  oneShotEnable
 387:.\Generated_Source\PSoC4/PWM_1.c **** *   Values:
 388:.\Generated_Source\PSoC4/PWM_1.c **** *     - 0 - Continuous
 389:.\Generated_Source\PSoC4/PWM_1.c **** *     - 1 - Enable One Shot
 390:.\Generated_Source\PSoC4/PWM_1.c **** *
 391:.\Generated_Source\PSoC4/PWM_1.c **** * Return:
 392:.\Generated_Source\PSoC4/PWM_1.c **** *  None
 393:.\Generated_Source\PSoC4/PWM_1.c **** *
 394:.\Generated_Source\PSoC4/PWM_1.c **** *******************************************************************************/
 395:.\Generated_Source\PSoC4/PWM_1.c **** void PWM_1_SetOneShot(uint32 oneShotEnable)
 396:.\Generated_Source\PSoC4/PWM_1.c **** {
 230              		.loc 1 396 0
 231              		.cfi_startproc
ARM GAS  C:\Users\g\AppData\Local\Temp\ccMxCaP9.s 			page 12


 232              	.LVL16:
 233 0000 10B5     		push	{r4, lr}
 234              		.cfi_def_cfa_offset 8
 235              		.cfi_offset 4, -8
 236              		.cfi_offset 14, -4
 237 0002 041C     		mov	r4, r0
 397:.\Generated_Source\PSoC4/PWM_1.c ****     uint8 enableInterrupts;
 398:.\Generated_Source\PSoC4/PWM_1.c **** 
 399:.\Generated_Source\PSoC4/PWM_1.c ****     enableInterrupts = CyEnterCriticalSection();
 238              		.loc 1 399 0
 239 0004 FFF7FEFF 		bl	CyEnterCriticalSection
 240              	.LVL17:
 400:.\Generated_Source\PSoC4/PWM_1.c **** 
 401:.\Generated_Source\PSoC4/PWM_1.c ****     PWM_1_CONTROL_REG &= (uint32)~PWM_1_ONESHOT_MASK;
 241              		.loc 1 401 0
 242 0008 064B     		ldr	r3, .L17
 243 000a 1968     		ldr	r1, [r3]
 244 000c 064A     		ldr	r2, .L17+4
 245 000e 0A40     		and	r2, r1
 246 0010 1A60     		str	r2, [r3]
 402:.\Generated_Source\PSoC4/PWM_1.c ****     PWM_1_CONTROL_REG |= ((uint32)((oneShotEnable & PWM_1_1BIT_MASK) <<
 247              		.loc 1 402 0
 248 0012 1A68     		ldr	r2, [r3]
 249 0014 0121     		mov	r1, #1
 250 0016 0C40     		and	r4, r1
 251              	.LVL18:
 252 0018 A404     		lsl	r4, r4, #18
 253 001a 1443     		orr	r4, r2
 254 001c 1C60     		str	r4, [r3]
 403:.\Generated_Source\PSoC4/PWM_1.c ****                                                                PWM_1_ONESHOT_SHIFT));
 404:.\Generated_Source\PSoC4/PWM_1.c **** 
 405:.\Generated_Source\PSoC4/PWM_1.c ****     CyExitCriticalSection(enableInterrupts);
 255              		.loc 1 405 0
 256 001e FFF7FEFF 		bl	CyExitCriticalSection
 257              	.LVL19:
 406:.\Generated_Source\PSoC4/PWM_1.c **** }
 258              		.loc 1 406 0
 259              		@ sp needed
 260 0022 10BD     		pop	{r4, pc}
 261              	.L18:
 262              		.align	2
 263              	.L17:
 264 0024 00010540 		.word	1074069760
 265 0028 FFFFFBFF 		.word	-262145
 266              		.cfi_endproc
 267              	.LFE7:
 268              		.size	PWM_1_SetOneShot, .-PWM_1_SetOneShot
 269              		.section	.text.PWM_1_SetPWMMode,"ax",%progbits
 270              		.align	2
 271              		.global	PWM_1_SetPWMMode
 272              		.code	16
 273              		.thumb_func
 274              		.type	PWM_1_SetPWMMode, %function
 275              	PWM_1_SetPWMMode:
 276              	.LFB8:
 407:.\Generated_Source\PSoC4/PWM_1.c **** 
 408:.\Generated_Source\PSoC4/PWM_1.c **** 
ARM GAS  C:\Users\g\AppData\Local\Temp\ccMxCaP9.s 			page 13


 409:.\Generated_Source\PSoC4/PWM_1.c **** /*******************************************************************************
 410:.\Generated_Source\PSoC4/PWM_1.c **** * Function Name: PWM_1_SetPWMMode
 411:.\Generated_Source\PSoC4/PWM_1.c **** ********************************************************************************
 412:.\Generated_Source\PSoC4/PWM_1.c **** *
 413:.\Generated_Source\PSoC4/PWM_1.c **** * Summary:
 414:.\Generated_Source\PSoC4/PWM_1.c **** *  Writes the control register that determines what mode of operation the PWM
 415:.\Generated_Source\PSoC4/PWM_1.c **** *  output lines are driven in.  There is a setting for what to do on a
 416:.\Generated_Source\PSoC4/PWM_1.c **** *  comparison match (CC_MATCH), on an overflow (OVERFLOW) and on an underflow
 417:.\Generated_Source\PSoC4/PWM_1.c **** *  (UNDERFLOW).  The value for each of the three must be ORed together to form
 418:.\Generated_Source\PSoC4/PWM_1.c **** *  the mode.
 419:.\Generated_Source\PSoC4/PWM_1.c **** *
 420:.\Generated_Source\PSoC4/PWM_1.c **** * Parameters:
 421:.\Generated_Source\PSoC4/PWM_1.c **** *  modeMask: A combination of three mode settings.  Mask must include a value
 422:.\Generated_Source\PSoC4/PWM_1.c **** *  for each of the three or use one of the preconfigured PWM settings.
 423:.\Generated_Source\PSoC4/PWM_1.c **** *   Values:
 424:.\Generated_Source\PSoC4/PWM_1.c **** *     - CC_MATCH_SET        - Set on comparison match
 425:.\Generated_Source\PSoC4/PWM_1.c **** *     - CC_MATCH_CLEAR      - Clear on comparison match
 426:.\Generated_Source\PSoC4/PWM_1.c **** *     - CC_MATCH_INVERT     - Invert on comparison match
 427:.\Generated_Source\PSoC4/PWM_1.c **** *     - CC_MATCH_NO_CHANGE  - No change on comparison match
 428:.\Generated_Source\PSoC4/PWM_1.c **** *     - OVERLOW_SET         - Set on overflow
 429:.\Generated_Source\PSoC4/PWM_1.c **** *     - OVERLOW_CLEAR       - Clear on  overflow
 430:.\Generated_Source\PSoC4/PWM_1.c **** *     - OVERLOW_INVERT      - Invert on overflow
 431:.\Generated_Source\PSoC4/PWM_1.c **** *     - OVERLOW_NO_CHANGE   - No change on overflow
 432:.\Generated_Source\PSoC4/PWM_1.c **** *     - UNDERFLOW_SET       - Set on underflow
 433:.\Generated_Source\PSoC4/PWM_1.c **** *     - UNDERFLOW_CLEAR     - Clear on underflow
 434:.\Generated_Source\PSoC4/PWM_1.c **** *     - UNDERFLOW_INVERT    - Invert on underflow
 435:.\Generated_Source\PSoC4/PWM_1.c **** *     - UNDERFLOW_NO_CHANGE - No change on underflow
 436:.\Generated_Source\PSoC4/PWM_1.c **** *     - PWM_MODE_LEFT       - Setting for left aligned PWM.  Should be combined
 437:.\Generated_Source\PSoC4/PWM_1.c **** *                             with up counting mode
 438:.\Generated_Source\PSoC4/PWM_1.c **** *     - PWM_MODE_RIGHT      - Setting for right aligned PWM.  Should be combined
 439:.\Generated_Source\PSoC4/PWM_1.c **** *                             with down counting mode
 440:.\Generated_Source\PSoC4/PWM_1.c **** *     - PWM_MODE_CENTER     - Setting for center aligned PWM.  Should be
 441:.\Generated_Source\PSoC4/PWM_1.c **** *                             combined with up/down 0 mode
 442:.\Generated_Source\PSoC4/PWM_1.c **** *     - PWM_MODE_ASYM       - Setting for asymmetric PWM.  Should be combined
 443:.\Generated_Source\PSoC4/PWM_1.c **** *                             with up/down 1 mode
 444:.\Generated_Source\PSoC4/PWM_1.c **** *
 445:.\Generated_Source\PSoC4/PWM_1.c **** * Return:
 446:.\Generated_Source\PSoC4/PWM_1.c **** *  None
 447:.\Generated_Source\PSoC4/PWM_1.c **** *
 448:.\Generated_Source\PSoC4/PWM_1.c **** *******************************************************************************/
 449:.\Generated_Source\PSoC4/PWM_1.c **** void PWM_1_SetPWMMode(uint32 modeMask)
 450:.\Generated_Source\PSoC4/PWM_1.c **** {
 277              		.loc 1 450 0
 278              		.cfi_startproc
 279              	.LVL20:
 451:.\Generated_Source\PSoC4/PWM_1.c ****     PWM_1_TRIG_CONTROL2_REG = (modeMask & PWM_1_6BIT_MASK);
 280              		.loc 1 451 0
 281 0000 3F23     		mov	r3, #63
 282 0002 1840     		and	r0, r3
 283              	.LVL21:
 284 0004 014B     		ldr	r3, .L20
 285 0006 1860     		str	r0, [r3]
 452:.\Generated_Source\PSoC4/PWM_1.c **** }
 286              		.loc 1 452 0
 287              		@ sp needed
 288 0008 7047     		bx	lr
 289              	.L21:
ARM GAS  C:\Users\g\AppData\Local\Temp\ccMxCaP9.s 			page 14


 290 000a C046     		.align	2
 291              	.L20:
 292 000c 28010540 		.word	1074069800
 293              		.cfi_endproc
 294              	.LFE8:
 295              		.size	PWM_1_SetPWMMode, .-PWM_1_SetPWMMode
 296              		.section	.text.PWM_1_SetPWMSyncKill,"ax",%progbits
 297              		.align	2
 298              		.global	PWM_1_SetPWMSyncKill
 299              		.code	16
 300              		.thumb_func
 301              		.type	PWM_1_SetPWMSyncKill, %function
 302              	PWM_1_SetPWMSyncKill:
 303              	.LFB9:
 453:.\Generated_Source\PSoC4/PWM_1.c **** 
 454:.\Generated_Source\PSoC4/PWM_1.c **** 
 455:.\Generated_Source\PSoC4/PWM_1.c **** 
 456:.\Generated_Source\PSoC4/PWM_1.c **** /*******************************************************************************
 457:.\Generated_Source\PSoC4/PWM_1.c **** * Function Name: PWM_1_SetPWMSyncKill
 458:.\Generated_Source\PSoC4/PWM_1.c **** ********************************************************************************
 459:.\Generated_Source\PSoC4/PWM_1.c **** *
 460:.\Generated_Source\PSoC4/PWM_1.c **** * Summary:
 461:.\Generated_Source\PSoC4/PWM_1.c **** *  Writes the register that controls whether the PWM kill signal (stop input)
 462:.\Generated_Source\PSoC4/PWM_1.c **** *  causes asynchronous or synchronous kill operation.  By default the kill
 463:.\Generated_Source\PSoC4/PWM_1.c **** *  operation is asynchronous.  This functionality is only applicable to the PWM
 464:.\Generated_Source\PSoC4/PWM_1.c **** *  and PWM with dead time modes.
 465:.\Generated_Source\PSoC4/PWM_1.c **** *
 466:.\Generated_Source\PSoC4/PWM_1.c **** *  For Synchronous mode the kill signal disables both the line and line_n
 467:.\Generated_Source\PSoC4/PWM_1.c **** *  signals until the next terminal count.
 468:.\Generated_Source\PSoC4/PWM_1.c **** *
 469:.\Generated_Source\PSoC4/PWM_1.c **** *  For Asynchronous mode the kill signal disables both the line and line_n
 470:.\Generated_Source\PSoC4/PWM_1.c **** *  signals when the kill signal is present.  This mode should only be used
 471:.\Generated_Source\PSoC4/PWM_1.c **** *  when the kill signal (stop input) is configured in the pass through mode
 472:.\Generated_Source\PSoC4/PWM_1.c **** *  (Level sensitive signal).
 473:.\Generated_Source\PSoC4/PWM_1.c **** 
 474:.\Generated_Source\PSoC4/PWM_1.c **** *
 475:.\Generated_Source\PSoC4/PWM_1.c **** * Parameters:
 476:.\Generated_Source\PSoC4/PWM_1.c **** *  syncKillEnable
 477:.\Generated_Source\PSoC4/PWM_1.c **** *   Values:
 478:.\Generated_Source\PSoC4/PWM_1.c **** *     - 0 - Asynchronous
 479:.\Generated_Source\PSoC4/PWM_1.c **** *     - 1 - Synchronous
 480:.\Generated_Source\PSoC4/PWM_1.c **** *
 481:.\Generated_Source\PSoC4/PWM_1.c **** * Return:
 482:.\Generated_Source\PSoC4/PWM_1.c **** *  None
 483:.\Generated_Source\PSoC4/PWM_1.c **** *
 484:.\Generated_Source\PSoC4/PWM_1.c **** *******************************************************************************/
 485:.\Generated_Source\PSoC4/PWM_1.c **** void PWM_1_SetPWMSyncKill(uint32 syncKillEnable)
 486:.\Generated_Source\PSoC4/PWM_1.c **** {
 304              		.loc 1 486 0
 305              		.cfi_startproc
 306              	.LVL22:
 307 0000 10B5     		push	{r4, lr}
 308              		.cfi_def_cfa_offset 8
 309              		.cfi_offset 4, -8
 310              		.cfi_offset 14, -4
 311 0002 041C     		mov	r4, r0
 487:.\Generated_Source\PSoC4/PWM_1.c ****     uint8 enableInterrupts;
ARM GAS  C:\Users\g\AppData\Local\Temp\ccMxCaP9.s 			page 15


 488:.\Generated_Source\PSoC4/PWM_1.c **** 
 489:.\Generated_Source\PSoC4/PWM_1.c ****     enableInterrupts = CyEnterCriticalSection();
 312              		.loc 1 489 0
 313 0004 FFF7FEFF 		bl	CyEnterCriticalSection
 314              	.LVL23:
 490:.\Generated_Source\PSoC4/PWM_1.c **** 
 491:.\Generated_Source\PSoC4/PWM_1.c ****     PWM_1_CONTROL_REG &= (uint32)~PWM_1_PWM_SYNC_KILL_MASK;
 315              		.loc 1 491 0
 316 0008 064B     		ldr	r3, .L23
 317 000a 1A68     		ldr	r2, [r3]
 318 000c 0421     		mov	r1, #4
 319 000e 8A43     		bic	r2, r1
 320 0010 1A60     		str	r2, [r3]
 492:.\Generated_Source\PSoC4/PWM_1.c ****     PWM_1_CONTROL_REG |= ((uint32)((syncKillEnable & PWM_1_1BIT_MASK)  <<
 321              		.loc 1 492 0
 322 0012 1A68     		ldr	r2, [r3]
 323 0014 0339     		sub	r1, r1, #3
 324 0016 0C40     		and	r4, r1
 325              	.LVL24:
 326 0018 A400     		lsl	r4, r4, #2
 327 001a 1443     		orr	r4, r2
 328 001c 1C60     		str	r4, [r3]
 493:.\Generated_Source\PSoC4/PWM_1.c ****                                                PWM_1_PWM_SYNC_KILL_SHIFT));
 494:.\Generated_Source\PSoC4/PWM_1.c **** 
 495:.\Generated_Source\PSoC4/PWM_1.c ****     CyExitCriticalSection(enableInterrupts);
 329              		.loc 1 495 0
 330 001e FFF7FEFF 		bl	CyExitCriticalSection
 331              	.LVL25:
 496:.\Generated_Source\PSoC4/PWM_1.c **** }
 332              		.loc 1 496 0
 333              		@ sp needed
 334 0022 10BD     		pop	{r4, pc}
 335              	.L24:
 336              		.align	2
 337              	.L23:
 338 0024 00010540 		.word	1074069760
 339              		.cfi_endproc
 340              	.LFE9:
 341              		.size	PWM_1_SetPWMSyncKill, .-PWM_1_SetPWMSyncKill
 342              		.section	.text.PWM_1_SetPWMStopOnKill,"ax",%progbits
 343              		.align	2
 344              		.global	PWM_1_SetPWMStopOnKill
 345              		.code	16
 346              		.thumb_func
 347              		.type	PWM_1_SetPWMStopOnKill, %function
 348              	PWM_1_SetPWMStopOnKill:
 349              	.LFB10:
 497:.\Generated_Source\PSoC4/PWM_1.c **** 
 498:.\Generated_Source\PSoC4/PWM_1.c **** 
 499:.\Generated_Source\PSoC4/PWM_1.c **** /*******************************************************************************
 500:.\Generated_Source\PSoC4/PWM_1.c **** * Function Name: PWM_1_SetPWMStopOnKill
 501:.\Generated_Source\PSoC4/PWM_1.c **** ********************************************************************************
 502:.\Generated_Source\PSoC4/PWM_1.c **** *
 503:.\Generated_Source\PSoC4/PWM_1.c **** * Summary:
 504:.\Generated_Source\PSoC4/PWM_1.c **** *  Writes the register that controls whether the PWM kill signal (stop input)
 505:.\Generated_Source\PSoC4/PWM_1.c **** *  causes the PWM counter to stop.  By default the kill operation does not stop
 506:.\Generated_Source\PSoC4/PWM_1.c **** *  the counter.  This functionality is only applicable to the three PWM modes.
ARM GAS  C:\Users\g\AppData\Local\Temp\ccMxCaP9.s 			page 16


 507:.\Generated_Source\PSoC4/PWM_1.c **** *
 508:.\Generated_Source\PSoC4/PWM_1.c **** *
 509:.\Generated_Source\PSoC4/PWM_1.c **** * Parameters:
 510:.\Generated_Source\PSoC4/PWM_1.c **** *  stopOnKillEnable
 511:.\Generated_Source\PSoC4/PWM_1.c **** *   Values:
 512:.\Generated_Source\PSoC4/PWM_1.c **** *     - 0 - Don't stop
 513:.\Generated_Source\PSoC4/PWM_1.c **** *     - 1 - Stop
 514:.\Generated_Source\PSoC4/PWM_1.c **** *
 515:.\Generated_Source\PSoC4/PWM_1.c **** * Return:
 516:.\Generated_Source\PSoC4/PWM_1.c **** *  None
 517:.\Generated_Source\PSoC4/PWM_1.c **** *
 518:.\Generated_Source\PSoC4/PWM_1.c **** *******************************************************************************/
 519:.\Generated_Source\PSoC4/PWM_1.c **** void PWM_1_SetPWMStopOnKill(uint32 stopOnKillEnable)
 520:.\Generated_Source\PSoC4/PWM_1.c **** {
 350              		.loc 1 520 0
 351              		.cfi_startproc
 352              	.LVL26:
 353 0000 10B5     		push	{r4, lr}
 354              		.cfi_def_cfa_offset 8
 355              		.cfi_offset 4, -8
 356              		.cfi_offset 14, -4
 357 0002 041C     		mov	r4, r0
 521:.\Generated_Source\PSoC4/PWM_1.c ****     uint8 enableInterrupts;
 522:.\Generated_Source\PSoC4/PWM_1.c **** 
 523:.\Generated_Source\PSoC4/PWM_1.c ****     enableInterrupts = CyEnterCriticalSection();
 358              		.loc 1 523 0
 359 0004 FFF7FEFF 		bl	CyEnterCriticalSection
 360              	.LVL27:
 524:.\Generated_Source\PSoC4/PWM_1.c **** 
 525:.\Generated_Source\PSoC4/PWM_1.c ****     PWM_1_CONTROL_REG &= (uint32)~PWM_1_PWM_STOP_KILL_MASK;
 361              		.loc 1 525 0
 362 0008 064B     		ldr	r3, .L26
 363 000a 1A68     		ldr	r2, [r3]
 364 000c 0821     		mov	r1, #8
 365 000e 8A43     		bic	r2, r1
 366 0010 1A60     		str	r2, [r3]
 526:.\Generated_Source\PSoC4/PWM_1.c ****     PWM_1_CONTROL_REG |= ((uint32)((stopOnKillEnable & PWM_1_1BIT_MASK)  <<
 367              		.loc 1 526 0
 368 0012 1A68     		ldr	r2, [r3]
 369 0014 0739     		sub	r1, r1, #7
 370 0016 0C40     		and	r4, r1
 371              	.LVL28:
 372 0018 E400     		lsl	r4, r4, #3
 373 001a 1443     		orr	r4, r2
 374 001c 1C60     		str	r4, [r3]
 527:.\Generated_Source\PSoC4/PWM_1.c ****                                                          PWM_1_PWM_STOP_KILL_SHIFT));
 528:.\Generated_Source\PSoC4/PWM_1.c **** 
 529:.\Generated_Source\PSoC4/PWM_1.c ****     CyExitCriticalSection(enableInterrupts);
 375              		.loc 1 529 0
 376 001e FFF7FEFF 		bl	CyExitCriticalSection
 377              	.LVL29:
 530:.\Generated_Source\PSoC4/PWM_1.c **** }
 378              		.loc 1 530 0
 379              		@ sp needed
 380 0022 10BD     		pop	{r4, pc}
 381              	.L27:
 382              		.align	2
ARM GAS  C:\Users\g\AppData\Local\Temp\ccMxCaP9.s 			page 17


 383              	.L26:
 384 0024 00010540 		.word	1074069760
 385              		.cfi_endproc
 386              	.LFE10:
 387              		.size	PWM_1_SetPWMStopOnKill, .-PWM_1_SetPWMStopOnKill
 388              		.section	.text.PWM_1_SetPWMDeadTime,"ax",%progbits
 389              		.align	2
 390              		.global	PWM_1_SetPWMDeadTime
 391              		.code	16
 392              		.thumb_func
 393              		.type	PWM_1_SetPWMDeadTime, %function
 394              	PWM_1_SetPWMDeadTime:
 395              	.LFB11:
 531:.\Generated_Source\PSoC4/PWM_1.c **** 
 532:.\Generated_Source\PSoC4/PWM_1.c **** 
 533:.\Generated_Source\PSoC4/PWM_1.c **** /*******************************************************************************
 534:.\Generated_Source\PSoC4/PWM_1.c **** * Function Name: PWM_1_SetPWMDeadTime
 535:.\Generated_Source\PSoC4/PWM_1.c **** ********************************************************************************
 536:.\Generated_Source\PSoC4/PWM_1.c **** *
 537:.\Generated_Source\PSoC4/PWM_1.c **** * Summary:
 538:.\Generated_Source\PSoC4/PWM_1.c **** *  Writes the dead time control value.  This value delays the rising edge of
 539:.\Generated_Source\PSoC4/PWM_1.c **** *  both the line and line_n signals the designated number of cycles resulting
 540:.\Generated_Source\PSoC4/PWM_1.c **** *  in both signals being inactive for that many cycles.  This functionality is
 541:.\Generated_Source\PSoC4/PWM_1.c **** *  only applicable to the PWM in the dead time mode.
 542:.\Generated_Source\PSoC4/PWM_1.c **** 
 543:.\Generated_Source\PSoC4/PWM_1.c **** *
 544:.\Generated_Source\PSoC4/PWM_1.c **** * Parameters:
 545:.\Generated_Source\PSoC4/PWM_1.c **** *  Dead time to insert
 546:.\Generated_Source\PSoC4/PWM_1.c **** *   Values: 0 to 255
 547:.\Generated_Source\PSoC4/PWM_1.c **** *
 548:.\Generated_Source\PSoC4/PWM_1.c **** * Return:
 549:.\Generated_Source\PSoC4/PWM_1.c **** *  None
 550:.\Generated_Source\PSoC4/PWM_1.c **** *
 551:.\Generated_Source\PSoC4/PWM_1.c **** *******************************************************************************/
 552:.\Generated_Source\PSoC4/PWM_1.c **** void PWM_1_SetPWMDeadTime(uint32 deadTime)
 553:.\Generated_Source\PSoC4/PWM_1.c **** {
 396              		.loc 1 553 0
 397              		.cfi_startproc
 398              	.LVL30:
 399 0000 10B5     		push	{r4, lr}
 400              		.cfi_def_cfa_offset 8
 401              		.cfi_offset 4, -8
 402              		.cfi_offset 14, -4
 403 0002 041C     		mov	r4, r0
 554:.\Generated_Source\PSoC4/PWM_1.c ****     uint8 enableInterrupts;
 555:.\Generated_Source\PSoC4/PWM_1.c **** 
 556:.\Generated_Source\PSoC4/PWM_1.c ****     enableInterrupts = CyEnterCriticalSection();
 404              		.loc 1 556 0
 405 0004 FFF7FEFF 		bl	CyEnterCriticalSection
 406              	.LVL31:
 557:.\Generated_Source\PSoC4/PWM_1.c **** 
 558:.\Generated_Source\PSoC4/PWM_1.c ****     PWM_1_CONTROL_REG &= (uint32)~PWM_1_PRESCALER_MASK;
 407              		.loc 1 558 0
 408 0008 064B     		ldr	r3, .L29
 409 000a 1968     		ldr	r1, [r3]
 410 000c 064A     		ldr	r2, .L29+4
 411 000e 0A40     		and	r2, r1
ARM GAS  C:\Users\g\AppData\Local\Temp\ccMxCaP9.s 			page 18


 412 0010 1A60     		str	r2, [r3]
 559:.\Generated_Source\PSoC4/PWM_1.c ****     PWM_1_CONTROL_REG |= ((uint32)((deadTime & PWM_1_8BIT_MASK) <<
 413              		.loc 1 559 0
 414 0012 1A68     		ldr	r2, [r3]
 415 0014 2406     		lsl	r4, r4, #24
 416              	.LVL32:
 417 0016 240C     		lsr	r4, r4, #16
 418 0018 1443     		orr	r4, r2
 419 001a 1C60     		str	r4, [r3]
 560:.\Generated_Source\PSoC4/PWM_1.c ****                                                           PWM_1_PRESCALER_SHIFT));
 561:.\Generated_Source\PSoC4/PWM_1.c **** 
 562:.\Generated_Source\PSoC4/PWM_1.c ****     CyExitCriticalSection(enableInterrupts);
 420              		.loc 1 562 0
 421 001c FFF7FEFF 		bl	CyExitCriticalSection
 422              	.LVL33:
 563:.\Generated_Source\PSoC4/PWM_1.c **** }
 423              		.loc 1 563 0
 424              		@ sp needed
 425 0020 10BD     		pop	{r4, pc}
 426              	.L30:
 427 0022 C046     		.align	2
 428              	.L29:
 429 0024 00010540 		.word	1074069760
 430 0028 FF00FFFF 		.word	-65281
 431              		.cfi_endproc
 432              	.LFE11:
 433              		.size	PWM_1_SetPWMDeadTime, .-PWM_1_SetPWMDeadTime
 434              		.section	.text.PWM_1_SetPWMInvert,"ax",%progbits
 435              		.align	2
 436              		.global	PWM_1_SetPWMInvert
 437              		.code	16
 438              		.thumb_func
 439              		.type	PWM_1_SetPWMInvert, %function
 440              	PWM_1_SetPWMInvert:
 441              	.LFB12:
 564:.\Generated_Source\PSoC4/PWM_1.c **** 
 565:.\Generated_Source\PSoC4/PWM_1.c **** 
 566:.\Generated_Source\PSoC4/PWM_1.c **** /*******************************************************************************
 567:.\Generated_Source\PSoC4/PWM_1.c **** * Function Name: PWM_1_SetPWMInvert
 568:.\Generated_Source\PSoC4/PWM_1.c **** ********************************************************************************
 569:.\Generated_Source\PSoC4/PWM_1.c **** *
 570:.\Generated_Source\PSoC4/PWM_1.c **** * Summary:
 571:.\Generated_Source\PSoC4/PWM_1.c **** *  Writes the bits that control whether the line and line_n outputs are
 572:.\Generated_Source\PSoC4/PWM_1.c **** *  inverted from their normal output values.  This functionality is only
 573:.\Generated_Source\PSoC4/PWM_1.c **** *  applicable to the three PWM modes.
 574:.\Generated_Source\PSoC4/PWM_1.c **** *
 575:.\Generated_Source\PSoC4/PWM_1.c **** * Parameters:
 576:.\Generated_Source\PSoC4/PWM_1.c **** *  mask: Mask of outputs to invert.
 577:.\Generated_Source\PSoC4/PWM_1.c **** *   Values:
 578:.\Generated_Source\PSoC4/PWM_1.c **** *         - PWM_1_INVERT_LINE   - Inverts the line output
 579:.\Generated_Source\PSoC4/PWM_1.c **** *         - PWM_1_INVERT_LINE_N - Inverts the line_n output
 580:.\Generated_Source\PSoC4/PWM_1.c **** *
 581:.\Generated_Source\PSoC4/PWM_1.c **** * Return:
 582:.\Generated_Source\PSoC4/PWM_1.c **** *  None
 583:.\Generated_Source\PSoC4/PWM_1.c **** *
 584:.\Generated_Source\PSoC4/PWM_1.c **** *******************************************************************************/
 585:.\Generated_Source\PSoC4/PWM_1.c **** void PWM_1_SetPWMInvert(uint32 mask)
ARM GAS  C:\Users\g\AppData\Local\Temp\ccMxCaP9.s 			page 19


 586:.\Generated_Source\PSoC4/PWM_1.c **** {
 442              		.loc 1 586 0
 443              		.cfi_startproc
 444              	.LVL34:
 445 0000 10B5     		push	{r4, lr}
 446              		.cfi_def_cfa_offset 8
 447              		.cfi_offset 4, -8
 448              		.cfi_offset 14, -4
 449 0002 041C     		mov	r4, r0
 587:.\Generated_Source\PSoC4/PWM_1.c ****     uint8 enableInterrupts;
 588:.\Generated_Source\PSoC4/PWM_1.c **** 
 589:.\Generated_Source\PSoC4/PWM_1.c ****     enableInterrupts = CyEnterCriticalSection();
 450              		.loc 1 589 0
 451 0004 FFF7FEFF 		bl	CyEnterCriticalSection
 452              	.LVL35:
 590:.\Generated_Source\PSoC4/PWM_1.c **** 
 591:.\Generated_Source\PSoC4/PWM_1.c ****     PWM_1_CONTROL_REG &= (uint32)~PWM_1_INV_OUT_MASK;
 453              		.loc 1 591 0
 454 0008 054B     		ldr	r3, .L32
 455 000a 1968     		ldr	r1, [r3]
 456 000c 054A     		ldr	r2, .L32+4
 457 000e 0A40     		and	r2, r1
 458 0010 1A60     		str	r2, [r3]
 592:.\Generated_Source\PSoC4/PWM_1.c ****     PWM_1_CONTROL_REG |= mask;
 459              		.loc 1 592 0
 460 0012 1A68     		ldr	r2, [r3]
 461 0014 1443     		orr	r4, r2
 462              	.LVL36:
 463 0016 1C60     		str	r4, [r3]
 593:.\Generated_Source\PSoC4/PWM_1.c **** 
 594:.\Generated_Source\PSoC4/PWM_1.c ****     CyExitCriticalSection(enableInterrupts);
 464              		.loc 1 594 0
 465 0018 FFF7FEFF 		bl	CyExitCriticalSection
 466              	.LVL37:
 595:.\Generated_Source\PSoC4/PWM_1.c **** }
 467              		.loc 1 595 0
 468              		@ sp needed
 469 001c 10BD     		pop	{r4, pc}
 470              	.L33:
 471 001e C046     		.align	2
 472              	.L32:
 473 0020 00010540 		.word	1074069760
 474 0024 FFFFCFFF 		.word	-3145729
 475              		.cfi_endproc
 476              	.LFE12:
 477              		.size	PWM_1_SetPWMInvert, .-PWM_1_SetPWMInvert
 478              		.section	.text.PWM_1_WriteCounter,"ax",%progbits
 479              		.align	2
 480              		.global	PWM_1_WriteCounter
 481              		.code	16
 482              		.thumb_func
 483              		.type	PWM_1_WriteCounter, %function
 484              	PWM_1_WriteCounter:
 485              	.LFB13:
 596:.\Generated_Source\PSoC4/PWM_1.c **** 
 597:.\Generated_Source\PSoC4/PWM_1.c **** 
 598:.\Generated_Source\PSoC4/PWM_1.c **** 
ARM GAS  C:\Users\g\AppData\Local\Temp\ccMxCaP9.s 			page 20


 599:.\Generated_Source\PSoC4/PWM_1.c **** /*******************************************************************************
 600:.\Generated_Source\PSoC4/PWM_1.c **** * Function Name: PWM_1_WriteCounter
 601:.\Generated_Source\PSoC4/PWM_1.c **** ********************************************************************************
 602:.\Generated_Source\PSoC4/PWM_1.c **** *
 603:.\Generated_Source\PSoC4/PWM_1.c **** * Summary:
 604:.\Generated_Source\PSoC4/PWM_1.c **** *  Writes a new 16bit counter value directly into the counter register, thus
 605:.\Generated_Source\PSoC4/PWM_1.c **** *  setting the counter (not the period) to the value written. It is not
 606:.\Generated_Source\PSoC4/PWM_1.c **** *  advised to write to this field when the counter is running.
 607:.\Generated_Source\PSoC4/PWM_1.c **** *
 608:.\Generated_Source\PSoC4/PWM_1.c **** * Parameters:
 609:.\Generated_Source\PSoC4/PWM_1.c **** *  count: value to write
 610:.\Generated_Source\PSoC4/PWM_1.c **** *
 611:.\Generated_Source\PSoC4/PWM_1.c **** * Return:
 612:.\Generated_Source\PSoC4/PWM_1.c **** *  None
 613:.\Generated_Source\PSoC4/PWM_1.c **** *
 614:.\Generated_Source\PSoC4/PWM_1.c **** *******************************************************************************/
 615:.\Generated_Source\PSoC4/PWM_1.c **** void PWM_1_WriteCounter(uint32 count)
 616:.\Generated_Source\PSoC4/PWM_1.c **** {
 486              		.loc 1 616 0
 487              		.cfi_startproc
 488              	.LVL38:
 617:.\Generated_Source\PSoC4/PWM_1.c ****     PWM_1_COUNTER_REG = (count & PWM_1_16BIT_MASK);
 489              		.loc 1 617 0
 490 0000 0004     		lsl	r0, r0, #16
 491              	.LVL39:
 492 0002 000C     		lsr	r0, r0, #16
 493 0004 014B     		ldr	r3, .L35
 494 0006 1860     		str	r0, [r3]
 618:.\Generated_Source\PSoC4/PWM_1.c **** }
 495              		.loc 1 618 0
 496              		@ sp needed
 497 0008 7047     		bx	lr
 498              	.L36:
 499 000a C046     		.align	2
 500              	.L35:
 501 000c 08010540 		.word	1074069768
 502              		.cfi_endproc
 503              	.LFE13:
 504              		.size	PWM_1_WriteCounter, .-PWM_1_WriteCounter
 505              		.section	.text.PWM_1_ReadCounter,"ax",%progbits
 506              		.align	2
 507              		.global	PWM_1_ReadCounter
 508              		.code	16
 509              		.thumb_func
 510              		.type	PWM_1_ReadCounter, %function
 511              	PWM_1_ReadCounter:
 512              	.LFB14:
 619:.\Generated_Source\PSoC4/PWM_1.c **** 
 620:.\Generated_Source\PSoC4/PWM_1.c **** 
 621:.\Generated_Source\PSoC4/PWM_1.c **** /*******************************************************************************
 622:.\Generated_Source\PSoC4/PWM_1.c **** * Function Name: PWM_1_ReadCounter
 623:.\Generated_Source\PSoC4/PWM_1.c **** ********************************************************************************
 624:.\Generated_Source\PSoC4/PWM_1.c **** *
 625:.\Generated_Source\PSoC4/PWM_1.c **** * Summary:
 626:.\Generated_Source\PSoC4/PWM_1.c **** *  Reads the current counter value.
 627:.\Generated_Source\PSoC4/PWM_1.c **** *
 628:.\Generated_Source\PSoC4/PWM_1.c **** * Parameters:
ARM GAS  C:\Users\g\AppData\Local\Temp\ccMxCaP9.s 			page 21


 629:.\Generated_Source\PSoC4/PWM_1.c **** *  None
 630:.\Generated_Source\PSoC4/PWM_1.c **** *
 631:.\Generated_Source\PSoC4/PWM_1.c **** * Return:
 632:.\Generated_Source\PSoC4/PWM_1.c **** *  Current counter value
 633:.\Generated_Source\PSoC4/PWM_1.c **** *
 634:.\Generated_Source\PSoC4/PWM_1.c **** *******************************************************************************/
 635:.\Generated_Source\PSoC4/PWM_1.c **** uint32 PWM_1_ReadCounter(void)
 636:.\Generated_Source\PSoC4/PWM_1.c **** {
 513              		.loc 1 636 0
 514              		.cfi_startproc
 637:.\Generated_Source\PSoC4/PWM_1.c ****     return (PWM_1_COUNTER_REG & PWM_1_16BIT_MASK);
 515              		.loc 1 637 0
 516 0000 024B     		ldr	r3, .L38
 517 0002 1868     		ldr	r0, [r3]
 518 0004 0004     		lsl	r0, r0, #16
 519 0006 000C     		lsr	r0, r0, #16
 638:.\Generated_Source\PSoC4/PWM_1.c **** }
 520              		.loc 1 638 0
 521              		@ sp needed
 522 0008 7047     		bx	lr
 523              	.L39:
 524 000a C046     		.align	2
 525              	.L38:
 526 000c 08010540 		.word	1074069768
 527              		.cfi_endproc
 528              	.LFE14:
 529              		.size	PWM_1_ReadCounter, .-PWM_1_ReadCounter
 530              		.section	.text.PWM_1_SetCounterMode,"ax",%progbits
 531              		.align	2
 532              		.global	PWM_1_SetCounterMode
 533              		.code	16
 534              		.thumb_func
 535              		.type	PWM_1_SetCounterMode, %function
 536              	PWM_1_SetCounterMode:
 537              	.LFB15:
 639:.\Generated_Source\PSoC4/PWM_1.c **** 
 640:.\Generated_Source\PSoC4/PWM_1.c **** 
 641:.\Generated_Source\PSoC4/PWM_1.c **** /*******************************************************************************
 642:.\Generated_Source\PSoC4/PWM_1.c **** * Function Name: PWM_1_SetCounterMode
 643:.\Generated_Source\PSoC4/PWM_1.c **** ********************************************************************************
 644:.\Generated_Source\PSoC4/PWM_1.c **** *
 645:.\Generated_Source\PSoC4/PWM_1.c **** * Summary:
 646:.\Generated_Source\PSoC4/PWM_1.c **** *  Sets the counter mode.  Applicable to all modes except Quadrature Decoder
 647:.\Generated_Source\PSoC4/PWM_1.c **** *  and the PWM with a pseudo random output.
 648:.\Generated_Source\PSoC4/PWM_1.c **** *
 649:.\Generated_Source\PSoC4/PWM_1.c **** * Parameters:
 650:.\Generated_Source\PSoC4/PWM_1.c **** *  counterMode: Enumerated counter type values
 651:.\Generated_Source\PSoC4/PWM_1.c **** *   Values:
 652:.\Generated_Source\PSoC4/PWM_1.c **** *     - PWM_1_COUNT_UP       - Counts up
 653:.\Generated_Source\PSoC4/PWM_1.c **** *     - PWM_1_COUNT_DOWN     - Counts down
 654:.\Generated_Source\PSoC4/PWM_1.c **** *     - PWM_1_COUNT_UPDOWN0  - Counts up and down. Terminal count
 655:.\Generated_Source\PSoC4/PWM_1.c **** *                                         generated when counter reaches 0
 656:.\Generated_Source\PSoC4/PWM_1.c **** *     - PWM_1_COUNT_UPDOWN1  - Counts up and down. Terminal count
 657:.\Generated_Source\PSoC4/PWM_1.c **** *                                         generated both when counter reaches 0
 658:.\Generated_Source\PSoC4/PWM_1.c **** *                                         and period
 659:.\Generated_Source\PSoC4/PWM_1.c **** *
 660:.\Generated_Source\PSoC4/PWM_1.c **** * Return:
ARM GAS  C:\Users\g\AppData\Local\Temp\ccMxCaP9.s 			page 22


 661:.\Generated_Source\PSoC4/PWM_1.c **** *  None
 662:.\Generated_Source\PSoC4/PWM_1.c **** *
 663:.\Generated_Source\PSoC4/PWM_1.c **** *******************************************************************************/
 664:.\Generated_Source\PSoC4/PWM_1.c **** void PWM_1_SetCounterMode(uint32 counterMode)
 665:.\Generated_Source\PSoC4/PWM_1.c **** {
 538              		.loc 1 665 0
 539              		.cfi_startproc
 540              	.LVL40:
 541 0000 10B5     		push	{r4, lr}
 542              		.cfi_def_cfa_offset 8
 543              		.cfi_offset 4, -8
 544              		.cfi_offset 14, -4
 545 0002 041C     		mov	r4, r0
 666:.\Generated_Source\PSoC4/PWM_1.c ****     uint8 enableInterrupts;
 667:.\Generated_Source\PSoC4/PWM_1.c **** 
 668:.\Generated_Source\PSoC4/PWM_1.c ****     enableInterrupts = CyEnterCriticalSection();
 546              		.loc 1 668 0
 547 0004 FFF7FEFF 		bl	CyEnterCriticalSection
 548              	.LVL41:
 669:.\Generated_Source\PSoC4/PWM_1.c **** 
 670:.\Generated_Source\PSoC4/PWM_1.c ****     PWM_1_CONTROL_REG &= (uint32)~PWM_1_UPDOWN_MASK;
 549              		.loc 1 670 0
 550 0008 054B     		ldr	r3, .L41
 551 000a 1968     		ldr	r1, [r3]
 552 000c 054A     		ldr	r2, .L41+4
 553 000e 0A40     		and	r2, r1
 554 0010 1A60     		str	r2, [r3]
 671:.\Generated_Source\PSoC4/PWM_1.c ****     PWM_1_CONTROL_REG |= counterMode;
 555              		.loc 1 671 0
 556 0012 1A68     		ldr	r2, [r3]
 557 0014 1443     		orr	r4, r2
 558              	.LVL42:
 559 0016 1C60     		str	r4, [r3]
 672:.\Generated_Source\PSoC4/PWM_1.c **** 
 673:.\Generated_Source\PSoC4/PWM_1.c ****     CyExitCriticalSection(enableInterrupts);
 560              		.loc 1 673 0
 561 0018 FFF7FEFF 		bl	CyExitCriticalSection
 562              	.LVL43:
 674:.\Generated_Source\PSoC4/PWM_1.c **** }
 563              		.loc 1 674 0
 564              		@ sp needed
 565 001c 10BD     		pop	{r4, pc}
 566              	.L42:
 567 001e C046     		.align	2
 568              	.L41:
 569 0020 00010540 		.word	1074069760
 570 0024 FFFFFCFF 		.word	-196609
 571              		.cfi_endproc
 572              	.LFE15:
 573              		.size	PWM_1_SetCounterMode, .-PWM_1_SetCounterMode
 574              		.section	.text.PWM_1_WritePeriod,"ax",%progbits
 575              		.align	2
 576              		.global	PWM_1_WritePeriod
 577              		.code	16
 578              		.thumb_func
 579              		.type	PWM_1_WritePeriod, %function
 580              	PWM_1_WritePeriod:
ARM GAS  C:\Users\g\AppData\Local\Temp\ccMxCaP9.s 			page 23


 581              	.LFB16:
 675:.\Generated_Source\PSoC4/PWM_1.c **** 
 676:.\Generated_Source\PSoC4/PWM_1.c **** 
 677:.\Generated_Source\PSoC4/PWM_1.c **** /*******************************************************************************
 678:.\Generated_Source\PSoC4/PWM_1.c **** * Function Name: PWM_1_WritePeriod
 679:.\Generated_Source\PSoC4/PWM_1.c **** ********************************************************************************
 680:.\Generated_Source\PSoC4/PWM_1.c **** *
 681:.\Generated_Source\PSoC4/PWM_1.c **** * Summary:
 682:.\Generated_Source\PSoC4/PWM_1.c **** *  Writes the 16 bit period register with the new period value.
 683:.\Generated_Source\PSoC4/PWM_1.c **** *  To cause the counter to count for N cycles this register should be written
 684:.\Generated_Source\PSoC4/PWM_1.c **** *  with N-1 (counts from 0 to period inclusive).
 685:.\Generated_Source\PSoC4/PWM_1.c **** *
 686:.\Generated_Source\PSoC4/PWM_1.c **** * Parameters:
 687:.\Generated_Source\PSoC4/PWM_1.c **** *  period: Period value
 688:.\Generated_Source\PSoC4/PWM_1.c **** *
 689:.\Generated_Source\PSoC4/PWM_1.c **** * Return:
 690:.\Generated_Source\PSoC4/PWM_1.c **** *  None
 691:.\Generated_Source\PSoC4/PWM_1.c **** *
 692:.\Generated_Source\PSoC4/PWM_1.c **** *******************************************************************************/
 693:.\Generated_Source\PSoC4/PWM_1.c **** void PWM_1_WritePeriod(uint32 period)
 694:.\Generated_Source\PSoC4/PWM_1.c **** {
 582              		.loc 1 694 0
 583              		.cfi_startproc
 584              	.LVL44:
 695:.\Generated_Source\PSoC4/PWM_1.c ****     PWM_1_PERIOD_REG = (period & PWM_1_16BIT_MASK);
 585              		.loc 1 695 0
 586 0000 0004     		lsl	r0, r0, #16
 587              	.LVL45:
 588 0002 000C     		lsr	r0, r0, #16
 589 0004 014B     		ldr	r3, .L44
 590 0006 1860     		str	r0, [r3]
 696:.\Generated_Source\PSoC4/PWM_1.c **** }
 591              		.loc 1 696 0
 592              		@ sp needed
 593 0008 7047     		bx	lr
 594              	.L45:
 595 000a C046     		.align	2
 596              	.L44:
 597 000c 14010540 		.word	1074069780
 598              		.cfi_endproc
 599              	.LFE16:
 600              		.size	PWM_1_WritePeriod, .-PWM_1_WritePeriod
 601              		.section	.text.PWM_1_ReadPeriod,"ax",%progbits
 602              		.align	2
 603              		.global	PWM_1_ReadPeriod
 604              		.code	16
 605              		.thumb_func
 606              		.type	PWM_1_ReadPeriod, %function
 607              	PWM_1_ReadPeriod:
 608              	.LFB17:
 697:.\Generated_Source\PSoC4/PWM_1.c **** 
 698:.\Generated_Source\PSoC4/PWM_1.c **** 
 699:.\Generated_Source\PSoC4/PWM_1.c **** /*******************************************************************************
 700:.\Generated_Source\PSoC4/PWM_1.c **** * Function Name: PWM_1_ReadPeriod
 701:.\Generated_Source\PSoC4/PWM_1.c **** ********************************************************************************
 702:.\Generated_Source\PSoC4/PWM_1.c **** *
 703:.\Generated_Source\PSoC4/PWM_1.c **** * Summary:
ARM GAS  C:\Users\g\AppData\Local\Temp\ccMxCaP9.s 			page 24


 704:.\Generated_Source\PSoC4/PWM_1.c **** *  Reads the 16 bit period register.
 705:.\Generated_Source\PSoC4/PWM_1.c **** *
 706:.\Generated_Source\PSoC4/PWM_1.c **** * Parameters:
 707:.\Generated_Source\PSoC4/PWM_1.c **** *  None
 708:.\Generated_Source\PSoC4/PWM_1.c **** *
 709:.\Generated_Source\PSoC4/PWM_1.c **** * Return:
 710:.\Generated_Source\PSoC4/PWM_1.c **** *  Period value
 711:.\Generated_Source\PSoC4/PWM_1.c **** *
 712:.\Generated_Source\PSoC4/PWM_1.c **** *******************************************************************************/
 713:.\Generated_Source\PSoC4/PWM_1.c **** uint32 PWM_1_ReadPeriod(void)
 714:.\Generated_Source\PSoC4/PWM_1.c **** {
 609              		.loc 1 714 0
 610              		.cfi_startproc
 715:.\Generated_Source\PSoC4/PWM_1.c ****     return (PWM_1_PERIOD_REG & PWM_1_16BIT_MASK);
 611              		.loc 1 715 0
 612 0000 024B     		ldr	r3, .L47
 613 0002 1868     		ldr	r0, [r3]
 614 0004 0004     		lsl	r0, r0, #16
 615 0006 000C     		lsr	r0, r0, #16
 716:.\Generated_Source\PSoC4/PWM_1.c **** }
 616              		.loc 1 716 0
 617              		@ sp needed
 618 0008 7047     		bx	lr
 619              	.L48:
 620 000a C046     		.align	2
 621              	.L47:
 622 000c 14010540 		.word	1074069780
 623              		.cfi_endproc
 624              	.LFE17:
 625              		.size	PWM_1_ReadPeriod, .-PWM_1_ReadPeriod
 626              		.section	.text.PWM_1_SetCompareSwap,"ax",%progbits
 627              		.align	2
 628              		.global	PWM_1_SetCompareSwap
 629              		.code	16
 630              		.thumb_func
 631              		.type	PWM_1_SetCompareSwap, %function
 632              	PWM_1_SetCompareSwap:
 633              	.LFB18:
 717:.\Generated_Source\PSoC4/PWM_1.c **** 
 718:.\Generated_Source\PSoC4/PWM_1.c **** 
 719:.\Generated_Source\PSoC4/PWM_1.c **** /*******************************************************************************
 720:.\Generated_Source\PSoC4/PWM_1.c **** * Function Name: PWM_1_SetCompareSwap
 721:.\Generated_Source\PSoC4/PWM_1.c **** ********************************************************************************
 722:.\Generated_Source\PSoC4/PWM_1.c **** *
 723:.\Generated_Source\PSoC4/PWM_1.c **** * Summary:
 724:.\Generated_Source\PSoC4/PWM_1.c **** *  Writes the register that controls whether the compare registers are
 725:.\Generated_Source\PSoC4/PWM_1.c **** *  swapped. When enabled in the Timer/Counter mode(without capture) the swap
 726:.\Generated_Source\PSoC4/PWM_1.c **** *  occurs at a TC event. In the PWM mode the swap occurs at the next TC event
 727:.\Generated_Source\PSoC4/PWM_1.c **** *  following a hardware switch event.
 728:.\Generated_Source\PSoC4/PWM_1.c **** *
 729:.\Generated_Source\PSoC4/PWM_1.c **** * Parameters:
 730:.\Generated_Source\PSoC4/PWM_1.c **** *  swapEnable
 731:.\Generated_Source\PSoC4/PWM_1.c **** *   Values:
 732:.\Generated_Source\PSoC4/PWM_1.c **** *     - 0 - Disable swap
 733:.\Generated_Source\PSoC4/PWM_1.c **** *     - 1 - Enable swap
 734:.\Generated_Source\PSoC4/PWM_1.c **** *
 735:.\Generated_Source\PSoC4/PWM_1.c **** * Return:
ARM GAS  C:\Users\g\AppData\Local\Temp\ccMxCaP9.s 			page 25


 736:.\Generated_Source\PSoC4/PWM_1.c **** *  None
 737:.\Generated_Source\PSoC4/PWM_1.c **** *
 738:.\Generated_Source\PSoC4/PWM_1.c **** *******************************************************************************/
 739:.\Generated_Source\PSoC4/PWM_1.c **** void PWM_1_SetCompareSwap(uint32 swapEnable)
 740:.\Generated_Source\PSoC4/PWM_1.c **** {
 634              		.loc 1 740 0
 635              		.cfi_startproc
 636              	.LVL46:
 637 0000 10B5     		push	{r4, lr}
 638              		.cfi_def_cfa_offset 8
 639              		.cfi_offset 4, -8
 640              		.cfi_offset 14, -4
 641 0002 041C     		mov	r4, r0
 741:.\Generated_Source\PSoC4/PWM_1.c ****     uint8 enableInterrupts;
 742:.\Generated_Source\PSoC4/PWM_1.c **** 
 743:.\Generated_Source\PSoC4/PWM_1.c ****     enableInterrupts = CyEnterCriticalSection();
 642              		.loc 1 743 0
 643 0004 FFF7FEFF 		bl	CyEnterCriticalSection
 644              	.LVL47:
 744:.\Generated_Source\PSoC4/PWM_1.c **** 
 745:.\Generated_Source\PSoC4/PWM_1.c ****     PWM_1_CONTROL_REG &= (uint32)~PWM_1_RELOAD_CC_MASK;
 645              		.loc 1 745 0
 646 0008 054B     		ldr	r3, .L50
 647 000a 1A68     		ldr	r2, [r3]
 648 000c 0121     		mov	r1, #1
 649 000e 8A43     		bic	r2, r1
 650 0010 1A60     		str	r2, [r3]
 746:.\Generated_Source\PSoC4/PWM_1.c ****     PWM_1_CONTROL_REG |= (swapEnable & PWM_1_1BIT_MASK);
 651              		.loc 1 746 0
 652 0012 1A68     		ldr	r2, [r3]
 653 0014 0C40     		and	r4, r1
 654              	.LVL48:
 655 0016 1443     		orr	r4, r2
 656 0018 1C60     		str	r4, [r3]
 747:.\Generated_Source\PSoC4/PWM_1.c **** 
 748:.\Generated_Source\PSoC4/PWM_1.c ****     CyExitCriticalSection(enableInterrupts);
 657              		.loc 1 748 0
 658 001a FFF7FEFF 		bl	CyExitCriticalSection
 659              	.LVL49:
 749:.\Generated_Source\PSoC4/PWM_1.c **** }
 660              		.loc 1 749 0
 661              		@ sp needed
 662 001e 10BD     		pop	{r4, pc}
 663              	.L51:
 664              		.align	2
 665              	.L50:
 666 0020 00010540 		.word	1074069760
 667              		.cfi_endproc
 668              	.LFE18:
 669              		.size	PWM_1_SetCompareSwap, .-PWM_1_SetCompareSwap
 670              		.section	.text.PWM_1_WritePeriodBuf,"ax",%progbits
 671              		.align	2
 672              		.global	PWM_1_WritePeriodBuf
 673              		.code	16
 674              		.thumb_func
 675              		.type	PWM_1_WritePeriodBuf, %function
 676              	PWM_1_WritePeriodBuf:
ARM GAS  C:\Users\g\AppData\Local\Temp\ccMxCaP9.s 			page 26


 677              	.LFB19:
 750:.\Generated_Source\PSoC4/PWM_1.c **** 
 751:.\Generated_Source\PSoC4/PWM_1.c **** 
 752:.\Generated_Source\PSoC4/PWM_1.c **** /*******************************************************************************
 753:.\Generated_Source\PSoC4/PWM_1.c **** * Function Name: PWM_1_WritePeriodBuf
 754:.\Generated_Source\PSoC4/PWM_1.c **** ********************************************************************************
 755:.\Generated_Source\PSoC4/PWM_1.c **** *
 756:.\Generated_Source\PSoC4/PWM_1.c **** * Summary:
 757:.\Generated_Source\PSoC4/PWM_1.c **** *  Writes the 16 bit period buf register with the new period value.
 758:.\Generated_Source\PSoC4/PWM_1.c **** *
 759:.\Generated_Source\PSoC4/PWM_1.c **** * Parameters:
 760:.\Generated_Source\PSoC4/PWM_1.c **** *  periodBuf: Period value
 761:.\Generated_Source\PSoC4/PWM_1.c **** *
 762:.\Generated_Source\PSoC4/PWM_1.c **** * Return:
 763:.\Generated_Source\PSoC4/PWM_1.c **** *  None
 764:.\Generated_Source\PSoC4/PWM_1.c **** *
 765:.\Generated_Source\PSoC4/PWM_1.c **** *******************************************************************************/
 766:.\Generated_Source\PSoC4/PWM_1.c **** void PWM_1_WritePeriodBuf(uint32 periodBuf)
 767:.\Generated_Source\PSoC4/PWM_1.c **** {
 678              		.loc 1 767 0
 679              		.cfi_startproc
 680              	.LVL50:
 768:.\Generated_Source\PSoC4/PWM_1.c ****     PWM_1_PERIOD_BUF_REG = (periodBuf & PWM_1_16BIT_MASK);
 681              		.loc 1 768 0
 682 0000 0004     		lsl	r0, r0, #16
 683              	.LVL51:
 684 0002 000C     		lsr	r0, r0, #16
 685 0004 014B     		ldr	r3, .L53
 686 0006 1860     		str	r0, [r3]
 769:.\Generated_Source\PSoC4/PWM_1.c **** }
 687              		.loc 1 769 0
 688              		@ sp needed
 689 0008 7047     		bx	lr
 690              	.L54:
 691 000a C046     		.align	2
 692              	.L53:
 693 000c 18010540 		.word	1074069784
 694              		.cfi_endproc
 695              	.LFE19:
 696              		.size	PWM_1_WritePeriodBuf, .-PWM_1_WritePeriodBuf
 697              		.section	.text.PWM_1_ReadPeriodBuf,"ax",%progbits
 698              		.align	2
 699              		.global	PWM_1_ReadPeriodBuf
 700              		.code	16
 701              		.thumb_func
 702              		.type	PWM_1_ReadPeriodBuf, %function
 703              	PWM_1_ReadPeriodBuf:
 704              	.LFB20:
 770:.\Generated_Source\PSoC4/PWM_1.c **** 
 771:.\Generated_Source\PSoC4/PWM_1.c **** 
 772:.\Generated_Source\PSoC4/PWM_1.c **** /*******************************************************************************
 773:.\Generated_Source\PSoC4/PWM_1.c **** * Function Name: PWM_1_ReadPeriodBuf
 774:.\Generated_Source\PSoC4/PWM_1.c **** ********************************************************************************
 775:.\Generated_Source\PSoC4/PWM_1.c **** *
 776:.\Generated_Source\PSoC4/PWM_1.c **** * Summary:
 777:.\Generated_Source\PSoC4/PWM_1.c **** *  Reads the 16 bit period buf register.
 778:.\Generated_Source\PSoC4/PWM_1.c **** *
ARM GAS  C:\Users\g\AppData\Local\Temp\ccMxCaP9.s 			page 27


 779:.\Generated_Source\PSoC4/PWM_1.c **** * Parameters:
 780:.\Generated_Source\PSoC4/PWM_1.c **** *  None
 781:.\Generated_Source\PSoC4/PWM_1.c **** *
 782:.\Generated_Source\PSoC4/PWM_1.c **** * Return:
 783:.\Generated_Source\PSoC4/PWM_1.c **** *  Period value
 784:.\Generated_Source\PSoC4/PWM_1.c **** *
 785:.\Generated_Source\PSoC4/PWM_1.c **** *******************************************************************************/
 786:.\Generated_Source\PSoC4/PWM_1.c **** uint32 PWM_1_ReadPeriodBuf(void)
 787:.\Generated_Source\PSoC4/PWM_1.c **** {
 705              		.loc 1 787 0
 706              		.cfi_startproc
 788:.\Generated_Source\PSoC4/PWM_1.c ****     return (PWM_1_PERIOD_BUF_REG & PWM_1_16BIT_MASK);
 707              		.loc 1 788 0
 708 0000 024B     		ldr	r3, .L56
 709 0002 1868     		ldr	r0, [r3]
 710 0004 0004     		lsl	r0, r0, #16
 711 0006 000C     		lsr	r0, r0, #16
 789:.\Generated_Source\PSoC4/PWM_1.c **** }
 712              		.loc 1 789 0
 713              		@ sp needed
 714 0008 7047     		bx	lr
 715              	.L57:
 716 000a C046     		.align	2
 717              	.L56:
 718 000c 18010540 		.word	1074069784
 719              		.cfi_endproc
 720              	.LFE20:
 721              		.size	PWM_1_ReadPeriodBuf, .-PWM_1_ReadPeriodBuf
 722              		.section	.text.PWM_1_SetPeriodSwap,"ax",%progbits
 723              		.align	2
 724              		.global	PWM_1_SetPeriodSwap
 725              		.code	16
 726              		.thumb_func
 727              		.type	PWM_1_SetPeriodSwap, %function
 728              	PWM_1_SetPeriodSwap:
 729              	.LFB21:
 790:.\Generated_Source\PSoC4/PWM_1.c **** 
 791:.\Generated_Source\PSoC4/PWM_1.c **** 
 792:.\Generated_Source\PSoC4/PWM_1.c **** /*******************************************************************************
 793:.\Generated_Source\PSoC4/PWM_1.c **** * Function Name: PWM_1_SetPeriodSwap
 794:.\Generated_Source\PSoC4/PWM_1.c **** ********************************************************************************
 795:.\Generated_Source\PSoC4/PWM_1.c **** *
 796:.\Generated_Source\PSoC4/PWM_1.c **** * Summary:
 797:.\Generated_Source\PSoC4/PWM_1.c **** *  Writes the register that controls whether the period registers are
 798:.\Generated_Source\PSoC4/PWM_1.c **** *  swapped. When enabled in Timer/Counter mode the swap occurs at a TC event.
 799:.\Generated_Source\PSoC4/PWM_1.c **** *  In the PWM mode the swap occurs at the next TC event following a hardware
 800:.\Generated_Source\PSoC4/PWM_1.c **** *  switch event.
 801:.\Generated_Source\PSoC4/PWM_1.c **** *
 802:.\Generated_Source\PSoC4/PWM_1.c **** * Parameters:
 803:.\Generated_Source\PSoC4/PWM_1.c **** *  swapEnable
 804:.\Generated_Source\PSoC4/PWM_1.c **** *   Values:
 805:.\Generated_Source\PSoC4/PWM_1.c **** *     - 0 - Disable swap
 806:.\Generated_Source\PSoC4/PWM_1.c **** *     - 1 - Enable swap
 807:.\Generated_Source\PSoC4/PWM_1.c **** *
 808:.\Generated_Source\PSoC4/PWM_1.c **** * Return:
 809:.\Generated_Source\PSoC4/PWM_1.c **** *  None
 810:.\Generated_Source\PSoC4/PWM_1.c **** *
ARM GAS  C:\Users\g\AppData\Local\Temp\ccMxCaP9.s 			page 28


 811:.\Generated_Source\PSoC4/PWM_1.c **** *******************************************************************************/
 812:.\Generated_Source\PSoC4/PWM_1.c **** void PWM_1_SetPeriodSwap(uint32 swapEnable)
 813:.\Generated_Source\PSoC4/PWM_1.c **** {
 730              		.loc 1 813 0
 731              		.cfi_startproc
 732              	.LVL52:
 733 0000 10B5     		push	{r4, lr}
 734              		.cfi_def_cfa_offset 8
 735              		.cfi_offset 4, -8
 736              		.cfi_offset 14, -4
 737 0002 041C     		mov	r4, r0
 814:.\Generated_Source\PSoC4/PWM_1.c ****     uint8 enableInterrupts;
 815:.\Generated_Source\PSoC4/PWM_1.c **** 
 816:.\Generated_Source\PSoC4/PWM_1.c ****     enableInterrupts = CyEnterCriticalSection();
 738              		.loc 1 816 0
 739 0004 FFF7FEFF 		bl	CyEnterCriticalSection
 740              	.LVL53:
 817:.\Generated_Source\PSoC4/PWM_1.c **** 
 818:.\Generated_Source\PSoC4/PWM_1.c ****     PWM_1_CONTROL_REG &= (uint32)~PWM_1_RELOAD_PERIOD_MASK;
 741              		.loc 1 818 0
 742 0008 064B     		ldr	r3, .L59
 743 000a 1A68     		ldr	r2, [r3]
 744 000c 0221     		mov	r1, #2
 745 000e 8A43     		bic	r2, r1
 746 0010 1A60     		str	r2, [r3]
 819:.\Generated_Source\PSoC4/PWM_1.c ****     PWM_1_CONTROL_REG |= ((uint32)((swapEnable & PWM_1_1BIT_MASK) <<
 747              		.loc 1 819 0
 748 0012 1A68     		ldr	r2, [r3]
 749 0014 0139     		sub	r1, r1, #1
 750 0016 0C40     		and	r4, r1
 751              	.LVL54:
 752 0018 6400     		lsl	r4, r4, #1
 753 001a 1443     		orr	r4, r2
 754 001c 1C60     		str	r4, [r3]
 820:.\Generated_Source\PSoC4/PWM_1.c ****                                                             PWM_1_RELOAD_PERIOD_SHIFT));
 821:.\Generated_Source\PSoC4/PWM_1.c **** 
 822:.\Generated_Source\PSoC4/PWM_1.c ****     CyExitCriticalSection(enableInterrupts);
 755              		.loc 1 822 0
 756 001e FFF7FEFF 		bl	CyExitCriticalSection
 757              	.LVL55:
 823:.\Generated_Source\PSoC4/PWM_1.c **** }
 758              		.loc 1 823 0
 759              		@ sp needed
 760 0022 10BD     		pop	{r4, pc}
 761              	.L60:
 762              		.align	2
 763              	.L59:
 764 0024 00010540 		.word	1074069760
 765              		.cfi_endproc
 766              	.LFE21:
 767              		.size	PWM_1_SetPeriodSwap, .-PWM_1_SetPeriodSwap
 768              		.section	.text.PWM_1_WriteCompare,"ax",%progbits
 769              		.align	2
 770              		.global	PWM_1_WriteCompare
 771              		.code	16
 772              		.thumb_func
 773              		.type	PWM_1_WriteCompare, %function
ARM GAS  C:\Users\g\AppData\Local\Temp\ccMxCaP9.s 			page 29


 774              	PWM_1_WriteCompare:
 775              	.LFB22:
 824:.\Generated_Source\PSoC4/PWM_1.c **** 
 825:.\Generated_Source\PSoC4/PWM_1.c **** 
 826:.\Generated_Source\PSoC4/PWM_1.c **** /*******************************************************************************
 827:.\Generated_Source\PSoC4/PWM_1.c **** * Function Name: PWM_1_WriteCompare
 828:.\Generated_Source\PSoC4/PWM_1.c **** ********************************************************************************
 829:.\Generated_Source\PSoC4/PWM_1.c **** *
 830:.\Generated_Source\PSoC4/PWM_1.c **** * Summary:
 831:.\Generated_Source\PSoC4/PWM_1.c **** *  Writes the 16 bit compare register with the new compare value. Not
 832:.\Generated_Source\PSoC4/PWM_1.c **** *  applicable for Timer/Counter with Capture or in Quadrature Decoder modes.
 833:.\Generated_Source\PSoC4/PWM_1.c **** *
 834:.\Generated_Source\PSoC4/PWM_1.c **** * Parameters:
 835:.\Generated_Source\PSoC4/PWM_1.c **** *  compare: Compare value
 836:.\Generated_Source\PSoC4/PWM_1.c **** *
 837:.\Generated_Source\PSoC4/PWM_1.c **** * Return:
 838:.\Generated_Source\PSoC4/PWM_1.c **** *  None
 839:.\Generated_Source\PSoC4/PWM_1.c **** *
 840:.\Generated_Source\PSoC4/PWM_1.c **** * Note:
 841:.\Generated_Source\PSoC4/PWM_1.c **** *  It is not recommended to use the value equal to "0" or equal to 
 842:.\Generated_Source\PSoC4/PWM_1.c **** *  "period value" in Center or Asymmetric align PWM modes on the 
 843:.\Generated_Source\PSoC4/PWM_1.c **** *  PSoC 4100/PSoC 4200 devices.
 844:.\Generated_Source\PSoC4/PWM_1.c **** *  PSoC 4000 devices write the 16 bit compare register with the decremented 
 845:.\Generated_Source\PSoC4/PWM_1.c **** *  compare value in the Up counting mode (except 0x0u), and the incremented 
 846:.\Generated_Source\PSoC4/PWM_1.c **** *  compare value in the Down counting mode (except 0xFFFFu).
 847:.\Generated_Source\PSoC4/PWM_1.c **** *
 848:.\Generated_Source\PSoC4/PWM_1.c **** *******************************************************************************/
 849:.\Generated_Source\PSoC4/PWM_1.c **** void PWM_1_WriteCompare(uint32 compare)
 850:.\Generated_Source\PSoC4/PWM_1.c **** {
 776              		.loc 1 850 0
 777              		.cfi_startproc
 778              	.LVL56:
 851:.\Generated_Source\PSoC4/PWM_1.c ****     #if (PWM_1_CY_TCPWM_4000)
 852:.\Generated_Source\PSoC4/PWM_1.c ****         uint32 currentMode;
 853:.\Generated_Source\PSoC4/PWM_1.c ****     #endif /* (PWM_1_CY_TCPWM_4000) */
 854:.\Generated_Source\PSoC4/PWM_1.c **** 
 855:.\Generated_Source\PSoC4/PWM_1.c ****     #if (PWM_1_CY_TCPWM_4000)
 856:.\Generated_Source\PSoC4/PWM_1.c ****         currentMode = ((PWM_1_CONTROL_REG & PWM_1_UPDOWN_MASK) >> PWM_1_UPDOWN_SHIFT);
 857:.\Generated_Source\PSoC4/PWM_1.c **** 
 858:.\Generated_Source\PSoC4/PWM_1.c ****         if (((uint32)PWM_1__COUNT_DOWN == currentMode) && (0xFFFFu != compare))
 859:.\Generated_Source\PSoC4/PWM_1.c ****         {
 860:.\Generated_Source\PSoC4/PWM_1.c ****             compare++;
 861:.\Generated_Source\PSoC4/PWM_1.c ****         }
 862:.\Generated_Source\PSoC4/PWM_1.c ****         else if (((uint32)PWM_1__COUNT_UP == currentMode) && (0u != compare))
 863:.\Generated_Source\PSoC4/PWM_1.c ****         {
 864:.\Generated_Source\PSoC4/PWM_1.c ****             compare--;
 865:.\Generated_Source\PSoC4/PWM_1.c ****         }
 866:.\Generated_Source\PSoC4/PWM_1.c ****         else
 867:.\Generated_Source\PSoC4/PWM_1.c ****         {
 868:.\Generated_Source\PSoC4/PWM_1.c ****         }
 869:.\Generated_Source\PSoC4/PWM_1.c ****         
 870:.\Generated_Source\PSoC4/PWM_1.c ****     
 871:.\Generated_Source\PSoC4/PWM_1.c ****     #endif /* (PWM_1_CY_TCPWM_4000) */
 872:.\Generated_Source\PSoC4/PWM_1.c ****     
 873:.\Generated_Source\PSoC4/PWM_1.c ****     PWM_1_COMP_CAP_REG = (compare & PWM_1_16BIT_MASK);
 779              		.loc 1 873 0
 780 0000 0004     		lsl	r0, r0, #16
ARM GAS  C:\Users\g\AppData\Local\Temp\ccMxCaP9.s 			page 30


 781              	.LVL57:
 782 0002 000C     		lsr	r0, r0, #16
 783 0004 014B     		ldr	r3, .L62
 784 0006 1860     		str	r0, [r3]
 874:.\Generated_Source\PSoC4/PWM_1.c **** }
 785              		.loc 1 874 0
 786              		@ sp needed
 787 0008 7047     		bx	lr
 788              	.L63:
 789 000a C046     		.align	2
 790              	.L62:
 791 000c 0C010540 		.word	1074069772
 792              		.cfi_endproc
 793              	.LFE22:
 794              		.size	PWM_1_WriteCompare, .-PWM_1_WriteCompare
 795              		.section	.text.PWM_1_ReadCompare,"ax",%progbits
 796              		.align	2
 797              		.global	PWM_1_ReadCompare
 798              		.code	16
 799              		.thumb_func
 800              		.type	PWM_1_ReadCompare, %function
 801              	PWM_1_ReadCompare:
 802              	.LFB23:
 875:.\Generated_Source\PSoC4/PWM_1.c **** 
 876:.\Generated_Source\PSoC4/PWM_1.c **** 
 877:.\Generated_Source\PSoC4/PWM_1.c **** /*******************************************************************************
 878:.\Generated_Source\PSoC4/PWM_1.c **** * Function Name: PWM_1_ReadCompare
 879:.\Generated_Source\PSoC4/PWM_1.c **** ********************************************************************************
 880:.\Generated_Source\PSoC4/PWM_1.c **** *
 881:.\Generated_Source\PSoC4/PWM_1.c **** * Summary:
 882:.\Generated_Source\PSoC4/PWM_1.c **** *  Reads the compare register. Not applicable for Timer/Counter with Capture
 883:.\Generated_Source\PSoC4/PWM_1.c **** *  or in Quadrature Decoder modes.
 884:.\Generated_Source\PSoC4/PWM_1.c **** *  PSoC 4000 devices read the incremented compare register value in the 
 885:.\Generated_Source\PSoC4/PWM_1.c **** *  Up counting mode (except 0xFFFFu), and the decremented value in the 
 886:.\Generated_Source\PSoC4/PWM_1.c **** *  Down counting mode (except 0x0u).
 887:.\Generated_Source\PSoC4/PWM_1.c **** *
 888:.\Generated_Source\PSoC4/PWM_1.c **** * Parameters:
 889:.\Generated_Source\PSoC4/PWM_1.c **** *  None
 890:.\Generated_Source\PSoC4/PWM_1.c **** *
 891:.\Generated_Source\PSoC4/PWM_1.c **** * Return:
 892:.\Generated_Source\PSoC4/PWM_1.c **** *  Compare value
 893:.\Generated_Source\PSoC4/PWM_1.c **** *
 894:.\Generated_Source\PSoC4/PWM_1.c **** * Note:
 895:.\Generated_Source\PSoC4/PWM_1.c **** *  PSoC 4000 devices read the incremented compare register value in the 
 896:.\Generated_Source\PSoC4/PWM_1.c **** *  Up counting mode (except 0xFFFFu), and the decremented value in the 
 897:.\Generated_Source\PSoC4/PWM_1.c **** *  Down counting mode (except 0x0u).
 898:.\Generated_Source\PSoC4/PWM_1.c **** *
 899:.\Generated_Source\PSoC4/PWM_1.c **** *******************************************************************************/
 900:.\Generated_Source\PSoC4/PWM_1.c **** uint32 PWM_1_ReadCompare(void)
 901:.\Generated_Source\PSoC4/PWM_1.c **** {
 803              		.loc 1 901 0
 804              		.cfi_startproc
 902:.\Generated_Source\PSoC4/PWM_1.c ****     #if (PWM_1_CY_TCPWM_4000)
 903:.\Generated_Source\PSoC4/PWM_1.c ****         uint32 currentMode;
 904:.\Generated_Source\PSoC4/PWM_1.c ****         uint32 regVal;
 905:.\Generated_Source\PSoC4/PWM_1.c ****     #endif /* (PWM_1_CY_TCPWM_4000) */
 906:.\Generated_Source\PSoC4/PWM_1.c **** 
ARM GAS  C:\Users\g\AppData\Local\Temp\ccMxCaP9.s 			page 31


 907:.\Generated_Source\PSoC4/PWM_1.c ****     #if (PWM_1_CY_TCPWM_4000)
 908:.\Generated_Source\PSoC4/PWM_1.c ****         currentMode = ((PWM_1_CONTROL_REG & PWM_1_UPDOWN_MASK) >> PWM_1_UPDOWN_SHIFT);
 909:.\Generated_Source\PSoC4/PWM_1.c ****         
 910:.\Generated_Source\PSoC4/PWM_1.c ****         regVal = PWM_1_COMP_CAP_REG;
 911:.\Generated_Source\PSoC4/PWM_1.c ****         
 912:.\Generated_Source\PSoC4/PWM_1.c ****         if (((uint32)PWM_1__COUNT_DOWN == currentMode) && (0u != regVal))
 913:.\Generated_Source\PSoC4/PWM_1.c ****         {
 914:.\Generated_Source\PSoC4/PWM_1.c ****             regVal--;
 915:.\Generated_Source\PSoC4/PWM_1.c ****         }
 916:.\Generated_Source\PSoC4/PWM_1.c ****         else if (((uint32)PWM_1__COUNT_UP == currentMode) && (0xFFFFu != regVal))
 917:.\Generated_Source\PSoC4/PWM_1.c ****         {
 918:.\Generated_Source\PSoC4/PWM_1.c ****             regVal++;
 919:.\Generated_Source\PSoC4/PWM_1.c ****         }
 920:.\Generated_Source\PSoC4/PWM_1.c ****         else
 921:.\Generated_Source\PSoC4/PWM_1.c ****         {
 922:.\Generated_Source\PSoC4/PWM_1.c ****         }
 923:.\Generated_Source\PSoC4/PWM_1.c **** 
 924:.\Generated_Source\PSoC4/PWM_1.c ****         return (regVal & PWM_1_16BIT_MASK);
 925:.\Generated_Source\PSoC4/PWM_1.c ****     #else
 926:.\Generated_Source\PSoC4/PWM_1.c ****         return (PWM_1_COMP_CAP_REG & PWM_1_16BIT_MASK);
 805              		.loc 1 926 0
 806 0000 024B     		ldr	r3, .L65
 807 0002 1868     		ldr	r0, [r3]
 808 0004 0004     		lsl	r0, r0, #16
 809 0006 000C     		lsr	r0, r0, #16
 927:.\Generated_Source\PSoC4/PWM_1.c ****     #endif /* (PWM_1_CY_TCPWM_4000) */
 928:.\Generated_Source\PSoC4/PWM_1.c **** }
 810              		.loc 1 928 0
 811              		@ sp needed
 812 0008 7047     		bx	lr
 813              	.L66:
 814 000a C046     		.align	2
 815              	.L65:
 816 000c 0C010540 		.word	1074069772
 817              		.cfi_endproc
 818              	.LFE23:
 819              		.size	PWM_1_ReadCompare, .-PWM_1_ReadCompare
 820              		.section	.text.PWM_1_WriteCompareBuf,"ax",%progbits
 821              		.align	2
 822              		.global	PWM_1_WriteCompareBuf
 823              		.code	16
 824              		.thumb_func
 825              		.type	PWM_1_WriteCompareBuf, %function
 826              	PWM_1_WriteCompareBuf:
 827              	.LFB24:
 929:.\Generated_Source\PSoC4/PWM_1.c **** 
 930:.\Generated_Source\PSoC4/PWM_1.c **** 
 931:.\Generated_Source\PSoC4/PWM_1.c **** /*******************************************************************************
 932:.\Generated_Source\PSoC4/PWM_1.c **** * Function Name: PWM_1_WriteCompareBuf
 933:.\Generated_Source\PSoC4/PWM_1.c **** ********************************************************************************
 934:.\Generated_Source\PSoC4/PWM_1.c **** *
 935:.\Generated_Source\PSoC4/PWM_1.c **** * Summary:
 936:.\Generated_Source\PSoC4/PWM_1.c **** *  Writes the 16 bit compare buffer register with the new compare value. Not
 937:.\Generated_Source\PSoC4/PWM_1.c **** *  applicable for Timer/Counter with Capture or in Quadrature Decoder modes.
 938:.\Generated_Source\PSoC4/PWM_1.c **** *
 939:.\Generated_Source\PSoC4/PWM_1.c **** * Parameters:
 940:.\Generated_Source\PSoC4/PWM_1.c **** *  compareBuf: Compare value
ARM GAS  C:\Users\g\AppData\Local\Temp\ccMxCaP9.s 			page 32


 941:.\Generated_Source\PSoC4/PWM_1.c **** *
 942:.\Generated_Source\PSoC4/PWM_1.c **** * Return:
 943:.\Generated_Source\PSoC4/PWM_1.c **** *  None
 944:.\Generated_Source\PSoC4/PWM_1.c **** *
 945:.\Generated_Source\PSoC4/PWM_1.c **** * Note:
 946:.\Generated_Source\PSoC4/PWM_1.c **** *  It is not recommended to use the value equal to "0" or equal to 
 947:.\Generated_Source\PSoC4/PWM_1.c **** *  "period value" in Center or Asymmetric align PWM modes on the 
 948:.\Generated_Source\PSoC4/PWM_1.c **** *  PSoC 4100/PSoC 4200 devices.
 949:.\Generated_Source\PSoC4/PWM_1.c **** *  PSoC 4000 devices write the 16 bit compare register with the decremented 
 950:.\Generated_Source\PSoC4/PWM_1.c **** *  compare value in the Up counting mode (except 0x0u), and the incremented 
 951:.\Generated_Source\PSoC4/PWM_1.c **** *  compare value in the Down counting mode (except 0xFFFFu).
 952:.\Generated_Source\PSoC4/PWM_1.c **** *
 953:.\Generated_Source\PSoC4/PWM_1.c **** *******************************************************************************/
 954:.\Generated_Source\PSoC4/PWM_1.c **** void PWM_1_WriteCompareBuf(uint32 compareBuf)
 955:.\Generated_Source\PSoC4/PWM_1.c **** {
 828              		.loc 1 955 0
 829              		.cfi_startproc
 830              	.LVL58:
 956:.\Generated_Source\PSoC4/PWM_1.c ****     #if (PWM_1_CY_TCPWM_4000)
 957:.\Generated_Source\PSoC4/PWM_1.c ****         uint32 currentMode;
 958:.\Generated_Source\PSoC4/PWM_1.c ****     #endif /* (PWM_1_CY_TCPWM_4000) */
 959:.\Generated_Source\PSoC4/PWM_1.c **** 
 960:.\Generated_Source\PSoC4/PWM_1.c ****     #if (PWM_1_CY_TCPWM_4000)
 961:.\Generated_Source\PSoC4/PWM_1.c ****         currentMode = ((PWM_1_CONTROL_REG & PWM_1_UPDOWN_MASK) >> PWM_1_UPDOWN_SHIFT);
 962:.\Generated_Source\PSoC4/PWM_1.c **** 
 963:.\Generated_Source\PSoC4/PWM_1.c ****         if (((uint32)PWM_1__COUNT_DOWN == currentMode) && (0xFFFFu != compareBuf))
 964:.\Generated_Source\PSoC4/PWM_1.c ****         {
 965:.\Generated_Source\PSoC4/PWM_1.c ****             compareBuf++;
 966:.\Generated_Source\PSoC4/PWM_1.c ****         }
 967:.\Generated_Source\PSoC4/PWM_1.c ****         else if (((uint32)PWM_1__COUNT_UP == currentMode) && (0u != compareBuf))
 968:.\Generated_Source\PSoC4/PWM_1.c ****         {
 969:.\Generated_Source\PSoC4/PWM_1.c ****             compareBuf --;
 970:.\Generated_Source\PSoC4/PWM_1.c ****         }
 971:.\Generated_Source\PSoC4/PWM_1.c ****         else
 972:.\Generated_Source\PSoC4/PWM_1.c ****         {
 973:.\Generated_Source\PSoC4/PWM_1.c ****         }
 974:.\Generated_Source\PSoC4/PWM_1.c ****     #endif /* (PWM_1_CY_TCPWM_4000) */
 975:.\Generated_Source\PSoC4/PWM_1.c ****     
 976:.\Generated_Source\PSoC4/PWM_1.c ****     PWM_1_COMP_CAP_BUF_REG = (compareBuf & PWM_1_16BIT_MASK);
 831              		.loc 1 976 0
 832 0000 0004     		lsl	r0, r0, #16
 833              	.LVL59:
 834 0002 000C     		lsr	r0, r0, #16
 835 0004 014B     		ldr	r3, .L68
 836 0006 1860     		str	r0, [r3]
 977:.\Generated_Source\PSoC4/PWM_1.c **** }
 837              		.loc 1 977 0
 838              		@ sp needed
 839 0008 7047     		bx	lr
 840              	.L69:
 841 000a C046     		.align	2
 842              	.L68:
 843 000c 10010540 		.word	1074069776
 844              		.cfi_endproc
 845              	.LFE24:
 846              		.size	PWM_1_WriteCompareBuf, .-PWM_1_WriteCompareBuf
 847              		.section	.text.PWM_1_ReadCompareBuf,"ax",%progbits
ARM GAS  C:\Users\g\AppData\Local\Temp\ccMxCaP9.s 			page 33


 848              		.align	2
 849              		.global	PWM_1_ReadCompareBuf
 850              		.code	16
 851              		.thumb_func
 852              		.type	PWM_1_ReadCompareBuf, %function
 853              	PWM_1_ReadCompareBuf:
 854              	.LFB25:
 978:.\Generated_Source\PSoC4/PWM_1.c **** 
 979:.\Generated_Source\PSoC4/PWM_1.c **** 
 980:.\Generated_Source\PSoC4/PWM_1.c **** /*******************************************************************************
 981:.\Generated_Source\PSoC4/PWM_1.c **** * Function Name: PWM_1_ReadCompareBuf
 982:.\Generated_Source\PSoC4/PWM_1.c **** ********************************************************************************
 983:.\Generated_Source\PSoC4/PWM_1.c **** *
 984:.\Generated_Source\PSoC4/PWM_1.c **** * Summary:
 985:.\Generated_Source\PSoC4/PWM_1.c **** *  Reads the compare buffer register. Not applicable for Timer/Counter with
 986:.\Generated_Source\PSoC4/PWM_1.c **** *  Capture or in Quadrature Decoder modes.
 987:.\Generated_Source\PSoC4/PWM_1.c **** *
 988:.\Generated_Source\PSoC4/PWM_1.c **** * Parameters:
 989:.\Generated_Source\PSoC4/PWM_1.c **** *  None
 990:.\Generated_Source\PSoC4/PWM_1.c **** *
 991:.\Generated_Source\PSoC4/PWM_1.c **** * Return:
 992:.\Generated_Source\PSoC4/PWM_1.c **** *  Compare buffer value
 993:.\Generated_Source\PSoC4/PWM_1.c **** *
 994:.\Generated_Source\PSoC4/PWM_1.c **** * Note:
 995:.\Generated_Source\PSoC4/PWM_1.c **** *  PSoC 4000 devices read the incremented compare register value in the 
 996:.\Generated_Source\PSoC4/PWM_1.c **** *  Up counting mode (except 0xFFFFu), and the decremented value in the 
 997:.\Generated_Source\PSoC4/PWM_1.c **** *  Down counting mode (except 0x0u).
 998:.\Generated_Source\PSoC4/PWM_1.c **** *
 999:.\Generated_Source\PSoC4/PWM_1.c **** *******************************************************************************/
1000:.\Generated_Source\PSoC4/PWM_1.c **** uint32 PWM_1_ReadCompareBuf(void)
1001:.\Generated_Source\PSoC4/PWM_1.c **** {
 855              		.loc 1 1001 0
 856              		.cfi_startproc
1002:.\Generated_Source\PSoC4/PWM_1.c ****     #if (PWM_1_CY_TCPWM_4000)
1003:.\Generated_Source\PSoC4/PWM_1.c ****         uint32 currentMode;
1004:.\Generated_Source\PSoC4/PWM_1.c ****         uint32 regVal;
1005:.\Generated_Source\PSoC4/PWM_1.c ****     #endif /* (PWM_1_CY_TCPWM_4000) */
1006:.\Generated_Source\PSoC4/PWM_1.c **** 
1007:.\Generated_Source\PSoC4/PWM_1.c ****     #if (PWM_1_CY_TCPWM_4000)
1008:.\Generated_Source\PSoC4/PWM_1.c ****         currentMode = ((PWM_1_CONTROL_REG & PWM_1_UPDOWN_MASK) >> PWM_1_UPDOWN_SHIFT);
1009:.\Generated_Source\PSoC4/PWM_1.c **** 
1010:.\Generated_Source\PSoC4/PWM_1.c ****         regVal = PWM_1_COMP_CAP_BUF_REG;
1011:.\Generated_Source\PSoC4/PWM_1.c ****         
1012:.\Generated_Source\PSoC4/PWM_1.c ****         if (((uint32)PWM_1__COUNT_DOWN == currentMode) && (0u != regVal))
1013:.\Generated_Source\PSoC4/PWM_1.c ****         {
1014:.\Generated_Source\PSoC4/PWM_1.c ****             regVal--;
1015:.\Generated_Source\PSoC4/PWM_1.c ****         }
1016:.\Generated_Source\PSoC4/PWM_1.c ****         else if (((uint32)PWM_1__COUNT_UP == currentMode) && (0xFFFFu != regVal))
1017:.\Generated_Source\PSoC4/PWM_1.c ****         {
1018:.\Generated_Source\PSoC4/PWM_1.c ****             regVal++;
1019:.\Generated_Source\PSoC4/PWM_1.c ****         }
1020:.\Generated_Source\PSoC4/PWM_1.c ****         else
1021:.\Generated_Source\PSoC4/PWM_1.c ****         {
1022:.\Generated_Source\PSoC4/PWM_1.c ****         }
1023:.\Generated_Source\PSoC4/PWM_1.c **** 
1024:.\Generated_Source\PSoC4/PWM_1.c ****         return (regVal & PWM_1_16BIT_MASK);
1025:.\Generated_Source\PSoC4/PWM_1.c ****     #else
ARM GAS  C:\Users\g\AppData\Local\Temp\ccMxCaP9.s 			page 34


1026:.\Generated_Source\PSoC4/PWM_1.c ****         return (PWM_1_COMP_CAP_BUF_REG & PWM_1_16BIT_MASK);
 857              		.loc 1 1026 0
 858 0000 024B     		ldr	r3, .L71
 859 0002 1868     		ldr	r0, [r3]
 860 0004 0004     		lsl	r0, r0, #16
 861 0006 000C     		lsr	r0, r0, #16
1027:.\Generated_Source\PSoC4/PWM_1.c ****     #endif /* (PWM_1_CY_TCPWM_4000) */
1028:.\Generated_Source\PSoC4/PWM_1.c **** }
 862              		.loc 1 1028 0
 863              		@ sp needed
 864 0008 7047     		bx	lr
 865              	.L72:
 866 000a C046     		.align	2
 867              	.L71:
 868 000c 10010540 		.word	1074069776
 869              		.cfi_endproc
 870              	.LFE25:
 871              		.size	PWM_1_ReadCompareBuf, .-PWM_1_ReadCompareBuf
 872              		.section	.text.PWM_1_ReadCapture,"ax",%progbits
 873              		.align	2
 874              		.global	PWM_1_ReadCapture
 875              		.code	16
 876              		.thumb_func
 877              		.type	PWM_1_ReadCapture, %function
 878              	PWM_1_ReadCapture:
 879              	.LFB26:
1029:.\Generated_Source\PSoC4/PWM_1.c **** 
1030:.\Generated_Source\PSoC4/PWM_1.c **** 
1031:.\Generated_Source\PSoC4/PWM_1.c **** /*******************************************************************************
1032:.\Generated_Source\PSoC4/PWM_1.c **** * Function Name: PWM_1_ReadCapture
1033:.\Generated_Source\PSoC4/PWM_1.c **** ********************************************************************************
1034:.\Generated_Source\PSoC4/PWM_1.c **** *
1035:.\Generated_Source\PSoC4/PWM_1.c **** * Summary:
1036:.\Generated_Source\PSoC4/PWM_1.c **** *  Reads the captured counter value. This API is applicable only for
1037:.\Generated_Source\PSoC4/PWM_1.c **** *  Timer/Counter with the capture mode and Quadrature Decoder modes.
1038:.\Generated_Source\PSoC4/PWM_1.c **** *
1039:.\Generated_Source\PSoC4/PWM_1.c **** * Parameters:
1040:.\Generated_Source\PSoC4/PWM_1.c **** *  None
1041:.\Generated_Source\PSoC4/PWM_1.c **** *
1042:.\Generated_Source\PSoC4/PWM_1.c **** * Return:
1043:.\Generated_Source\PSoC4/PWM_1.c **** *  Capture value
1044:.\Generated_Source\PSoC4/PWM_1.c **** *
1045:.\Generated_Source\PSoC4/PWM_1.c **** *******************************************************************************/
1046:.\Generated_Source\PSoC4/PWM_1.c **** uint32 PWM_1_ReadCapture(void)
1047:.\Generated_Source\PSoC4/PWM_1.c **** {
 880              		.loc 1 1047 0
 881              		.cfi_startproc
1048:.\Generated_Source\PSoC4/PWM_1.c ****     return (PWM_1_COMP_CAP_REG & PWM_1_16BIT_MASK);
 882              		.loc 1 1048 0
 883 0000 024B     		ldr	r3, .L74
 884 0002 1868     		ldr	r0, [r3]
 885 0004 0004     		lsl	r0, r0, #16
 886 0006 000C     		lsr	r0, r0, #16
1049:.\Generated_Source\PSoC4/PWM_1.c **** }
 887              		.loc 1 1049 0
 888              		@ sp needed
 889 0008 7047     		bx	lr
ARM GAS  C:\Users\g\AppData\Local\Temp\ccMxCaP9.s 			page 35


 890              	.L75:
 891 000a C046     		.align	2
 892              	.L74:
 893 000c 0C010540 		.word	1074069772
 894              		.cfi_endproc
 895              	.LFE26:
 896              		.size	PWM_1_ReadCapture, .-PWM_1_ReadCapture
 897              		.section	.text.PWM_1_ReadCaptureBuf,"ax",%progbits
 898              		.align	2
 899              		.global	PWM_1_ReadCaptureBuf
 900              		.code	16
 901              		.thumb_func
 902              		.type	PWM_1_ReadCaptureBuf, %function
 903              	PWM_1_ReadCaptureBuf:
 904              	.LFB27:
1050:.\Generated_Source\PSoC4/PWM_1.c **** 
1051:.\Generated_Source\PSoC4/PWM_1.c **** 
1052:.\Generated_Source\PSoC4/PWM_1.c **** /*******************************************************************************
1053:.\Generated_Source\PSoC4/PWM_1.c **** * Function Name: PWM_1_ReadCaptureBuf
1054:.\Generated_Source\PSoC4/PWM_1.c **** ********************************************************************************
1055:.\Generated_Source\PSoC4/PWM_1.c **** *
1056:.\Generated_Source\PSoC4/PWM_1.c **** * Summary:
1057:.\Generated_Source\PSoC4/PWM_1.c **** *  Reads the capture buffer register. This API is applicable only for
1058:.\Generated_Source\PSoC4/PWM_1.c **** *  Timer/Counter with the capture mode and Quadrature Decoder modes.
1059:.\Generated_Source\PSoC4/PWM_1.c **** *
1060:.\Generated_Source\PSoC4/PWM_1.c **** * Parameters:
1061:.\Generated_Source\PSoC4/PWM_1.c **** *  None
1062:.\Generated_Source\PSoC4/PWM_1.c **** *
1063:.\Generated_Source\PSoC4/PWM_1.c **** * Return:
1064:.\Generated_Source\PSoC4/PWM_1.c **** *  Capture buffer value
1065:.\Generated_Source\PSoC4/PWM_1.c **** *
1066:.\Generated_Source\PSoC4/PWM_1.c **** *******************************************************************************/
1067:.\Generated_Source\PSoC4/PWM_1.c **** uint32 PWM_1_ReadCaptureBuf(void)
1068:.\Generated_Source\PSoC4/PWM_1.c **** {
 905              		.loc 1 1068 0
 906              		.cfi_startproc
1069:.\Generated_Source\PSoC4/PWM_1.c ****     return (PWM_1_COMP_CAP_BUF_REG & PWM_1_16BIT_MASK);
 907              		.loc 1 1069 0
 908 0000 024B     		ldr	r3, .L77
 909 0002 1868     		ldr	r0, [r3]
 910 0004 0004     		lsl	r0, r0, #16
 911 0006 000C     		lsr	r0, r0, #16
1070:.\Generated_Source\PSoC4/PWM_1.c **** }
 912              		.loc 1 1070 0
 913              		@ sp needed
 914 0008 7047     		bx	lr
 915              	.L78:
 916 000a C046     		.align	2
 917              	.L77:
 918 000c 10010540 		.word	1074069776
 919              		.cfi_endproc
 920              	.LFE27:
 921              		.size	PWM_1_ReadCaptureBuf, .-PWM_1_ReadCaptureBuf
 922              		.section	.text.PWM_1_SetCaptureMode,"ax",%progbits
 923              		.align	2
 924              		.global	PWM_1_SetCaptureMode
 925              		.code	16
ARM GAS  C:\Users\g\AppData\Local\Temp\ccMxCaP9.s 			page 36


 926              		.thumb_func
 927              		.type	PWM_1_SetCaptureMode, %function
 928              	PWM_1_SetCaptureMode:
 929              	.LFB28:
1071:.\Generated_Source\PSoC4/PWM_1.c **** 
1072:.\Generated_Source\PSoC4/PWM_1.c **** 
1073:.\Generated_Source\PSoC4/PWM_1.c **** /*******************************************************************************
1074:.\Generated_Source\PSoC4/PWM_1.c **** * Function Name: PWM_1_SetCaptureMode
1075:.\Generated_Source\PSoC4/PWM_1.c **** ********************************************************************************
1076:.\Generated_Source\PSoC4/PWM_1.c **** *
1077:.\Generated_Source\PSoC4/PWM_1.c **** * Summary:
1078:.\Generated_Source\PSoC4/PWM_1.c **** *  Sets the capture trigger mode. For PWM mode this is the switch input.
1079:.\Generated_Source\PSoC4/PWM_1.c **** *  This input is not applicable to the Timer/Counter without Capture and
1080:.\Generated_Source\PSoC4/PWM_1.c **** *  Quadrature Decoder modes.
1081:.\Generated_Source\PSoC4/PWM_1.c **** *
1082:.\Generated_Source\PSoC4/PWM_1.c **** * Parameters:
1083:.\Generated_Source\PSoC4/PWM_1.c **** *  triggerMode: Enumerated trigger mode value
1084:.\Generated_Source\PSoC4/PWM_1.c **** *   Values:
1085:.\Generated_Source\PSoC4/PWM_1.c **** *     - PWM_1_TRIG_LEVEL     - Level
1086:.\Generated_Source\PSoC4/PWM_1.c **** *     - PWM_1_TRIG_RISING    - Rising edge
1087:.\Generated_Source\PSoC4/PWM_1.c **** *     - PWM_1_TRIG_FALLING   - Falling edge
1088:.\Generated_Source\PSoC4/PWM_1.c **** *     - PWM_1_TRIG_BOTH      - Both rising and falling edge
1089:.\Generated_Source\PSoC4/PWM_1.c **** *
1090:.\Generated_Source\PSoC4/PWM_1.c **** * Return:
1091:.\Generated_Source\PSoC4/PWM_1.c **** *  None
1092:.\Generated_Source\PSoC4/PWM_1.c **** *
1093:.\Generated_Source\PSoC4/PWM_1.c **** *******************************************************************************/
1094:.\Generated_Source\PSoC4/PWM_1.c **** void PWM_1_SetCaptureMode(uint32 triggerMode)
1095:.\Generated_Source\PSoC4/PWM_1.c **** {
 930              		.loc 1 1095 0
 931              		.cfi_startproc
 932              	.LVL60:
 933 0000 10B5     		push	{r4, lr}
 934              		.cfi_def_cfa_offset 8
 935              		.cfi_offset 4, -8
 936              		.cfi_offset 14, -4
 937 0002 041C     		mov	r4, r0
1096:.\Generated_Source\PSoC4/PWM_1.c ****     uint8 enableInterrupts;
1097:.\Generated_Source\PSoC4/PWM_1.c **** 
1098:.\Generated_Source\PSoC4/PWM_1.c ****     enableInterrupts = CyEnterCriticalSection();
 938              		.loc 1 1098 0
 939 0004 FFF7FEFF 		bl	CyEnterCriticalSection
 940              	.LVL61:
1099:.\Generated_Source\PSoC4/PWM_1.c **** 
1100:.\Generated_Source\PSoC4/PWM_1.c ****     PWM_1_TRIG_CONTROL1_REG &= (uint32)~PWM_1_CAPTURE_MASK;
 941              		.loc 1 1100 0
 942 0008 054B     		ldr	r3, .L80
 943 000a 1A68     		ldr	r2, [r3]
 944 000c 0321     		mov	r1, #3
 945 000e 8A43     		bic	r2, r1
 946 0010 1A60     		str	r2, [r3]
1101:.\Generated_Source\PSoC4/PWM_1.c ****     PWM_1_TRIG_CONTROL1_REG |= triggerMode;
 947              		.loc 1 1101 0
 948 0012 1A68     		ldr	r2, [r3]
 949 0014 1443     		orr	r4, r2
 950              	.LVL62:
 951 0016 1C60     		str	r4, [r3]
ARM GAS  C:\Users\g\AppData\Local\Temp\ccMxCaP9.s 			page 37


1102:.\Generated_Source\PSoC4/PWM_1.c **** 
1103:.\Generated_Source\PSoC4/PWM_1.c ****     CyExitCriticalSection(enableInterrupts);
 952              		.loc 1 1103 0
 953 0018 FFF7FEFF 		bl	CyExitCriticalSection
 954              	.LVL63:
1104:.\Generated_Source\PSoC4/PWM_1.c **** }
 955              		.loc 1 1104 0
 956              		@ sp needed
 957 001c 10BD     		pop	{r4, pc}
 958              	.L81:
 959 001e C046     		.align	2
 960              	.L80:
 961 0020 24010540 		.word	1074069796
 962              		.cfi_endproc
 963              	.LFE28:
 964              		.size	PWM_1_SetCaptureMode, .-PWM_1_SetCaptureMode
 965              		.section	.text.PWM_1_SetReloadMode,"ax",%progbits
 966              		.align	2
 967              		.global	PWM_1_SetReloadMode
 968              		.code	16
 969              		.thumb_func
 970              		.type	PWM_1_SetReloadMode, %function
 971              	PWM_1_SetReloadMode:
 972              	.LFB29:
1105:.\Generated_Source\PSoC4/PWM_1.c **** 
1106:.\Generated_Source\PSoC4/PWM_1.c **** 
1107:.\Generated_Source\PSoC4/PWM_1.c **** /*******************************************************************************
1108:.\Generated_Source\PSoC4/PWM_1.c **** * Function Name: PWM_1_SetReloadMode
1109:.\Generated_Source\PSoC4/PWM_1.c **** ********************************************************************************
1110:.\Generated_Source\PSoC4/PWM_1.c **** *
1111:.\Generated_Source\PSoC4/PWM_1.c **** * Summary:
1112:.\Generated_Source\PSoC4/PWM_1.c **** *  Sets the reload trigger mode. For Quadrature Decoder mode this is the index
1113:.\Generated_Source\PSoC4/PWM_1.c **** *  input.
1114:.\Generated_Source\PSoC4/PWM_1.c **** *
1115:.\Generated_Source\PSoC4/PWM_1.c **** * Parameters:
1116:.\Generated_Source\PSoC4/PWM_1.c **** *  triggerMode: Enumerated trigger mode value
1117:.\Generated_Source\PSoC4/PWM_1.c **** *   Values:
1118:.\Generated_Source\PSoC4/PWM_1.c **** *     - PWM_1_TRIG_LEVEL     - Level
1119:.\Generated_Source\PSoC4/PWM_1.c **** *     - PWM_1_TRIG_RISING    - Rising edge
1120:.\Generated_Source\PSoC4/PWM_1.c **** *     - PWM_1_TRIG_FALLING   - Falling edge
1121:.\Generated_Source\PSoC4/PWM_1.c **** *     - PWM_1_TRIG_BOTH      - Both rising and falling edge
1122:.\Generated_Source\PSoC4/PWM_1.c **** *
1123:.\Generated_Source\PSoC4/PWM_1.c **** * Return:
1124:.\Generated_Source\PSoC4/PWM_1.c **** *  None
1125:.\Generated_Source\PSoC4/PWM_1.c **** *
1126:.\Generated_Source\PSoC4/PWM_1.c **** *******************************************************************************/
1127:.\Generated_Source\PSoC4/PWM_1.c **** void PWM_1_SetReloadMode(uint32 triggerMode)
1128:.\Generated_Source\PSoC4/PWM_1.c **** {
 973              		.loc 1 1128 0
 974              		.cfi_startproc
 975              	.LVL64:
 976 0000 10B5     		push	{r4, lr}
 977              		.cfi_def_cfa_offset 8
 978              		.cfi_offset 4, -8
 979              		.cfi_offset 14, -4
 980 0002 041C     		mov	r4, r0
1129:.\Generated_Source\PSoC4/PWM_1.c ****     uint8 enableInterrupts;
ARM GAS  C:\Users\g\AppData\Local\Temp\ccMxCaP9.s 			page 38


1130:.\Generated_Source\PSoC4/PWM_1.c **** 
1131:.\Generated_Source\PSoC4/PWM_1.c ****     enableInterrupts = CyEnterCriticalSection();
 981              		.loc 1 1131 0
 982 0004 FFF7FEFF 		bl	CyEnterCriticalSection
 983              	.LVL65:
1132:.\Generated_Source\PSoC4/PWM_1.c **** 
1133:.\Generated_Source\PSoC4/PWM_1.c ****     PWM_1_TRIG_CONTROL1_REG &= (uint32)~PWM_1_RELOAD_MASK;
 984              		.loc 1 1133 0
 985 0008 054B     		ldr	r3, .L83
 986 000a 1A68     		ldr	r2, [r3]
 987 000c 3021     		mov	r1, #48
 988 000e 8A43     		bic	r2, r1
 989 0010 1A60     		str	r2, [r3]
1134:.\Generated_Source\PSoC4/PWM_1.c ****     PWM_1_TRIG_CONTROL1_REG |= ((uint32)(triggerMode << PWM_1_RELOAD_SHIFT));
 990              		.loc 1 1134 0
 991 0012 1A68     		ldr	r2, [r3]
 992 0014 2401     		lsl	r4, r4, #4
 993              	.LVL66:
 994 0016 1443     		orr	r4, r2
 995 0018 1C60     		str	r4, [r3]
1135:.\Generated_Source\PSoC4/PWM_1.c **** 
1136:.\Generated_Source\PSoC4/PWM_1.c ****     CyExitCriticalSection(enableInterrupts);
 996              		.loc 1 1136 0
 997 001a FFF7FEFF 		bl	CyExitCriticalSection
 998              	.LVL67:
1137:.\Generated_Source\PSoC4/PWM_1.c **** }
 999              		.loc 1 1137 0
 1000              		@ sp needed
 1001 001e 10BD     		pop	{r4, pc}
 1002              	.L84:
 1003              		.align	2
 1004              	.L83:
 1005 0020 24010540 		.word	1074069796
 1006              		.cfi_endproc
 1007              	.LFE29:
 1008              		.size	PWM_1_SetReloadMode, .-PWM_1_SetReloadMode
 1009              		.section	.text.PWM_1_SetStartMode,"ax",%progbits
 1010              		.align	2
 1011              		.global	PWM_1_SetStartMode
 1012              		.code	16
 1013              		.thumb_func
 1014              		.type	PWM_1_SetStartMode, %function
 1015              	PWM_1_SetStartMode:
 1016              	.LFB30:
1138:.\Generated_Source\PSoC4/PWM_1.c **** 
1139:.\Generated_Source\PSoC4/PWM_1.c **** 
1140:.\Generated_Source\PSoC4/PWM_1.c **** /*******************************************************************************
1141:.\Generated_Source\PSoC4/PWM_1.c **** * Function Name: PWM_1_SetStartMode
1142:.\Generated_Source\PSoC4/PWM_1.c **** ********************************************************************************
1143:.\Generated_Source\PSoC4/PWM_1.c **** *
1144:.\Generated_Source\PSoC4/PWM_1.c **** * Summary:
1145:.\Generated_Source\PSoC4/PWM_1.c **** *  Sets the start trigger mode. For Quadrature Decoder mode this is the
1146:.\Generated_Source\PSoC4/PWM_1.c **** *  phiB input.
1147:.\Generated_Source\PSoC4/PWM_1.c **** *
1148:.\Generated_Source\PSoC4/PWM_1.c **** * Parameters:
1149:.\Generated_Source\PSoC4/PWM_1.c **** *  triggerMode: Enumerated trigger mode value
1150:.\Generated_Source\PSoC4/PWM_1.c **** *   Values:
ARM GAS  C:\Users\g\AppData\Local\Temp\ccMxCaP9.s 			page 39


1151:.\Generated_Source\PSoC4/PWM_1.c **** *     - PWM_1_TRIG_LEVEL     - Level
1152:.\Generated_Source\PSoC4/PWM_1.c **** *     - PWM_1_TRIG_RISING    - Rising edge
1153:.\Generated_Source\PSoC4/PWM_1.c **** *     - PWM_1_TRIG_FALLING   - Falling edge
1154:.\Generated_Source\PSoC4/PWM_1.c **** *     - PWM_1_TRIG_BOTH      - Both rising and falling edge
1155:.\Generated_Source\PSoC4/PWM_1.c **** *
1156:.\Generated_Source\PSoC4/PWM_1.c **** * Return:
1157:.\Generated_Source\PSoC4/PWM_1.c **** *  None
1158:.\Generated_Source\PSoC4/PWM_1.c **** *
1159:.\Generated_Source\PSoC4/PWM_1.c **** *******************************************************************************/
1160:.\Generated_Source\PSoC4/PWM_1.c **** void PWM_1_SetStartMode(uint32 triggerMode)
1161:.\Generated_Source\PSoC4/PWM_1.c **** {
 1017              		.loc 1 1161 0
 1018              		.cfi_startproc
 1019              	.LVL68:
 1020 0000 10B5     		push	{r4, lr}
 1021              		.cfi_def_cfa_offset 8
 1022              		.cfi_offset 4, -8
 1023              		.cfi_offset 14, -4
 1024 0002 041C     		mov	r4, r0
1162:.\Generated_Source\PSoC4/PWM_1.c ****     uint8 enableInterrupts;
1163:.\Generated_Source\PSoC4/PWM_1.c **** 
1164:.\Generated_Source\PSoC4/PWM_1.c ****     enableInterrupts = CyEnterCriticalSection();
 1025              		.loc 1 1164 0
 1026 0004 FFF7FEFF 		bl	CyEnterCriticalSection
 1027              	.LVL69:
1165:.\Generated_Source\PSoC4/PWM_1.c **** 
1166:.\Generated_Source\PSoC4/PWM_1.c ****     PWM_1_TRIG_CONTROL1_REG &= (uint32)~PWM_1_START_MASK;
 1028              		.loc 1 1166 0
 1029 0008 054B     		ldr	r3, .L86
 1030 000a 1968     		ldr	r1, [r3]
 1031 000c 054A     		ldr	r2, .L86+4
 1032 000e 0A40     		and	r2, r1
 1033 0010 1A60     		str	r2, [r3]
1167:.\Generated_Source\PSoC4/PWM_1.c ****     PWM_1_TRIG_CONTROL1_REG |= ((uint32)(triggerMode << PWM_1_START_SHIFT));
 1034              		.loc 1 1167 0
 1035 0012 1A68     		ldr	r2, [r3]
 1036 0014 2402     		lsl	r4, r4, #8
 1037              	.LVL70:
 1038 0016 1443     		orr	r4, r2
 1039 0018 1C60     		str	r4, [r3]
1168:.\Generated_Source\PSoC4/PWM_1.c **** 
1169:.\Generated_Source\PSoC4/PWM_1.c ****     CyExitCriticalSection(enableInterrupts);
 1040              		.loc 1 1169 0
 1041 001a FFF7FEFF 		bl	CyExitCriticalSection
 1042              	.LVL71:
1170:.\Generated_Source\PSoC4/PWM_1.c **** }
 1043              		.loc 1 1170 0
 1044              		@ sp needed
 1045 001e 10BD     		pop	{r4, pc}
 1046              	.L87:
 1047              		.align	2
 1048              	.L86:
 1049 0020 24010540 		.word	1074069796
 1050 0024 FFFCFFFF 		.word	-769
 1051              		.cfi_endproc
 1052              	.LFE30:
 1053              		.size	PWM_1_SetStartMode, .-PWM_1_SetStartMode
ARM GAS  C:\Users\g\AppData\Local\Temp\ccMxCaP9.s 			page 40


 1054              		.section	.text.PWM_1_SetStopMode,"ax",%progbits
 1055              		.align	2
 1056              		.global	PWM_1_SetStopMode
 1057              		.code	16
 1058              		.thumb_func
 1059              		.type	PWM_1_SetStopMode, %function
 1060              	PWM_1_SetStopMode:
 1061              	.LFB31:
1171:.\Generated_Source\PSoC4/PWM_1.c **** 
1172:.\Generated_Source\PSoC4/PWM_1.c **** 
1173:.\Generated_Source\PSoC4/PWM_1.c **** /*******************************************************************************
1174:.\Generated_Source\PSoC4/PWM_1.c **** * Function Name: PWM_1_SetStopMode
1175:.\Generated_Source\PSoC4/PWM_1.c **** ********************************************************************************
1176:.\Generated_Source\PSoC4/PWM_1.c **** *
1177:.\Generated_Source\PSoC4/PWM_1.c **** * Summary:
1178:.\Generated_Source\PSoC4/PWM_1.c **** *  Sets the stop trigger mode. For PWM mode this is the kill input.
1179:.\Generated_Source\PSoC4/PWM_1.c **** *
1180:.\Generated_Source\PSoC4/PWM_1.c **** * Parameters:
1181:.\Generated_Source\PSoC4/PWM_1.c **** *  triggerMode: Enumerated trigger mode value
1182:.\Generated_Source\PSoC4/PWM_1.c **** *   Values:
1183:.\Generated_Source\PSoC4/PWM_1.c **** *     - PWM_1_TRIG_LEVEL     - Level
1184:.\Generated_Source\PSoC4/PWM_1.c **** *     - PWM_1_TRIG_RISING    - Rising edge
1185:.\Generated_Source\PSoC4/PWM_1.c **** *     - PWM_1_TRIG_FALLING   - Falling edge
1186:.\Generated_Source\PSoC4/PWM_1.c **** *     - PWM_1_TRIG_BOTH      - Both rising and falling edge
1187:.\Generated_Source\PSoC4/PWM_1.c **** *
1188:.\Generated_Source\PSoC4/PWM_1.c **** * Return:
1189:.\Generated_Source\PSoC4/PWM_1.c **** *  None
1190:.\Generated_Source\PSoC4/PWM_1.c **** *
1191:.\Generated_Source\PSoC4/PWM_1.c **** *******************************************************************************/
1192:.\Generated_Source\PSoC4/PWM_1.c **** void PWM_1_SetStopMode(uint32 triggerMode)
1193:.\Generated_Source\PSoC4/PWM_1.c **** {
 1062              		.loc 1 1193 0
 1063              		.cfi_startproc
 1064              	.LVL72:
 1065 0000 10B5     		push	{r4, lr}
 1066              		.cfi_def_cfa_offset 8
 1067              		.cfi_offset 4, -8
 1068              		.cfi_offset 14, -4
 1069 0002 041C     		mov	r4, r0
1194:.\Generated_Source\PSoC4/PWM_1.c ****     uint8 enableInterrupts;
1195:.\Generated_Source\PSoC4/PWM_1.c **** 
1196:.\Generated_Source\PSoC4/PWM_1.c ****     enableInterrupts = CyEnterCriticalSection();
 1070              		.loc 1 1196 0
 1071 0004 FFF7FEFF 		bl	CyEnterCriticalSection
 1072              	.LVL73:
1197:.\Generated_Source\PSoC4/PWM_1.c **** 
1198:.\Generated_Source\PSoC4/PWM_1.c ****     PWM_1_TRIG_CONTROL1_REG &= (uint32)~PWM_1_STOP_MASK;
 1073              		.loc 1 1198 0
 1074 0008 054B     		ldr	r3, .L89
 1075 000a 1A68     		ldr	r2, [r3]
 1076 000c C021     		mov	r1, #192
 1077 000e 8A43     		bic	r2, r1
 1078 0010 1A60     		str	r2, [r3]
1199:.\Generated_Source\PSoC4/PWM_1.c ****     PWM_1_TRIG_CONTROL1_REG |= ((uint32)(triggerMode << PWM_1_STOP_SHIFT));
 1079              		.loc 1 1199 0
 1080 0012 1A68     		ldr	r2, [r3]
 1081 0014 A401     		lsl	r4, r4, #6
ARM GAS  C:\Users\g\AppData\Local\Temp\ccMxCaP9.s 			page 41


 1082              	.LVL74:
 1083 0016 1443     		orr	r4, r2
 1084 0018 1C60     		str	r4, [r3]
1200:.\Generated_Source\PSoC4/PWM_1.c **** 
1201:.\Generated_Source\PSoC4/PWM_1.c ****     CyExitCriticalSection(enableInterrupts);
 1085              		.loc 1 1201 0
 1086 001a FFF7FEFF 		bl	CyExitCriticalSection
 1087              	.LVL75:
1202:.\Generated_Source\PSoC4/PWM_1.c **** }
 1088              		.loc 1 1202 0
 1089              		@ sp needed
 1090 001e 10BD     		pop	{r4, pc}
 1091              	.L90:
 1092              		.align	2
 1093              	.L89:
 1094 0020 24010540 		.word	1074069796
 1095              		.cfi_endproc
 1096              	.LFE31:
 1097              		.size	PWM_1_SetStopMode, .-PWM_1_SetStopMode
 1098              		.section	.text.PWM_1_SetCountMode,"ax",%progbits
 1099              		.align	2
 1100              		.global	PWM_1_SetCountMode
 1101              		.code	16
 1102              		.thumb_func
 1103              		.type	PWM_1_SetCountMode, %function
 1104              	PWM_1_SetCountMode:
 1105              	.LFB32:
1203:.\Generated_Source\PSoC4/PWM_1.c **** 
1204:.\Generated_Source\PSoC4/PWM_1.c **** 
1205:.\Generated_Source\PSoC4/PWM_1.c **** /*******************************************************************************
1206:.\Generated_Source\PSoC4/PWM_1.c **** * Function Name: PWM_1_SetCountMode
1207:.\Generated_Source\PSoC4/PWM_1.c **** ********************************************************************************
1208:.\Generated_Source\PSoC4/PWM_1.c **** *
1209:.\Generated_Source\PSoC4/PWM_1.c **** * Summary:
1210:.\Generated_Source\PSoC4/PWM_1.c **** *  Sets the count trigger mode. For Quadrature Decoder mode this is the phiA
1211:.\Generated_Source\PSoC4/PWM_1.c **** *  input.
1212:.\Generated_Source\PSoC4/PWM_1.c **** *
1213:.\Generated_Source\PSoC4/PWM_1.c **** * Parameters:
1214:.\Generated_Source\PSoC4/PWM_1.c **** *  triggerMode: Enumerated trigger mode value
1215:.\Generated_Source\PSoC4/PWM_1.c **** *   Values:
1216:.\Generated_Source\PSoC4/PWM_1.c **** *     - PWM_1_TRIG_LEVEL     - Level
1217:.\Generated_Source\PSoC4/PWM_1.c **** *     - PWM_1_TRIG_RISING    - Rising edge
1218:.\Generated_Source\PSoC4/PWM_1.c **** *     - PWM_1_TRIG_FALLING   - Falling edge
1219:.\Generated_Source\PSoC4/PWM_1.c **** *     - PWM_1_TRIG_BOTH      - Both rising and falling edge
1220:.\Generated_Source\PSoC4/PWM_1.c **** *
1221:.\Generated_Source\PSoC4/PWM_1.c **** * Return:
1222:.\Generated_Source\PSoC4/PWM_1.c **** *  None
1223:.\Generated_Source\PSoC4/PWM_1.c **** *
1224:.\Generated_Source\PSoC4/PWM_1.c **** *******************************************************************************/
1225:.\Generated_Source\PSoC4/PWM_1.c **** void PWM_1_SetCountMode(uint32 triggerMode)
1226:.\Generated_Source\PSoC4/PWM_1.c **** {
 1106              		.loc 1 1226 0
 1107              		.cfi_startproc
 1108              	.LVL76:
 1109 0000 10B5     		push	{r4, lr}
 1110              		.cfi_def_cfa_offset 8
 1111              		.cfi_offset 4, -8
ARM GAS  C:\Users\g\AppData\Local\Temp\ccMxCaP9.s 			page 42


 1112              		.cfi_offset 14, -4
 1113 0002 041C     		mov	r4, r0
1227:.\Generated_Source\PSoC4/PWM_1.c ****     uint8 enableInterrupts;
1228:.\Generated_Source\PSoC4/PWM_1.c **** 
1229:.\Generated_Source\PSoC4/PWM_1.c ****     enableInterrupts = CyEnterCriticalSection();
 1114              		.loc 1 1229 0
 1115 0004 FFF7FEFF 		bl	CyEnterCriticalSection
 1116              	.LVL77:
1230:.\Generated_Source\PSoC4/PWM_1.c **** 
1231:.\Generated_Source\PSoC4/PWM_1.c ****     PWM_1_TRIG_CONTROL1_REG &= (uint32)~PWM_1_COUNT_MASK;
 1117              		.loc 1 1231 0
 1118 0008 054B     		ldr	r3, .L92
 1119 000a 1A68     		ldr	r2, [r3]
 1120 000c 0C21     		mov	r1, #12
 1121 000e 8A43     		bic	r2, r1
 1122 0010 1A60     		str	r2, [r3]
1232:.\Generated_Source\PSoC4/PWM_1.c ****     PWM_1_TRIG_CONTROL1_REG |= ((uint32)(triggerMode << PWM_1_COUNT_SHIFT));
 1123              		.loc 1 1232 0
 1124 0012 1A68     		ldr	r2, [r3]
 1125 0014 A400     		lsl	r4, r4, #2
 1126              	.LVL78:
 1127 0016 1443     		orr	r4, r2
 1128 0018 1C60     		str	r4, [r3]
1233:.\Generated_Source\PSoC4/PWM_1.c **** 
1234:.\Generated_Source\PSoC4/PWM_1.c ****     CyExitCriticalSection(enableInterrupts);
 1129              		.loc 1 1234 0
 1130 001a FFF7FEFF 		bl	CyExitCriticalSection
 1131              	.LVL79:
1235:.\Generated_Source\PSoC4/PWM_1.c **** }
 1132              		.loc 1 1235 0
 1133              		@ sp needed
 1134 001e 10BD     		pop	{r4, pc}
 1135              	.L93:
 1136              		.align	2
 1137              	.L92:
 1138 0020 24010540 		.word	1074069796
 1139              		.cfi_endproc
 1140              	.LFE32:
 1141              		.size	PWM_1_SetCountMode, .-PWM_1_SetCountMode
 1142              		.section	.text.PWM_1_TriggerCommand,"ax",%progbits
 1143              		.align	2
 1144              		.global	PWM_1_TriggerCommand
 1145              		.code	16
 1146              		.thumb_func
 1147              		.type	PWM_1_TriggerCommand, %function
 1148              	PWM_1_TriggerCommand:
 1149              	.LFB33:
1236:.\Generated_Source\PSoC4/PWM_1.c **** 
1237:.\Generated_Source\PSoC4/PWM_1.c **** 
1238:.\Generated_Source\PSoC4/PWM_1.c **** /*******************************************************************************
1239:.\Generated_Source\PSoC4/PWM_1.c **** * Function Name: PWM_1_TriggerCommand
1240:.\Generated_Source\PSoC4/PWM_1.c **** ********************************************************************************
1241:.\Generated_Source\PSoC4/PWM_1.c **** *
1242:.\Generated_Source\PSoC4/PWM_1.c **** * Summary:
1243:.\Generated_Source\PSoC4/PWM_1.c **** *  Triggers the designated command to occur on the designated TCPWM instances.
1244:.\Generated_Source\PSoC4/PWM_1.c **** *  The mask can be used to apply this command simultaneously to more than one
1245:.\Generated_Source\PSoC4/PWM_1.c **** *  instance.  This allows multiple TCPWM instances to be synchronized.
ARM GAS  C:\Users\g\AppData\Local\Temp\ccMxCaP9.s 			page 43


1246:.\Generated_Source\PSoC4/PWM_1.c **** *
1247:.\Generated_Source\PSoC4/PWM_1.c **** * Parameters:
1248:.\Generated_Source\PSoC4/PWM_1.c **** *  mask: A combination of mask bits for each instance of the TCPWM that the
1249:.\Generated_Source\PSoC4/PWM_1.c **** *        command should apply to.  This function from one instance can be used
1250:.\Generated_Source\PSoC4/PWM_1.c **** *        to apply the command to any of the instances in the design.
1251:.\Generated_Source\PSoC4/PWM_1.c **** *        The mask value for a specific instance is available with the MASK
1252:.\Generated_Source\PSoC4/PWM_1.c **** *        define.
1253:.\Generated_Source\PSoC4/PWM_1.c **** *  command: Enumerated command values. Capture command only applicable for
1254:.\Generated_Source\PSoC4/PWM_1.c **** *           Timer/Counter with Capture and PWM modes.
1255:.\Generated_Source\PSoC4/PWM_1.c **** *   Values:
1256:.\Generated_Source\PSoC4/PWM_1.c **** *     - PWM_1_CMD_CAPTURE    - Trigger Capture/Switch command
1257:.\Generated_Source\PSoC4/PWM_1.c **** *     - PWM_1_CMD_RELOAD     - Trigger Reload/Index command
1258:.\Generated_Source\PSoC4/PWM_1.c **** *     - PWM_1_CMD_STOP       - Trigger Stop/Kill command
1259:.\Generated_Source\PSoC4/PWM_1.c **** *     - PWM_1_CMD_START      - Trigger Start/phiB command
1260:.\Generated_Source\PSoC4/PWM_1.c **** *
1261:.\Generated_Source\PSoC4/PWM_1.c **** * Return:
1262:.\Generated_Source\PSoC4/PWM_1.c **** *  None
1263:.\Generated_Source\PSoC4/PWM_1.c **** *
1264:.\Generated_Source\PSoC4/PWM_1.c **** *******************************************************************************/
1265:.\Generated_Source\PSoC4/PWM_1.c **** void PWM_1_TriggerCommand(uint32 mask, uint32 command)
1266:.\Generated_Source\PSoC4/PWM_1.c **** {
 1150              		.loc 1 1266 0
 1151              		.cfi_startproc
 1152              	.LVL80:
 1153 0000 38B5     		push	{r3, r4, r5, lr}
 1154              		.cfi_def_cfa_offset 16
 1155              		.cfi_offset 3, -16
 1156              		.cfi_offset 4, -12
 1157              		.cfi_offset 5, -8
 1158              		.cfi_offset 14, -4
 1159 0002 041C     		mov	r4, r0
 1160 0004 0D1C     		mov	r5, r1
1267:.\Generated_Source\PSoC4/PWM_1.c ****     uint8 enableInterrupts;
1268:.\Generated_Source\PSoC4/PWM_1.c **** 
1269:.\Generated_Source\PSoC4/PWM_1.c ****     enableInterrupts = CyEnterCriticalSection();
 1161              		.loc 1 1269 0
 1162 0006 FFF7FEFF 		bl	CyEnterCriticalSection
 1163              	.LVL81:
1270:.\Generated_Source\PSoC4/PWM_1.c **** 
1271:.\Generated_Source\PSoC4/PWM_1.c ****     PWM_1_COMMAND_REG = ((uint32)(mask << command));
 1164              		.loc 1 1271 0
 1165 000a AC40     		lsl	r4, r4, r5
 1166              	.LVL82:
 1167 000c 024B     		ldr	r3, .L95
 1168 000e 1C60     		str	r4, [r3]
1272:.\Generated_Source\PSoC4/PWM_1.c **** 
1273:.\Generated_Source\PSoC4/PWM_1.c ****     CyExitCriticalSection(enableInterrupts);
 1169              		.loc 1 1273 0
 1170 0010 FFF7FEFF 		bl	CyExitCriticalSection
 1171              	.LVL83:
1274:.\Generated_Source\PSoC4/PWM_1.c **** }
 1172              		.loc 1 1274 0
 1173              		@ sp needed
 1174              	.LVL84:
 1175 0014 38BD     		pop	{r3, r4, r5, pc}
 1176              	.L96:
 1177 0016 C046     		.align	2
ARM GAS  C:\Users\g\AppData\Local\Temp\ccMxCaP9.s 			page 44


 1178              	.L95:
 1179 0018 08000540 		.word	1074069512
 1180              		.cfi_endproc
 1181              	.LFE33:
 1182              		.size	PWM_1_TriggerCommand, .-PWM_1_TriggerCommand
 1183              		.section	.text.PWM_1_ReadStatus,"ax",%progbits
 1184              		.align	2
 1185              		.global	PWM_1_ReadStatus
 1186              		.code	16
 1187              		.thumb_func
 1188              		.type	PWM_1_ReadStatus, %function
 1189              	PWM_1_ReadStatus:
 1190              	.LFB34:
1275:.\Generated_Source\PSoC4/PWM_1.c **** 
1276:.\Generated_Source\PSoC4/PWM_1.c **** 
1277:.\Generated_Source\PSoC4/PWM_1.c **** /*******************************************************************************
1278:.\Generated_Source\PSoC4/PWM_1.c **** * Function Name: PWM_1_ReadStatus
1279:.\Generated_Source\PSoC4/PWM_1.c **** ********************************************************************************
1280:.\Generated_Source\PSoC4/PWM_1.c **** *
1281:.\Generated_Source\PSoC4/PWM_1.c **** * Summary:
1282:.\Generated_Source\PSoC4/PWM_1.c **** *  Reads the status of the PWM_1.
1283:.\Generated_Source\PSoC4/PWM_1.c **** *
1284:.\Generated_Source\PSoC4/PWM_1.c **** * Parameters:
1285:.\Generated_Source\PSoC4/PWM_1.c **** *  None
1286:.\Generated_Source\PSoC4/PWM_1.c **** *
1287:.\Generated_Source\PSoC4/PWM_1.c **** * Return:
1288:.\Generated_Source\PSoC4/PWM_1.c **** *  Status
1289:.\Generated_Source\PSoC4/PWM_1.c **** *   Values:
1290:.\Generated_Source\PSoC4/PWM_1.c **** *     - PWM_1_STATUS_DOWN    - Set if counting down
1291:.\Generated_Source\PSoC4/PWM_1.c **** *     - PWM_1_STATUS_RUNNING - Set if counter is running
1292:.\Generated_Source\PSoC4/PWM_1.c **** *
1293:.\Generated_Source\PSoC4/PWM_1.c **** *******************************************************************************/
1294:.\Generated_Source\PSoC4/PWM_1.c **** uint32 PWM_1_ReadStatus(void)
1295:.\Generated_Source\PSoC4/PWM_1.c **** {
 1191              		.loc 1 1295 0
 1192              		.cfi_startproc
1296:.\Generated_Source\PSoC4/PWM_1.c ****     return ((PWM_1_STATUS_REG >> PWM_1_RUNNING_STATUS_SHIFT) |
 1193              		.loc 1 1296 0
 1194 0000 034B     		ldr	r3, .L98
 1195 0002 1868     		ldr	r0, [r3]
 1196 0004 820F     		lsr	r2, r0, #30
1297:.\Generated_Source\PSoC4/PWM_1.c ****             (PWM_1_STATUS_REG & PWM_1_STATUS_DOWN));
 1197              		.loc 1 1297 0
 1198 0006 1B68     		ldr	r3, [r3]
 1199 0008 0120     		mov	r0, #1
 1200 000a 1840     		and	r0, r3
1296:.\Generated_Source\PSoC4/PWM_1.c ****     return ((PWM_1_STATUS_REG >> PWM_1_RUNNING_STATUS_SHIFT) |
 1201              		.loc 1 1296 0
 1202 000c 1043     		orr	r0, r2
1298:.\Generated_Source\PSoC4/PWM_1.c **** }
 1203              		.loc 1 1298 0
 1204              		@ sp needed
 1205 000e 7047     		bx	lr
 1206              	.L99:
 1207              		.align	2
 1208              	.L98:
 1209 0010 04010540 		.word	1074069764
ARM GAS  C:\Users\g\AppData\Local\Temp\ccMxCaP9.s 			page 45


 1210              		.cfi_endproc
 1211              	.LFE34:
 1212              		.size	PWM_1_ReadStatus, .-PWM_1_ReadStatus
 1213              		.section	.text.PWM_1_SetInterruptMode,"ax",%progbits
 1214              		.align	2
 1215              		.global	PWM_1_SetInterruptMode
 1216              		.code	16
 1217              		.thumb_func
 1218              		.type	PWM_1_SetInterruptMode, %function
 1219              	PWM_1_SetInterruptMode:
 1220              	.LFB35:
1299:.\Generated_Source\PSoC4/PWM_1.c **** 
1300:.\Generated_Source\PSoC4/PWM_1.c **** 
1301:.\Generated_Source\PSoC4/PWM_1.c **** /*******************************************************************************
1302:.\Generated_Source\PSoC4/PWM_1.c **** * Function Name: PWM_1_SetInterruptMode
1303:.\Generated_Source\PSoC4/PWM_1.c **** ********************************************************************************
1304:.\Generated_Source\PSoC4/PWM_1.c **** *
1305:.\Generated_Source\PSoC4/PWM_1.c **** * Summary:
1306:.\Generated_Source\PSoC4/PWM_1.c **** *  Sets the interrupt mask to control which interrupt
1307:.\Generated_Source\PSoC4/PWM_1.c **** *  requests generate the interrupt signal.
1308:.\Generated_Source\PSoC4/PWM_1.c **** *
1309:.\Generated_Source\PSoC4/PWM_1.c **** * Parameters:
1310:.\Generated_Source\PSoC4/PWM_1.c **** *   interruptMask: Mask of bits to be enabled
1311:.\Generated_Source\PSoC4/PWM_1.c **** *   Values:
1312:.\Generated_Source\PSoC4/PWM_1.c **** *     - PWM_1_INTR_MASK_TC       - Terminal count mask
1313:.\Generated_Source\PSoC4/PWM_1.c **** *     - PWM_1_INTR_MASK_CC_MATCH - Compare count / capture mask
1314:.\Generated_Source\PSoC4/PWM_1.c **** *
1315:.\Generated_Source\PSoC4/PWM_1.c **** * Return:
1316:.\Generated_Source\PSoC4/PWM_1.c **** *  None
1317:.\Generated_Source\PSoC4/PWM_1.c **** *
1318:.\Generated_Source\PSoC4/PWM_1.c **** *******************************************************************************/
1319:.\Generated_Source\PSoC4/PWM_1.c **** void PWM_1_SetInterruptMode(uint32 interruptMask)
1320:.\Generated_Source\PSoC4/PWM_1.c **** {
 1221              		.loc 1 1320 0
 1222              		.cfi_startproc
 1223              	.LVL85:
1321:.\Generated_Source\PSoC4/PWM_1.c ****     PWM_1_INTERRUPT_MASK_REG =  interruptMask;
 1224              		.loc 1 1321 0
 1225 0000 014B     		ldr	r3, .L101
 1226 0002 1860     		str	r0, [r3]
1322:.\Generated_Source\PSoC4/PWM_1.c **** }
 1227              		.loc 1 1322 0
 1228              		@ sp needed
 1229 0004 7047     		bx	lr
 1230              	.L102:
 1231 0006 C046     		.align	2
 1232              	.L101:
 1233 0008 38010540 		.word	1074069816
 1234              		.cfi_endproc
 1235              	.LFE35:
 1236              		.size	PWM_1_SetInterruptMode, .-PWM_1_SetInterruptMode
 1237              		.section	.text.PWM_1_Init,"ax",%progbits
 1238              		.align	2
 1239              		.global	PWM_1_Init
 1240              		.code	16
 1241              		.thumb_func
 1242              		.type	PWM_1_Init, %function
ARM GAS  C:\Users\g\AppData\Local\Temp\ccMxCaP9.s 			page 46


 1243              	PWM_1_Init:
 1244              	.LFB0:
  39:.\Generated_Source\PSoC4/PWM_1.c **** 
 1245              		.loc 1 39 0
 1246              		.cfi_startproc
 1247 0000 38B5     		push	{r3, r4, r5, lr}
 1248              		.cfi_def_cfa_offset 16
 1249              		.cfi_offset 3, -16
 1250              		.cfi_offset 4, -12
 1251              		.cfi_offset 5, -8
 1252              		.cfi_offset 14, -4
  89:.\Generated_Source\PSoC4/PWM_1.c **** 
 1253              		.loc 1 89 0
 1254 0002 114C     		ldr	r4, .L104
 1255 0004 8023     		mov	r3, #128
 1256 0006 DB04     		lsl	r3, r3, #19
 1257 0008 2360     		str	r3, [r4]
  95:.\Generated_Source\PSoC4/PWM_1.c ****             
 1258              		.loc 1 95 0
 1259 000a 2368     		ldr	r3, [r4]
 1260 000c 8022     		mov	r2, #128
 1261 000e 5202     		lsl	r2, r2, #9
 1262 0010 1343     		orr	r3, r2
 1263 0012 2360     		str	r3, [r4]
 101:.\Generated_Source\PSoC4/PWM_1.c ****             #else 
 1264              		.loc 1 101 0
 1265 0014 0D4D     		ldr	r5, .L104+4
 1266 0016 281C     		mov	r0, r5
 1267 0018 FFF7FEFF 		bl	PWM_1_WriteCounter
 1268              	.LVL86:
 112:.\Generated_Source\PSoC4/PWM_1.c ****         #endif  /* (PWM_1__PWM == PWM_1_PWM_MODE) */
 1269              		.loc 1 112 0
 1270 001c 2368     		ldr	r3, [r4]
 1271 001e A022     		mov	r2, #160
 1272 0020 D200     		lsl	r2, r2, #3
 1273 0022 1343     		orr	r3, r2
 1274 0024 2360     		str	r3, [r4]
 116:.\Generated_Source\PSoC4/PWM_1.c ****     
 1275              		.loc 1 116 0
 1276 0026 0C22     		mov	r2, #12
 1277 0028 094B     		ldr	r3, .L104+8
 1278 002a 1A60     		str	r2, [r3]
 119:.\Generated_Source\PSoC4/PWM_1.c **** 
 1279              		.loc 1 119 0
 1280 002c 0020     		mov	r0, #0
 1281 002e FFF7FEFF 		bl	PWM_1_SetInterruptMode
 1282              	.LVL87:
 133:.\Generated_Source\PSoC4/PWM_1.c ****             #endif  /* ( PWM_1_PWM_RIGHT == PWM_1_PWM_ALIGN) */
 1283              		.loc 1 133 0
 1284 0032 1C22     		mov	r2, #28
 1285 0034 074B     		ldr	r3, .L104+12
 1286 0036 1A60     		str	r2, [r3]
 146:.\Generated_Source\PSoC4/PWM_1.c ****         PWM_1_WriteCompare(PWM_1_PWM_COMPARE_VALUE);
 1287              		.loc 1 146 0
 1288 0038 281C     		mov	r0, r5
 1289 003a FFF7FEFF 		bl	PWM_1_WritePeriod
 1290              	.LVL88:
ARM GAS  C:\Users\g\AppData\Local\Temp\ccMxCaP9.s 			page 47


 147:.\Generated_Source\PSoC4/PWM_1.c **** 
 1291              		.loc 1 147 0
 1292 003e 0648     		ldr	r0, .L104+16
 1293 0040 FFF7FEFF 		bl	PWM_1_WriteCompare
 1294              	.LVL89:
 160:.\Generated_Source\PSoC4/PWM_1.c **** 
 1295              		.loc 1 160 0
 1296              		@ sp needed
 1297 0044 38BD     		pop	{r3, r4, r5, pc}
 1298              	.L105:
 1299 0046 C046     		.align	2
 1300              	.L104:
 1301 0048 00010540 		.word	1074069760
 1302 004c 10270000 		.word	10000
 1303 0050 24010540 		.word	1074069796
 1304 0054 28010540 		.word	1074069800
 1305 0058 88130000 		.word	5000
 1306              		.cfi_endproc
 1307              	.LFE0:
 1308              		.size	PWM_1_Init, .-PWM_1_Init
 1309              		.section	.text.PWM_1_Start,"ax",%progbits
 1310              		.align	2
 1311              		.global	PWM_1_Start
 1312              		.code	16
 1313              		.thumb_func
 1314              		.type	PWM_1_Start, %function
 1315              	PWM_1_Start:
 1316              	.LFB2:
 231:.\Generated_Source\PSoC4/PWM_1.c ****     if (0u == PWM_1_initVar)
 1317              		.loc 1 231 0
 1318              		.cfi_startproc
 1319 0000 08B5     		push	{r3, lr}
 1320              		.cfi_def_cfa_offset 8
 1321              		.cfi_offset 3, -8
 1322              		.cfi_offset 14, -4
 232:.\Generated_Source\PSoC4/PWM_1.c ****     {
 1323              		.loc 1 232 0
 1324 0002 064B     		ldr	r3, .L108
 1325 0004 1B78     		ldrb	r3, [r3]
 1326 0006 002B     		cmp	r3, #0
 1327 0008 04D1     		bne	.L107
 234:.\Generated_Source\PSoC4/PWM_1.c ****         PWM_1_initVar = 1u;
 1328              		.loc 1 234 0
 1329 000a FFF7FEFF 		bl	PWM_1_Init
 1330              	.LVL90:
 235:.\Generated_Source\PSoC4/PWM_1.c ****     }
 1331              		.loc 1 235 0
 1332 000e 0122     		mov	r2, #1
 1333 0010 024B     		ldr	r3, .L108
 1334 0012 1A70     		strb	r2, [r3]
 1335              	.L107:
 238:.\Generated_Source\PSoC4/PWM_1.c **** }
 1336              		.loc 1 238 0
 1337 0014 FFF7FEFF 		bl	PWM_1_Enable
 1338              	.LVL91:
 239:.\Generated_Source\PSoC4/PWM_1.c **** 
 1339              		.loc 1 239 0
ARM GAS  C:\Users\g\AppData\Local\Temp\ccMxCaP9.s 			page 48


 1340              		@ sp needed
 1341 0018 08BD     		pop	{r3, pc}
 1342              	.L109:
 1343 001a C046     		.align	2
 1344              	.L108:
 1345 001c 00000000 		.word	.LANCHOR0
 1346              		.cfi_endproc
 1347              	.LFE2:
 1348              		.size	PWM_1_Start, .-PWM_1_Start
 1349              		.section	.text.PWM_1_GetInterruptSourceMasked,"ax",%progbits
 1350              		.align	2
 1351              		.global	PWM_1_GetInterruptSourceMasked
 1352              		.code	16
 1353              		.thumb_func
 1354              		.type	PWM_1_GetInterruptSourceMasked, %function
 1355              	PWM_1_GetInterruptSourceMasked:
 1356              	.LFB36:
1323:.\Generated_Source\PSoC4/PWM_1.c **** 
1324:.\Generated_Source\PSoC4/PWM_1.c **** 
1325:.\Generated_Source\PSoC4/PWM_1.c **** /*******************************************************************************
1326:.\Generated_Source\PSoC4/PWM_1.c **** * Function Name: PWM_1_GetInterruptSourceMasked
1327:.\Generated_Source\PSoC4/PWM_1.c **** ********************************************************************************
1328:.\Generated_Source\PSoC4/PWM_1.c **** *
1329:.\Generated_Source\PSoC4/PWM_1.c **** * Summary:
1330:.\Generated_Source\PSoC4/PWM_1.c **** *  Gets the interrupt requests masked by the interrupt mask.
1331:.\Generated_Source\PSoC4/PWM_1.c **** *
1332:.\Generated_Source\PSoC4/PWM_1.c **** * Parameters:
1333:.\Generated_Source\PSoC4/PWM_1.c **** *   None
1334:.\Generated_Source\PSoC4/PWM_1.c **** *
1335:.\Generated_Source\PSoC4/PWM_1.c **** * Return:
1336:.\Generated_Source\PSoC4/PWM_1.c **** *  Masked interrupt source
1337:.\Generated_Source\PSoC4/PWM_1.c **** *   Values:
1338:.\Generated_Source\PSoC4/PWM_1.c **** *     - PWM_1_INTR_MASK_TC       - Terminal count mask
1339:.\Generated_Source\PSoC4/PWM_1.c **** *     - PWM_1_INTR_MASK_CC_MATCH - Compare count / capture mask
1340:.\Generated_Source\PSoC4/PWM_1.c **** *
1341:.\Generated_Source\PSoC4/PWM_1.c **** *******************************************************************************/
1342:.\Generated_Source\PSoC4/PWM_1.c **** uint32 PWM_1_GetInterruptSourceMasked(void)
1343:.\Generated_Source\PSoC4/PWM_1.c **** {
 1357              		.loc 1 1343 0
 1358              		.cfi_startproc
1344:.\Generated_Source\PSoC4/PWM_1.c ****     return (PWM_1_INTERRUPT_MASKED_REG);
 1359              		.loc 1 1344 0
 1360 0000 014B     		ldr	r3, .L111
 1361 0002 1868     		ldr	r0, [r3]
1345:.\Generated_Source\PSoC4/PWM_1.c **** }
 1362              		.loc 1 1345 0
 1363              		@ sp needed
 1364 0004 7047     		bx	lr
 1365              	.L112:
 1366 0006 C046     		.align	2
 1367              	.L111:
 1368 0008 3C010540 		.word	1074069820
 1369              		.cfi_endproc
 1370              	.LFE36:
 1371              		.size	PWM_1_GetInterruptSourceMasked, .-PWM_1_GetInterruptSourceMasked
 1372              		.section	.text.PWM_1_GetInterruptSource,"ax",%progbits
 1373              		.align	2
ARM GAS  C:\Users\g\AppData\Local\Temp\ccMxCaP9.s 			page 49


 1374              		.global	PWM_1_GetInterruptSource
 1375              		.code	16
 1376              		.thumb_func
 1377              		.type	PWM_1_GetInterruptSource, %function
 1378              	PWM_1_GetInterruptSource:
 1379              	.LFB37:
1346:.\Generated_Source\PSoC4/PWM_1.c **** 
1347:.\Generated_Source\PSoC4/PWM_1.c **** 
1348:.\Generated_Source\PSoC4/PWM_1.c **** /*******************************************************************************
1349:.\Generated_Source\PSoC4/PWM_1.c **** * Function Name: PWM_1_GetInterruptSource
1350:.\Generated_Source\PSoC4/PWM_1.c **** ********************************************************************************
1351:.\Generated_Source\PSoC4/PWM_1.c **** *
1352:.\Generated_Source\PSoC4/PWM_1.c **** * Summary:
1353:.\Generated_Source\PSoC4/PWM_1.c **** *  Gets the interrupt requests (without masking).
1354:.\Generated_Source\PSoC4/PWM_1.c **** *
1355:.\Generated_Source\PSoC4/PWM_1.c **** * Parameters:
1356:.\Generated_Source\PSoC4/PWM_1.c **** *  None
1357:.\Generated_Source\PSoC4/PWM_1.c **** *
1358:.\Generated_Source\PSoC4/PWM_1.c **** * Return:
1359:.\Generated_Source\PSoC4/PWM_1.c **** *  Interrupt request value
1360:.\Generated_Source\PSoC4/PWM_1.c **** *   Values:
1361:.\Generated_Source\PSoC4/PWM_1.c **** *     - PWM_1_INTR_MASK_TC       - Terminal count mask
1362:.\Generated_Source\PSoC4/PWM_1.c **** *     - PWM_1_INTR_MASK_CC_MATCH - Compare count / capture mask
1363:.\Generated_Source\PSoC4/PWM_1.c **** *
1364:.\Generated_Source\PSoC4/PWM_1.c **** *******************************************************************************/
1365:.\Generated_Source\PSoC4/PWM_1.c **** uint32 PWM_1_GetInterruptSource(void)
1366:.\Generated_Source\PSoC4/PWM_1.c **** {
 1380              		.loc 1 1366 0
 1381              		.cfi_startproc
1367:.\Generated_Source\PSoC4/PWM_1.c ****     return (PWM_1_INTERRUPT_REQ_REG);
 1382              		.loc 1 1367 0
 1383 0000 014B     		ldr	r3, .L114
 1384 0002 1868     		ldr	r0, [r3]
1368:.\Generated_Source\PSoC4/PWM_1.c **** }
 1385              		.loc 1 1368 0
 1386              		@ sp needed
 1387 0004 7047     		bx	lr
 1388              	.L115:
 1389 0006 C046     		.align	2
 1390              	.L114:
 1391 0008 30010540 		.word	1074069808
 1392              		.cfi_endproc
 1393              	.LFE37:
 1394              		.size	PWM_1_GetInterruptSource, .-PWM_1_GetInterruptSource
 1395              		.section	.text.PWM_1_ClearInterrupt,"ax",%progbits
 1396              		.align	2
 1397              		.global	PWM_1_ClearInterrupt
 1398              		.code	16
 1399              		.thumb_func
 1400              		.type	PWM_1_ClearInterrupt, %function
 1401              	PWM_1_ClearInterrupt:
 1402              	.LFB38:
1369:.\Generated_Source\PSoC4/PWM_1.c **** 
1370:.\Generated_Source\PSoC4/PWM_1.c **** 
1371:.\Generated_Source\PSoC4/PWM_1.c **** /*******************************************************************************
1372:.\Generated_Source\PSoC4/PWM_1.c **** * Function Name: PWM_1_ClearInterrupt
1373:.\Generated_Source\PSoC4/PWM_1.c **** ********************************************************************************
ARM GAS  C:\Users\g\AppData\Local\Temp\ccMxCaP9.s 			page 50


1374:.\Generated_Source\PSoC4/PWM_1.c **** *
1375:.\Generated_Source\PSoC4/PWM_1.c **** * Summary:
1376:.\Generated_Source\PSoC4/PWM_1.c **** *  Clears the interrupt request.
1377:.\Generated_Source\PSoC4/PWM_1.c **** *
1378:.\Generated_Source\PSoC4/PWM_1.c **** * Parameters:
1379:.\Generated_Source\PSoC4/PWM_1.c **** *   interruptMask: Mask of interrupts to clear
1380:.\Generated_Source\PSoC4/PWM_1.c **** *   Values:
1381:.\Generated_Source\PSoC4/PWM_1.c **** *     - PWM_1_INTR_MASK_TC       - Terminal count mask
1382:.\Generated_Source\PSoC4/PWM_1.c **** *     - PWM_1_INTR_MASK_CC_MATCH - Compare count / capture mask
1383:.\Generated_Source\PSoC4/PWM_1.c **** *
1384:.\Generated_Source\PSoC4/PWM_1.c **** * Return:
1385:.\Generated_Source\PSoC4/PWM_1.c **** *  None
1386:.\Generated_Source\PSoC4/PWM_1.c **** *
1387:.\Generated_Source\PSoC4/PWM_1.c **** *******************************************************************************/
1388:.\Generated_Source\PSoC4/PWM_1.c **** void PWM_1_ClearInterrupt(uint32 interruptMask)
1389:.\Generated_Source\PSoC4/PWM_1.c **** {
 1403              		.loc 1 1389 0
 1404              		.cfi_startproc
 1405              	.LVL92:
1390:.\Generated_Source\PSoC4/PWM_1.c ****     PWM_1_INTERRUPT_REQ_REG = interruptMask;
 1406              		.loc 1 1390 0
 1407 0000 014B     		ldr	r3, .L117
 1408 0002 1860     		str	r0, [r3]
1391:.\Generated_Source\PSoC4/PWM_1.c **** }
 1409              		.loc 1 1391 0
 1410              		@ sp needed
 1411 0004 7047     		bx	lr
 1412              	.L118:
 1413 0006 C046     		.align	2
 1414              	.L117:
 1415 0008 30010540 		.word	1074069808
 1416              		.cfi_endproc
 1417              	.LFE38:
 1418              		.size	PWM_1_ClearInterrupt, .-PWM_1_ClearInterrupt
 1419              		.section	.text.PWM_1_SetInterrupt,"ax",%progbits
 1420              		.align	2
 1421              		.global	PWM_1_SetInterrupt
 1422              		.code	16
 1423              		.thumb_func
 1424              		.type	PWM_1_SetInterrupt, %function
 1425              	PWM_1_SetInterrupt:
 1426              	.LFB39:
1392:.\Generated_Source\PSoC4/PWM_1.c **** 
1393:.\Generated_Source\PSoC4/PWM_1.c **** 
1394:.\Generated_Source\PSoC4/PWM_1.c **** /*******************************************************************************
1395:.\Generated_Source\PSoC4/PWM_1.c **** * Function Name: PWM_1_SetInterrupt
1396:.\Generated_Source\PSoC4/PWM_1.c **** ********************************************************************************
1397:.\Generated_Source\PSoC4/PWM_1.c **** *
1398:.\Generated_Source\PSoC4/PWM_1.c **** * Summary:
1399:.\Generated_Source\PSoC4/PWM_1.c **** *  Sets a software interrupt request.
1400:.\Generated_Source\PSoC4/PWM_1.c **** *
1401:.\Generated_Source\PSoC4/PWM_1.c **** * Parameters:
1402:.\Generated_Source\PSoC4/PWM_1.c **** *   interruptMask: Mask of interrupts to set
1403:.\Generated_Source\PSoC4/PWM_1.c **** *   Values:
1404:.\Generated_Source\PSoC4/PWM_1.c **** *     - PWM_1_INTR_MASK_TC       - Terminal count mask
1405:.\Generated_Source\PSoC4/PWM_1.c **** *     - PWM_1_INTR_MASK_CC_MATCH - Compare count / capture mask
1406:.\Generated_Source\PSoC4/PWM_1.c **** *
ARM GAS  C:\Users\g\AppData\Local\Temp\ccMxCaP9.s 			page 51


1407:.\Generated_Source\PSoC4/PWM_1.c **** * Return:
1408:.\Generated_Source\PSoC4/PWM_1.c **** *  None
1409:.\Generated_Source\PSoC4/PWM_1.c **** *
1410:.\Generated_Source\PSoC4/PWM_1.c **** *******************************************************************************/
1411:.\Generated_Source\PSoC4/PWM_1.c **** void PWM_1_SetInterrupt(uint32 interruptMask)
1412:.\Generated_Source\PSoC4/PWM_1.c **** {
 1427              		.loc 1 1412 0
 1428              		.cfi_startproc
 1429              	.LVL93:
1413:.\Generated_Source\PSoC4/PWM_1.c ****     PWM_1_INTERRUPT_SET_REG = interruptMask;
 1430              		.loc 1 1413 0
 1431 0000 014B     		ldr	r3, .L120
 1432 0002 1860     		str	r0, [r3]
1414:.\Generated_Source\PSoC4/PWM_1.c **** }
 1433              		.loc 1 1414 0
 1434              		@ sp needed
 1435 0004 7047     		bx	lr
 1436              	.L121:
 1437 0006 C046     		.align	2
 1438              	.L120:
 1439 0008 34010540 		.word	1074069812
 1440              		.cfi_endproc
 1441              	.LFE39:
 1442              		.size	PWM_1_SetInterrupt, .-PWM_1_SetInterrupt
 1443              		.global	PWM_1_initVar
 1444              		.bss
 1445              		.set	.LANCHOR0,. + 0
 1446              		.type	PWM_1_initVar, %object
 1447              		.size	PWM_1_initVar, 1
 1448              	PWM_1_initVar:
 1449 0000 00       		.space	1
 1450              		.text
 1451              	.Letext0:
 1452              		.file 2 ".\\Generated_Source\\PSoC4\\cytypes.h"
 1453              		.file 3 ".\\Generated_Source\\PSoC4\\CyLib.h"